L251 LINKER/LOCATER V4.66.93.0                                                          03/25/2026  13:05:55  PAGE 1


L251 LINKER/LOCATER V4.66.93.0, INVOKED BY:
D:\KEIL5\C251\BIN\L251.EXE .\out_file\START251.obj, .\out_file\zf_common_typedef.obj, .\out_file\zf_common_clock.obj, .\
>> out_file\zf_common_interrupt.obj, .\out_file\zf_common_debug.obj, .\out_file\zf_common_fifo.obj, .\out_file\zf_common
>> _font.obj, .\out_file\zf_common_function.obj, .\out_file\zf_driver_adc.obj, .\out_file\zf_driver_delay.obj, .\out_fil
>> e\zf_driver_eeprom.obj, .\out_file\zf_driver_encoder.obj, .\out_file\zf_driver_exti.obj, .\out_file\zf_driver_gpio.ob
>> j, .\out_file\zf_driver_pit.obj, .\out_file\zf_driver_pwm.obj, .\out_file\zf_driver_soft_iic.obj, .\out_file\zf_drive
>> r_spi.obj, .\out_file\zf_driver_timer.obj, .\out_file\zf_driver_uart.obj, .\out_file\zf_driver_usb_cdc.obj, .\out_fil
>> e\zf_device_type.obj, ..\..\libraries\zf_device\zf_device_config.LIB, .\out_file\zf_device_mt9v03x.obj, ..\..\librari
>> es\zf_device\zf_device_mt9v03x_dma.LIB, .\out_file\zf_device_ips114.obj, .\out_file\zf_device_tft180.obj, .\out_file\
>> zf_device_ips200.obj, .\out_file\zf_device_ips200pro.obj, .\out_file\zf_device_ble6a20.obj, .\out_file\zf_device_wifi
>> _spi.obj, .\out_file\zf_device_wireless_uart.obj, .\out_file\zf_device_dl1a.obj, .\out_file\zf_device_dl1b.obj, .\out
>> _file\zf_device_imu660ra.obj, .\out_file\zf_device_imu660rb.obj, .\out_file\zf_device_imu963ra.obj, .\out_file\usb.ob
>> j, .\out_file\usb_desc.obj, .\out_file\usb_req_class.obj, .\out_file\usb_req_std.obj, .\out_file\usb_req_vendor.obj, 
>> .\out_file\util.obj, .\out_file\seekfree_assistant.obj, .\out_file\seekfree_assistant_interface.obj, .\out_file\PD_EN
>> C_SDI.obj, .\out_file\PID.obj, .\out_file\var.obj, .\out_file\Motor.obj, .\out_file\ADC.obj, .\out_file\IMU.obj, .\ou
>> t_file\Logic.obj, .\out_file\aoi_function.obj, .\out_file\isr.obj, .\out_file\main.obj TO .\out_file\SEEKFREE PRINT (
>> .\out_file\SEEKFREE.map) CASE DISABLEWARNING (57, 16, 7, 25) REMOVEUNUSED, NOOVERLAY CLASSES (EDATA (0X0-0X3FFF), HDA
>> TA (0X0-0X3FFF, 0X10000-0X2FFFF), HCONST (0XFC4800-0XFFFFFF), ECODE (0XFC4800-0XFFFFFF))


CPU MODE:     251 SOURCE MODE
INTR FRAME:   4 BYTES SAVED ON INTERRUPT
MEMORY MODEL: LARGE WITH DOUBLE PRECISION FLOATING POINT ARITHMETIC


INPUT MODULES INCLUDED:
  .\out_file\START251.obj (?C_START?)
         COMMENT TYPE 0: A251 V4.69.13.0
  .\out_file\zf_common_typedef.obj (zf_common_typedef)
         COMMENT TYPE 0: C251 V5.60.0
  .\out_file\zf_common_clock.obj (zf_common_clock)
         COMMENT TYPE 0: C251 V5.60.0
  .\out_file\zf_common_interrupt.obj (zf_common_interrupt)
         COMMENT TYPE 0: C251 V5.60.0
  .\out_file\zf_common_debug.obj (zf_common_debug)
         COMMENT TYPE 0: C251 V5.60.0
  .\out_file\zf_common_fifo.obj (zf_common_fifo)
         COMMENT TYPE 0: C251 V5.60.0
  .\out_file\zf_common_font.obj (zf_common_font)
         COMMENT TYPE 0: C251 V5.60.0
  .\out_file\zf_common_function.obj (zf_common_function)
         COMMENT TYPE 0: C251 V5.60.0
  .\out_file\zf_driver_adc.obj (zf_driver_adc)
         COMMENT TYPE 0: C251 V5.60.0
  .\out_file\zf_driver_delay.obj (zf_driver_delay)
         COMMENT TYPE 0: C251 V5.60.0
  .\out_file\zf_driver_eeprom.obj (zf_driver_eeprom)
         COMMENT TYPE 0: C251 V5.60.0
  .\out_file\zf_driver_encoder.obj (zf_driver_encoder)
         COMMENT TYPE 0: C251 V5.60.0
  .\out_file\zf_driver_exti.obj (zf_driver_exti)
         COMMENT TYPE 0: C251 V5.60.0
  .\out_file\zf_driver_gpio.obj (zf_driver_gpio)
         COMMENT TYPE 0: C251 V5.60.0
  .\out_file\zf_driver_pit.obj (zf_driver_pit)
         COMMENT TYPE 0: C251 V5.60.0
  .\out_file\zf_driver_pwm.obj (zf_driver_pwm)
         COMMENT TYPE 0: C251 V5.60.0
  .\out_file\zf_driver_soft_iic.obj (zf_driver_soft_iic)
         COMMENT TYPE 0: C251 V5.60.0
  .\out_file\zf_driver_spi.obj (zf_driver_spi)
         COMMENT TYPE 0: C251 V5.60.0
  .\out_file\zf_driver_timer.obj (zf_driver_timer)
         COMMENT TYPE 0: C251 V5.60.0
  .\out_file\zf_driver_uart.obj (zf_driver_uart)
         COMMENT TYPE 0: C251 V5.60.0
L251 LINKER/LOCATER V4.66.93.0                                                        03/25/2026  13:05:55  PAGE 2


  .\out_file\zf_driver_usb_cdc.obj (zf_driver_usb_cdc)
         COMMENT TYPE 0: C251 V5.60.0
  .\out_file\zf_device_type.obj (zf_device_type)
         COMMENT TYPE 0: C251 V5.60.0
  .\out_file\zf_device_mt9v03x.obj (zf_device_mt9v03x)
         COMMENT TYPE 0: C251 V5.60.0
  ..\..\libraries\zf_device\zf_device_mt9v03x_dma.LIB (zf_device_mt9v03x_dma)
         COMMENT TYPE 0: C251 V5.60.0
  .\out_file\zf_device_ips114.obj (zf_device_ips114)
         COMMENT TYPE 0: C251 V5.60.0
  .\out_file\zf_device_tft180.obj (zf_device_tft180)
         COMMENT TYPE 0: C251 V5.60.0
  .\out_file\zf_device_ips200.obj (zf_device_ips200)
         COMMENT TYPE 0: C251 V5.60.0
  .\out_file\zf_device_ips200pro.obj (zf_device_ips200pro)
         COMMENT TYPE 0: C251 V5.60.0
  .\out_file\zf_device_ble6a20.obj (zf_device_ble6a20)
         COMMENT TYPE 0: C251 V5.60.0
  .\out_file\zf_device_wifi_spi.obj (zf_device_wifi_spi)
         COMMENT TYPE 0: C251 V5.60.0
  .\out_file\zf_device_wireless_uart.obj (zf_device_wireless_uart)
         COMMENT TYPE 0: C251 V5.60.0
  .\out_file\zf_device_dl1a.obj (zf_device_dl1a)
         COMMENT TYPE 0: C251 V5.60.0
  .\out_file\zf_device_dl1b.obj (zf_device_dl1b)
         COMMENT TYPE 0: C251 V5.60.0
  .\out_file\zf_device_imu660ra.obj (zf_device_imu660ra)
         COMMENT TYPE 0: C251 V5.60.0
  .\out_file\zf_device_imu660rb.obj (zf_device_imu660rb)
         COMMENT TYPE 0: C251 V5.60.0
  .\out_file\zf_device_imu963ra.obj (zf_device_imu963ra)
         COMMENT TYPE 0: C251 V5.60.0
  .\out_file\usb.obj (usb)
         COMMENT TYPE 0: C251 V5.60.0
  .\out_file\usb_desc.obj (usb_desc)
         COMMENT TYPE 0: C251 V5.60.0
  .\out_file\usb_req_class.obj (usb_req_class)
         COMMENT TYPE 0: C251 V5.60.0
  .\out_file\usb_req_std.obj (usb_req_std)
         COMMENT TYPE 0: C251 V5.60.0
  .\out_file\usb_req_vendor.obj (usb_req_vendor)
         COMMENT TYPE 0: C251 V5.60.0
  .\out_file\util.obj (util)
         COMMENT TYPE 0: C251 V5.60.0
  .\out_file\seekfree_assistant.obj (seekfree_assistant)
         COMMENT TYPE 0: C251 V5.60.0
  .\out_file\seekfree_assistant_interface.obj (seekfree_assistant_interface)
         COMMENT TYPE 0: C251 V5.60.0
  .\out_file\PD_ENC_SDI.obj (PD_ENC_SDI)
         COMMENT TYPE 0: C251 V5.60.0
  .\out_file\PID.obj (PID)
         COMMENT TYPE 0: C251 V5.60.0
  .\out_file\var.obj (var)
         COMMENT TYPE 0: C251 V5.60.0
  .\out_file\Motor.obj (Motor)
         COMMENT TYPE 0: C251 V5.60.0
  .\out_file\ADC.obj (ADC)
         COMMENT TYPE 0: C251 V5.60.0
  .\out_file\IMU.obj (IMU)
         COMMENT TYPE 0: C251 V5.60.0
  .\out_file\Logic.obj (Logic)
         COMMENT TYPE 0: C251 V5.60.0
  .\out_file\aoi_function.obj (aoi_function)
         COMMENT TYPE 0: C251 V5.60.0
  .\out_file\isr.obj (isr)
L251 LINKER/LOCATER V4.66.93.0                                                        03/25/2026  13:05:55  PAGE 3


         COMMENT TYPE 0: C251 V5.60.0
  .\out_file\main.obj (main)
         COMMENT TYPE 0: C251 V5.60.0
  ..\..\libraries\zf_device\zf_device_config.LIB (zf_device_config)
         COMMENT TYPE 0: C251 V5.60.0
  D:\KEIL5\C251\LIB\C2SDPL.LIB (?C?DPADD?)
         COMMENT TYPE 0: A251 V4.69.6.0
  D:\KEIL5\C251\LIB\C2SDPL.LIB (?C?DPMUL?)
         COMMENT TYPE 0: A251 V4.69.6.0
  D:\KEIL5\C251\LIB\C2SDPL.LIB (?C?DPDIV?)
         COMMENT TYPE 0: A251 V4.69.6.0
  D:\KEIL5\C251\LIB\C2SDPL.LIB (?C?DPCMP?)
         COMMENT TYPE 0: A251 V4.69.6.0
  D:\KEIL5\C251\LIB\C2SDPL.LIB (?C?DPNEG?)
         COMMENT TYPE 0: A251 V4.69.6.0
  D:\KEIL5\C251\LIB\C2SDPL.LIB (?C?DCAST?)
         COMMENT TYPE 0: A251 V4.69.6.0
  D:\KEIL5\C251\LIB\C2SDPL.LIB (?C?CASTD?)
         COMMENT TYPE 0: A251 V4.69.6.0
  D:\KEIL5\C251\LIB\C2SDPL.LIB (?C?DCASTF?)
         COMMENT TYPE 0: A251 V4.69.6.0
  D:\KEIL5\C251\LIB\C2SDPL.LIB (?C?FCASTD?)
         COMMENT TYPE 0: A251 V4.69.6.0
  D:\KEIL5\C251\LIB\C2SDPL.LIB (PRINTF?)
         COMMENT TYPE 0: A251 V4.69.6.0
  D:\KEIL5\C251\LIB\C2SDPL.LIB (SPRINTF?)
         COMMENT TYPE 0: A251 V4.69.6.0
  D:\KEIL5\C251\LIB\C2SDPL.LIB (?C?DPGETOPN?)
         COMMENT TYPE 0: A251 V4.69.6.0
  D:\KEIL5\C251\LIB\C2SDPL.LIB (?C?PRNFMT?)
         COMMENT TYPE 0: A251 V4.69.6.0
  D:\KEIL5\C251\LIB\C2SDPL.LIB (?C?DPCONVERT?)
         COMMENT TYPE 0: A251 V4.69.6.0
  D:\KEIL5\C251\LIB\C2SDPL.LIB (?C?DTNPWR?)
         COMMENT TYPE 0: A251 V4.69.6.0
  D:\KEIL5\C251\LIB\C2SFPL.LIB (?C?FPGETOPN?)
         COMMENT TYPE 0: A251 V4.69.6.0
  D:\KEIL5\C251\LIB\C2SFPL.LIB (?C?FPADD?)
         COMMENT TYPE 0: A251 V4.69.6.0
  D:\KEIL5\C251\LIB\C2SFPL.LIB (?C?FPMUL?)
         COMMENT TYPE 0: A251 V4.69.6.0
  D:\KEIL5\C251\LIB\C2SFPL.LIB (?C?FPDIV?)
         COMMENT TYPE 0: A251 V4.69.6.0
  D:\KEIL5\C251\LIB\C2SFPL.LIB (?C?FPCMP?)
         COMMENT TYPE 0: A251 V4.69.6.0
  D:\KEIL5\C251\LIB\C2SFPL.LIB (?C?FPNEG?)
         COMMENT TYPE 0: A251 V4.69.6.0
  D:\KEIL5\C251\LIB\C2SFPL.LIB (?C?FCAST?)
         COMMENT TYPE 0: A251 V4.69.6.0
  D:\KEIL5\C251\LIB\C2SFPL.LIB (?C?CASTF?)
         COMMENT TYPE 0: A251 V4.69.6.0
  D:\KEIL5\C251\LIB\C2SL.LIB (?C?INITHDATA)
         COMMENT TYPE 0: A251 V4.69.6.0
  D:\KEIL5\C251\LIB\C2SL.LIB (?C?SIDIV?)
         COMMENT TYPE 0: A251 V4.69.6.0
  D:\KEIL5\C251\LIB\C2SL.LIB (?C?LMUL?)
         COMMENT TYPE 0: A251 V4.69.6.0
  D:\KEIL5\C251\LIB\C2SL.LIB (?C?LIMUL?)
         COMMENT TYPE 0: A251 V4.69.6.0
  D:\KEIL5\C251\LIB\C2SL.LIB (?C?ULDIV?)
         COMMENT TYPE 0: A251 V4.69.6.0
  D:\KEIL5\C251\LIB\C2SL.LIB (?C?SLDIV?)
         COMMENT TYPE 0: A251 V4.69.6.0
  D:\KEIL5\C251\LIB\C2SL.LIB (?C?BMOVEPP?)
         COMMENT TYPE 0: A251 V4.69.6.0
L251 LINKER/LOCATER V4.66.93.0                                                        03/25/2026  13:05:55  PAGE 4


  D:\KEIL5\C251\LIB\C2SL.LIB (STRNCMP?)
         COMMENT TYPE 0: C251 V5.58.7
  D:\KEIL5\C251\LIB\C2SL.LIB (STRLEN?)
         COMMENT TYPE 0: C251 V5.58.7
  D:\KEIL5\C251\LIB\C2SL.LIB (MEMCPY?)
         COMMENT TYPE 0: C251 V5.58.7
  D:\KEIL5\C251\LIB\C2SL.LIB (MEMSET?)
         COMMENT TYPE 0: C251 V5.58.7
  D:\KEIL5\C251\LIB\C2SL.LIB (?C?INITHDATA_END)
         COMMENT TYPE 0: A251 V4.69.6.0


ACTIVE MEMORY CLASSES OF MODULE:  .\out_file\SEEKFREE (?C_START?)

BASE        START       END         USED      MEMORY CLASS
==========================================================
000000H     000000H     003FFFH     00200CH   EDATA
000000H     000000H     003FFFH     005821H   HDATA
            010000H     02FFFFH                 
000000H     FC4800H     FFFFFFH     0036F5H   HCONST
000000H     FC4800H     FFFFFFH     01D639H   ECODE
FF0000H     FF0000H     FFFFFFH     0007D8H   CODE
010000H     010000H     01FFFFH     002A19H   XDATA
000020H.0   000020H.0   00002FH.7   000000H.6 BIT
000000H     000000H     00007FH     000008H   DATA


MEMORY MAP OF MODULE:  .\out_file\SEEKFREE (?C_START?)


START     STOP      LENGTH    ALIGN  RELOC    MEMORY CLASS   SEGMENT NAME
=========================================================================
000000H   000007H   000008H   ---    AT..     DATA           "REG BANK 0"
000008H   00000FH   000008H   BYTE   UNIT     EDATA          ?ED?DL1A_ENCODE_TIMEOUT?ZF_DEVICE_DL1A
000010H   000013H   000004H   BYTE   UNIT     EDATA          ?ED?SOFT_DELAY??ZF_DRIVER_DELAY
000014H.0 00001FH.7 00000CH.0 ---    ---      **GAP**
000020H.0 000020H.1 000000H.2 BIT    UNIT     BIT            ?BI?USB
000020H.2 000020H.2 000000H.1 BIT    UNIT     BIT            ?BI?IAP_READ_BYTE??ZF_DRIVER_EEPROM
000020H.3 000020H.3 000000H.1 BIT    UNIT     BIT            ?BI?IAP_WRITE_BYTE??ZF_DRIVER_EEPROM
000020H.4 000020H.4 000000H.1 BIT    UNIT     BIT            ?BI?IAP_ERASE_PAGE??ZF_DRIVER_EEPROM
000020H.5 000020H.5 000000H.1 BIT    UNIT     BIT            ?BI?SEEKFREE_ASSISTANT_DATA_ANALYSIS??SEEKFREE_ASSISTANT
000020H.6 000020H   000000H.2 ---    ---      **GAP**
000021H   002020H   002000H   BYTE   UNIT     EDATA          ?STACK
002021H   00FFFFH   00DFDFH   ---    ---      **GAP**
010000H   010451H   000452H   BYTE   INSEG    XDATA          ?XD?ZF_DEVICE_WIFI_SPI
010452H   0106F2H   0002A1H   BYTE   UNIT     XDATA          ?XD?IPS200_SHOW_GRAY_IMAGE??ZF_DEVICE_IPS200
0106F3H   0108FCH   00020AH   BYTE   UNIT     XDATA          ?XD?EXTERN_IAP_WRITE_BUFF??ZF_DRIVER_EEPROM
0108FDH   010AFDH   000201H   BYTE   UNIT     XDATA          ?XD?IPS114_SHOW_GRAY_IMAGE??ZF_DEVICE_IPS114
010AFEH   010CE1H   0001E4H   BYTE   UNIT     XDATA          ?XD?IPS114_CLEAR??ZF_DEVICE_IPS114
010CE2H   010EC5H   0001E4H   BYTE   UNIT     XDATA          ?XD?TFT180_CLEAR??ZF_DEVICE_TFT180
010EC6H   0110A9H   0001E4H   BYTE   UNIT     XDATA          ?XD?IPS200_CLEAR??ZF_DEVICE_IPS200
0110AAH   0111E6H   00013DH   BYTE   INSEG    XDATA          ?XD?SEEKFREE_ASSISTANT
0111E7H   01127FH   000099H   BYTE   INSEG    XDATA          ?XD?ZF_COMMON_DEBUG
011280H   01130EH   00008FH   BYTE   UNIT     XDATA          ?XD?SEEKFREE_ASSISTANT_DATA_ANALYSIS??SEEKFREE_ASSISTANT
01130FH   01139AH   00008CH   BYTE   UNIT     XDATA          ?XD?DL1B_INIT??ZF_DEVICE_DL1B
01139BH   0113FDH   000063H   BYTE   UNIT     XDATA          ?XD?ZF_SPRINTF??ZF_COMMON_FUNCTION
0113FEH   011454H   000057H   BYTE   INSEG    XDATA          ?XD?ZF_DEVICE_BLE6A20
011455H   0114ABH   000057H   BYTE   INSEG    XDATA          ?XD?ZF_DEVICE_WIRELESS_UART
0114ACH   0114FEH   000053H   BYTE   UNIT     XDATA          ?XD?VSNPRINTF??ZF_COMMON_FUNCTION
0114FFH   011550H   000052H   BYTE   UNIT     XDATA          ?XD?SPI_DMA_TRANSFER??ZF_DRIVER_SPI
011551H   01159DH   00004DH   BYTE   INSEG    XDATA          ?XD?ZF_DEVICE_IPS200PRO
01159EH   0115E9H   00004CH   BYTE   UNIT     XDATA          ?XD?SPI_DMA_WRITE??ZF_DRIVER_SPI
0115EAH   011635H   00004CH   BYTE   INSEG    XDATA          ?XD?PD_ENC_SDI
011636H   011680H   00004BH   BYTE   UNIT     XDATA          ?XD?WIFI_SPI_WIFI_CONNECT??ZF_DEVICE_WIFI_SPI
011681H   0116CAH   00004AH   BYTE   UNIT     XDATA          ?XD?UART_WRITE_BUFFER??ZF_DRIVER_UART
L251 LINKER/LOCATER V4.66.93.0                                                        03/25/2026  13:05:55  PAGE 5


0116CBH   01170FH   000045H   BYTE   UNIT     XDATA          ?XD?IPS200PRO_TABLE_CELL_PRINTF??ZF_DEVICE_IPS200PRO
011710H   011752H   000043H   BYTE   UNIT     XDATA          ?XD?USB_OUT_EP1??USB
011753H   011791H   00003FH   BYTE   UNIT     XDATA          ?XD?IPS200PRO_LABEL_PRINTF??ZF_DEVICE_IPS200PRO
011792H   0117D0H   00003FH   BYTE   INSEG    XDATA          ?XD?ADC
0117D1H   01180CH   00003CH   BYTE   INSEG    XDATA          ?XD?ZF_COMMON_TYPEDEF
01180DH   011848H   00003CH   BYTE   UNIT     XDATA          ?XD?FUNC_DOUBLE_TO_STR??ZF_COMMON_FUNCTION
011849H   011884H   00003CH   BYTE   UNIT     XDATA          ?XD?WIFI_SPI_SOCKET_CONNECT??ZF_DEVICE_WIFI_SPI
011885H   0118BCH   000038H   BYTE   INSEG    XDATA          ?XD?ZF_DRIVER_PIT
0118BDH   0118F0H   000034H   BYTE   UNIT     XDATA          ?XD?IPS114_SHOW_FLOAT??ZF_DEVICE_IPS114
0118F1H   011924H   000034H   BYTE   UNIT     XDATA          ?XD?TFT180_SHOW_FLOAT??ZF_DEVICE_TFT180
011925H   011958H   000034H   BYTE   UNIT     XDATA          ?XD?IPS200_SHOW_FLOAT??ZF_DEVICE_IPS200
011959H   01198CH   000034H   BYTE   UNIT     XDATA          ?XD?WIFI_SPI_READ_BUFFER??ZF_DEVICE_WIFI_SPI
01198DH   0119BBH   00002FH   BYTE   UNIT     XDATA          ?XD?DL1A_SET_MEASUREMENT_TIMING_BUDGET?ZF_DEVICE_DL1A
0119BCH   0119E9H   00002EH   BYTE   UNIT     XDATA          ?XD?WIFI_SPI_GET_TIME??ZF_DEVICE_WIFI_SPI
0119EAH   011A17H   00002EH   BYTE   UNIT     XDATA          ?XD?WIFI_SPI_SEND_BUFFER??ZF_DEVICE_WIFI_SPI
011A18H   011A43H   00002CH   BYTE   UNIT     XDATA          ?XD?IPS114_SHOW_INT32??ZF_DEVICE_IPS114
011A44H   011A6FH   00002CH   BYTE   UNIT     XDATA          ?XD?TFT180_SHOW_INT32??ZF_DEVICE_TFT180
011A70H   011A9BH   00002CH   BYTE   UNIT     XDATA          ?XD?IPS200_SHOW_INT32??ZF_DEVICE_IPS200
011A9CH   011AC5H   00002AH   BYTE   UNIT     XDATA          ?XD?FUNC_FLOAT_TO_STR??ZF_COMMON_FUNCTION
011AC6H   011AEFH   00002AH   BYTE   UNIT     XDATA          ?XD?SEEKFREE_ASSISTANT_OSCILLOSCOPE_SEND??SEEKFREE_ASSISTA
                                                             -NT
011AF0H   011B17H   000028H   BYTE   INSEG    XDATA          ?XD?ZF_DRIVER_UART
011B18H   011B3FH   000028H   BYTE   UNIT     XDATA          ?XD?IPS200PRO_IMAGE_DISPLAY??ZF_DEVICE_IPS200PRO
011B40H   011B67H   000028H   BYTE   UNIT     XDATA          ?XT?PRINTF?
011B68H   011B8FH   000028H   BYTE   UNIT     XDATA          ?XT?SPRINTF?
011B90H   011BB5H   000026H   BYTE   UNIT     XDATA          ?XD?MT9V03X_SCCB_SET_CONFIG??ZF_DEVICE_MT9V03X_DMA
011BB6H   011BDAH   000025H   BYTE   UNIT     XDATA          ?XD?FUNC_HEX_TO_STR??ZF_COMMON_FUNCTION
011BDBH   011BFFH   000025H   BYTE   UNIT     XDATA          ?XD?TFT180_SHOW_GRAY_IMAGE??ZF_DEVICE_TFT180
011C00H   011C24H   000025H   BYTE   UNIT     XDATA          ?XD?WIFI_SPI_GET_VERSION?ZF_DEVICE_WIFI_SPI
011C25H   011C49H   000025H   BYTE   UNIT     XDATA          ?XD?WIFI_SPI_GET_MAC_ADDR?ZF_DEVICE_WIFI_SPI
011C4AH   011C6EH   000025H   BYTE   UNIT     XDATA          ?XD?WIFI_SPI_GET_IP_ADDR_PORT?ZF_DEVICE_WIFI_SPI
011C6FH   011C93H   000025H   BYTE   UNIT     XDATA          ?XD?WIFI_SPI_UDP_SEND_NOW??ZF_DEVICE_WIFI_SPI
011C94H   011CB7H   000024H   BYTE   UNIT     XDATA          ?XD?WIFI_SPI_SOCKET_DISCONNECT??ZF_DEVICE_WIFI_SPI
011CB8H   011CD9H   000022H   BYTE   UNIT     XDATA          ?XD?IPS200PRO_IMAGE_DRAW_RECTANGLE??ZF_DEVICE_IPS200PRO
011CDAH   011CF9H   000020H   BYTE   UNIT     XDATA          ?XD?IPS114_SHOW_WAVE??ZF_DEVICE_IPS114
011CFAH   011D19H   000020H   BYTE   UNIT     XDATA          ?XD?TFT180_SHOW_WAVE??ZF_DEVICE_TFT180
011D1AH   011D39H   000020H   BYTE   UNIT     XDATA          ?XD?IPS200_SHOW_WAVE??ZF_DEVICE_IPS200
011D3AH   011D58H   00001FH   BYTE   UNIT     XDATA          ?XD?IPS200PRO_WRITE_PACKET??ZF_DEVICE_IPS200PRO
011D59H   011D77H   00001FH   BYTE   UNIT     XDATA          ?XD?DL1A_GET_MEASUREMENT_TIMING_BUDGET?ZF_DEVICE_DL1A
011D78H   011D96H   00001FH   BYTE   UNIT     XDATA          ?XD?SEEKFREE_ASSISTANT_CAMERA_BOUNDARY_CONFIG??SEEKFREE_AS
                                                             -SISTANT
011D97H   011DB5H   00001FH   BYTE   INSEG    XDATA          ?XD?IMU
011DB6H   011DD3H   00001EH   BYTE   INSEG    XDATA          ?XD?ZF_DEVICE_TYPE
011DD4H   011DF1H   00001EH   BYTE   INSEG    XDATA          ?XD?ZF_DEVICE_IMU963RA
011DF2H   011E0EH   00001DH   BYTE   UNIT     XDATA          ?XD?FUNC_INT_TO_STR??ZF_COMMON_FUNCTION
011E0FH   011E2BH   00001DH   BYTE   UNIT     XDATA          ?XD?FUNC_STR_TO_DOUBLE??ZF_COMMON_FUNCTION
011E2CH   011E47H   00001CH   BYTE   INSEG    XDATA          ?XD?ZF_DRIVER_TIMER
011E48H   011E62H   00001BH   BYTE   UNIT     XDATA          ?XD?IPS200PRO_CREATE_WIDGETS??ZF_DEVICE_IPS200PRO
011E63H   011E7CH   00001AH   BYTE   UNIT     XDATA          ?XD?IPS200PRO_WAVEFORM_ADD_VALUE??ZF_DEVICE_IPS200PRO
011E7DH   011E96H   00001AH   BYTE   UNIT     XDATA          ?XD?IPS200PRO_IMAGE_DRAW_LINE??ZF_DEVICE_IPS200PRO
011E97H   011EAFH   000019H   BYTE   UNIT     XDATA          ?XD?FUNC_UINT_TO_STR??ZF_COMMON_FUNCTION
011EB0H   011EC8H   000019H   BYTE   UNIT     XDATA          ?XD?IPS114_SHOW_CHINESE??ZF_DEVICE_IPS114
011EC9H   011EE1H   000019H   BYTE   UNIT     XDATA          ?XD?IPS200_SHOW_CHINESE??ZF_DEVICE_IPS200
011EE2H   011EF9H   000018H   BYTE   UNIT     XDATA          ?XD?FIFO_READ_BUFFER??ZF_COMMON_FIFO
011EFAH   011F0FH   000016H   BYTE   UNIT     XDATA          ?XD?DL1A_INIT??ZF_DEVICE_DL1A
011F10H   011F24H   000015H   BYTE   UNIT     XDATA          ?XD?IPS200PRO_GET_INFORMATION??ZF_DEVICE_IPS200PRO
011F25H   011F38H   000014H   BYTE   UNIT     XDATA          ?XD?DEBUG_ASSERT_HANDLER??ZF_COMMON_DEBUG
011F39H   011F4CH   000014H   BYTE   UNIT     XDATA          ?XD?NUMBER_CONVERSION_ASCII?ZF_COMMON_FUNCTION
011F4DH   011F60H   000014H   BYTE   UNIT     XDATA          ?XD?PWM_SET_FREQ??ZF_DRIVER_PWM
011F61H   011F74H   000014H   BYTE   UNIT     XDATA          ?XD?SOFT_IIC_TRANSFER_8BIT_ARRAY??ZF_DRIVER_SOFT_IIC
011F75H   011F88H   000014H   BYTE   UNIT     XDATA          ?XD?SOFT_IIC_TRANSFER_16BIT_ARRAY??ZF_DRIVER_SOFT_IIC
011F89H   011F9CH   000014H   BYTE   UNIT     XDATA          ?XD?SPI_DMA_INIT??ZF_DRIVER_SPI
011F9DH   011FB0H   000014H   BYTE   UNIT     XDATA          ?XD?SPI_INIT??ZF_DRIVER_SPI
011FB1H   011FC4H   000014H   BYTE   INSEG    XDATA          ?XD?ZF_DEVICE_MT9V03X_DMA
011FC5H   011FD8H   000014H   BYTE   INSEG    XDATA          ?XD?ZF_DEVICE_IMU660RA
L251 LINKER/LOCATER V4.66.93.0                                                        03/25/2026  13:05:55  PAGE 6


011FD9H   011FEBH   000013H   BYTE   UNIT     XDATA          ?XD?UART_INIT??ZF_DRIVER_UART
011FECH   011FFEH   000013H   BYTE   UNIT     XDATA          ?XD?IPS200PRO_SET_COLOR??ZF_DEVICE_IPS200PRO
011FFFH   012011H   000013H   BYTE   UNIT     XDATA          ?XD?IPS200PRO_SET_POSITION??ZF_DEVICE_IPS200PRO
012012H   012024H   000013H   BYTE   UNIT     XDATA          ?XD?IPS200PRO_WAVEFORM_LINE_STATE??ZF_DEVICE_IPS200PRO
012025H   012037H   000013H   BYTE   UNIT     XDATA          ?XD?IPS200PRO_CONTAINER_RADIUS??ZF_DEVICE_IPS200PRO
012038H   01204AH   000013H   BYTE   UNIT     XDATA          ?XD?IMU660RA_READ_REGISTERS?ZF_DEVICE_IMU660RA
01204BH   01205CH   000012H   BYTE   UNIT     XDATA          ?XD?FIFO_WRITE_BUFFER??ZF_COMMON_FIFO
01205DH   01206EH   000012H   BYTE   UNIT     XDATA          ?XD?PWM_INIT??ZF_DRIVER_PWM
01206FH   012080H   000012H   BYTE   UNIT     XDATA          ?XD?IPS200PRO_TABLE_SET_COL_WIDTH??ZF_DEVICE_IPS200PRO
012081H   012092H   000012H   BYTE   UNIT     XDATA          ?XD?IPS200PRO_CALENDAR_DISPLAY??ZF_DEVICE_IPS200PRO
012093H   0120A4H   000012H   BYTE   INSEG    XDATA          ?XD?USB
0120A5H   0120B5H   000011H   BYTE   UNIT     XDATA          ?XD?FUNC_STR_TO_FLOAT??ZF_COMMON_FUNCTION
0120B6H   0120C6H   000011H   BYTE   UNIT     XDATA          ?XD?IPS200PRO_SET_DATE??ZF_DEVICE_IPS200PRO
0120C7H   0120D7H   000011H   BYTE   UNIT     XDATA          ?XD?IPS200PRO_SET_PARENT??ZF_DEVICE_IPS200PRO
0120D8H   0120E8H   000011H   BYTE   UNIT     XDATA          ?XD?IPS200PRO_GET_DATE??ZF_DEVICE_IPS200PRO
0120E9H   0120F9H   000011H   BYTE   UNIT     XDATA          ?XD?IPS200PRO_GET_TIME??ZF_DEVICE_IPS200PRO
0120FAH   01210AH   000011H   BYTE   UNIT     XDATA          ?XD?IPS200PRO_GET_FREE_STACK_SIZE??ZF_DEVICE_IPS200PRO
01210BH   01211BH   000011H   BYTE   UNIT     XDATA          ?XD?IPS200PRO_TABLE_SELECT??ZF_DEVICE_IPS200PRO
01211CH   01212CH   000011H   BYTE   UNIT     XDATA          ?XD?IPS200PRO_PROGRESS_BAR_SET_VALUE??ZF_DEVICE_IPS200PRO
01212DH   01213DH   000011H   BYTE   UNIT     XDATA          ?XD?WIFI_SPI_SET_PARAMETER?ZF_DEVICE_WIFI_SPI
01213EH   01214EH   000011H   BYTE   UNIT     XDATA          ?XD?ADC_SAMPLE_A??ADC
01214FH   01215EH   000010H   BYTE   UNIT     XDATA          ?XD?IPS200PRO_SET_TIME??ZF_DEVICE_IPS200PRO
01215FH   01216EH   000010H   BYTE   UNIT     XDATA          ?XD?IPS200PRO_PAGE_SET_TITLE_POSITION_WIDTH??ZF_DEVICE_IPS
                                                             -200PRO
01216FH   01217DH   00000FH   BYTE   UNIT     XDATA          ?XD?PIT_INIT??ZF_DRIVER_PIT
01217EH   01218CH   00000FH   BYTE   UNIT     XDATA          ?XD?IPS200PRO_SET_FONT??ZF_DEVICE_IPS200PRO
01218DH   01219BH   00000FH   BYTE   UNIT     XDATA          ?XD?IPS200PRO_PAGE_SWITCH??ZF_DEVICE_IPS200PRO
01219CH   0121AAH   00000FH   BYTE   UNIT     XDATA          ?XD?IPS200PRO_PAGE_SET_TITLE_NAME??ZF_DEVICE_IPS200PRO
0121ABH   0121B9H   00000FH   BYTE   UNIT     XDATA          ?XD?IPS200PRO_LABEL_SHOW_STRING??ZF_DEVICE_IPS200PRO
0121BAH   0121C8H   00000FH   BYTE   UNIT     XDATA          ?XD?IPS200PRO_LABEL_MODE??ZF_DEVICE_IPS200PRO
0121C9H   0121D7H   00000FH   BYTE   UNIT     XDATA          ?XD?IPS200PRO_METER_SET_VALUE??ZF_DEVICE_IPS200PRO
0121D8H   0121E6H   00000FH   BYTE   UNIT     XDATA          ?XD?SEEKFREE_ASSISTANT_CAMERA_DATA_SEND??SEEKFREE_ASSISTAN
                                                             -T
0121E7H   0121F4H   00000EH   BYTE   UNIT     XDATA          ?XD?DEBUG_INTERRUPR_HANDLER??ZF_COMMON_DEBUG
0121F5H   012202H   00000EH   BYTE   UNIT     XDATA          ?XD?FIFO_INIT??ZF_COMMON_FIFO
012203H   012210H   00000EH   BYTE   UNIT     XDATA          ?XD?FUNC_STR_TO_HEX??ZF_COMMON_FUNCTION
012211H   01221EH   00000EH   BYTE   INSEG    XDATA          ?XD?ZF_DRIVER_ENCODER
01221FH   01222CH   00000EH   BYTE   UNIT     XDATA          ?XD?PWM_SET_DUTY??ZF_DRIVER_PWM
01222DH   01223AH   00000EH   BYTE   UNIT     XDATA          ?XD?SOFT_IIC_WRITE_16BIT_REGISTERS??ZF_DRIVER_SOFT_IIC
01223BH   012248H   00000EH   BYTE   UNIT     XDATA          ?XD?SOFT_IIC_READ_16BIT_REGISTERS??ZF_DRIVER_SOFT_IIC
012249H   012256H   00000EH   BYTE   UNIT     XDATA          ?XD?SPI_DMA_TRANSFER_8BIT??ZF_DRIVER_SPI
012257H   012264H   00000EH   BYTE   UNIT     XDATA          ?XD?SPI_DMA_TRANSFER_16BIT??ZF_DRIVER_SPI
012265H   012272H   00000EH   BYTE   UNIT     XDATA          ?XD?SPI_TRANSFER_8BIT??ZF_DRIVER_SPI
012273H   012280H   00000EH   BYTE   UNIT     XDATA          ?XD?SPI_TRANSFER_16BIT??ZF_DRIVER_SPI
012281H   01228EH   00000EH   BYTE   UNIT     XDATA          ?XD?UART_TIM_INIT??ZF_DRIVER_UART
01228FH   01229CH   00000EH   BYTE   UNIT     XDATA          ?XD?SET_CAMERA_TYPE??ZF_DEVICE_TYPE
01229DH   0122AAH   00000EH   BYTE   UNIT     XDATA          ?XD?IPS200PRO_SEND_BUFFER??ZF_DEVICE_IPS200PRO
0122ABH   0122B8H   00000EH   BYTE   UNIT     XDATA          ?XD?IPS200PRO_SET_HIDDEN??ZF_DEVICE_IPS200PRO
0122B9H   0122C6H   00000EH   BYTE   UNIT     XDATA          ?XD?IPS200PRO_WAVEFORM_LINE_TYPE??ZF_DEVICE_IPS200PRO
0122C7H   0122D3H   00000DH   BYTE   UNIT     XDATA          ?XD?PRINTF_REVERSE_ORDER?ZF_COMMON_FUNCTION
0122D4H   0122E0H   00000DH   BYTE   UNIT     XDATA          ?XD?SOFT_IIC_WRITE_8BIT_REGISTERS??ZF_DRIVER_SOFT_IIC
0122E1H   0122EDH   00000DH   BYTE   UNIT     XDATA          ?XD?SOFT_IIC_READ_8BIT_REGISTERS??ZF_DRIVER_SOFT_IIC
0122EEH   0122FAH   00000DH   BYTE   UNIT     XDATA          ?XD?SOFT_IIC_INIT??ZF_DRIVER_SOFT_IIC
0122FBH   012307H   00000DH   BYTE   UNIT     XDATA          ?XD?IPS200PRO_RECEIVE_BUFFER??ZF_DEVICE_IPS200PRO
012308H   012314H   00000DH   BYTE   UNIT     XDATA          ?XD?IPS200PRO_SET_FORMAT??ZF_DEVICE_IPS200PRO
012315H   012321H   00000DH   BYTE   UNIT     XDATA          ?XD?IPS200PRO_SET_DIRECTION??ZF_DEVICE_IPS200PRO
012322H   01232EH   00000DH   BYTE   UNIT     XDATA          ?XD?IPS200PRO_SET_DEFAULT_FONT??ZF_DEVICE_IPS200PRO
01232FH   01233BH   00000DH   BYTE   INSEG    XDATA          ?XD?ZF_DEVICE_DL1A
01233CH   012348H   00000DH   BYTE   INSEG    XDATA          ?XD?ZF_DEVICE_DL1B
012349H   012354H   00000CH   BYTE   UNIT     XDATA          ?XD?SOFT_IIC_WRITE_8BIT_ARRAY??ZF_DRIVER_SOFT_IIC
012355H   012360H   00000CH   BYTE   UNIT     XDATA          ?XD?SOFT_IIC_WRITE_16BIT_ARRAY??ZF_DRIVER_SOFT_IIC
012361H   01236CH   00000CH   BYTE   UNIT     XDATA          ?XD?SOFT_IIC_READ_8BIT_ARRAY??ZF_DRIVER_SOFT_IIC
01236DH   012378H   00000CH   BYTE   UNIT     XDATA          ?XD?SOFT_IIC_READ_16BIT_ARRAY??ZF_DRIVER_SOFT_IIC
012379H   012384H   00000CH   BYTE   UNIT     XDATA          ?XD?SPI_DMA_WRITE_16BIT_REGISTERS??ZF_DRIVER_SPI
012385H   012390H   00000CH   BYTE   UNIT     XDATA          ?XD?SPI_DMA_READ_16BIT_REGISTERS??ZF_DRIVER_SPI
L251 LINKER/LOCATER V4.66.93.0                                                        03/25/2026  13:05:55  PAGE 7


012391H   01239CH   00000CH   BYTE   UNIT     XDATA          ?XD?SPI_WRITE_16BIT_REGISTERS??ZF_DRIVER_SPI
01239DH   0123A8H   00000CH   BYTE   UNIT     XDATA          ?XD?SPI_READ_16BIT_REGISTERS??ZF_DRIVER_SPI
0123A9H   0123B4H   00000CH   BYTE   UNIT     XDATA          ?XD?USB_CDC_WRITE_BUFFER??ZF_DRIVER_USB_CDC
0123B5H   0123C0H   00000CH   BYTE   UNIT     XDATA          ?XD?IPS114_SHOW_INT16??ZF_DEVICE_IPS114
0123C1H   0123CCH   00000CH   BYTE   UNIT     XDATA          ?XD?IPS114_SHOW_UINT16??ZF_DEVICE_IPS114
0123CDH   0123D8H   00000CH   BYTE   UNIT     XDATA          ?XD?TFT180_SHOW_INT16??ZF_DEVICE_TFT180
0123D9H   0123E4H   00000CH   BYTE   UNIT     XDATA          ?XD?TFT180_SHOW_UINT16??ZF_DEVICE_TFT180
0123E5H   0123F0H   00000CH   BYTE   UNIT     XDATA          ?XD?IPS200_SHOW_INT16??ZF_DEVICE_IPS200
0123F1H   0123FCH   00000CH   BYTE   UNIT     XDATA          ?XD?IPS200_SHOW_UINT16??ZF_DEVICE_IPS200
0123FDH   012408H   00000CH   BYTE   UNIT     XDATA          ?XD?IPS200PRO_SET_BACKLIGHT??ZF_DEVICE_IPS200PRO
012409H   012414H   00000CH   BYTE   UNIT     XDATA          ?XD?IPS200PRO_SET_CRC_STATE??ZF_DEVICE_IPS200PRO
012415H   012420H   00000CH   BYTE   UNIT     XDATA          ?XD?IPS200PRO_SET_OPTIMIZE??ZF_DEVICE_IPS200PRO
012421H   01242CH   00000CH   BYTE   UNIT     XDATA          ?XD?BLE6A20_SEND_BUFFER??ZF_DEVICE_BLE6A20
01242DH   012438H   00000CH   BYTE   UNIT     XDATA          ?XD?BLE6A20_READ_BUFFER??ZF_DEVICE_BLE6A20
012439H   012444H   00000CH   BYTE   UNIT     XDATA          ?XD?WIFI_SPI_DMA_WRITE?ZF_DEVICE_WIFI_SPI
012445H   012450H   00000CH   BYTE   UNIT     XDATA          ?XD?WIRELESS_UART_SEND_BUFFER??ZF_DEVICE_WIRELESS_UART
012451H   01245CH   00000CH   BYTE   UNIT     XDATA          ?XD?WIRELESS_UART_READ_BUFFER??ZF_DEVICE_WIRELESS_UART
01245DH   012468H   00000CH   BYTE   UNIT     XDATA          ?XD?DL1A_GET_SPAD_INFO?ZF_DEVICE_DL1A
012469H   012474H   00000CH   BYTE   UNIT     XDATA          ?XD?DL1A_GET_SEQUENCE_STEP_TIMEOUTS?ZF_DEVICE_DL1A
012475H   012480H   00000CH   BYTE   INSEG    XDATA          ?XD?ZF_DEVICE_IMU660RB
012481H   01248CH   00000CH   BYTE   UNIT     XDATA          ?XD?SLIDINGAVERAGE??PD_ENC_SDI
01248DH   012497H   00000BH   BYTE   UNIT     XDATA          ?XD?SPI_DMA_WRITE_8BIT_REGISTERS??ZF_DRIVER_SPI
012498H   0124A2H   00000BH   BYTE   UNIT     XDATA          ?XD?SPI_DMA_READ_8BIT_REGISTERS??ZF_DRIVER_SPI
0124A3H   0124ADH   00000BH   BYTE   UNIT     XDATA          ?XD?SPI_WRITE_8BIT_REGISTERS??ZF_DRIVER_SPI
0124AEH   0124B8H   00000BH   BYTE   UNIT     XDATA          ?XD?SPI_READ_8BIT_REGISTERS??ZF_DRIVER_SPI
0124B9H   0124C3H   00000BH   BYTE   UNIT     XDATA          ?XD?MT9V03X_DMA_INIT??ZF_DEVICE_MT9V03X_DMA
0124C4H   0124CEH   00000BH   BYTE   UNIT     XDATA          ?XD?IPS200PRO_DELETE_WIDGETS??ZF_DEVICE_IPS200PRO
0124CFH   0124D9H   00000BH   BYTE   UNIT     XDATA          ?XD?IPS200PRO_WAVEFORM_CLEAR??ZF_DEVICE_IPS200PRO
0124DAH   0124E4H   00000BH   BYTE   UNIT     XDATA          ?XD?WIFI_SPI_GET_PARAMETER?ZF_DEVICE_WIFI_SPI
0124E5H   0124EFH   00000BH   BYTE   UNIT     XDATA          ?XD?ADC_SAMPLE??ADC
0124F0H   0124FAH   00000BH   BYTE   UNIT     XDATA          ?XD?ADC_SAMPLE_B??ADC
0124FBH   012504H   00000AH   BYTE   UNIT     XDATA          ?XD?IAP_READ_BUFF??ZF_DRIVER_EEPROM
012505H   01250EH   00000AH   BYTE   UNIT     XDATA          ?XD?IAP_WRITE_BUFF??ZF_DRIVER_EEPROM
01250FH   012518H   00000AH   BYTE   UNIT     XDATA          ?XD?SPI_DMA_READ??ZF_DRIVER_SPI
012519H   012522H   00000AH   BYTE   UNIT     XDATA          ?XD?SPI_DMA_WRITE_8BIT_ARRAY??ZF_DRIVER_SPI
012523H   01252CH   00000AH   BYTE   UNIT     XDATA          ?XD?SPI_DMA_WRITE_16BIT_ARRAY??ZF_DRIVER_SPI
01252DH   012536H   00000AH   BYTE   UNIT     XDATA          ?XD?SPI_DMA_READ_8BIT_ARRAY??ZF_DRIVER_SPI
012537H   012540H   00000AH   BYTE   UNIT     XDATA          ?XD?SPI_DMA_READ_16BIT_ARRAY??ZF_DRIVER_SPI
012541H   01254AH   00000AH   BYTE   UNIT     XDATA          ?XD?SPI_WRITE_8BIT_ARRAY??ZF_DRIVER_SPI
01254BH   012554H   00000AH   BYTE   UNIT     XDATA          ?XD?SPI_WRITE_16BIT_ARRAY??ZF_DRIVER_SPI
012555H   01255EH   00000AH   BYTE   UNIT     XDATA          ?XD?SPI_READ_8BIT_ARRAY??ZF_DRIVER_SPI
01255FH   012568H   00000AH   BYTE   UNIT     XDATA          ?XD?SPI_READ_16BIT_ARRAY??ZF_DRIVER_SPI
012569H   012572H   00000AH   BYTE   UNIT     XDATA          ?XD?MT9V03X_SCCB_INIT??ZF_DEVICE_MT9V03X
012573H   01257CH   00000AH   BYTE   UNIT     XDATA          ?XD?IPS114_SHOW_STRING??ZF_DEVICE_IPS114
01257DH   012586H   00000AH   BYTE   UNIT     XDATA          ?XD?TFT180_SHOW_STRING??ZF_DEVICE_TFT180
012587H   012590H   00000AH   BYTE   INSEG    XDATA          ?XD?ZF_DEVICE_IPS200
012591H   01259AH   00000AH   BYTE   UNIT     XDATA          ?XD?IPS200_SHOW_STRING??ZF_DEVICE_IPS200
01259BH   0125A4H   00000AH   BYTE   UNIT     XDATA          ?XD?WIFI_SPI_DMA_TRANSFER_DATA?ZF_DEVICE_WIFI_SPI
0125A5H   0125AEH   00000AH   BYTE   UNIT     XDATA          ?XD?SEEKFREE_ASSISTANT_CAMERA_INFORMATION_CONFIG??SEEKFREE
                                                             -_ASSISTANT
0125AFH   0125B8H   00000AH   BYTE   UNIT     XDATA          ?XD?ADC_MID_SAMPLE??ADC
0125B9H   0125C2H   00000AH   BYTE   UNIT     XDATA          ?XD?COMPARE_SWAP??AOI_FUNCTION
0125C3H   0125CBH   000009H   BYTE   UNIT     XDATA          ?XD?FUNC_STR_TO_INT??ZF_COMMON_FUNCTION
0125CCH   0125D4H   000009H   BYTE   UNIT     XDATA          ?XD?SYSTEM_DELAY??ZF_DRIVER_DELAY
0125D5H   0125DDH   000009H   BYTE   UNIT     XDATA          ?XD?IPS114_SHOW_INT8??ZF_DEVICE_IPS114
0125DEH   0125E6H   000009H   BYTE   UNIT     XDATA          ?XD?IPS114_SHOW_UINT8??ZF_DEVICE_IPS114
0125E7H   0125EFH   000009H   BYTE   UNIT     XDATA          ?XD?TFT180_SHOW_INT8??ZF_DEVICE_TFT180
0125F0H   0125F8H   000009H   BYTE   UNIT     XDATA          ?XD?TFT180_SHOW_UINT8??ZF_DEVICE_TFT180
0125F9H   012601H   000009H   BYTE   UNIT     XDATA          ?XD?IPS200_SHOW_INT8??ZF_DEVICE_IPS200
012602H   01260AH   000009H   BYTE   UNIT     XDATA          ?XD?IPS200_SHOW_UINT8??ZF_DEVICE_IPS200
01260BH   012613H   000009H   BYTE   UNIT     XDATA          ?XD?IPS200PRO_LABEL_CREATE??ZF_DEVICE_IPS200PRO
012614H   01261CH   000009H   BYTE   UNIT     XDATA          ?XD?IPS200PRO_TABLE_CREATE??ZF_DEVICE_IPS200PRO
01261DH   012625H   000009H   BYTE   UNIT     XDATA          ?XD?IPS200PRO_METER_CREATE??ZF_DEVICE_IPS200PRO
012626H   01262EH   000009H   BYTE   UNIT     XDATA          ?XD?IPS200PRO_CLOCK_CREATE??ZF_DEVICE_IPS200PRO
01262FH   012637H   000009H   BYTE   UNIT     XDATA          ?XD?IPS200PRO_PROGRESS_BAR_CREATE??ZF_DEVICE_IPS200PRO
L251 LINKER/LOCATER V4.66.93.0                                                        03/25/2026  13:05:55  PAGE 8


012638H   012640H   000009H   BYTE   UNIT     XDATA          ?XD?IPS200PRO_CALENDAR_CREATE??ZF_DEVICE_IPS200PRO
012641H   012649H   000009H   BYTE   UNIT     XDATA          ?XD?IPS200PRO_WAVEFORM_CREATE??ZF_DEVICE_IPS200PRO
01264AH   012652H   000009H   BYTE   UNIT     XDATA          ?XD?IPS200PRO_IMAGE_CREATE??ZF_DEVICE_IPS200PRO
012653H   01265BH   000009H   BYTE   UNIT     XDATA          ?XD?IPS200PRO_CONTAINER_CREATE??ZF_DEVICE_IPS200PRO
01265CH   012664H   000009H   BYTE   UNIT     XDATA          ?XD?IPS200PRO_INIT??ZF_DEVICE_IPS200PRO
012665H   01266DH   000009H   BYTE   UNIT     XDATA          ?XD?WIFI_SPI_INIT??ZF_DEVICE_WIFI_SPI
01266EH   012676H   000009H   BYTE   UNIT     XDATA          ?XD?DL1A_TIMEOUT_MICROSECONDS_TO_MCLKS?ZF_DEVICE_DL1A
012677H   01267FH   000009H   BYTE   UNIT     XDATA          ?XD?DL1A_SET_SIGNAL_RATE_LIMIT?ZF_DEVICE_DL1A
012680H   012688H   000009H   BYTE   UNIT     XDATA          ?XD?IMU660RA_WRITE_REGISTERS?ZF_DEVICE_IMU660RA
012689H   012691H   000009H   BYTE   UNIT     XDATA          ?XD?IMU660RB_READ_REGISTERS?ZF_DEVICE_IMU660RB
012692H   01269AH   000009H   BYTE   UNIT     XDATA          ?XD?IMU963RA_READ_ACC_GYRO_REGISTERS?ZF_DEVICE_IMU963RA
01269BH   0126A3H   000009H   BYTE   UNIT     XDATA          ?XD?SEEKFREE_ASSISTANT_SUM?SEEKFREE_ASSISTANT
0126A4H   0126ABH   000008H   BYTE   UNIT     XDATA          ?XD?DEBUG_SEND_BUFFER??ZF_COMMON_DEBUG
0126ACH   0126B3H   000008H   BYTE   UNIT     XDATA          ?XD?DEBUG_READ_BUFFER??ZF_COMMON_DEBUG
0126B4H   0126BBH   000008H   BYTE   UNIT     XDATA          ?XD?FIFO_HEAD_OFFSET?ZF_COMMON_FIFO
0126BCH   0126C3H   000008H   BYTE   UNIT     XDATA          ?XD?FIFO_END_OFFSET?ZF_COMMON_FIFO
0126C4H   0126CBH   000008H   BYTE   UNIT     XDATA          ?XD?FUNC_GET_GREATEST_COMMON_DIVISOR??ZF_COMMON_FUNCTION
0126CCH   0126D3H   000008H   BYTE   UNIT     XDATA          ?XD?FUNC_STR_TO_UINT??ZF_COMMON_FUNCTION
0126D4H   0126DBH   000008H   BYTE   UNIT     XDATA          ?XD?ADC_MEAN_FILTER_CONVERT??ZF_DRIVER_ADC
0126DCH   0126E3H   000008H   BYTE   UNIT     XDATA          ?XD?SOFT_IIC_DELAY??ZF_DRIVER_SOFT_IIC
0126E4H   0126EBH   000008H   BYTE   UNIT     XDATA          ?XD?SOFT_IIC_WRITE_16BIT_REGISTER??ZF_DRIVER_SOFT_IIC
0126ECH   0126F3H   000008H   BYTE   UNIT     XDATA          ?XD?SOFT_IIC_READ_16BIT_REGISTER??ZF_DRIVER_SOFT_IIC
0126F4H   0126FBH   000008H   BYTE   UNIT     XDATA          ?XD?UART_WRITE_STRING??ZF_DRIVER_UART
0126FCH   012703H   000008H   BYTE   UNIT     XDATA          ?XD?MT9V03X_SCCB_CHECK_ID??ZF_DEVICE_MT9V03X_DMA
012704H   01270BH   000008H   BYTE   INSEG    XDATA          ?XD?ZF_DEVICE_IPS114
01270CH   012713H   000008H   BYTE   UNIT     XDATA          ?XD?IPS114_SET_REGION?ZF_DEVICE_IPS114
012714H   01271BH   000008H   BYTE   UNIT     XDATA          ?XD?IPS114_SHOW_CHAR??ZF_DEVICE_IPS114
01271CH   012723H   000008H   BYTE   INSEG    XDATA          ?XD?ZF_DEVICE_TFT180
012724H   01272BH   000008H   BYTE   UNIT     XDATA          ?XD?TFT180_SET_REGION?ZF_DEVICE_TFT180
01272CH   012733H   000008H   BYTE   UNIT     XDATA          ?XD?TFT180_SHOW_CHAR??ZF_DEVICE_TFT180
012734H   01273BH   000008H   BYTE   UNIT     XDATA          ?XD?IPS200_SET_REGION?ZF_DEVICE_IPS200
01273CH   012743H   000008H   BYTE   UNIT     XDATA          ?XD?IPS200_SHOW_CHAR??ZF_DEVICE_IPS200
012744H   01274BH   000008H   BYTE   UNIT     XDATA          ?XD?IPS200PRO_READ_PARAMETER??ZF_DEVICE_IPS200PRO
01274CH   012753H   000008H   BYTE   UNIT     XDATA          ?XD?BLE6A20_SEND_STRING??ZF_DEVICE_BLE6A20
012754H   01275BH   000008H   BYTE   UNIT     XDATA          ?XD?WIFI_SPI_WAIT_IDLE?ZF_DEVICE_WIFI_SPI
01275CH   012763H   000008H   BYTE   UNIT     XDATA          ?XD?WIRELESS_UART_SEND_STRING??ZF_DEVICE_WIRELESS_UART
012764H   01276BH   000008H   BYTE   UNIT     XDATA          ?XD?REVERSE4??UTIL
01276CH   012773H   000008H   BYTE   INSEG    XDATA          ?XD?SEEKFREE_ASSISTANT_INTERFACE
012774H   01277AH   000007H   BYTE   UNIT     XDATA          ?XD?GPIO_INIT??ZF_DRIVER_GPIO
01277BH   012781H   000007H   BYTE   UNIT     XDATA          ?XD?SOFT_IIC_READ_DATA??ZF_DRIVER_SOFT_IIC
012782H   012788H   000007H   BYTE   UNIT     XDATA          ?XD?UART_RX_INTERRUPT??ZF_DRIVER_UART
012789H   01278FH   000007H   BYTE   UNIT     XDATA          ?XD?UART_QUERY_BYTE??ZF_DRIVER_UART
012790H   012796H   000007H   BYTE   UNIT     XDATA          ?XD?MT9V03X_WRITE_AND_CHECK_WORD_SCCB?ZF_DEVICE_MT9V03X_DM
                                                             -A
012797H   01279DH   000007H   BYTE   UNIT     XDATA          ?XD?WIFI_SPI_WIFI_SCAN??ZF_DEVICE_WIFI_SPI
01279EH   0127A4H   000007H   BYTE   UNIT     XDATA          ?XD?DL1A_TIMEOUT_MCLKS_TO_MICROSECONDS?ZF_DEVICE_DL1A
0127A5H   0127ABH   000007H   BYTE   UNIT     XDATA          ?XD?IMU963RA_GET_MAG??ZF_DEVICE_IMU963RA
0127ACH   0127B2H   000007H   BYTE   UNIT     XDATA          ?XD?USB_READ_FIFO??USB
0127B3H   0127B9H   000007H   BYTE   INSEG    XDATA          ?XD?USB_REQ_CLASS
0127BAH   0127C0H   000007H   BYTE   UNIT     XDATA          ?XD?SEEKFREE_ASSISTANT_CAMERA_DOT_SEND??SEEKFREE_ASSISTANT
0127C1H   0127C7H   000007H   BYTE   UNIT     XDATA          ?XD?INITSLIDINGAVERAGE??PD_ENC_SDI
0127C8H   0127CDH   000006H   BYTE   UNIT     XDATA          ?XD?FIFO_CLEAR??ZF_COMMON_FIFO
0127CEH   0127D3H   000006H   BYTE   UNIT     XDATA          ?XD?TIM_ENCODER_DIR_INIT?ZF_DRIVER_ENCODER
0127D4H   0127D9H   000006H   BYTE   UNIT     XDATA          ?XD?PWM_ENCODER_DIR_INIT?ZF_DRIVER_ENCODER
0127DAH   0127DFH   000006H   BYTE   UNIT     XDATA          ?XD?ENCODER_QUAD_INIT??ZF_DRIVER_ENCODER
0127E0H   0127E5H   000006H   BYTE   UNIT     XDATA          ?XD?ENCODER_DIR_INIT??ZF_DRIVER_ENCODER
0127E6H   0127EBH   000006H   BYTE   UNIT     XDATA          ?XD?SOFT_IIC_SEND_DATA??ZF_DRIVER_SOFT_IIC
0127ECH   0127F1H   000006H   BYTE   UNIT     XDATA          ?XD?SOFT_IIC_WRITE_16BIT??ZF_DRIVER_SOFT_IIC
0127F2H   0127F7H   000006H   BYTE   UNIT     XDATA          ?XD?SOFT_IIC_WRITE_8BIT_REGISTER??ZF_DRIVER_SOFT_IIC
0127F8H   0127FDH   000006H   BYTE   UNIT     XDATA          ?XD?SOFT_IIC_READ_16BIT??ZF_DRIVER_SOFT_IIC
0127FEH   012803H   000006H   BYTE   UNIT     XDATA          ?XD?SOFT_IIC_READ_8BIT_REGISTER??ZF_DRIVER_SOFT_IIC
012804H   012809H   000006H   BYTE   UNIT     XDATA          ?XD?SOFT_IIC_SCCB_WRITE_REGISTER??ZF_DRIVER_SOFT_IIC
01280AH   01280FH   000006H   BYTE   UNIT     XDATA          ?XD?SOFT_IIC_SCCB_READ_REGISTER??ZF_DRIVER_SOFT_IIC
012810H   012815H   000006H   BYTE   UNIT     XDATA          ?XD?SPI_DMA_WRITE_16BIT_REGISTER??ZF_DRIVER_SPI
012816H   01281BH   000006H   BYTE   UNIT     XDATA          ?XD?SPI_DMA_READ_16BIT_REGISTER??ZF_DRIVER_SPI
L251 LINKER/LOCATER V4.66.93.0                                                        03/25/2026  13:05:55  PAGE 9


01281CH   012821H   000006H   BYTE   UNIT     XDATA          ?XD?SPI_WRITE_16BIT_REGISTER??ZF_DRIVER_SPI
012822H   012827H   000006H   BYTE   UNIT     XDATA          ?XD?SPI_READ_16BIT_REGISTER??ZF_DRIVER_SPI
012828H   01282DH   000006H   BYTE   UNIT     XDATA          ?XD?USB_CDC_WRITE_STRING??ZF_DRIVER_USB_CDC
01282EH   012833H   000006H   BYTE   UNIT     XDATA          ?XD?SET_WIRELESS_TYPE??ZF_DEVICE_TYPE
012834H   012839H   000006H   BYTE   UNIT     XDATA          ?XD?SET_TOF_TYPE??ZF_DEVICE_TYPE
01283AH   01283FH   000006H   BYTE   UNIT     XDATA          ?XD?IPS114_DRAW_POINT??ZF_DEVICE_IPS114
012840H   012845H   000006H   BYTE   UNIT     XDATA          ?XD?TFT180_DRAW_POINT??ZF_DEVICE_TFT180
012846H   01284BH   000006H   BYTE   UNIT     XDATA          ?XD?IPS200_DRAW_POINT??ZF_DEVICE_IPS200
01284CH   012851H   000006H   BYTE   UNIT     XDATA          ?XD?WIFI_SPI_DMA_TRANSFER_COMMAND?ZF_DEVICE_WIFI_SPI
012852H   012857H   000006H   BYTE   UNIT     XDATA          ?XD?IMU660RA_GET_ACC??ZF_DEVICE_IMU660RA
012858H   01285DH   000006H   BYTE   UNIT     XDATA          ?XD?IMU660RA_GET_GYRO??ZF_DEVICE_IMU660RA
01285EH   012863H   000006H   BYTE   UNIT     XDATA          ?XD?IMU660RB_GET_ACC??ZF_DEVICE_IMU660RB
012864H   012869H   000006H   BYTE   UNIT     XDATA          ?XD?IMU660RB_GET_GYRO??ZF_DEVICE_IMU660RB
01286AH   01286FH   000006H   BYTE   UNIT     XDATA          ?XD?IMU660RB_ACC_TRANSITION??ZF_DEVICE_IMU660RB
012870H   012875H   000006H   BYTE   UNIT     XDATA          ?XD?IMU660RB_GYRO_TRANSITION??ZF_DEVICE_IMU660RB
012876H   01287BH   000006H   BYTE   UNIT     XDATA          ?XD?IMU963RA_WRITE_MAG_REGISTER?ZF_DEVICE_IMU963RA
01287CH   012881H   000006H   BYTE   UNIT     XDATA          ?XD?IMU963RA_GET_ACC??ZF_DEVICE_IMU963RA
012882H   012887H   000006H   BYTE   UNIT     XDATA          ?XD?IMU963RA_GET_GYRO??ZF_DEVICE_IMU963RA
012888H   01288DH   000006H   BYTE   UNIT     XDATA          ?XD?USB_WRITE_FIFO??USB
01288EH   012892H   000005H   BYTE   UNIT     XDATA          ?XD?CLOCK_INIT??ZF_COMMON_CLOCK
012893H   012897H   000005H   BYTE   UNIT     XDATA          ?XD?IAP_READ_BYTE??ZF_DRIVER_EEPROM
012898H   01289CH   000005H   BYTE   UNIT     XDATA          ?XD?IAP_WRITE_BYTE??ZF_DRIVER_EEPROM
01289DH   0128A1H   000005H   BYTE   UNIT     XDATA          ?XD?GPIO_GET_LEVEL??ZF_DRIVER_GPIO
0128A2H   0128A6H   000005H   BYTE   UNIT     XDATA          ?XD?GPIO_SET_LEVEL??ZF_DRIVER_GPIO
0128A7H   0128ABH   000005H   BYTE   UNIT     XDATA          ?XD?SOFT_IIC_SEND_ACK??ZF_DRIVER_SOFT_IIC
0128ACH   0128B0H   000005H   BYTE   UNIT     XDATA          ?XD?SOFT_IIC_WAIT_ACK??ZF_DRIVER_SOFT_IIC
0128B1H   0128B5H   000005H   BYTE   UNIT     XDATA          ?XD?SOFT_IIC_WRITE_8BIT??ZF_DRIVER_SOFT_IIC
0128B6H   0128BAH   000005H   BYTE   UNIT     XDATA          ?XD?SOFT_IIC_READ_8BIT??ZF_DRIVER_SOFT_IIC
0128BBH   0128BFH   000005H   BYTE   UNIT     XDATA          ?XD?TIMER_FUNCITON_CHECK??ZF_DRIVER_TIMER
0128C0H   0128C4H   000005H   BYTE   UNIT     XDATA          ?XD?IPS200PRO_PAGE_CREATE??ZF_DEVICE_IPS200PRO
0128C5H   0128C9H   000005H   BYTE   UNIT     XDATA          ?XD?WIFI_SPI_RESET??ZF_DEVICE_WIFI_SPI
0128CAH   0128CEH   000005H   BYTE   UNIT     XDATA          ?XD?DL1A_GET_SEQUENCE_STEP_ENABLES?ZF_DEVICE_DL1A
0128CFH   0128D3H   000005H   BYTE   UNIT     XDATA          ?XD?DL1A_PERFORM_SINGLE_REF_CALIBRATION?ZF_DEVICE_DL1A
0128D4H   0128D8H   000005H   BYTE   UNIT     XDATA          ?XD?DL1B_GET_DISTANCE??ZF_DEVICE_DL1B
0128D9H   0128DCH   000004H   BYTE   INSEG    XDATA          ?XD?ZF_COMMON_CLOCK
0128DDH   0128E0H   000004H   BYTE   UNIT     XDATA          ?XD?FIFO_USED??ZF_COMMON_FIFO
0128E1H   0128E4H   000004H   BYTE   UNIT     XDATA          ?XD?FUNC_SOFT_DELAY??ZF_COMMON_FUNCTION
0128E5H   0128E8H   000004H   BYTE   UNIT     XDATA          ?XD?ADC_CONVERT??ZF_DRIVER_ADC
0128E9H   0128ECH   000004H   BYTE   UNIT     XDATA          ?XD?ADC_INIT??ZF_DRIVER_ADC
0128EDH   0128F0H   000004H   BYTE   UNIT     XDATA          ?XD?SOFT_DELAY??ZF_DRIVER_DELAY
0128F1H   0128F4H   000004H   BYTE   UNIT     XDATA          ?XD?IAP_ERASE_PAGE??ZF_DRIVER_EEPROM
0128F5H   0128F8H   000004H   BYTE   UNIT     XDATA          ?XD?ENCODER_GET_COUNT??ZF_DRIVER_ENCODER
0128F9H   0128FCH   000004H   BYTE   UNIT     XDATA          ?XD?EXIT_INIT??ZF_DRIVER_EXTI
0128FDH   012900H   000004H   BYTE   UNIT     XDATA          ?XD?GPIO_SET_PUSH_PULL?ZF_DRIVER_GPIO
012901H   012904H   000004H   BYTE   UNIT     XDATA          ?XD?GPIO_SET_OPEN_DTAIN?ZF_DRIVER_GPIO
012905H   012908H   000004H   BYTE   UNIT     XDATA          ?XD?GPIO_SET_IMPEDANCE??ZF_DRIVER_GPIO
012909H   01290CH   000004H   BYTE   UNIT     XDATA          ?XD?GPIO_SET_DR?ZF_DRIVER_GPIO
01290DH   012910H   000004H   BYTE   UNIT     XDATA          ?XD?GPIO_SET_IE?ZF_DRIVER_GPIO
012911H   012914H   000004H   BYTE   UNIT     XDATA          ?XD?GPIO_SET_LEVEL_SPEED??ZF_DRIVER_GPIO
012915H   012918H   000004H   BYTE   UNIT     XDATA          ?XD?SOFT_IIC_START??ZF_DRIVER_SOFT_IIC
012919H   01291CH   000004H   BYTE   UNIT     XDATA          ?XD?SOFT_IIC_STOP??ZF_DRIVER_SOFT_IIC
01291DH   012920H   000004H   BYTE   UNIT     XDATA          ?XD?SPI_DMA_WRITE_16BIT??ZF_DRIVER_SPI
012921H   012924H   000004H   BYTE   UNIT     XDATA          ?XD?SPI_DMA_WRITE_8BIT_REGISTER??ZF_DRIVER_SPI
012925H   012928H   000004H   BYTE   UNIT     XDATA          ?XD?SPI_DMA_READ_16BIT??ZF_DRIVER_SPI
012929H   01292CH   000004H   BYTE   UNIT     XDATA          ?XD?SPI_DMA_READ_8BIT_REGISTER??ZF_DRIVER_SPI
01292DH   012930H   000004H   BYTE   UNIT     XDATA          ?XD?SPI_READ_DAT??ZF_DRIVER_SPI
012931H   012934H   000004H   BYTE   UNIT     XDATA          ?XD?SPI_WRITE_16BIT??ZF_DRIVER_SPI
012935H   012938H   000004H   BYTE   UNIT     XDATA          ?XD?SPI_WRITE_8BIT_REGISTER??ZF_DRIVER_SPI
012939H   01293CH   000004H   BYTE   UNIT     XDATA          ?XD?SPI_READ_16BIT??ZF_DRIVER_SPI
01293DH   012940H   000004H   BYTE   INSEG    XDATA          ?XD?ZF_DRIVER_USB_CDC
012941H   012944H   000004H   BYTE   UNIT     XDATA          ?XD?USB_CDC_RX_INTERRUPT??ZF_DRIVER_USB_CDC
012945H   012948H   000004H   BYTE   UNIT     XDATA          ?XD?MT9V03X_SET_REG??ZF_DEVICE_MT9V03X
012949H   01294CH   000004H   BYTE   UNIT     XDATA          ?XD?MT9V03X_SCCB_SET_REG??ZF_DEVICE_MT9V03X_DMA
01294DH   012950H   000004H   BYTE   UNIT     XDATA          ?XD?IPS114_SET_COLOR??ZF_DEVICE_IPS114
012951H   012954H   000004H   BYTE   UNIT     XDATA          ?XD?TFT180_SET_COLOR??ZF_DEVICE_TFT180
L251 LINKER/LOCATER V4.66.93.0                                                        03/25/2026  13:05:55  PAGE 10


012955H   012958H   000004H   BYTE   UNIT     XDATA          ?XD?IPS200_SET_COLOR??ZF_DEVICE_IPS200
012959H   01295CH   000004H   BYTE   UNIT     XDATA          ?XD?IPS200PRO_WAIT_IDLE?ZF_DEVICE_IPS200PRO
01295DH   012960H   000004H   BYTE   UNIT     XDATA          ?XD?IPS200PRO_PAGE_HIDDEN??ZF_DEVICE_IPS200PRO
012961H   012964H   000004H   BYTE   UNIT     XDATA          ?XD?WIFI_SPI_SEND_STRING??ZF_DEVICE_WIFI_SPI
012965H   012968H   000004H   BYTE   UNIT     XDATA          ?XD?IMU660RA_SELF_CHECK?ZF_DEVICE_IMU660RA
012969H   01296CH   000004H   BYTE   UNIT     XDATA          ?XD?IMU660RB_SELF_CHECK?ZF_DEVICE_IMU660RB
01296DH   012970H   000004H   BYTE   UNIT     XDATA          ?XD?IMU963RA_READ_MAG_REGISTER?ZF_DEVICE_IMU963RA
012971H   012974H   000004H   BYTE   UNIT     XDATA          ?XD?IMU963RA_ACC_GYRO_SELF_CHECK?ZF_DEVICE_IMU963RA
012975H   012978H   000004H   BYTE   UNIT     XDATA          ?XD?IMU963RA_MAG_SELF_CHECK?ZF_DEVICE_IMU963RA
012979H   01297CH   000004H   BYTE   UNIT     XDATA          ?XD?USB_ISR??USB
01297DH   012980H   000004H   BYTE   UNIT     XDATA          ?XD?REVERSE2??UTIL
012981H   012984H   000004H   BYTE   INSEG    XDATA          ?XD?VAR
012985H   012988H   000004H   BYTE   UNIT     XDATA          ?XD?ADC_V_SAMPLE??ADC
012989H   01298CH   000004H   BYTE   UNIT     XDATA          ?XD?ADC_V_SAMPLE_2??ADC
01298DH   012990H   000004H   BYTE   UNIT     XDATA          ?XD?ADC_V_SAMPLE_3??ADC
012991H   012994H   000004H   BYTE   UNIT     XDATA          ?XD?ADC_V_SAMPLE_4??ADC
012995H   012998H   000004H   BYTE   UNIT     XDATA          ?XD?ABS_INT32??AOI_FUNCTION
012999H   01299CH   000004H   BYTE   UNIT     XDATA          ?XD?SORT_SEVEN??AOI_FUNCTION
01299DH   01299FH   000003H   BYTE   UNIT     XDATA          ?XD?INTERRUPT_SET_PRIORITY??ZF_COMMON_INTERRUPT
0129A0H   0129A2H   000003H   BYTE   UNIT     XDATA          ?XD?SPI_DMA_WRITE_8BIT??ZF_DRIVER_SPI
0129A3H   0129A5H   000003H   BYTE   UNIT     XDATA          ?XD?SPI_DMA_READ_8BIT??ZF_DRIVER_SPI
0129A6H   0129A8H   000003H   BYTE   UNIT     XDATA          ?XD?SPI_WRITE_DAT??ZF_DRIVER_SPI
0129A9H   0129ABH   000003H   BYTE   UNIT     XDATA          ?XD?SPI_WRITE_8BIT??ZF_DRIVER_SPI
0129ACH   0129AEH   000003H   BYTE   UNIT     XDATA          ?XD?SPI_READ_8BIT_REGISTER??ZF_DRIVER_SPI
0129AFH   0129B1H   000003H   BYTE   UNIT     XDATA          ?XD?UART_WRITE_BYTE??ZF_DRIVER_UART
0129B2H   0129B4H   000003H   BYTE   UNIT     XDATA          ?XD?UART_READ_BYTE??ZF_DRIVER_UART
0129B5H   0129B7H   000003H   BYTE   UNIT     XDATA          ?XD?MT9V03X_SET_EXPOSURE_TIME??ZF_DEVICE_MT9V03X
0129B8H   0129BAH   000003H   BYTE   UNIT     XDATA          ?XD?MT9V03X_WRITE_WORD_SCCB?ZF_DEVICE_MT9V03X_DMA
0129BBH   0129BDH   000003H   BYTE   UNIT     XDATA          ?XD?MT9V03X_READ_WORD_SCCB?ZF_DEVICE_MT9V03X_DMA
0129BEH   0129C0H   000003H   BYTE   UNIT     XDATA          ?XD?MT9V03X_SCCB_SET_EXPOSURE_TIME??ZF_DEVICE_MT9V03X_DMA
0129C1H   0129C3H   000003H   BYTE   UNIT     XDATA          ?XD?BLE6A20_SEND_BYTE??ZF_DEVICE_BLE6A20
0129C4H   0129C6H   000003H   BYTE   UNIT     XDATA          ?XD?WIRELESS_UART_SEND_BYTE??ZF_DEVICE_WIRELESS_UART
0129C7H   0129C9H   000003H   BYTE   UNIT     XDATA          ?XD?DL1A_GET_VCSEL_PULSE_PERIOD?ZF_DEVICE_DL1A
0129CAH   0129CCH   000003H   BYTE   UNIT     XDATA          ?XD?DL1A_GET_DISTANCE??ZF_DEVICE_DL1A
0129CDH   0129CFH   000003H   BYTE   UNIT     XDATA          ?XD?IMU660RA_READ_REGISTER?ZF_DEVICE_IMU660RA
0129D0H   0129D1H   000002H   BYTE   INSEG    XDATA          ?XD?ZF_DRIVER_ADC
0129D2H   0129D3H   000002H   BYTE   UNIT     XDATA          ?XD?ENCODER_CLEAR_COUNT??ZF_DRIVER_ENCODER
0129D4H   0129D5H   000002H   BYTE   UNIT     XDATA          ?XD?GPIO_SET_UP?ZF_DRIVER_GPIO
0129D6H   0129D7H   000002H   BYTE   UNIT     XDATA          ?XD?GPIO_SET_PD?ZF_DRIVER_GPIO
0129D8H   0129D9H   000002H   BYTE   UNIT     XDATA          ?XD?GPIO_TOGGLE_LEVEL??ZF_DRIVER_GPIO
0129DAH   0129DBH   000002H   BYTE   UNIT     XDATA          ?XD?SPI_READ_8BIT??ZF_DRIVER_SPI
0129DCH   0129DDH   000002H   BYTE   UNIT     XDATA          ?XD?UART_RX_START_BUFF??ZF_DRIVER_UART
0129DEH   0129DFH   000002H   BYTE   UNIT     XDATA          ?XD?UART_DMA_INIT??ZF_DRIVER_UART
0129E0H   0129E1H   000002H   BYTE   UNIT     XDATA          ?XD?MT9V03X_INIT??ZF_DEVICE_MT9V03X
0129E2H   0129E3H   000002H   BYTE   UNIT     XDATA          ?XD?IPS114_SET_DIR??ZF_DEVICE_IPS114
0129E4H   0129E5H   000002H   BYTE   UNIT     XDATA          ?XD?TFT180_SET_DIR??ZF_DEVICE_TFT180
0129E6H   0129E7H   000002H   BYTE   UNIT     XDATA          ?XD?IPS200_SET_DIR??ZF_DEVICE_IPS200
0129E8H   0129E9H   000002H   BYTE   UNIT     XDATA          ?XD?DL1A_DECODE_TIMEOUT?ZF_DEVICE_DL1A
0129EAH   0129EBH   000002H   BYTE   UNIT     XDATA          ?XD?DL1A_ENCODE_TIMEOUT?ZF_DEVICE_DL1A
0129ECH   0129EDH   000002H   BYTE   UNIT     XDATA          ?XD?IMU660RA_WRITE_REGISTER?ZF_DEVICE_IMU660RA
0129EEH   0129EFH   000002H   BYTE   UNIT     XDATA          ?XD?IMU660RB_WRITE_REGISTER?ZF_DEVICE_IMU660RB
0129F0H   0129F1H   000002H   BYTE   UNIT     XDATA          ?XD?IMU660RB_READ_REGISTER?ZF_DEVICE_IMU660RB
0129F2H   0129F3H   000002H   BYTE   UNIT     XDATA          ?XD?IMU963RA_WRITE_ACC_GYRO_REGISTER?ZF_DEVICE_IMU963RA
0129F4H   0129F5H   000002H   BYTE   UNIT     XDATA          ?XD?IMU963RA_READ_ACC_GYRO_REGISTER?ZF_DEVICE_IMU963RA
0129F6H   0129F7H   000002H   BYTE   UNIT     XDATA          ?XD?IMU963RA_CONNECT_MAG?ZF_DEVICE_IMU963RA
0129F8H   0129F9H   000002H   BYTE   UNIT     XDATA          ?XD?USB_READ_REG??USB
0129FAH   0129FBH   000002H   BYTE   UNIT     XDATA          ?XD?USB_WRITE_REG??USB
0129FCH   0129FDH   000002H   BYTE   UNIT     XDATA          ?XD?USB_CTRL_IN??USB
0129FEH   0129FFH   000002H   BYTE   UNIT     XDATA          ?XD?USB_CTRL_OUT??USB
012A00H   012A01H   000002H   BYTE   UNIT     XDATA          ?XD?SEEKFREE_ASSISTANT_INTERFACE_INIT??SEEKFREE_ASSISTANT_
                                                             -INTERFACE
012A02H   012A03H   000002H   BYTE   INSEG    XDATA          ?XD?MOTOR
012A04H   012A04H   000001H   BYTE   UNIT     XDATA          ?XD?PUTCHAR??ZF_COMMON_DEBUG
012A05H   012A05H   000001H   BYTE   UNIT     XDATA          ?XD?IAP_SET_TPS??ZF_DRIVER_EEPROM
012A06H   012A06H   000001H   BYTE   UNIT     XDATA          ?XD?USB_CDC_WRITE_BYTE??ZF_DRIVER_USB_CDC
L251 LINKER/LOCATER V4.66.93.0                                                        03/25/2026  13:05:55  PAGE 11


012A07H   012A07H   000001H   BYTE   UNIT     XDATA          ?XD?IPS114_WRITE_INDEX?ZF_DEVICE_IPS114
012A08H   012A08H   000001H   BYTE   UNIT     XDATA          ?XD?TFT180_WRITE_INDEX?ZF_DEVICE_TFT180
012A09H   012A09H   000001H   BYTE   UNIT     XDATA          ?XD?IPS200_WRITE_INDEX?ZF_DEVICE_IPS200
012A0AH   012A0AH   000001H   BYTE   UNIT     XDATA          ?XD?BLE6A20_CALLBACK??ZF_DEVICE_BLE6A20
012A0BH   012A0BH   000001H   BYTE   UNIT     XDATA          ?XD?BLE6A20_INIT??ZF_DEVICE_BLE6A20
012A0CH   012A0CH   000001H   BYTE   UNIT     XDATA          ?XD?WIRELESS_UART_CALLBACK??ZF_DEVICE_WIRELESS_UART
012A0DH   012A0DH   000001H   BYTE   UNIT     XDATA          ?XD?WIRELESS_UART_INIT??ZF_DEVICE_WIRELESS_UART
012A0EH   012A0EH   000001H   BYTE   UNIT     XDATA          ?XD?IMU660RA_INIT??ZF_DEVICE_IMU660RA
012A0FH   012A0FH   000001H   BYTE   UNIT     XDATA          ?XD?IMU660RB_INIT??ZF_DEVICE_IMU660RB
012A10H   012A10H   000001H   BYTE   UNIT     XDATA          ?XD?IMU963RA_INIT??ZF_DEVICE_IMU963RA
012A11H   012A11H   000001H   BYTE   UNIT     XDATA          ?XD?USB_SETUP??USB
012A12H   012A12H   000001H   BYTE   UNIT     XDATA          ?XD?USB_IN_EP1??USB
012A13H   012A13H   000001H   BYTE   UNIT     XDATA          ?XD?USB_IN_EP2??USB
012A14H   012A14H   000001H   BYTE   UNIT     XDATA          ?XD?USB_GET_STATUS??USB_REQ_STD
012A15H   012A15H   000001H   BYTE   UNIT     XDATA          ?XD?USB_CLEAR_FEATURE??USB_REQ_STD
012A16H   012A16H   000001H   BYTE   UNIT     XDATA          ?XD?USB_SET_FEATURE??USB_REQ_STD
012A17H   012A17H   000001H   BYTE   UNIT     XDATA          ?XD?USB_SET_ADDRESS??USB_REQ_STD
012A18H   012A18H   000001H   BYTE   INSEG    XDATA          ?XD?ISR
012A19H   012A1BH   000003H   ---    ---      **GAP**
012A1CH   01823CH   005821H   ALN 2  INSEG    HDATA          ?FD?ZF_DEVICE_MT9V03X_DMA
01823DH   FC47FFH   FAC5C3H   ---    ---      **GAP**
FC4800H   FC71A3H   0029A4H   BYTE   INSEG    ECODE          ?PR?ZF_COMMON_FUNCTION
FC71A4H   FC9307H   002164H   BYTE   INSEG    ECODE          ?PR?ZF_DRIVER_SPI
FC9308H   FCB2D9H   001FD2H   BYTE   INSEG    ECODE          ?PR?ZF_DEVICE_IPS200PRO
FCB2DAH   FCCD6BH   001A92H   BYTE   INSEG    ECODE          ?PR?ZF_DRIVER_SOFT_IIC
FCCD6CH   FCE750H   0019E5H   BYTE   INSEG    ECODE          ?PR?ZF_DRIVER_UART
FCE751H   FCFE5EH   00170EH   BYTE   INSEG    ECODE          ?PR?ZF_DEVICE_IPS200
FCFE5FH   FCFFE5H   000187H   BYTE   INSEG    ECODE          ?PR?ZF_DRIVER_USB_CDC
FCFFE6H   FCFFFFH   00001AH   BYTE   INSEG    ECODE          ?PR?MEMSET_
FD0000H   FD18BDH   0018BEH   BYTE   INSEG    ECODE          ?PR?ZF_DEVICE_IPS114
FD18BEH   FD2F02H   001645H   BYTE   INSEG    ECODE          ?PR?ZF_DEVICE_TFT180
FD2F03H   FD43B1H   0014AFH   BYTE   INSEG    ECODE          ?PR?ZF_DRIVER_GPIO
FD43B2H   FD571CH   00136BH   BYTE   INSEG    ECODE          ?PR?ZF_DEVICE_DL1A
FD571DH   FD67E1H   0010C5H   BYTE   INSEG    ECODE          ?PR?ZF_DEVICE_WIFI_SPI
FD67E2H   FD77DFH   000FFEH   BYTE   INSEG    ECODE          ?C?LIB_CODE?
FD77E0H   FD8756H   000F77H   BYTE   INSEG    ECODE          ?PR?ZF_COMMON_FIFO
FD8757H   FD9595H   000E3FH   BYTE   INSEG    ECODE          ?PR?ZF_DEVICE_MT9V03X_DMA
FD9596H   FDA3B2H   000E1DH   BYTE   INSEG    ECODE          ?PR?ZF_DRIVER_ENCODER
FDA3B3H   FDB09EH   000CECH   BYTE   INSEG    ECODE          ?PR?SEEKFREE_ASSISTANT
FDB09FH   FDBAC9H   000A2BH   BYTE   INSEG    ECODE          ?PR?ZF_DRIVER_PWM
FDBACAH   FDC47BH   0009B2H   BYTE   INSEG    ECODE          ?PR?ISR
FDC47CH   FDCCFAH   00087FH   BYTE   INSEG    ECODE          ?PR?ADC
FDCCFBH   FDD4D9H   0007DFH   BYTE   INSEG    ECODE          ?PR?ZF_DEVICE_IMU963RA
FDD4DAH   FDDC36H   00075DH   BYTE   INSEG    ECODE          ?PR?ZF_DRIVER_PIT
FDDC37H   FDE38AH   000754H   BYTE   INSEG    ECODE          ?PR?USB_REQ_STD
FDE38BH   FDE8EEH   000564H   BYTE   INSEG    ECODE          ?PR?USB
FDE8EFH   FDEDE3H   0004F5H   BYTE   INSEG    ECODE          ?PR?ZF_DEVICE_IMU660RA
FDEDE4H   FDF24DH   00046AH   BYTE   INSEG    ECODE          ?PR?ZF_DEVICE_IMU660RB
FDF24EH   FDF697H   00044AH   BYTE   INSEG    ECODE          ?PR?ZF_COMMON_INTERRUPT
FDF698H   FDFAB9H   000422H   BYTE   INSEG    ECODE          ?PR?ZF_DEVICE_DL1B
FDFABAH   FDFED1H   000418H   BYTE   INSEG    ECODE          ?PR?AOI_FUNCTION
FDFED2H   FDFF9FH   0000CEH   BYTE   INSEG    ECODE          ?PR?USB_REQ_CLASS
FDFFA0H   FDFFFEH   00005FH   BYTE   INSEG    ECODE          ?PR?SEEKFREE_ASSISTANT_INTERFACE
FDFFFFH   FDFFFFH   000001H   BYTE   INSEG    ECODE          ?PR?PID
FE0000H   FE0369H   00036AH   BYTE   INSEG    ECODE          ?PR?ZF_DRIVER_EEPROM
FE036AH   FE06ACH   000343H   BYTE   INSEG    ECODE          ?PR?ZF_DEVICE_BLE6A20
FE06ADH   FE09D1H   000325H   BYTE   INSEG    ECODE          ?PR?ZF_DEVICE_WIRELESS_UART
FE09D2H   FE0CC9H   0002F8H   BYTE   INSEG    ECODE          ?PR?ZF_DRIVER_ADC
FE0CCAH   FE0F6DH   0002A4H   BYTE   INSEG    ECODE          ?PR?PD_ENC_SDI
FE0F6EH   FE11CBH   00025EH   BYTE   INSEG    ECODE          ?PR?ZF_COMMON_DEBUG
FE11CCH   FE1388H   0001BDH   BYTE   INSEG    ECODE          ?PR?ZF_COMMON_CLOCK
FE1389H   FE1545H   0001BDH   BYTE   INSEG    ECODE          ?PR?ZF_DEVICE_MT9V03X
FE1546H   FE16CBH   000186H   BYTE   INSEG    ECODE          ?PR?IMU
FE16CCH   FE183BH   000170H   BYTE   INSEG    ECODE          ?PR?ZF_DEVICE_TYPE
FE183CH   FE19A4H   000169H   BYTE   INSEG    ECODE          ?PR?MAIN
L251 LINKER/LOCATER V4.66.93.0                                                        03/25/2026  13:05:55  PAGE 12


FE19A5H   FE1AE9H   000145H   BYTE   INSEG    ECODE          ?PR?ZF_DRIVER_DELAY
FE1AEAH   FE1C28H   00013FH   BYTE   INSEG    ECODE          ?PR?MOTOR
FE1C29H   FE1CCEH   0000A6H   BYTE   INSEG    ECODE          ?PR?UTIL
FE1CCFH   FE1D4FH   000081H   BYTE   INSEG    ECODE          ?PR?ZF_DRIVER_TIMER
FE1D50H   FE1DC9H   00007AH   BYTE   INSEG    ECODE          ?PR?ZF_DRIVER_EXTI
FE1DCAH   FE1E00H   000037H   BYTE   INSEG    ECODE          ?PR?STRNCMP_
FE1E01H   FE1E25H   000025H   BYTE   INSEG    ECODE          ?PR?MEMCPY_
FE1E26H   FE1E33H   00000EH   BYTE   INSEG    ECODE          ?PR?STRLEN_
FE1E34H   FE1E38H   000005H   BYTE   INSEG    ECODE          ?PR?USB_REQ_VENDOR
FE1E39H   FE3EC3H   00208BH   BYTE   UNIT     HCONST         ?HC?ZF_DEVICE_CONFIG
FE3EC4H   FE48E1H   000A1EH   BYTE   UNIT     HCONST         ?C_INITHDATA
FE48E2H   FE4AE1H   000200H   BYTE   UNIT     HCONST         ?HC?ZF_DRIVER_EEPROM
FE4AE2H   FE4CBBH   0001DAH   BYTE   UNIT     HCONST         ?HC?ZF_DRIVER_PWM
FE4CBCH   FE4E0DH   000152H   BYTE   UNIT     HCONST         ?HC?ZF_DRIVER_SPI
FE4E0EH   FE4EDDH   0000D0H   BYTE   UNIT     HCONST         ?HC?ZF_DEVICE_IMU963RA
FE4EDEH   FE4F81H   0000A4H   BYTE   UNIT     HCONST         ?HC?SEEKFREE_ASSISTANT
FE4F82H   FE5008H   000087H   BYTE   UNIT     HCONST         ?HC?ZF_DEVICE_IMU660RA
FE5009H   FE5080H   000078H   BYTE   UNIT     HCONST         ?HC?ZF_DEVICE_WIFI_SPI
FE5081H   FE50F7H   000077H   BYTE   UNIT     HCONST         ?HC?ZF_DEVICE_DL1A
FE50F8H   FE516DH   000076H   BYTE   UNIT     HCONST         ?HC?MAIN
FE516EH   FE51E0H   000073H   BYTE   UNIT     HCONST         ?HC?ZF_DRIVER_UART
FE51E1H   FE5237H   000057H   BYTE   UNIT     HCONST         ?HC?ZF_COMMON_FUNCTION
FE5238H   FE528DH   000056H   BYTE   UNIT     HCONST         ?HC?ADC
FE528EH   FE52C1H   000034H   BYTE   UNIT     HCONST         ?HC?ZF_DEVICE_WIRELESS_UART
FE52C2H   FE52F4H   000033H   BYTE   UNIT     HCONST         ?HC?ZF_DEVICE_IPS114
FE52F5H   FE5327H   000033H   BYTE   UNIT     HCONST         ?HC?ZF_DEVICE_TFT180
FE5328H   FE535AH   000033H   BYTE   UNIT     HCONST         ?HC?ZF_DEVICE_IPS200
FE535BH   FE5389H   00002FH   BYTE   UNIT     HCONST         ?HC?ZF_DRIVER_SOFT_IIC
FE538AH   FE53B7H   00002EH   BYTE   UNIT     HCONST         ?HC?ZF_DRIVER_ENCODER
FE53B8H   FE53E5H   00002EH   BYTE   UNIT     HCONST         ?HC?ZF_DEVICE_BLE6A20
FE53E6H   FE5412H   00002DH   BYTE   UNIT     HCONST         ?HC?ZF_COMMON_DEBUG
FE5413H   FE543DH   00002BH   BYTE   UNIT     HCONST         ?HC?ZF_COMMON_FIFO
FE543EH   FE5468H   00002BH   BYTE   UNIT     HCONST         ?HC?ZF_DRIVER_GPIO
FE5469H   FE5492H   00002AH   BYTE   UNIT     HCONST         ?HC?ZF_DRIVER_ADC
FE5493H   FE54BCH   00002AH   BYTE   UNIT     HCONST         ?HC?ZF_DRIVER_PIT
FE54BDH   FE54E6H   00002AH   BYTE   UNIT     HCONST         ?HC?ZF_DEVICE_MT9V03X_DMA
FE54E7H   FE550EH   000028H   BYTE   UNIT     HCONST         ?HC?ZF_DEVICE_MT9V03X
FE550FH   FE5529H   00001BH   BYTE   UNIT     HCONST         ?HC?ZF_DEVICE_IMU660RB
FE552AH   FE552DH   000004H   BYTE   INSEG    HCONST         ?HC?PRINTF
FE552EH   FEFFFFH   00AAD2H   ---    ---      **GAP**
FF0000H   FF0002H   000003H   ---    OFFS..   CODE           ?CO?START251?4
FF0003H   FF000AH   000008H   ---    ---      **GAP**
FF000BH   FF000EH   000004H   ---    OFFS..   CODE           ?PR?IV?1
FF000FH   FF0012H   000004H   ---    ---      **GAP**
FF0013H   FF0016H   000004H   ---    OFFS..   CODE           ?PR?IV?2
FF0017H   FF001AH   000004H   ---    ---      **GAP**
FF001BH   FF001EH   000004H   ---    OFFS..   CODE           ?PR?IV?3
FF001FH   FF0062H   000044H   ---    ---      **GAP**
FF0063H   FF0066H   000004H   ---    OFFS..   CODE           ?PR?IV?12
FF0067H   FF009AH   000034H   ---    ---      **GAP**
FF009BH   FF009EH   000004H   ---    OFFS..   CODE           ?PR?IV?19
FF009FH   FF00A2H   000004H   ---    ---      **GAP**
FF00A3H   FF00A6H   000004H   ---    OFFS..   CODE           ?PR?IV?20
FF00A7H   FF00CAH   000024H   ---    ---      **GAP**
FF00CBH   FF00CEH   000004H   ---    OFFS..   CODE           ?PR?IV?25
FF00CFH   FF0186H   0000B8H   BYTE   UNIT     CODE           ?CO?DL1A_INIT??ZF_DEVICE_DL1A
FF0187H   FF019AH   000014H   ---    ---      **GAP**
FF019BH   FF019EH   000004H   ---    OFFS..   CODE           ?PR?IV?51
FF019FH   FF01AAH   00000CH   ---    ---      **GAP**
FF01ABH   FF01AEH   000004H   ---    OFFS..   CODE           ?PR?IV?53
FF01AFH   FF01BAH   00000CH   ---    ---      **GAP**
FF01BBH   FF01BEH   000004H   ---    OFFS..   CODE           ?PR?IV?55
FF01BFH   FF01CAH   00000CH   ---    ---      **GAP**
FF01CBH   FF01CEH   000004H   ---    OFFS..   CODE           ?PR?IV?57
FF01CFH   FF01D2H   000004H   ---    ---      **GAP**
L251 LINKER/LOCATER V4.66.93.0                                                        03/25/2026  13:05:55  PAGE 13


FF01D3H   FF01D6H   000004H   ---    OFFS..   CODE           ?PR?IV?58
FF01D7H   FF021AH   000044H   ---    ---      **GAP**
FF021BH   FF021EH   000004H   ---    OFFS..   CODE           ?PR?IV?67
FF021FH   FF023FH   000021H   BYTE   UNIT     CODE           ?C_C51STARTUP
FF0240H   FF0270H   000031H   BYTE   UNIT     CODE           ?C_C51STARTUP?2
FF0271H   FF0274H   000004H   BYTE   UNIT     CODE           ?C_C51STARTUP?3
FF0275H   FF029AH   000026H   ---    ---      **GAP**
FF029BH   FF029EH   000004H   ---    OFFS..   CODE           ?PR?IV?83
FF029FH   FF02AAH   00000CH   ---    ---      **GAP**
FF02ABH   FF02AEH   000004H   ---    OFFS..   CODE           ?PR?IV?85
FF02AFH   FF02BAH   00000CH   ---    ---      **GAP**
FF02BBH   FF02BEH   000004H   ---    OFFS..   CODE           ?PR?IV?87
FF02BFH   FF02CAH   00000CH   ---    ---      **GAP**
FF02CBH   FF02CEH   000004H   ---    OFFS..   CODE           ?PR?IV?89
FF02CFH   FF0302H   000034H   ---    ---      **GAP**
FF0303H   FF0306H   000004H   ---    OFFS..   CODE           ?PR?IV?96
FF0307H   FF030AH   000004H   ---    ---      **GAP**
FF030BH   FF030EH   000004H   ---    OFFS..   CODE           ?PR?IV?97
FF030FH   FF0312H   000004H   ---    ---      **GAP**
FF0313H   FF0316H   000004H   ---    OFFS..   CODE           ?PR?IV?98
FF0317H   FF031AH   000004H   ---    ---      **GAP**
FF031BH   FF031EH   000004H   ---    OFFS..   CODE           ?PR?IV?99
FF031FH   FF090EH   0005F0H   BYTE   UNIT     CODE           ?CO?ZF_COMMON_FONT
FF090FH   FF0991H   000083H   BYTE   UNIT     CODE           ?CO?USB_DESC



PUBLIC SYMBOLS OF MODULE:  .\out_file\SEEKFREE (?C_START?)


      VALUE       CLASS    TYPE      PUBLIC SYMBOL NAME
      =================================================
      00FD77B7H   ECODE    ---       ?C?BMOVEPP8?
      00FD77B9H   ECODE    ---       ?C?BMOVEPP?
      00FD6B63H   ECODE    FAR LAB   ?C?CASTD?
      00FD76A5H   ECODE    FAR LAB   ?C?CASTF?
      000000FFH   NUMBER   ---       ?C?CODESEG
      00FD6B20H   ECODE    FAR LAB   ?C?DCASTC?
      00FD6BC3H   ECODE    FAR LAB   ?C?DCASTF?
      00FD6B1BH   ECODE    FAR LAB   ?C?DCASTI?
      00FD6B16H   ECODE    FAR LAB   ?C?DCASTL?
      00FD67E9H   ECODE    ---       ?C?DPADD?
      00FD6AA7H   ECODE    ---       ?C?DPCMP3?
      00FD6AA9H   ECODE    ---       ?C?DPCMP?
      00FD7157H   ECODE    ---       ?C?DPCONVERT?
      00FD6A08H   ECODE    ---       ?C?DPDIV?
      00FD6C89H   ECODE    ---       ?C?DPGETOPN2?
      00FD68F8H   ECODE    ---       ?C?DPMUL?
      00FD6CD4H   ECODE    ---       ?C?DPNANRESULT?
      00FD6B08H   ECODE    ---       ?C?DPNEG?
      00FD6CE0H   ECODE    ---       ?C?DPOVERFLOW?
      00FD6CC5H   ECODE    ---       ?C?DPRESULT2?
      00FD6CACH   ECODE    ---       ?C?DPRESULT?
      00FD7280H   ECODE    ---       ?C?DPROUND?
      00FD67E5H   ECODE    ---       ?C?DPSUB?
      00FD6CDBH   ECODE    ---       ?C?DPUNDERFLOW?
      00FD735BH   ECODE    ---       ?C?DTNPWR?
      00FD7672H   ECODE    FAR LAB   ?C?FCASTC?
      00FD6C05H   ECODE    FAR LAB   ?C?FCASTD?
      00FD766DH   ECODE    FAR LAB   ?C?FCASTI?
      00FD7668H   ECODE    FAR LAB   ?C?FCASTL?
      00FD743BH   ECODE    ---       ?C?FPADD?
      00FD7614H   ECODE    ---       ?C?FPCMP3?
      00FD7616H   ECODE    ---       ?C?FPCMP?
      00FD7593H   ECODE    ---       ?C?FPDIV?
L251 LINKER/LOCATER V4.66.93.0                                                        03/25/2026  13:05:55  PAGE 14


      00FD73E4H   ECODE    ---       ?C?FPGETOPN2?
      00FD74F3H   ECODE    ---       ?C?FPMUL?
      00FD7421H   ECODE    ---       ?C?FPNANRESULT?
      00FD765AH   ECODE    ---       ?C?FPNEG?
      00FD7429H   ECODE    ---       ?C?FPOVERFLOW?
      00FD7413H   ECODE    ---       ?C?FPRESULT2?
      00FD73FDH   ECODE    ---       ?C?FPRESULT?
      00FD7438H   ECODE    ---       ?C?FPSUB?
      00FD7426H   ECODE    ---       ?C?FPUNDERFLOW?
      00FF0240H   CODE     ---       ?C?INITHDATA
      00FE48E0H   HCONST   WORD      ?C?INITHDATA_END
      00FD7725H   ECODE    ---       ?C?LIMUL?
      00FD7714H   ECODE    ---       ?C?LMUL?
      00FD6D1BH   ECODE    ---       ?C?PRNFMT?
      00FD76E2H   ECODE    ---       ?C?SIDIV?
      00FD7781H   ECODE    FAR LAB   ?C?SLDIV?
      00FF0000H   CODE     ---       ?C?STARTUP?
      00FD7730H   ECODE    FAR LAB   ?C?ULDIV?
      00FD772EH   ECODE    FAR LAB   ?C?ULIDIV?
      00000001H   NUMBER   ---       ?C?XDATASEG
      00FF0000H   CODE     ---       ?C_STARTUP?
      000121F5H   XDATA    BYTE      ?fifo_init??BYTE
      00011EE2H   XDATA    BYTE      ?fifo_read_buffer??BYTE
      0001204BH   XDATA    BYTE      ?fifo_write_buffer??BYTE
      0001180DH   XDATA    BYTE      ?func_double_to_str??BYTE
      000124FBH   XDATA    BYTE      ?iap_read_buff??BYTE
      00012505H   XDATA    BYTE      ?iap_write_buff??BYTE
      00011EB0H   XDATA    BYTE      ?ips114_show_chinese??BYTE
      000118BDH   XDATA    BYTE      ?ips114_show_float??BYTE
      000108FDH   XDATA    BYTE      ?ips114_show_gray_image??BYTE
      00011CDAH   XDATA    BYTE      ?ips114_show_wave??BYTE
      00011EC9H   XDATA    BYTE      ?ips200_show_chinese??BYTE
      00011925H   XDATA    BYTE      ?ips200_show_float??BYTE
      00010452H   XDATA    BYTE      ?ips200_show_gray_image??BYTE
      00011D1AH   XDATA    BYTE      ?ips200_show_wave??BYTE
      00011E48H   XDATA    BYTE      ?ips200pro_create_widgets??BYTE
      00011B18H   XDATA    BYTE      ?ips200pro_image_display??BYTE
      00011E7DH   XDATA    BYTE      ?ips200pro_image_draw_line??BYTE
      00011CB8H   XDATA    BYTE      ?ips200pro_image_draw_rectangle??BYTE
      0001177BH   XDATA    BYTE      ?ips200pro_label_printf??BYTE
      000122FBH   XDATA    BYTE      ?ips200pro_receive_buffer??BYTE
      0001229DH   XDATA    BYTE      ?ips200pro_send_buffer??BYTE
      000116F3H   XDATA    BYTE      ?ips200pro_table_cell_printf??BYTE
      00011E63H   XDATA    BYTE      ?ips200pro_waveform_add_value??BYTE
      00011D3AH   XDATA    BYTE      ?ips200pro_write_packet??BYTE
      000124B9H   XDATA    BYTE      ?mt9v03x_dma_init??BYTE
      0001216FH   XDATA    BYTE      ?pit_init??BYTE
      00011B68H   XDATA    ---       ?printf??BYTE
      0001205DH   XDATA    BYTE      ?pwm_init??BYTE
      00011F4DH   XDATA    BYTE      ?pwm_set_freq??BYTE
      00011D78H   XDATA    BYTE      ?seekfree_assistant_camera_boundary_config??BYTE
      000121D8H   XDATA    BYTE      ?seekfree_assistant_camera_data_send??BYTE
      000125A5H   XDATA    BYTE      ?seekfree_assistant_camera_information_config??BYTE
      0001228FH   XDATA    BYTE      ?set_camera_type??BYTE
      00012481H   XDATA    BYTE      ?slidingAverage??BYTE
      000122EEH   XDATA    BYTE      ?soft_iic_init??BYTE
      0001236DH   XDATA    BYTE      ?soft_iic_read_16bit_array??BYTE
      0001223BH   XDATA    BYTE      ?soft_iic_read_16bit_registers??BYTE
      00012361H   XDATA    BYTE      ?soft_iic_read_8bit_array??BYTE
      000122E1H   XDATA    BYTE      ?soft_iic_read_8bit_registers??BYTE
      00011F75H   XDATA    BYTE      ?soft_iic_transfer_16bit_array??BYTE
      00011F61H   XDATA    BYTE      ?soft_iic_transfer_8bit_array??BYTE
      00012355H   XDATA    BYTE      ?soft_iic_write_16bit_array??BYTE
      0001222DH   XDATA    BYTE      ?soft_iic_write_16bit_registers??BYTE
      00012349H   XDATA    BYTE      ?soft_iic_write_8bit_array??BYTE
L251 LINKER/LOCATER V4.66.93.0                                                        03/25/2026  13:05:55  PAGE 15


      000122D4H   XDATA    BYTE      ?soft_iic_write_8bit_registers??BYTE
      00011F89H   XDATA    BYTE      ?spi_dma_init??BYTE
      0001250FH   XDATA    BYTE      ?spi_dma_read??BYTE
      00012537H   XDATA    BYTE      ?spi_dma_read_16bit_array??BYTE
      00012385H   XDATA    BYTE      ?spi_dma_read_16bit_registers??BYTE
      0001252DH   XDATA    BYTE      ?spi_dma_read_8bit_array??BYTE
      00012498H   XDATA    BYTE      ?spi_dma_read_8bit_registers??BYTE
      000114FFH   XDATA    BYTE      ?spi_dma_transfer??BYTE
      00012257H   XDATA    BYTE      ?spi_dma_transfer_16bit??BYTE
      00012249H   XDATA    BYTE      ?spi_dma_transfer_8bit??BYTE
      0001159EH   XDATA    BYTE      ?spi_dma_write??BYTE
      00012523H   XDATA    BYTE      ?spi_dma_write_16bit_array??BYTE
      00012379H   XDATA    BYTE      ?spi_dma_write_16bit_registers??BYTE
      00012519H   XDATA    BYTE      ?spi_dma_write_8bit_array??BYTE
      0001248DH   XDATA    BYTE      ?spi_dma_write_8bit_registers??BYTE
      00011F9DH   XDATA    BYTE      ?spi_init??BYTE
      0001255FH   XDATA    BYTE      ?spi_read_16bit_array??BYTE
      0001239DH   XDATA    BYTE      ?spi_read_16bit_registers??BYTE
      00012555H   XDATA    BYTE      ?spi_read_8bit_array??BYTE
      000124AEH   XDATA    BYTE      ?spi_read_8bit_registers??BYTE
      00012273H   XDATA    BYTE      ?spi_transfer_16bit??BYTE
      00012265H   XDATA    BYTE      ?spi_transfer_8bit??BYTE
      0001254BH   XDATA    BYTE      ?spi_write_16bit_array??BYTE
      00012391H   XDATA    BYTE      ?spi_write_16bit_registers??BYTE
      00012541H   XDATA    BYTE      ?spi_write_8bit_array??BYTE
      000124A3H   XDATA    BYTE      ?spi_write_8bit_registers??BYTE
      00011B90H   XDATA    ---       ?sprintf??BYTE
      000118F1H   XDATA    BYTE      ?tft180_show_float??BYTE
      00011BDBH   XDATA    BYTE      ?tft180_show_gray_image??BYTE
      00011CFAH   XDATA    BYTE      ?tft180_show_wave??BYTE
      00011FD9H   XDATA    BYTE      ?uart_init??BYTE
      00012281H   XDATA    BYTE      ?uart_tim_init??BYTE
      000114ACH   XDATA    BYTE      ?vsnprintf??BYTE
      00011849H   XDATA    BYTE      ?wifi_spi_socket_connect??BYTE
      000113C3H   XDATA    BYTE      ?zf_sprintf??BYTE
      00FE186AH   ECODE    ---       _m?
      00FDFABAH   ECODE    ---       abs_int32?
*SFR* 000000D0H.6 DATA     BIT       AC
*SFR* 000000E0H   DATA     BYTE      ACC
*SFR* 000000BCH   DATA     BYTE      ADC_CONTR
      00FE0A65H   ECODE    ---       adc_convert?
      00FE0BC4H   ECODE    ---       adc_init?
      00FE09D2H   ECODE    ---       adc_mean_filter_convert?
      00FDC6D2H   ECODE    ---       adc_mid_sample?
      00FDC7D7H   ECODE    ---       adc_normalizing?
*SFR* 000000BDH   DATA     BYTE      ADC_RES
*SFR* 000000BEH   DATA     BYTE      ADC_RESL
      00FDC4A1H   ECODE    ---       adc_sample?
      00FDC670H   ECODE    ---       adc_sample_a?
      00FDC588H   ECODE    ---       adc_sample_b?
      0001179FH   XDATA    ---       ADC_temp
      00FDC8C2H   ECODE    ---       adc_v_sample?
      00FDC995H   ECODE    ---       adc_v_sample_2?
      00FDCA58H   ECODE    ---       adc_v_sample_3?
      00FDCB2BH   ECODE    ---       adc_v_sample_4?
*SFR* 000000DEH   DATA     BYTE      ADCCFG
      00FE1656H   ECODE    ---       angle_clear?
      00FE1614H   ECODE    ---       angle_get?
      00011DABH   XDATA    FLOAT     angle_ringR
      00FF031FH   CODE     ---       ascii_font_8x16
*SFR* 000000EFH   DATA     BYTE      AUXINTIF
*SFR* 0000008EH   DATA     BYTE      AUXR
*SFR* 00000097H   DATA     BYTE      AUXR2
      00011DA7H   XDATA    FLOAT     avl_gyro_z
*SFR* 000000F0H   DATA     BYTE      B
L251 LINKER/LOCATER V4.66.93.0                                                        03/25/2026  13:05:55  PAGE 16


      00FE05F0H   ECODE    ---       ble6a20_callback?
      00FE0617H   ECODE    ---       ble6a20_init?
      00FE056AH   ECODE    ---       ble6a20_read_buffer?
      00FE03E8H   ECODE    ---       ble6a20_send_buffer?
      00FE036AH   ECODE    ---       ble6a20_send_byte?
      00FE050AH   ECODE    ---       ble6a20_send_string?
*SFR* 000000C8H.1 DATA     BIT       C_T2
      00011DC2H   XDATA    ---       camera_dma_handler
      00011DB6H   XDATA    INT       camera_type
      00011DCAH   XDATA    ---       camera_uart_handler
      00011DC6H   XDATA    ---       camera_vsync_handler
*SFR* 000000FAH   DATA     BYTE      CCAP0H
*SFR* 000000EAH   DATA     BYTE      CCAP0L
*SFR* 000000FBH   DATA     BYTE      CCAP1H
*SFR* 000000EBH   DATA     BYTE      CCAP1L
*SFR* 000000FCH   DATA     BYTE      CCAP2H
*SFR* 000000ECH   DATA     BYTE      CCAP2L
*SFR* 000000FDH   DATA     BYTE      CCAP3H
*SFR* 000000EDH   DATA     BYTE      CCAP3L
*SFR* 000000FEH   DATA     BYTE      CCAP4H
*SFR* 000000EEH   DATA     BYTE      CCAP4L
*SFR* 000000DAH   DATA     BYTE      CCAPM0
*SFR* 000000DBH   DATA     BYTE      CCAPM1
*SFR* 000000DCH   DATA     BYTE      CCAPM2
*SFR* 000000DDH   DATA     BYTE      CCAPM3
*SFR* 000000DEH   DATA     BYTE      CCAPM4
*SFR* 000000D8H.0 DATA     BIT       CCF0
*SFR* 000000D8H.1 DATA     BIT       CCF1
*SFR* 000000D8H.2 DATA     BIT       CCF2
*SFR* 000000D8H.3 DATA     BIT       CCF3
*SFR* 000000D8H.4 DATA     BIT       CCF4
*SFR* 000000D8H   DATA     BYTE      CCON
*SFR* 00000090H.3 DATA     BIT       CEX0
*SFR* 00000090H.4 DATA     BIT       CEX1
*SFR* 00000090H.5 DATA     BIT       CEX2
*SFR* 00000090H.6 DATA     BIT       CEX3
*SFR* 00000090H.7 DATA     BIT       CEX4
*SFR* 000000D8H.7 DATA     BIT       CF
*SFR* 000000F9H   DATA     BYTE      CH
      0001179EH   XDATA    BYTE      channel_index
      000117ABH   XDATA    ---       channel_list
*SFR* 000000EAH   DATA     BYTE      CKCON
*SFR* 000000E9H   DATA     BYTE      CL
      00FE11CCH   ECODE    ---       clock_init?
*SFR* 000000D9H   DATA     BYTE      CMOD
*SFR* 000000E6H   DATA     BYTE      CMPCR1
*SFR* 000000E7H   DATA     BYTE      CMPCR2
      00FDFAFDH   ECODE    ---       compare_swap?
      00FF0943H   CODE     ---       CONFIGDESC
*SFR* 000000C8H.0 DATA     BIT       CP_RL2
*SFR* 000000D8H.6 DATA     BIT       CR
*SFR* 000000D0H.7 DATA     BIT       CY
      00FDCBFEH   ECODE    ---       debug_adc?
      00FE10FBH   ECODE    ---       debug_assert_handler?
      00FE118DH   ECODE    ---       debug_init?
      00FE1020H   ECODE    ---       debug_interrupr_handler?
      00FE0FD1H   ECODE    ---       debug_read_buffer?
      00FE0F6EH   ECODE    ---       debug_send_buffer?
      000111E7H   XDATA    ---       debug_uart_buffer
      00011268H   XDATA    ---       debug_uart_fifo
      00FF0931H   CODE     ---       DEVICEDESC
      0001209BH   XDATA    BYTE      DeviceState
      00012A02H   XDATA    CHAR      dir
      00011630H   XDATA    LONG      distance_text
      00012338H   XDATA    WORD      dl1a_distance_mm
L251 LINKER/LOCATER V4.66.93.0                                                        03/25/2026  13:05:55  PAGE 17


      0001233AH   XDATA    BYTE      dl1a_finsh_flag
      00FD501CH   ECODE    ---       dl1a_get_distance?
      00FD50F5H   ECODE    ---       dl1a_init?
      00FD50F4H   ECODE    ---       dl1a_int_handler?
      00FE3E39H   HCONST   ---       dl1b_config_file
      00012345H   XDATA    WORD      dl1b_distance_mm
      00012347H   XDATA    BYTE      dl1b_finsh_flag
      00FDF698H   ECODE    ---       dl1b_get_distance?
      00FDF881H   ECODE    ---       dl1b_init?
      00FDF880H   ECODE    ---       dl1b_int_handler?
      00FDC44FH   ECODE    ---       DMA_LCM_IRQHandler?
      00FE4DEAH   HCONST   ---       DMA_SPIx_AMT_ADDR
      00FE4D7EH   HCONST   ---       DMA_SPIx_AMTH_ADDR
      00FE4DDEH   HCONST   ---       DMA_SPIx_CFG_ADDR
      00FE4CE6H   HCONST   ---       DMA_SPIx_CR_ADDR
      00FE4DBAH   HCONST   ---       DMA_SPIx_ITVH_ADDR
      00FE4DC6H   HCONST   ---       DMA_SPIx_ITVL_ADDR
      00FE4D8AH   HCONST   ---       DMA_SPIx_RXAH_ADDR
      00FE4DA2H   HCONST   ---       DMA_SPIx_RXAL_ADDR
      00FE4DF6H   HCONST   ---       DMA_SPIx_STA_ADDR
      00FE4D96H   HCONST   ---       DMA_SPIx_TXAH_ADDR
      00FE4DAEH   HCONST   ---       DMA_SPIx_TXAL_ADDR
      00FDBACAH   ECODE    ---       DMA_UART1_IRQHandler?
      00FDBB82H   ECODE    ---       DMA_UART2_IRQHandler?
      00FDBC19H   ECODE    ---       DMA_UART3_IRQHandler?
      00FDBCB0H   ECODE    ---       DMA_UART4_IRQHandler?
      00FDBD47H   ECODE    ---       DMA_UART5_IRQHandler?
      00FDBDDEH   ECODE    ---       DMA_UART6_IRQHandler?
      00FDBE75H   ECODE    ---       DMA_UART7_IRQHandler?
      00FDBF0CH   ECODE    ---       DMA_UART8_IRQHandler?
*SFR* 00000083H   DATA     BYTE      DPH
*SFR* 00000082H   DATA     BYTE      DPL
*SFR* 00000084H   DATA     BYTE      DPXL
      00012A03H   XDATA    CHAR      duty
*SFR* 000000A8H.7 DATA     BIT       EA
*SFR* 000000BAH.7 DATA     BIT       EAXFR
*SFR* 000000A8H.6 DATA     BIT       EC
*SFR* 00000090H.2 DATA     BIT       ECI
      00FE0000H   ECODE    ---       eeprom_trig?
      00FE0D09H   ECODE    ---       ENC_handler?
      00FE0CCAH   ECODE    ---       ENC_Init?
      00FD9905H   ECODE    ---       encoder_clear_count?
      00012981H   XDATA    INT       encoder_data_dir_1
      00012983H   XDATA    INT       encoder_data_dir_2
      00FDA33FH   ECODE    ---       encoder_dir_init?
      00FD9596H   ECODE    ---       encoder_get_count?
      00FD9F44H   ECODE    ---       encoder_quad_init?
      0001209CH   XDATA    ---       Ep0State
*SFR* 000000A8H.4 DATA     BIT       ES
*SFR* 000000A8H.1 DATA     BIT       ET0
*SFR* 000000A8H.3 DATA     BIT       ET1
*SFR* 000000A8H.5 DATA     BIT       ET2
*SFR* 000000AFH.7 DATA     BIT       EUSB
*SFR* 000000A8H.0 DATA     BIT       EX0
*SFR* 000000A8H.2 DATA     BIT       EX1
*SFR* 000000C8H.3 DATA     BIT       EXEN2
*SFR* 000000C8H.6 DATA     BIT       EXF2
      00FE1D50H   ECODE    ---       exit_init?
      00FE024DH   ECODE    ---       extern_iap_write_buff?
*SFR* 000000D0H.5 DATA     BIT       F0
*SFR* 00000098H.7 DATA     BIT       FE
      00FD7920H   ECODE    ---       fifo_clear?
      00FD8673H   ECODE    ---       fifo_init?
      00FD80B6H   ECODE    ---       fifo_read_buffer?
      00FD7AAAH   ECODE    ---       fifo_used?
L251 LINKER/LOCATER V4.66.93.0                                                        03/25/2026  13:05:55  PAGE 18


      00FD7B04H   ECODE    ---       fifo_write_buffer?
      0001161AH   XDATA    ---       filter_Left
      00011602H   XDATA    ---       filter_Right
      00FC572FH   ECODE    ---       func_double_to_str?
      00FC5031H   ECODE    ---       func_float_to_str?
      00FC4800H   ECODE    ---       func_get_greatest_common_divisor?
      00FC5D1CH   ECODE    ---       func_hex_to_str?
      00FC4A11H   ECODE    ---       func_int_to_str?
      00FC48A6H   ECODE    ---       func_soft_delay?
      00FC53F8H   ECODE    ---       func_str_to_double?
      00FC4DAAH   ECODE    ---       func_str_to_float?
      00FC5B2EH   ECODE    ---       func_str_to_hex?
      00FC48CEH   ECODE    ---       func_str_to_int?
      00FC4BCAH   ECODE    ---       func_str_to_uint?
      00FC4C8CH   ECODE    ---       func_uint_to_str?
      00FD3CC8H   ECODE    ---       gpio_get_level?
      00FD426BH   ECODE    ---       gpio_init?
      00FD34C3H   ECODE    ---       gpio_set_impedance?
      00FD3EC5H   ECODE    ---       gpio_set_level?
      00FD3B71H   ECODE    ---       gpio_set_level_speed?
      00FD4246H   ECODE    ---       gpio_toggle_level?
      00011D9BH   XDATA    ---       gyro_z
      00FE154BH   ECODE    ---       gyroscope_get_gyro?
      00FE4DD2H   HCONST   ---       HSSPIX_CFG2_ADDR
      00FE4CF2H   HCONST   ---       HSSPIX_CFG_ADDR
*SFR* 000000F6H   DATA     BYTE      IAP_ADDRE
*SFR* 000000C3H   DATA     BYTE      IAP_ADDRH
*SFR* 000000C4H   DATA     BYTE      IAP_ADDRL
*SFR* 000000C5H   DATA     BYTE      IAP_CMD
*SFR* 000000C7H   DATA     BYTE      IAP_CONTR
*SFR* 000000C2H   DATA     BYTE      IAP_DATA
      00FE01E6H   ECODE    ---       iap_erase_page?
      00FE001AH   ECODE    ---       iap_get_cmd_state?
      00FE0016H   ECODE    ---       iap_idle?
      00FE000DH   ECODE    ---       iap_init?
      00FE00FDH   ECODE    ---       iap_read_buff?
      00FE0057H   ECODE    ---       iap_read_byte?
      00FE002CH   ECODE    ---       iap_set_tps?
*SFR* 000000F5H   DATA     BYTE      IAP_TPS
*SFR* 000000C6H   DATA     BYTE      IAP_TRIG
      00FE0173H   ECODE    ---       iap_write_buff?
      00FE00AAH   ECODE    ---       iap_write_byte?
*SFR* 000000A8H   DATA     BYTE      IE
*SFR* 000000A8H   DATA     BYTE      IE0
*SFR* 00000088H.1 DATA     BIT       IE0_
*SFR* 000000B1H   DATA     BYTE      IE1
*SFR* 00000088H.3 DATA     BIT       IE1_
*SFR* 000000AFH   DATA     BYTE      IE2
      00FE3EC0H   HCONST   ---       image_frame_header
      00011FC5H   XDATA    INT       imu660ra_acc_x
      00011FC7H   XDATA    INT       imu660ra_acc_y
      00011FC9H   XDATA    INT       imu660ra_acc_z
      00FE1E39H   HCONST   ---       imu660ra_config_file
      00FDEAAFH   ECODE    ---       imu660ra_get_acc?
      00FDEB09H   ECODE    ---       imu660ra_get_gyro?
      00011FCBH   XDATA    INT       imu660ra_gyro_x
      00011FCDH   XDATA    INT       imu660ra_gyro_y
      00011FCFH   XDATA    INT       imu660ra_gyro_z
      00FDEB63H   ECODE    ---       imu660ra_init?
      00011FD1H   XDATA    ---       imu660ra_transition_factor
      00FDEF8DH   ECODE    ---       imu660rb_acc_transition?
      00012475H   XDATA    INT       imu660rb_acc_x
      00012477H   XDATA    INT       imu660rb_acc_y
      00012479H   XDATA    INT       imu660rb_acc_z
      00FDEED9H   ECODE    ---       imu660rb_get_acc?
L251 LINKER/LOCATER V4.66.93.0                                                        03/25/2026  13:05:55  PAGE 19


      00FDEF33H   ECODE    ---       imu660rb_get_gyro?
      00FDF056H   ECODE    ---       imu660rb_gyro_transition?
      0001247BH   XDATA    INT       imu660rb_gyro_x
      0001247DH   XDATA    INT       imu660rb_gyro_y
      0001247FH   XDATA    INT       imu660rb_gyro_z
      00FDF179H   ECODE    ---       imu660rb_init?
      00011DD4H   XDATA    INT       imu963ra_acc_x
      00011DD6H   XDATA    INT       imu963ra_acc_y
      00011DD8H   XDATA    INT       imu963ra_acc_z
      00FDCFDCH   ECODE    ---       imu963ra_get_acc?
      00FDD036H   ECODE    ---       imu963ra_get_gyro?
      00FDD090H   ECODE    ---       imu963ra_get_mag?
      00011DE0H   XDATA    INT       imu963ra_gyro_x
      00011DE2H   XDATA    INT       imu963ra_gyro_y
      00011DE4H   XDATA    INT       imu963ra_gyro_z
      00FDD109H   ECODE    ---       imu963ra_init?
      00011DDAH   XDATA    INT       imu963ra_mag_x
      00011DDCH   XDATA    INT       imu963ra_mag_y
      00011DDEH   XDATA    INT       imu963ra_mag_z
      00011DE6H   XDATA    ---       imu963ra_transition_factor
      000120A3H   XDATA    BYTE      InEpState
      00FE0D32H   ECODE    ---       initSlidingAverage?
*SFR* 000000B0H.2 DATA     BIT       INT0
      000117E9H   XDATA    ---       int0_irq_handler
*SFR* 000000B0H.3 DATA     BIT       INT1
      000117F1H   XDATA    ---       int1_irq_handler
      00FDC422H   ECODE    ---       INT1_IRQHandler?
      000117F9H   XDATA    ---       int2_irq_handler
      00011801H   XDATA    ---       int3_irq_handler
      00011809H   XDATA    ---       int4_irq_handler
*SFR* 0000008FH   DATA     BYTE      INTCLKO
      00FDF690H   ECODE    ---       interrupt_global_disable?
      00FDF694H   ECODE    ---       interrupt_global_enable?
      00FDF24EH   ECODE    ---       interrupt_set_priority?
*SFR* 000000B8H   DATA     BYTE      IP
*SFR* 000000B5H   DATA     BYTE      IP2
*SFR* 000000B6H   DATA     BYTE      IP2H
*SFR* 000000DFH   DATA     BYTE      IP3
*SFR* 000000EEH   DATA     BYTE      IP3H
*SFR* 000000B7H   DATA     BYTE      IPH
*SFR* 000000B7H   DATA     BYTE      IPH0
*SFR* 000000B8H   DATA     BYTE      IPL0
      00012706H   XDATA    WORD      ips114_bgcolor
      00FD027CH   ECODE    ---       ips114_clear?
      00012708H   XDATA    INT       ips114_display_dir
      00FD038BH   ECODE    ---       ips114_draw_point?
      00FD1527H   ECODE    ---       ips114_init?
      00012704H   XDATA    WORD      ips114_pencolor
      00FD0366H   ECODE    ---       ips114_set_color?
      00FD032BH   ECODE    ---       ips114_set_dir?
      00FD0411H   ECODE    ---       ips114_show_char?
      00FD1323H   ECODE    ---       ips114_show_chinese?
      00FD0C15H   ECODE    ---       ips114_show_float?
      00FD1051H   ECODE    ---       ips114_show_gray_image?
      00FD081CH   ECODE    ---       ips114_show_int16?
      00FD0AB2H   ECODE    ---       ips114_show_int32?
      00FD05F7H   ECODE    ---       ips114_show_int8?
      00FD0530H   ECODE    ---       ips114_show_string?
      00FD0996H   ECODE    ---       ips114_show_uint16?
      00FD072EH   ECODE    ---       ips114_show_uint8?
      00FD0E37H   ECODE    ---       ips114_show_wave?
      0001270AH   XDATA    BYTE      ips114_x_max
      0001270BH   XDATA    BYTE      ips114_y_max
      00012589H   XDATA    WORD      ips200_bgcolor
      00FCE868H   ECODE    ---       ips200_clear?
L251 LINKER/LOCATER V4.66.93.0                                                        03/25/2026  13:05:55  PAGE 20


      0001258BH   XDATA    INT       ips200_display_dir
      00FCE94FH   ECODE    ---       ips200_draw_point?
      00FCFAEBH   ECODE    ---       ips200_init?
      00012587H   XDATA    WORD      ips200_pencolor
      00FCE92AH   ECODE    ---       ips200_set_color?
      00FCE917H   ECODE    ---       ips200_set_dir?
      00FCE9D5H   ECODE    ---       ips200_show_char?
      00FCF615H   ECODE    ---       ips200_show_chinese?
      00FCF1D9H   ECODE    ---       ips200_show_float?
      00FCF819H   ECODE    ---       ips200_show_gray_image?
      00FCEDE0H   ECODE    ---       ips200_show_int16?
      00FCF076H   ECODE    ---       ips200_show_int32?
      00FCEBBBH   ECODE    ---       ips200_show_int8?
      00FCEAF4H   ECODE    ---       ips200_show_string?
      00FCEF5AH   ECODE    ---       ips200_show_uint16?
      00FCECF2H   ECODE    ---       ips200_show_uint8?
      00FCF3FBH   ECODE    ---       ips200_show_wave?
      0001258DH   XDATA    WORD      ips200_x_max
      0001258FH   XDATA    WORD      ips200_y_max
      00FCA90CH   ECODE    ---       ips200pro_calendar_create?
      00FCA960H   ECODE    ---       ips200pro_calendar_display?
      00FCA76FH   ECODE    ---       ips200pro_clock_create?
      00FCB0ABH   ECODE    ---       ips200pro_container_create?
      00FCB141H   ECODE    ---       ips200pro_container_radius?
      00FC9CBCH   ECODE    ---       ips200pro_create_widgets?
      00FC9D72H   ECODE    ---       ips200pro_delete_widgets?
      00FC9B73H   ECODE    ---       ips200pro_get_date?
      00FC9C6EH   ECODE    ---       ips200pro_get_free_stack_size?
      00FC9C0DH   ECODE    ---       ips200pro_get_information?
      00FC9BBFH   ECODE    ---       ips200pro_get_time?
      00FCACACH   ECODE    ---       ips200pro_image_create?
      00FCAD42H   ECODE    ---       ips200pro_image_display?
      00FCAF02H   ECODE    ---       ips200pro_image_draw_line?
      00FCAFE9H   ECODE    ---       ips200pro_image_draw_rectangle?
      00011584H   XDATA    ---       ips200pro_information
      00FCB1B4H   ECODE    ---       ips200pro_init?
      00FCA18BH   ECODE    ---       ips200pro_label_create?
      00FCA389H   ECODE    ---       ips200pro_label_mode?
      00FCA221H   ECODE    ---       ips200pro_label_printf?
      00FCA306H   ECODE    ---       ips200pro_label_show_string?
      00FCA678H   ECODE    ---       ips200pro_meter_create?
      00FCA70EH   ECODE    ---       ips200pro_meter_set_value?
      00FC9F7BH   ECODE    ---       ips200pro_page_create?
      00FCA07CH   ECODE    ---       ips200pro_page_hidden?
      00FCA0B3H   ECODE    ---       ips200pro_page_set_title_name?
      00FCA124H   ECODE    ---       ips200pro_page_set_title_position_width?
      00FCA01BH   ECODE    ---       ips200pro_page_switch?
      00FCA805H   ECODE    ---       ips200pro_progress_bar_create?
      00FCA89BH   ECODE    ---       ips200pro_progress_bar_set_value?
      00FC973CH   ECODE    ---       ips200pro_read_parameter?
      00FC9412H   ECODE    ---       ips200pro_receive_buffer?
      00FC9377H   ECODE    ---       ips200pro_send_buffer?
      00FC99CBH   ECODE    ---       ips200pro_set_backlight?
      00FC9E2AH   ECODE    ---       ips200pro_set_color?
      00FC9A75H   ECODE    ---       ips200pro_set_crc_state?
      00FC97F4H   ECODE    ---       ips200pro_set_date?
      00FC9AC9H   ECODE    ---       ips200pro_set_default_font?
      00FC9A1FH   ECODE    ---       ips200pro_set_direction?
      00FC9DC5H   ECODE    ---       ips200pro_set_font?
      00FC9975H   ECODE    ---       ips200pro_set_format?
      00FC9F18H   ECODE    ---       ips200pro_set_hidden?
      00FC9B1FH   ECODE    ---       ips200pro_set_optimize?
      00FC990DH   ECODE    ---       ips200pro_set_parent?
      00FC9EA1H   ECODE    ---       ips200pro_set_position?
      00FC987BH   ECODE    ---       ips200pro_set_time?
L251 LINKER/LOCATER V4.66.93.0                                                        03/25/2026  13:05:55  PAGE 21


      00FCA480H   ECODE    ---       ips200pro_table_cell_printf?
      00FCA3EAH   ECODE    ---       ips200pro_table_create?
      00FCA607H   ECODE    ---       ips200pro_table_select?
      00FCA596H   ECODE    ---       ips200pro_table_set_col_width?
      0001158DH   XDATA    ---       ips200pro_time
      00FCAA7EH   ECODE    ---       ips200pro_waveform_add_value?
      00FCAC5DH   ECODE    ---       ips200pro_waveform_clear?
      00FCA9E8H   ECODE    ---       ips200pro_waveform_create?
      00FCAB8BH   ECODE    ---       ips200pro_waveform_line_state?
      00FCABFEH   ECODE    ---       ips200pro_waveform_line_type?
      00FC94B4H   ECODE    ---       ips200pro_write_packet?
*SFR* 0000009DH   DATA     BYTE      IRCBAND
*SFR* 0000009FH   DATA     BYTE      IRTRIM
*SFR* 00000088H.0 DATA     BIT       IT0
*SFR* 00000088H.2 DATA     BIT       IT1
      00011792H   XDATA    FLOAT     L
      00FF092DH   CODE     ---       LANGIDDESC
      00011618H   XDATA    INT       lastspeed_L
      00011634H   XDATA    INT       lastspeed_R
      000127B3H   XDATA    ---       LineCoding
*SFR* 000000F9H   DATA     BYTE      LINICR
      00011796H   XDATA    FLOAT     M
      00FE183CH   ECODE    ---       MAIN?
      00FF098AH   CODE     ---       MANUFACTDESC
      00FE1E01H   ECODE    ---       memcpy??
      00FCFFE6H   ECODE    ---       memset??
      00FE1B69H   ECODE    ---       Motor_Control?
      00FE1AEAH   ECODE    ---       Motor_Init?
      00FD93ECH   ECODE    ---       mt9v03x_dma_handler?
      00FD9451H   ECODE    ---       mt9v03x_dma_init?
      0001823CH   HDATA    BYTE      mt9v03x_finish_flag
      00012A1CH   HDATA    ---       mt9v03x_image
      00FE1412H   ECODE    ---       mt9v03x_init?
      00FD8896H   ECODE    ---       mt9v03x_sccb_check_id?
      00FE13C3H   ECODE    ---       mt9v03x_sccb_init?
      00FD8953H   ECODE    ---       mt9v03x_sccb_set_config?
      00FD9332H   ECODE    ---       mt9v03x_sccb_set_exposure_time?
      00FD93B4H   ECODE    ---       mt9v03x_sccb_set_reg?
      00FE54E7H   HCONST   ---       mt9v03x_set_confing_buffer
      00FE1389H   ECODE    ---       mt9v03x_set_exposure_time?
      00FE13A2H   ECODE    ---       mt9v03x_set_reg?
      00FD9406H   ECODE    ---       mt9v03x_vsync_handler?
      00FDC47CH   ECODE    ---       my_ADC_Init?
      00011DA3H   XDATA    FLOAT     next_gyro_z
      00FE1663H   ECODE    ---       null_drift_calculate?
      00011D97H   XDATA    FLOAT     null_drift_z
      000120A4H   XDATA    BYTE      OutEpState
*SFR* 000000D0H.2 DATA     BIT       OV
*SFR* 000000D0H.0 DATA     BIT       P
*SFR* 00000080H   DATA     BYTE      P0
*SFR* 00000094H   DATA     BYTE      P0M0
*SFR* 00000093H   DATA     BYTE      P0M1
*SFR* 00000090H   DATA     BYTE      P1
*SFR* 00000092H   DATA     BYTE      P1M0
*SFR* 00000091H   DATA     BYTE      P1M1
*SFR* 000000A0H   DATA     BYTE      P2
*SFR* 00000096H   DATA     BYTE      P2M0
*SFR* 00000095H   DATA     BYTE      P2M1
*SFR* 000000B0H   DATA     BYTE      P3
*SFR* 000000B0H.3 DATA     BIT       P33
*SFR* 000000B0H.4 DATA     BIT       P34
*SFR* 000000B0H.5 DATA     BIT       P35
*SFR* 000000B0H.7 DATA     BIT       P37
*SFR* 000000B2H   DATA     BYTE      P3M0
*SFR* 000000B1H   DATA     BYTE      P3M1
L251 LINKER/LOCATER V4.66.93.0                                                        03/25/2026  13:05:55  PAGE 22


*SFR* 000000C0H   DATA     BYTE      P4
*SFR* 000000C0H.1 DATA     BIT       P41
*SFR* 000000C0H.3 DATA     BIT       P43
*SFR* 000000B4H   DATA     BYTE      P4M0
*SFR* 000000B3H   DATA     BYTE      P4M1
*SFR* 000000C8H   DATA     BYTE      P5
*SFR* 000000CAH   DATA     BYTE      P5M0
*SFR* 000000C9H   DATA     BYTE      P5M1
*SFR* 000000E8H   DATA     BYTE      P6
*SFR* 000000E8H.4 DATA     BIT       P64
*SFR* 000000CCH   DATA     BYTE      P6M0
*SFR* 000000CBH   DATA     BYTE      P6M1
*SFR* 000000F8H   DATA     BYTE      P7
*SFR* 000000F8H.0 DATA     BIT       P70
*SFR* 000000F8H.1 DATA     BIT       P71
*SFR* 000000F8H.3 DATA     BIT       P73
*SFR* 000000E2H   DATA     BYTE      P7M0
*SFR* 000000E1H   DATA     BYTE      P7M1
*SFR* 000000A2H   DATA     BYTE      P_SW1
*SFR* 000000BAH   DATA     BYTE      P_SW2
*SFR* 000000BBH   DATA     BYTE      P_SW3
*SFR* 000000BFH   DATA     BYTE      P_SW4
      00FF0986H   CODE     ---       PACKET0
      00FF0988H   CODE     ---       PACKET1
*SFR* 00000087H   DATA     BYTE      PCON
      00FDFFFFH   ECODE    ---       PID_Init?
      00FDD4DAH   ECODE    ---       pit_init?
*SFR* 000000B8H.6 DATA     BIT       PPC
      00FD6C3CH   ECODE    FAR LAB   printf?
      00FF090FH   CODE     ---       PRODUCTDESC
*SFR* 000000B8H.4 DATA     BIT       PS
*SFR* 000000D0H   DATA     BYTE      PSW
*SFR* 000000D1H   DATA     BYTE      PSW1
*SFR* 000000B8H.1 DATA     BIT       PT0
*SFR* 000000B8H.3 DATA     BIT       PT1
*SFR* 000000B8H.5 DATA     BIT       PT2
      00FE10EAH   ECODE    ---       putchar?
      00FE4BB4H   HCONST   ---       PWM_ARR_ADDR
      00FE4C14H   HCONST   ---       PWM_CCER_ADDR
      00FE4C5CH   HCONST   ---       PWM_CCMR_ADDR
      00FE4B54H   HCONST   ---       PWM_CCR_ADDR
      00FDB565H   ECODE    ---       pwm_init?
      00FE4B24H   HCONST   ---       PWM_PSCR_ADDR
      00FDB387H   ECODE    ---       pwm_set_duty?
      00FDB09FH   ECODE    ---       pwm_set_freq?
      00FE4B0CH   HCONST   ---       PWMX_BKR_ADDR
      00FE4BFCH   HCONST   ---       PWMX_CNTR_ADDR
      00FE4C44H   HCONST   ---       PWMX_CR1_ADDR
      00FE4B3CH   HCONST   ---       PWMX_ENO_ADDR
      00FE4BCCH   HCONST   ---       PWMX_PS_ADDR
      00FE4BE4H   HCONST   ---       PWMX_SMCR_ADDR
*SFR* 000000B8H.0 DATA     BIT       PX0
*SFR* 000000B8H.2 DATA     BIT       PX1
      0001179AH   XDATA    FLOAT     R
*SFR* 00000098H.2 DATA     BIT       RB8
*SFR* 000000CBH   DATA     BYTE      RCAP2H
*SFR* 000000CAH   DATA     BYTE      RCAP2L
*SFR* 000000C8H.5 DATA     BIT       RCLK
*SFR* 000000B0H.7 DATA     BIT       RD
*SFR* 00000098H.4 DATA     BIT       REN
      00FE1C96H   ECODE    ---       reverse2?
      00FE1C29H   ECODE    ---       reverse4?
*SFR* 00000098H.0 DATA     BIT       RI
*SFR* 000000D0H.3 DATA     BIT       RS0
*SFR* 000000D0H.4 DATA     BIT       RS1
L251 LINKER/LOCATER V4.66.93.0                                                        03/25/2026  13:05:55  PAGE 23


*SFR* 000000FFH   DATA     BYTE      RSTCFG
*SFR* 000000B0H.0 DATA     BIT       RXD
*SFR* 0000009AH   DATA     BYTE      S2CON
*SFR* 000000ACH   DATA     BYTE      S3CON
*SFR* 000000FDH   DATA     BYTE      S4CON
*SFR* 000000A9H   DATA     BYTE      SADDR
*SFR* 000000B9H   DATA     BYTE      SADEN
*SFR* 00000099H   DATA     BYTE      SBUF
*SFR* 00000098H   DATA     BYTE      SCON
      00FDA8C8H   ECODE    ---       seekfree_assistant_camera_boundary_config?
      00FDA40DH   ECODE    ---       seekfree_assistant_camera_data_send?
      00FDA77AH   ECODE    ---       seekfree_assistant_camera_dot_send?
      00FDA571H   ECODE    ---       seekfree_assistant_camera_information_config?
      00FDB024H   ECODE    ---       seekfree_assistant_camera_send?
      00FDAD69H   ECODE    ---       seekfree_assistant_data_analysis?
      00FDB070H   ECODE    ---       seekfree_assistant_init?
      00FDFFA0H   ECODE    ---       seekfree_assistant_interface_init?
      000110B2H   XDATA    ---       seekfree_assistant_oscilloscope_data
      00FDA5D2H   ECODE    ---       seekfree_assistant_oscilloscope_send?
      000110F5H   XDATA    ---       seekfree_assistant_parameter
      000110EDH   XDATA    ---       seekfree_assistant_parameter_update_flag
      0001276CH   XDATA    ---       seekfree_assistant_receive_callback
      00012770H   XDATA    ---       seekfree_assistant_transfer_callback
      00FE16CDH   ECODE    ---       set_camera_type?
      00FE17F3H   ECODE    ---       set_tof_type?
      00FE176EH   ECODE    ---       set_wireless_type?
      00012093H   XDATA    ---       Setup
      00FDC78BH   ECODE    ---       siai_adc_all_sample?
      00FE0DF1H   ECODE    ---       slidingAverage?
*SFR* 00000098H.7 DATA     BIT       SM0
*SFR* 00000098H.6 DATA     BIT       SM1
*SFR* 00000098H.5 DATA     BIT       SM2
      00FE19A5H   ECODE    ---       soft_delay?
      00FCB2DAH   ECODE    ---       soft_iic_delay?
      00FCCC89H   ECODE    ---       soft_iic_init?
      00FCC0D2H   ECODE    ---       soft_iic_read_16bit?
      00FCC188H   ECODE    ---       soft_iic_read_16bit_array?
      00FCC4C5H   ECODE    ---       soft_iic_read_16bit_register?
      00FCC5E6H   ECODE    ---       soft_iic_read_16bit_registers?
      00FCBF4BH   ECODE    ---       soft_iic_read_8bit?
      00FCBFD5H   ECODE    ---       soft_iic_read_8bit_array?
      00FCC2B8H   ECODE    ---       soft_iic_read_8bit_register?
      00FCC385H   ECODE    ---       soft_iic_read_8bit_registers?
      00FCB757H   ECODE    ---       soft_iic_read_data?
      00FCCBAEH   ECODE    ---       soft_iic_sccb_read_register?
      00FCCB17H   ECODE    ---       soft_iic_sccb_write_register?
      00FCB48BH   ECODE    ---       soft_iic_send_ack?
      00FCB65BH   ECODE    ---       soft_iic_send_data?
      00FCB316H   ECODE    ---       soft_iic_start?
      00FCB3C4H   ECODE    ---       soft_iic_stop?
      00FCC918H   ECODE    ---       soft_iic_transfer_16bit_array?
      00FCC777H   ECODE    ---       soft_iic_transfer_8bit_array?
      00FCB56FH   ECODE    ---       soft_iic_wait_ack?
      00FCB9FDH   ECODE    ---       soft_iic_write_16bit?
      00FCBAA4H   ECODE    ---       soft_iic_write_16bit_array?
      00FCBD2EH   ECODE    ---       soft_iic_write_16bit_register?
      00FCBE13H   ECODE    ---       soft_iic_write_16bit_registers?
      00FCB8A5H   ECODE    ---       soft_iic_write_8bit?
      00FCB924H   ECODE    ---       soft_iic_write_8bit_array?
      00FCBBA8H   ECODE    ---       soft_iic_write_8bit_register?
      00FCBC3FH   ECODE    ---       soft_iic_write_8bit_registers?
      00FDFB70H   ECODE    ---       sort_seven?
*SFR* 00000081H   DATA     BYTE      SP
*SFR* 000000CEH   DATA     BYTE      SPCTL
*SFR* 000000CFH   DATA     BYTE      SPDAT
L251 LINKER/LOCATER V4.66.93.0                                                        03/25/2026  13:05:55  PAGE 24


      000115EAH   XDATA    FLOAT     speed_avl
      000115F6H   XDATA    FLOAT     speed_avl_next
      000115EEH   XDATA    FLOAT     speed_L
      000115FAH   XDATA    FLOAT     speed_L_next
      000115F2H   XDATA    FLOAT     speed_R
      000115FEH   XDATA    FLOAT     speed_R_next
*SFR* 000000BEH   DATA     BYTE      SPH
      00FC8016H   ECODE    ---       spi_dma_init?
      00FC799FH   ECODE    ---       spi_dma_read?
      00FC7DAFH   ECODE    ---       spi_dma_read_16bit?
      00FC7DDCH   ECODE    ---       spi_dma_read_16bit_array?
      00FC7EC8H   ECODE    ---       spi_dma_read_16bit_register?
      00FC7F1BH   ECODE    ---       spi_dma_read_16bit_registers?
      00FC7D46H   ECODE    ---       spi_dma_read_8bit?
      00FC7D76H   ECODE    ---       spi_dma_read_8bit_array?
      00FC7E17H   ECODE    ---       spi_dma_read_8bit_register?
      00FC7E6BH   ECODE    ---       spi_dma_read_8bit_registers?
      00FC71A4H   ECODE    ---       spi_dma_transfer?
      00FC7FC7H   ECODE    ---       spi_dma_transfer_16bit?
      00FC7F7AH   ECODE    ---       spi_dma_transfer_8bit?
      00FC7614H   ECODE    ---       spi_dma_write?
      00FC7B7CH   ECODE    ---       spi_dma_write_16bit?
      00FC7BA9H   ECODE    ---       spi_dma_write_16bit_array?
      00FC7C92H   ECODE    ---       spi_dma_write_16bit_register?
      00FC7CE5H   ECODE    ---       spi_dma_write_16bit_registers?
      00FC7B18H   ECODE    ---       spi_dma_write_8bit?
      00FC7B43H   ECODE    ---       spi_dma_write_8bit_array?
      00FC7BE4H   ECODE    ---       spi_dma_write_8bit_register?
      00FC7C35H   ECODE    ---       spi_dma_write_8bit_registers?
      00FC8E7EH   ECODE    ---       spi_init?
      00FC8A22H   ECODE    ---       spi_read_16bit?
      00FC8A69H   ECODE    ---       spi_read_16bit_array?
      00FC8B87H   ECODE    ---       spi_read_16bit_register?
      00FC8C04H   ECODE    ---       spi_read_16bit_registers?
      00FC89B2H   ECODE    ---       spi_read_8bit?
      00FC89C4H   ECODE    ---       spi_read_8bit_array?
      00FC8AF3H   ECODE    ---       spi_read_8bit_register?
      00FC8B17H   ECODE    ---       spi_read_8bit_registers?
      00FC863CH   ECODE    ---       spi_read_dat?
      00FC8D6AH   ECODE    ---       spi_transfer_16bit?
      00FC8CC4H   ECODE    ---       spi_transfer_8bit?
      00FC876EH   ECODE    ---       spi_write_16bit?
      00FC87ABH   ECODE    ---       spi_write_16bit_array?
      00FC88B1H   ECODE    ---       spi_write_16bit_register?
      00FC8924H   ECODE    ---       spi_write_16bit_registers?
      00FC8705H   ECODE    ---       spi_write_8bit?
      00FC871EH   ECODE    ---       spi_write_8bit_array?
      00FC8822H   ECODE    ---       spi_write_8bit_register?
      00FC884FH   ECODE    ---       spi_write_8bit_registers?
      00FC85A5H   ECODE    ---       spi_write_dat?
      00FE4E02H   HCONST   ---       SPIX_CLKDIV_ADDR
      00FD6C69H   ECODE    FAR LAB   sprintf?
*SFR* 000000CDH   DATA     BYTE      SPSTAT
      00FE1E26H   ECODE    ---       strlen??
      00FE1DCAH   ECODE    ---       strncmp??
      000128D9H   XDATA    DWORD     system_clock
      00FE19DCH   ECODE    ---       system_delay?
*SFR* 000000B0H.4 DATA     BIT       T0
*SFR* 000000B0H.5 DATA     BIT       T1
*SFR* 00000090H.0 DATA     BIT       T2
*SFR* 000000C8H   DATA     BYTE      T2CON
*SFR* 00000090H.1 DATA     BIT       T2EX
*SFR* 000000D6H   DATA     BYTE      T2H
*SFR* 000000D7H   DATA     BYTE      T2L
*SFR* 000000C9H   DATA     BYTE      T2MOD
L251 LINKER/LOCATER V4.66.93.0                                                        03/25/2026  13:05:55  PAGE 25


*SFR* 000000D4H   DATA     BYTE      T3H
*SFR* 000000D5H   DATA     BYTE      T3L
*SFR* 000000D2H   DATA     BYTE      T4H
*SFR* 000000D3H   DATA     BYTE      T4L
*SFR* 000000DDH   DATA     BYTE      T4T3M
*SFR* 00000098H.3 DATA     BIT       TB8
*SFR* 000000C8H.4 DATA     BIT       TCLK
*SFR* 00000088H   DATA     BYTE      TCON
*SFR* 00000088H.5 DATA     BIT       TF0
*SFR* 00000088H.7 DATA     BIT       TF1
*SFR* 000000C8H.7 DATA     BIT       TF2
      0001271EH   XDATA    WORD      tft180_bgcolor
      00FD1A63H   ECODE    ---       tft180_clear?
      00012720H   XDATA    INT       tft180_display_dir
      00FD1B72H   ECODE    ---       tft180_draw_point?
      00FD2AC0H   ECODE    ---       tft180_init?
      0001271CH   XDATA    WORD      tft180_pencolor
      00FD1B4DH   ECODE    ---       tft180_set_color?
      00FD1B12H   ECODE    ---       tft180_set_dir?
      00FD1BF8H   ECODE    ---       tft180_show_char?
      00FD23FCH   ECODE    ---       tft180_show_float?
      00FD261EH   ECODE    ---       tft180_show_gray_image?
      00FD2003H   ECODE    ---       tft180_show_int16?
      00FD2299H   ECODE    ---       tft180_show_int32?
      00FD1DDEH   ECODE    ---       tft180_show_int8?
      00FD1D17H   ECODE    ---       tft180_show_string?
      00FD217DH   ECODE    ---       tft180_show_uint16?
      00FD1F15H   ECODE    ---       tft180_show_uint8?
      00FD28A6H   ECODE    ---       tft180_show_wave?
      00012722H   XDATA    BYTE      tft180_x_max
      00012723H   XDATA    BYTE      tft180_y_max
*SFR* 0000008CH   DATA     BYTE      TH0
*SFR* 0000008DH   DATA     BYTE      TH1
*SFR* 000000CDH   DATA     BYTE      TH2
*SFR* 00000098H.1 DATA     BIT       TI
      000117E5H   XDATA    ---       tim0_irq_handler
      000117D1H   XDATA    ---       tim11_irq_handler
      000117EDH   XDATA    ---       tim1_irq_handler
      000117F5H   XDATA    ---       tim2_irq_handler
      000117FDH   XDATA    ---       tim3_irq_handler
      00011805H   XDATA    ---       tim4_irq_handler
      00011885H   XDATA    ---       tim_irq_handlers
      00FE1CCFH   ECODE    ---       timer_funciton_check?
*SFR* 0000008AH   DATA     BYTE      TL0
*SFR* 0000008BH   DATA     BYTE      TL1
*SFR* 000000CCH   DATA     BYTE      TL2
      00FDBFA3H   ECODE    ---       TM0_IRQHandler?
      00FDC31AH   ECODE    ---       TM11_IRQHandler?
      00FDC36FH   ECODE    ---       TM17_TM18_IRQHandler?
      00FDBFE9H   ECODE    ---       TM1_IRQHandler?
      00FDC02FH   ECODE    ---       TM2_IRQHandler?
      00FDC075H   ECODE    ---       TM3_IRQHandler?
      00FDC0BBH   ECODE    ---       TM4_IRQHandler?
      00FDC101H   ECODE    ---       TM5_TM6_IRQHandler?
      00FDC1B4H   ECODE    ---       TM7_IRQHandler?
      00FDC267H   ECODE    ---       TM9_TM10_IRQHandler?
*SFR* 00000089H   DATA     BYTE      TMOD
      00011DB8H   XDATA    ---       tof_module_exti_handler
      00011DD2H   XDATA    INT       tof_type
*SFR* 00000088H.4 DATA     BIT       TR0
*SFR* 00000088H.6 DATA     BIT       TR1
*SFR* 000000C8H.2 DATA     BIT       TR2
      00FE1546H   ECODE    ---       tuoluo_init?
*SFR* 000000B0H.1 DATA     BIT       TXD
      000117D5H   XDATA    ---       uart1_irq_handler
L251 LINKER/LOCATER V4.66.93.0                                                        03/25/2026  13:05:55  PAGE 26


      000117D9H   XDATA    ---       uart2_irq_handler
      000117DDH   XDATA    ---       uart3_irq_handler
      000117E1H   XDATA    ---       uart4_irq_handler
      00FCD68AH   ECODE    ---       uart_dma_init?
      00FCE6ACH   ECODE    ---       uart_init?
      00FCD57CH   ECODE    ---       uart_query_byte?
      00FCD499H   ECODE    ---       uart_read_byte?
      00011AF0H   XDATA    ---       uart_rx_buff
      00011AF8H   XDATA    ---       uart_rx_handlers
      00FCD396H   ECODE    ---       uart_rx_interrupt?
      00FCD1BCH   ECODE    ---       uart_rx_start_buff?
      00FCDACDH   ECODE    ---       uart_tim_init?
      00FCCD6CH   ECODE    ---       uart_write_buffer?
      00FCD19BH   ECODE    ---       uart_write_byte?
      00FCD15CH   ECODE    ---       uart_write_string?
      00FCFE5FH   ECODE    ---       usb_cdc_init?
      0001293DH   XDATA    ---       usb_cdc_read_buffer_handler
      00FCFFC7H   ECODE    ---       usb_cdc_rx_interrupt?
      00FCFE64H   ECODE    ---       usb_cdc_write_buffer?
      00FCFF7FH   ECODE    ---       usb_cdc_write_byte?
      00FCFF94H   ECODE    ---       usb_cdc_write_string?
      00FDDE7BH   ECODE    ---       usb_clear_feature?
      00FDE6C5H   ECODE    ---       usb_ctrl_in?
      00FDE763H   ECODE    ---       usb_ctrl_out?
      00FDE19FH   ECODE    ---       usb_get_configuration?
      00FDE0A0H   ECODE    ---       usb_get_descriptor?
      00FDE2F2H   ECODE    ---       usb_get_interface?
      00FDFF33H   ECODE    ---       usb_get_line_coding?
      00FDDCB6H   ECODE    ---       usb_get_status?
      00FDE7E4H   ECODE    ---       usb_in_ep1?
      00FDE81AH   ECODE    ---       usb_in_ep2?
      00FDE38BH   ECODE    ---       usb_init?
      00FDE4DBH   ECODE    ---       usb_isr?
      00FDE84DH   ECODE    ---       usb_out_ep1?
      00FDE432H   ECODE    ---       usb_read_fifo?
      00FDE3EBH   ECODE    ---       usb_read_reg?
      00FDFED2H   ECODE    ---       usb_req_class?
      00FDDC37H   ECODE    ---       usb_req_std?
      00FE1E34H   ECODE    ---       usb_req_vendor?
      00FDE57CH   ECODE    ---       usb_reset?
      00FDE57BH   ECODE    ---       usb_resume?
      00FDE02FH   ECODE    ---       usb_set_address?
      00FDE228H   ECODE    ---       usb_set_configuration?
      00FDFF6EH   ECODE    ---       usb_set_ctrl_line_state?
      00FDE19AH   ECODE    ---       usb_set_descriptor?
      00FDDF5AH   ECODE    ---       usb_set_feature?
      00FDE34BH   ECODE    ---       usb_set_interface?
      00FDFEF8H   ECODE    ---       usb_set_line_coding?
      00FDE5CEH   ECODE    ---       usb_setup?
      00FDE692H   ECODE    ---       usb_setup_in?
      00FDE6A6H   ECODE    ---       usb_setup_out?
      00FDE682H   ECODE    ---       usb_setup_stall?
      00FDE6B6H   ECODE    ---       usb_setup_status?
      00FDE5CDH   ECODE    ---       usb_suspend?
      00FDE386H   ECODE    ---       usb_synch_frame?
      00FDFF8BH   ECODE    ---       usb_uart_settings?
      00FDE493H   ECODE    ---       usb_write_fifo?
      00FDE410H   ECODE    ---       usb_write_reg?
*SFR* 000000FCH   DATA     BYTE      USBADR
*SFR* 000000DCH   DATA     BYTE      USBCLK
*SFR* 000000F4H   DATA     BYTE      USBCON
*SFR* 000000ECH   DATA     BYTE      USBDAT
      00000020H.0 BIT      BIT       UsbInBusy
      00000020H.1 BIT      BIT       UsbOutBusy
*SFR* 000000A6H   DATA     BYTE      VRTRIM
L251 LINKER/LOCATER V4.66.93.0                                                        03/25/2026  13:05:55  PAGE 27


      00FC6136H   ECODE    ---       vsnprintf?
*SFR* 000000C1H   DATA     BYTE      WDT_CONTR
*SFR* 000000A6H   DATA     BYTE      WDTRST
      00FD5D58H   ECODE    ---       wifi_spi_get_time?
      00FD6693H   ECODE    ---       wifi_spi_init?
      00010400H   XDATA    ---       wifi_spi_ip_addr_port
      0001043CH   XDATA    ---       wifi_spi_mac_addr
      00FD6388H   ECODE    ---       wifi_spi_read_buffer?
      00FD60A4H   ECODE    ---       wifi_spi_reset?
      00FD61C5H   ECODE    ---       wifi_spi_send_buffer?
      00FD635FH   ECODE    ---       wifi_spi_send_string?
      00FD5FD9H   ECODE    ---       wifi_spi_socket_connect?
      00FD6086H   ECODE    ---       wifi_spi_socket_disconnect?
      00FD60F0H   ECODE    ---       wifi_spi_udp_send_now?
      00010419H   XDATA    ---       wifi_spi_version
      00FD5F16H   ECODE    ---       wifi_spi_wifi_connect?
      00FD5E7BH   ECODE    ---       wifi_spi_wifi_scan?
      00011DCEH   XDATA    ---       wireless_module_spi_handler
      00011DBEH   XDATA    ---       wireless_module_uart_handler
      00011DBCH   XDATA    INT       wireless_type
      00FE0933H   ECODE    ---       wireless_uart_callback?
      00FE095AH   ECODE    ---       wireless_uart_init?
      00FE08ADH   ECODE    ---       wireless_uart_read_buffer?
      00FE072BH   ECODE    ---       wireless_uart_send_buffer?
      00FE06ADH   ECODE    ---       wireless_uart_send_byte?
      00FE084DH   ECODE    ---       wireless_uart_send_string?
*SFR* 000000ABH   DATA     BYTE      WKTCH
*SFR* 000000B0H.6 DATA     BIT       WR
*SFR* 000000E9H   DATA     BYTE      WTST
      00FC681FH   ECODE    ---       zf_sprintf?



SYMBOL TABLE OF MODULE:  .\out_file\SEEKFREE (?C_START?)

      VALUE       REP       CLASS    TYPE      SYMBOL NAME
      ====================================================
      ---         MODULE    ---      ---       ?C_START?
      00FF0000H   PUBLIC    CODE     ---       ?C?STARTUP?
      00FF0000H   PUBLIC    CODE     ---       ?C_STARTUP?
      000000D0H.6 SFRSYM    DATA     BIT       AC
      000000E0H   SFRSYM    DATA     BYTE      ACC
      000000F0H   SFRSYM    DATA     BYTE      B
      000000FAH   SFRSYM    DATA     BYTE      CCAP0H
      000000EAH   SFRSYM    DATA     BYTE      CCAP0L
      000000FBH   SFRSYM    DATA     BYTE      CCAP1H
      000000EBH   SFRSYM    DATA     BYTE      CCAP1L
      000000FCH   SFRSYM    DATA     BYTE      CCAP2H
      000000ECH   SFRSYM    DATA     BYTE      CCAP2L
      000000FDH   SFRSYM    DATA     BYTE      CCAP3H
      000000EDH   SFRSYM    DATA     BYTE      CCAP3L
      000000FEH   SFRSYM    DATA     BYTE      CCAP4H
      000000EEH   SFRSYM    DATA     BYTE      CCAP4L
      000000DAH   SFRSYM    DATA     BYTE      CCAPM0
      000000DBH   SFRSYM    DATA     BYTE      CCAPM1
      000000DCH   SFRSYM    DATA     BYTE      CCAPM2
      000000DDH   SFRSYM    DATA     BYTE      CCAPM3
      000000DEH   SFRSYM    DATA     BYTE      CCAPM4
      000000D8H.0 SFRSYM    DATA     BIT       CCF0
      000000D8H.1 SFRSYM    DATA     BIT       CCF1
      000000D8H.2 SFRSYM    DATA     BIT       CCF2
      000000D8H.3 SFRSYM    DATA     BIT       CCF3
      000000D8H.4 SFRSYM    DATA     BIT       CCF4
      000000D8H   SFRSYM    DATA     BYTE      CCON
      00000090H.3 SFRSYM    DATA     BIT       CEX0
L251 LINKER/LOCATER V4.66.93.0                                                        03/25/2026  13:05:55  PAGE 28


      00000090H.4 SFRSYM    DATA     BIT       CEX1
      00000090H.5 SFRSYM    DATA     BIT       CEX2
      00000090H.6 SFRSYM    DATA     BIT       CEX3
      00000090H.7 SFRSYM    DATA     BIT       CEX4
      000000D8H.7 SFRSYM    DATA     BIT       CF
      000000F9H   SFRSYM    DATA     BYTE      CH
      000000E9H   SFRSYM    DATA     BYTE      CL
      000000D9H   SFRSYM    DATA     BYTE      CMOD
      000000C8H.0 SFRSYM    DATA     BIT       CP_RL2
      000000D8H.6 SFRSYM    DATA     BIT       CR
      000000D0H.7 SFRSYM    DATA     BIT       CY
      000000C8H.1 SFRSYM    DATA     BIT       C_T2
      00000083H   SFRSYM    DATA     BYTE      DPH
      00000082H   SFRSYM    DATA     BYTE      DPL
      00000084H   SFRSYM    DATA     BYTE      DPXL
      000000A8H.7 SFRSYM    DATA     BIT       EA
      000000A8H.6 SFRSYM    DATA     BIT       EC
      00000090H.2 SFRSYM    DATA     BIT       ECI
      000000A8H.4 SFRSYM    DATA     BIT       ES
      000000A8H.1 SFRSYM    DATA     BIT       ET0
      000000A8H.3 SFRSYM    DATA     BIT       ET1
      000000A8H.5 SFRSYM    DATA     BIT       ET2
      000000A8H.0 SFRSYM    DATA     BIT       EX0
      000000A8H.2 SFRSYM    DATA     BIT       EX1
      000000C8H.3 SFRSYM    DATA     BIT       EXEN2
      000000C8H.6 SFRSYM    DATA     BIT       EXF2
      000000D0H.5 SFRSYM    DATA     BIT       F0
      00000098H.7 SFRSYM    DATA     BIT       FE
      000000A8H   SFRSYM    DATA     BYTE      IE0
      00000088H.1 SFRSYM    DATA     BIT       IE0_
      000000B1H   SFRSYM    DATA     BYTE      IE1
      00000088H.3 SFRSYM    DATA     BIT       IE1_
      000000B0H.2 SFRSYM    DATA     BIT       INT0
      000000B0H.3 SFRSYM    DATA     BIT       INT1
      000000B7H   SFRSYM    DATA     BYTE      IPH0
      000000B8H   SFRSYM    DATA     BYTE      IPL0
      00000088H.0 SFRSYM    DATA     BIT       IT0
      00000088H.2 SFRSYM    DATA     BIT       IT1
      000000D0H.2 SFRSYM    DATA     BIT       OV
      000000D0H.0 SFRSYM    DATA     BIT       P
      00000080H   SFRSYM    DATA     BYTE      P0
      00000090H   SFRSYM    DATA     BYTE      P1
      000000A0H   SFRSYM    DATA     BYTE      P2
      000000B0H   SFRSYM    DATA     BYTE      P3
      00000087H   SFRSYM    DATA     BYTE      PCON
      000000B8H.6 SFRSYM    DATA     BIT       PPC
      000000B8H.4 SFRSYM    DATA     BIT       PS
      000000D0H   SFRSYM    DATA     BYTE      PSW
      000000D1H   SFRSYM    DATA     BYTE      PSW1
      000000B8H.1 SFRSYM    DATA     BIT       PT0
      000000B8H.3 SFRSYM    DATA     BIT       PT1
      000000B8H.5 SFRSYM    DATA     BIT       PT2
      000000B8H.0 SFRSYM    DATA     BIT       PX0
      000000B8H.2 SFRSYM    DATA     BIT       PX1
      00000098H.2 SFRSYM    DATA     BIT       RB8
      000000CBH   SFRSYM    DATA     BYTE      RCAP2H
      000000CAH   SFRSYM    DATA     BYTE      RCAP2L
      000000C8H.5 SFRSYM    DATA     BIT       RCLK
      000000B0H.7 SFRSYM    DATA     BIT       RD
      00000098H.4 SFRSYM    DATA     BIT       REN
      00000098H.0 SFRSYM    DATA     BIT       RI
      000000D0H.3 SFRSYM    DATA     BIT       RS0
      000000D0H.4 SFRSYM    DATA     BIT       RS1
      000000B0H.0 SFRSYM    DATA     BIT       RXD
      000000A9H   SFRSYM    DATA     BYTE      SADDR
L251 LINKER/LOCATER V4.66.93.0                                                        03/25/2026  13:05:55  PAGE 29


      000000B9H   SFRSYM    DATA     BYTE      SADEN
      00000099H   SFRSYM    DATA     BYTE      SBUF
      00000098H   SFRSYM    DATA     BYTE      SCON
      00000098H.7 SFRSYM    DATA     BIT       SM0
      00000098H.6 SFRSYM    DATA     BIT       SM1
      00000098H.5 SFRSYM    DATA     BIT       SM2
      00000081H   SFRSYM    DATA     BYTE      SP
      000000BEH   SFRSYM    DATA     BYTE      SPH
      000000B0H.4 SFRSYM    DATA     BIT       T0
      000000B0H.5 SFRSYM    DATA     BIT       T1
      00000090H.0 SFRSYM    DATA     BIT       T2
      000000C8H   SFRSYM    DATA     BYTE      T2CON
      00000090H.1 SFRSYM    DATA     BIT       T2EX
      000000C9H   SFRSYM    DATA     BYTE      T2MOD
      00000098H.3 SFRSYM    DATA     BIT       TB8
      000000C8H.4 SFRSYM    DATA     BIT       TCLK
      00000088H   SFRSYM    DATA     BYTE      TCON
      00000088H.5 SFRSYM    DATA     BIT       TF0
      00000088H.7 SFRSYM    DATA     BIT       TF1
      000000C8H.7 SFRSYM    DATA     BIT       TF2
      0000008CH   SFRSYM    DATA     BYTE      TH0
      0000008DH   SFRSYM    DATA     BYTE      TH1
      000000CDH   SFRSYM    DATA     BYTE      TH2
      00000098H.1 SFRSYM    DATA     BIT       TI
      0000008AH   SFRSYM    DATA     BYTE      TL0
      0000008BH   SFRSYM    DATA     BYTE      TL1
      000000CCH   SFRSYM    DATA     BYTE      TL2
      00000089H   SFRSYM    DATA     BYTE      TMOD
      00000088H.4 SFRSYM    DATA     BIT       TR0
      00000088H.6 SFRSYM    DATA     BIT       TR1
      000000C8H.2 SFRSYM    DATA     BIT       TR2
      000000B0H.1 SFRSYM    DATA     BIT       TXD
      000000A6H   SFRSYM    DATA     BYTE      WDTRST
      000000B0H.6 SFRSYM    DATA     BIT       WR
      00004000H   SYMBOL    NUMBER   ---       EDATALEN
      00FF0227H   SYMBOL    CODE     ---       EDATALOOP
      00000001H   SYMBOL    NUMBER   ---       EDF
      00000001H   SYMBOL    NUMBER   ---       EMAP
      00000000H   SYMBOL    NUMBER   ---       HDATALEN
      00010000H   SYMBOL    NUMBER   ---       HDATASTART
      00000000H   SYMBOL    NUMBER   ---       IBPSTACK
      00000100H   SYMBOL    NUMBER   ---       IBPSTACKTOP
      00000001H   SYMBOL    NUMBER   ---       INTR
      00000001H   SYMBOL    NUMBER   ---       PAGM
      00000003H   SYMBOL    NUMBER   ---       RDRG
      00000001H   SYMBOL    NUMBER   ---       SRCM
      00002000H   SYMBOL    NUMBER   ---       STACKSIZE
      00FF021FH   SYMBOL    CODE     ---       STARTUP1
      00000003H   SYMBOL    NUMBER   ---       WSA
      00000003H   SYMBOL    NUMBER   ---       WSB
      00000001H   SYMBOL    NUMBER   ---       XALE
      00000000H   SYMBOL    NUMBER   ---       XBPSTACK
      00010000H   SYMBOL    NUMBER   ---       XBPSTACKTOP
      0000FFFFH   SYMBOL    NUMBER   ---       XDATALEN
      00FF0236H   SYMBOL    CODE     ---       XDATALOOP
      00010000H   SYMBOL    NUMBER   ---       XDATASTART

      00FF0000H   BLOCK     CODE     NEAR LAB  LVL=0
      00FF0000H   LINE      CODE     ---       #183
      ---         BLOCKEND  ---      ---       LVL=0

      00FF021FH   BLOCK     CODE     NEAR LAB  LVL=0
      00FF021FH   LINE      CODE     ---       #188
      00FF0222H   LINE      CODE     ---       #191
      00FF0226H   LINE      CODE     ---       #192
L251 LINKER/LOCATER V4.66.93.0                                                        03/25/2026  13:05:55  PAGE 30


      00FF0227H   LINE      CODE     ---       #193
      00FF022AH   LINE      CODE     ---       #194
      00FF022CH   LINE      CODE     ---       #195
      00FF022EH   LINE      CODE     ---       #199
      00FF0231H   LINE      CODE     ---       #200
      00FF0235H   LINE      CODE     ---       #201
      00FF0236H   LINE      CODE     ---       #202
      00FF0237H   LINE      CODE     ---       #203
      00FF0238H   LINE      CODE     ---       #204
      00FF023AH   LINE      CODE     ---       #205
      00FF023CH   LINE      CODE     ---       #235
      ---         BLOCKEND  ---      ---       LVL=0

      00FF0271H   BLOCK     CODE     NEAR LAB  LVL=0
      00FF0271H   LINE      CODE     ---       #238
      ---         BLOCKEND  ---      ---       LVL=0

      ---         MODULE    ---      ---       zf_common_typedef
      000117D1H   PUBLIC    XDATA    ---       tim11_irq_handler
      000117D5H   PUBLIC    XDATA    ---       uart1_irq_handler
      000117D9H   PUBLIC    XDATA    ---       uart2_irq_handler
      000117DDH   PUBLIC    XDATA    ---       uart3_irq_handler
      000117E1H   PUBLIC    XDATA    ---       uart4_irq_handler
      000117E5H   PUBLIC    XDATA    ---       tim0_irq_handler
      000117E9H   PUBLIC    XDATA    ---       int0_irq_handler
      000117EDH   PUBLIC    XDATA    ---       tim1_irq_handler
      000117F1H   PUBLIC    XDATA    ---       int1_irq_handler
      000117F5H   PUBLIC    XDATA    ---       tim2_irq_handler
      000117F9H   PUBLIC    XDATA    ---       int2_irq_handler
      000117FDH   PUBLIC    XDATA    ---       tim3_irq_handler
      00011801H   PUBLIC    XDATA    ---       int3_irq_handler
      00011805H   PUBLIC    XDATA    ---       tim4_irq_handler
      00011809H   PUBLIC    XDATA    ---       int4_irq_handler
      000000D0H   SFRSYM    DATA     BYTE      PSW
      0000009DH   SFRSYM    DATA     BYTE      IRCBAND
      00000097H   SFRSYM    DATA     BYTE      AUXR2
      000000EAH   SFRSYM    DATA     BYTE      CKCON
      000000EFH   SFRSYM    DATA     BYTE      AUXINTIF
      000000FDH   SFRSYM    DATA     BYTE      S4CON
      000000ACH   SFRSYM    DATA     BYTE      S3CON
      0000009AH   SFRSYM    DATA     BYTE      S2CON
      000000B7H   SFRSYM    DATA     BYTE      IPH
      000000CDH   SFRSYM    DATA     BYTE      SPSTAT
      000000DDH   SFRSYM    DATA     BYTE      T4T3M
      000000C1H   SFRSYM    DATA     BYTE      WDT_CONTR
      000000DFH   SFRSYM    DATA     BYTE      IP3
      000000F4H   SFRSYM    DATA     BYTE      USBCON
      000000B5H   SFRSYM    DATA     BYTE      IP2
      000000FFH   SFRSYM    DATA     BYTE      RSTCFG
      000000E0H   SFRSYM    DATA     BYTE      ACC
      000000C7H   SFRSYM    DATA     BYTE      IAP_CONTR
      000000F9H   SFRSYM    DATA     BYTE      LINICR
      0000008EH   SFRSYM    DATA     BYTE      AUXR
      000000F0H   SFRSYM    DATA     BYTE      B
      000000AFH   SFRSYM    DATA     BYTE      IE2
      00000088H   SFRSYM    DATA     BYTE      TCON
      00000089H   SFRSYM    DATA     BYTE      TMOD
      00000098H   SFRSYM    DATA     BYTE      SCON
      00000087H   SFRSYM    DATA     BYTE      PCON
      000000BCH   SFRSYM    DATA     BYTE      ADC_CONTR
      000000D1H   SFRSYM    DATA     BYTE      PSW1
      000000E7H   SFRSYM    DATA     BYTE      CMPCR2
      000000E6H   SFRSYM    DATA     BYTE      CMPCR1
      000000DEH   SFRSYM    DATA     BYTE      ADCCFG
      000000B8H   SFRSYM    DATA     BYTE      IP
L251 LINKER/LOCATER V4.66.93.0                                                        03/25/2026  13:05:55  PAGE 31


      0000008FH   SFRSYM    DATA     BYTE      INTCLKO
      000000EEH   SFRSYM    DATA     BYTE      IP3H
      000000B6H   SFRSYM    DATA     BYTE      IP2H
      000000BFH   SFRSYM    DATA     BYTE      P_SW4
      000000A8H   SFRSYM    DATA     BYTE      IE
      000000BBH   SFRSYM    DATA     BYTE      P_SW3
      000000BAH   SFRSYM    DATA     BYTE      P_SW2
      000000A2H   SFRSYM    DATA     BYTE      P_SW1
      000000CEH   SFRSYM    DATA     BYTE      SPCTL
      000000F8H   SFRSYM    DATA     BYTE      P7
      000000E8H   SFRSYM    DATA     BYTE      P6
      000000C8H   SFRSYM    DATA     BYTE      P5
      000000C0H   SFRSYM    DATA     BYTE      P4
      000000ABH   SFRSYM    DATA     BYTE      WKTCH
      000000B0H   SFRSYM    DATA     BYTE      P3
      000000A0H   SFRSYM    DATA     BYTE      P2
      00000090H   SFRSYM    DATA     BYTE      P1
      00000080H   SFRSYM    DATA     BYTE      P0

      ---         MODULE    ---      ---       zf_common_clock
      00FE11CCH   PUBLIC    ECODE    ---       clock_init?
      000128D9H   PUBLIC    XDATA    DWORD     system_clock
      000000D0H   SFRSYM    DATA     BYTE      PSW
      000000BAH.7 SFRSYM    DATA     BIT       EAXFR
      0000009DH   SFRSYM    DATA     BYTE      IRCBAND
      00000097H   SFRSYM    DATA     BYTE      AUXR2
      000000EAH   SFRSYM    DATA     BYTE      CKCON
      000000EFH   SFRSYM    DATA     BYTE      AUXINTIF
      000000FDH   SFRSYM    DATA     BYTE      S4CON
      000000ACH   SFRSYM    DATA     BYTE      S3CON
      0000009AH   SFRSYM    DATA     BYTE      S2CON
      000000A6H   SFRSYM    DATA     BYTE      VRTRIM
      000000B7H   SFRSYM    DATA     BYTE      IPH
      000000CDH   SFRSYM    DATA     BYTE      SPSTAT
      000000DDH   SFRSYM    DATA     BYTE      T4T3M
      0000009FH   SFRSYM    DATA     BYTE      IRTRIM
      000000C1H   SFRSYM    DATA     BYTE      WDT_CONTR
      000000E9H   SFRSYM    DATA     BYTE      WTST
      000000DFH   SFRSYM    DATA     BYTE      IP3
      000000F4H   SFRSYM    DATA     BYTE      USBCON
      000000B5H   SFRSYM    DATA     BYTE      IP2
      000000FFH   SFRSYM    DATA     BYTE      RSTCFG
      000000E0H   SFRSYM    DATA     BYTE      ACC
      000000C7H   SFRSYM    DATA     BYTE      IAP_CONTR
      000000F9H   SFRSYM    DATA     BYTE      LINICR
      0000008EH   SFRSYM    DATA     BYTE      AUXR
      000000F0H   SFRSYM    DATA     BYTE      B
      000000AFH   SFRSYM    DATA     BYTE      IE2
      00000088H   SFRSYM    DATA     BYTE      TCON
      00000089H   SFRSYM    DATA     BYTE      TMOD
      00000098H   SFRSYM    DATA     BYTE      SCON
      00000087H   SFRSYM    DATA     BYTE      PCON
      000000BCH   SFRSYM    DATA     BYTE      ADC_CONTR
      000000D1H   SFRSYM    DATA     BYTE      PSW1
      000000E7H   SFRSYM    DATA     BYTE      CMPCR2
      000000E6H   SFRSYM    DATA     BYTE      CMPCR1
      000000DEH   SFRSYM    DATA     BYTE      ADCCFG
      000000B8H   SFRSYM    DATA     BYTE      IP
      0000008FH   SFRSYM    DATA     BYTE      INTCLKO
      000000EEH   SFRSYM    DATA     BYTE      IP3H
      000000B6H   SFRSYM    DATA     BYTE      IP2H
      000000BFH   SFRSYM    DATA     BYTE      P_SW4
      000000A8H   SFRSYM    DATA     BYTE      IE
      000000BBH   SFRSYM    DATA     BYTE      P_SW3
      000000BAH   SFRSYM    DATA     BYTE      P_SW2
L251 LINKER/LOCATER V4.66.93.0                                                        03/25/2026  13:05:55  PAGE 32


      000000A2H   SFRSYM    DATA     BYTE      P_SW1
      000000CEH   SFRSYM    DATA     BYTE      SPCTL
      000000F8H   SFRSYM    DATA     BYTE      P7
      000000E8H   SFRSYM    DATA     BYTE      P6
      000000C8H   SFRSYM    DATA     BYTE      P5
      000000C0H   SFRSYM    DATA     BYTE      P4
      000000ABH   SFRSYM    DATA     BYTE      WKTCH
      000000B0H   SFRSYM    DATA     BYTE      P3
      000000A0H   SFRSYM    DATA     BYTE      P2
      000000B1H   SFRSYM    DATA     BYTE      P3M1
      00000090H   SFRSYM    DATA     BYTE      P1
      000000B2H   SFRSYM    DATA     BYTE      P3M0
      00000080H   SFRSYM    DATA     BYTE      P0

      00FE11CCH   BLOCK     ECODE    ---       LVL=0
      0001288EH   SYMBOL    XDATA    DWORD     clock
      00FE11D6H   BLOCK     ECODE    NEAR LAB  LVL=1
      00012892H   SYMBOL    XDATA    BYTE      pll_div
      ---         BLOCKEND  ---      ---       LVL=1
      00FE11CCH   LINE      ECODE    ---       #49
      00FE11D6H   LINE      ECODE    ---       #50
      00FE11D6H   LINE      ECODE    ---       #51
      00FE1200H   LINE      ECODE    ---       #52
      00FE1204H   LINE      ECODE    ---       #53
      00FE1208H   LINE      ECODE    ---       #55
      00FE121EH   LINE      ECODE    ---       #57
      00FE1222H   LINE      ECODE    ---       #58
      00FE1224H   LINE      ECODE    ---       #59
      00FE123AH   LINE      ECODE    ---       #61
      00FE123EH   LINE      ECODE    ---       #62
      00FE1240H   LINE      ECODE    ---       #63
      00FE1256H   LINE      ECODE    ---       #65
      00FE125AH   LINE      ECODE    ---       #66
      00FE125CH   LINE      ECODE    ---       #69
      00FE1260H   LINE      ECODE    ---       #70
      00FE1260H   LINE      ECODE    ---       #73
      00FE126DH   LINE      ECODE    ---       #76
      00FE127AH   LINE      ECODE    ---       #77
      00FE1287H   LINE      ECODE    ---       #78
      00FE128AH   LINE      ECODE    ---       #79
      00FE128DH   LINE      ECODE    ---       #80
      00FE129FH   LINE      ECODE    ---       #81
      00FE12ACH   LINE      ECODE    ---       #82
      00FE12C6H   LINE      ECODE    ---       #83
      00FE12D8H   LINE      ECODE    ---       #84
      00FE12E0H   LINE      ECODE    ---       #85
      00FE12F2H   LINE      ECODE    ---       #86
      00FE1304H   LINE      ECODE    ---       #87
      00FE1316H   LINE      ECODE    ---       #115
      00FE1319H   LINE      ECODE    ---       #116
      00FE131CH   LINE      ECODE    ---       #117
      00FE131FH   LINE      ECODE    ---       #118
      00FE1322H   LINE      ECODE    ---       #119
      00FE1325H   LINE      ECODE    ---       #120
      00FE1328H   LINE      ECODE    ---       #121
      00FE132BH   LINE      ECODE    ---       #122
      00FE132EH   LINE      ECODE    ---       #123
      00FE1331H   LINE      ECODE    ---       #125
      00FE1345H   LINE      ECODE    ---       #129
      00FE1348H   LINE      ECODE    ---       #130
      00FE134BH   LINE      ECODE    ---       #132
      00FE1358H   LINE      ECODE    ---       #133
      00FE1366H   LINE      ECODE    ---       #136
      00FE1384H   LINE      ECODE    ---       #140
      00FE1388H   LINE      ECODE    ---       #141
L251 LINKER/LOCATER V4.66.93.0                                                        03/25/2026  13:05:55  PAGE 33


      ---         BLOCKEND  ---      ---       LVL=0

      ---         MODULE    ---      ---       zf_common_interrupt
      00FDF690H   PUBLIC    ECODE    ---       interrupt_global_disable?
      00FDF24EH   PUBLIC    ECODE    ---       interrupt_set_priority?
      00FDF694H   PUBLIC    ECODE    ---       interrupt_global_enable?
      000000D0H   SFRSYM    DATA     BYTE      PSW
      0000009DH   SFRSYM    DATA     BYTE      IRCBAND
      00000097H   SFRSYM    DATA     BYTE      AUXR2
      000000EAH   SFRSYM    DATA     BYTE      CKCON
      000000EFH   SFRSYM    DATA     BYTE      AUXINTIF
      000000FDH   SFRSYM    DATA     BYTE      S4CON
      000000ACH   SFRSYM    DATA     BYTE      S3CON
      0000009AH   SFRSYM    DATA     BYTE      S2CON
      000000B7H   SFRSYM    DATA     BYTE      IPH
      000000CDH   SFRSYM    DATA     BYTE      SPSTAT
      000000DDH   SFRSYM    DATA     BYTE      T4T3M
      000000C1H   SFRSYM    DATA     BYTE      WDT_CONTR
      000000DFH   SFRSYM    DATA     BYTE      IP3
      000000F4H   SFRSYM    DATA     BYTE      USBCON
      000000B5H   SFRSYM    DATA     BYTE      IP2
      000000FFH   SFRSYM    DATA     BYTE      RSTCFG
      000000E0H   SFRSYM    DATA     BYTE      ACC
      000000C7H   SFRSYM    DATA     BYTE      IAP_CONTR
      000000F9H   SFRSYM    DATA     BYTE      LINICR
      0000008EH   SFRSYM    DATA     BYTE      AUXR
      000000F0H   SFRSYM    DATA     BYTE      B
      000000AFH   SFRSYM    DATA     BYTE      IE2
      00000088H   SFRSYM    DATA     BYTE      TCON
      00000089H   SFRSYM    DATA     BYTE      TMOD
      00000098H   SFRSYM    DATA     BYTE      SCON
      00000087H   SFRSYM    DATA     BYTE      PCON
      000000BCH   SFRSYM    DATA     BYTE      ADC_CONTR
      000000D1H   SFRSYM    DATA     BYTE      PSW1
      000000E7H   SFRSYM    DATA     BYTE      CMPCR2
      000000E6H   SFRSYM    DATA     BYTE      CMPCR1
      000000DEH   SFRSYM    DATA     BYTE      ADCCFG
      000000B8H   SFRSYM    DATA     BYTE      IP
      0000008FH   SFRSYM    DATA     BYTE      INTCLKO
      000000EEH   SFRSYM    DATA     BYTE      IP3H
      000000B6H   SFRSYM    DATA     BYTE      IP2H
      000000BFH   SFRSYM    DATA     BYTE      P_SW4
      000000A8H   SFRSYM    DATA     BYTE      IE
      000000BBH   SFRSYM    DATA     BYTE      P_SW3
      000000BAH   SFRSYM    DATA     BYTE      P_SW2
      000000A2H   SFRSYM    DATA     BYTE      P_SW1
      000000CEH   SFRSYM    DATA     BYTE      SPCTL
      000000F8H   SFRSYM    DATA     BYTE      P7
      000000A8H.7 SFRSYM    DATA     BIT       EA
      000000E8H   SFRSYM    DATA     BYTE      P6
      000000C8H   SFRSYM    DATA     BYTE      P5
      000000C0H   SFRSYM    DATA     BYTE      P4
      000000ABH   SFRSYM    DATA     BYTE      WKTCH
      000000B0H   SFRSYM    DATA     BYTE      P3
      000000A0H   SFRSYM    DATA     BYTE      P2
      00000090H   SFRSYM    DATA     BYTE      P1
      00000080H   SFRSYM    DATA     BYTE      P0

      00FDF24EH   BLOCK     ECODE    ---       LVL=0
      0001299DH   SYMBOL    XDATA    INT       irqn
      0001299FH   SYMBOL    XDATA    BYTE      priority
      00FDF24EH   LINE      ECODE    ---       #47
      00FDF258H   LINE      ECODE    ---       #49
      00FDF26CH   LINE      ECODE    ---       #51
      00FDF290H   LINE      ECODE    ---       #52
L251 LINKER/LOCATER V4.66.93.0                                                        03/25/2026  13:05:55  PAGE 34


      00FDF2B7H   LINE      ECODE    ---       #53
      00FDF2BAH   LINE      ECODE    ---       #54
      00FDF2D0H   LINE      ECODE    ---       #56
      00FDF2F4H   LINE      ECODE    ---       #57
      00FDF31BH   LINE      ECODE    ---       #58
      00FDF31EH   LINE      ECODE    ---       #59
      00FDF337H   LINE      ECODE    ---       #63
      00FDF337H   LINE      ECODE    ---       #66
      00FDF385H   LINE      ECODE    ---       #68
      00FDF3B2H   LINE      ECODE    ---       #69
      00FDF3DFH   LINE      ECODE    ---       #70
      00FDF40CH   LINE      ECODE    ---       #71
      00FDF439H   LINE      ECODE    ---       #72
      00FDF466H   LINE      ECODE    ---       #73
      00FDF493H   LINE      ECODE    ---       #74
      00FDF4C0H   LINE      ECODE    ---       #75
      00FDF4EDH   LINE      ECODE    ---       #77
      00FDF51CH   LINE      ECODE    ---       #78
      00FDF54BH   LINE      ECODE    ---       #79
      00FDF57AH   LINE      ECODE    ---       #80
      00FDF5A9H   LINE      ECODE    ---       #81
      00FDF5D8H   LINE      ECODE    ---       #82
      00FDF607H   LINE      ECODE    ---       #83
      00FDF635H   LINE      ECODE    ---       #84
      00FDF663H   LINE      ECODE    ---       #86
      00FDF68FH   LINE      ECODE    ---       #87
      00FDF68FH   LINE      ECODE    ---       #88
      00FDF68FH   LINE      ECODE    ---       #89
      ---         BLOCKEND  ---      ---       LVL=0

      00FDF690H   BLOCK     ECODE    ---       LVL=0
      00FDF690H   LINE      ECODE    ---       #99
      00FDF690H   LINE      ECODE    ---       #101
      00FDF693H   LINE      ECODE    ---       #102
      ---         BLOCKEND  ---      ---       LVL=0

      00FDF694H   BLOCK     ECODE    ---       LVL=0
      00FDF694H   LINE      ECODE    ---       #112
      00FDF694H   LINE      ECODE    ---       #114
      00FDF697H   LINE      ECODE    ---       #115
      ---         BLOCKEND  ---      ---       LVL=0

      ---         MODULE    ---      ---       zf_common_debug
      00FE1020H   PUBLIC    ECODE    ---       debug_interrupr_handler?
      00FE118DH   PUBLIC    ECODE    ---       debug_init?
      00FE10FBH   PUBLIC    ECODE    ---       debug_assert_handler?
      00FE0FD1H   PUBLIC    ECODE    ---       debug_read_buffer?
      00FE0F6EH   PUBLIC    ECODE    ---       debug_send_buffer?
      00FE10EAH   PUBLIC    ECODE    ---       putchar?
      000111E7H   PUBLIC    XDATA    ---       debug_uart_buffer
      00011268H   PUBLIC    XDATA    ---       debug_uart_fifo
      000000D0H   SFRSYM    DATA     BYTE      PSW
      0000009DH   SFRSYM    DATA     BYTE      IRCBAND
      00000097H   SFRSYM    DATA     BYTE      AUXR2
      000000EAH   SFRSYM    DATA     BYTE      CKCON
      000000EFH   SFRSYM    DATA     BYTE      AUXINTIF
      000000FDH   SFRSYM    DATA     BYTE      S4CON
      000000ACH   SFRSYM    DATA     BYTE      S3CON
      0000009AH   SFRSYM    DATA     BYTE      S2CON
      000000B7H   SFRSYM    DATA     BYTE      IPH
      000000CDH   SFRSYM    DATA     BYTE      SPSTAT
      000000DDH   SFRSYM    DATA     BYTE      T4T3M
      000000C1H   SFRSYM    DATA     BYTE      WDT_CONTR
      000000DFH   SFRSYM    DATA     BYTE      IP3
      000000F4H   SFRSYM    DATA     BYTE      USBCON
L251 LINKER/LOCATER V4.66.93.0                                                        03/25/2026  13:05:55  PAGE 35


      000000B5H   SFRSYM    DATA     BYTE      IP2
      000000FFH   SFRSYM    DATA     BYTE      RSTCFG
      000000E0H   SFRSYM    DATA     BYTE      ACC
      000000DCH   SFRSYM    DATA     BYTE      USBCLK
      000000C7H   SFRSYM    DATA     BYTE      IAP_CONTR
      000000F9H   SFRSYM    DATA     BYTE      LINICR
      0000008EH   SFRSYM    DATA     BYTE      AUXR
      000000F0H   SFRSYM    DATA     BYTE      B
      000000AFH   SFRSYM    DATA     BYTE      IE2
      00000088H   SFRSYM    DATA     BYTE      TCON
      00000089H   SFRSYM    DATA     BYTE      TMOD
      00000098H   SFRSYM    DATA     BYTE      SCON
      00000087H   SFRSYM    DATA     BYTE      PCON
      000000BCH   SFRSYM    DATA     BYTE      ADC_CONTR
      000000D1H   SFRSYM    DATA     BYTE      PSW1
      000000E7H   SFRSYM    DATA     BYTE      CMPCR2
      000000E6H   SFRSYM    DATA     BYTE      CMPCR1
      000000DEH   SFRSYM    DATA     BYTE      ADCCFG
      000000B8H   SFRSYM    DATA     BYTE      IP
      0000008FH   SFRSYM    DATA     BYTE      INTCLKO
      000000EEH   SFRSYM    DATA     BYTE      IP3H
      000000B6H   SFRSYM    DATA     BYTE      IP2H
      000000BFH   SFRSYM    DATA     BYTE      P_SW4
      000000A8H   SFRSYM    DATA     BYTE      IE
      000000BBH   SFRSYM    DATA     BYTE      P_SW3
      000000BAH   SFRSYM    DATA     BYTE      P_SW2
      000000A2H   SFRSYM    DATA     BYTE      P_SW1
      000000CEH   SFRSYM    DATA     BYTE      SPCTL
      000000F8H   SFRSYM    DATA     BYTE      P7
      000000A8H.7 SFRSYM    DATA     BIT       EA
      000000E8H   SFRSYM    DATA     BYTE      P6
      000000C8H   SFRSYM    DATA     BYTE      P5
      000000C0H   SFRSYM    DATA     BYTE      P4
      000000ABH   SFRSYM    DATA     BYTE      WKTCH
      000000B0H   SFRSYM    DATA     BYTE      P3
      000000A0H   SFRSYM    DATA     BYTE      P2
      00000090H   SFRSYM    DATA     BYTE      P1
      00000080H   SFRSYM    DATA     BYTE      P0
      00FE53FEH   SYMBOL    HCONST   ---       ?tpl?0001
      00FE5406H   SYMBOL    HCONST   ---       ?tpl?0002
      00011267H   SYMBOL    XDATA    BYTE      zf_debug_assert_enable
      0001127FH   SYMBOL    XDATA    BYTE      zf_debug_init_flag

      00FE0F6EH   BLOCK     ECODE    ---       LVL=0
      000126A4H   SYMBOL    XDATA    ---       buff
      000126A8H   SYMBOL    XDATA    DWORD     len
      00FE0F6EH   LINE      ECODE    ---       #68
      00FE0F82H   LINE      ECODE    ---       #72
      00FE0F92H   LINE      ECODE    ---       #74
      00FE0FA4H   LINE      ECODE    ---       #75
      00FE0FB6H   LINE      ECODE    ---       #76
      00FE0FB6H   LINE      ECODE    ---       #79
      00FE0FCEH   LINE      ECODE    ---       #80
      00FE0FCEH   LINE      ECODE    ---       #81
      00FE0FD0H   LINE      ECODE    ---       #96
      ---         BLOCKEND  ---      ---       LVL=0

      00FE0FD1H   BLOCK     ECODE    ---       LVL=0
      000126ACH   SYMBOL    XDATA    ---       buff
      000126B0H   SYMBOL    XDATA    DWORD     len
      00FE0FD1H   LINE      ECODE    ---       #106
      00FE0FE5H   LINE      ECODE    ---       #108
      00FE1015H   LINE      ECODE    ---       #109
      00FE101FH   LINE      ECODE    ---       #110
      ---         BLOCKEND  ---      ---       LVL=0
L251 LINKER/LOCATER V4.66.93.0                                                        03/25/2026  13:05:55  PAGE 36



      00FE1020H   BLOCK     ECODE    ---       LVL=0
      000121E7H   SYMBOL    XDATA    ---       buff
      000121EBH   SYMBOL    XDATA    WORD      len
      00FE1030H   BLOCK     ECODE    NEAR LAB  LVL=1
      000121EDH   SYMBOL    XDATA    ---       reboot_str
      ---         BLOCKEND  ---      ---       LVL=1
      00FE1020H   LINE      ECODE    ---       #122
      00FE1030H   LINE      ECODE    ---       #123
      00FE1030H   LINE      ECODE    ---       #126
      00FE1046H   LINE      ECODE    ---       #127
      00FE1069H   LINE      ECODE    ---       #129
      00FE106CH   LINE      ECODE    ---       #130
      00FE1078H   LINE      ECODE    ---       #131
      00FE107BH   LINE      ECODE    ---       #132
      00FE107EH   LINE      ECODE    ---       #133
      00FE108AH   LINE      ECODE    ---       #134
      00FE1096H   LINE      ECODE    ---       #135
      00FE10B4H   LINE      ECODE    ---       #136
      00FE10B8H   LINE      ECODE    ---       #137
      00FE10B8H   LINE      ECODE    ---       #139
      00FE10C1H   LINE      ECODE    ---       #141
      00FE10E9H   LINE      ECODE    ---       #142
      ---         BLOCKEND  ---      ---       LVL=0

      00FE10EAH   BLOCK     ECODE    ---       LVL=0
      00012A04H   SYMBOL    XDATA    CHAR      c
      00FE10EAH   LINE      ECODE    ---       #167
      00FE10EEH   LINE      ECODE    ---       #170
      00FE10F6H   LINE      ECODE    ---       #171
      00FE10FAH   LINE      ECODE    ---       #177
      ---         BLOCKEND  ---      ---       LVL=0

      00FE10FBH   BLOCK     ECODE    ---       LVL=0
      00011F25H   SYMBOL    XDATA    BYTE      pass
      00011F26H   SYMBOL    XDATA    ---       file
      00011F2AH   SYMBOL    XDATA    INT       line
      00FE110FH   BLOCK     ECODE    NEAR LAB  LVL=1
      00011F2CH   SYMBOL    XDATA    ---       log_str
      ---         BLOCKEND  ---      ---       LVL=1
      00FE10FBH   LINE      ECODE    ---       #191
      00FE110FH   LINE      ECODE    ---       #192
      00FE110FH   LINE      ECODE    ---       #193
      00FE1125H   LINE      ECODE    ---       #195
      00FE1127H   LINE      ECODE    ---       #211
      00FE1165H   LINE      ECODE    ---       #214
      00FE1183H   LINE      ECODE    ---       #215
      00FE118CH   LINE      ECODE    ---       #216
      ---         BLOCKEND  ---      ---       LVL=0

      00FE118DH   BLOCK     ECODE    ---       LVL=0
      00FE118DH   LINE      ECODE    ---       #226
      00FE118DH   LINE      ECODE    ---       #229
      00FE1191H   LINE      ECODE    ---       #231
      00FE11BFH   LINE      ECODE    ---       #232
      00FE11CBH   LINE      ECODE    ---       #248
      ---         BLOCKEND  ---      ---       LVL=0

      ---         MODULE    ---      ---       zf_common_fifo
      00FD80B6H   PUBLIC    ECODE    ---       fifo_read_buffer?
      00FD7920H   PUBLIC    ECODE    ---       fifo_clear?
      00FD7B04H   PUBLIC    ECODE    ---       fifo_write_buffer?
      00FD7AAAH   PUBLIC    ECODE    ---       fifo_used?
      00FD8673H   PUBLIC    ECODE    ---       fifo_init?
      0001204BH   PUBLIC    XDATA    BYTE      ?fifo_write_buffer??BYTE
L251 LINKER/LOCATER V4.66.93.0                                                        03/25/2026  13:05:55  PAGE 37


      00011EE2H   PUBLIC    XDATA    BYTE      ?fifo_read_buffer??BYTE
      000121F5H   PUBLIC    XDATA    BYTE      ?fifo_init??BYTE
      000000D0H   SFRSYM    DATA     BYTE      PSW
      0000009DH   SFRSYM    DATA     BYTE      IRCBAND
      00000097H   SFRSYM    DATA     BYTE      AUXR2
      000000EAH   SFRSYM    DATA     BYTE      CKCON
      000000EFH   SFRSYM    DATA     BYTE      AUXINTIF
      000000FDH   SFRSYM    DATA     BYTE      S4CON
      000000ACH   SFRSYM    DATA     BYTE      S3CON
      0000009AH   SFRSYM    DATA     BYTE      S2CON
      000000B7H   SFRSYM    DATA     BYTE      IPH
      000000CDH   SFRSYM    DATA     BYTE      SPSTAT
      000000DDH   SFRSYM    DATA     BYTE      T4T3M
      000000C1H   SFRSYM    DATA     BYTE      WDT_CONTR
      000000DFH   SFRSYM    DATA     BYTE      IP3
      000000F4H   SFRSYM    DATA     BYTE      USBCON
      000000B5H   SFRSYM    DATA     BYTE      IP2
      000000FFH   SFRSYM    DATA     BYTE      RSTCFG
      000000E0H   SFRSYM    DATA     BYTE      ACC
      000000C7H   SFRSYM    DATA     BYTE      IAP_CONTR
      000000F9H   SFRSYM    DATA     BYTE      LINICR
      0000008EH   SFRSYM    DATA     BYTE      AUXR
      000000F0H   SFRSYM    DATA     BYTE      B
      000000AFH   SFRSYM    DATA     BYTE      IE2
      00000088H   SFRSYM    DATA     BYTE      TCON
      00000089H   SFRSYM    DATA     BYTE      TMOD
      00000098H   SFRSYM    DATA     BYTE      SCON
      00000087H   SFRSYM    DATA     BYTE      PCON
      000000BCH   SFRSYM    DATA     BYTE      ADC_CONTR
      000000D1H   SFRSYM    DATA     BYTE      PSW1
      000000E7H   SFRSYM    DATA     BYTE      CMPCR2
      000000E6H   SFRSYM    DATA     BYTE      CMPCR1
      000000DEH   SFRSYM    DATA     BYTE      ADCCFG
      000000B8H   SFRSYM    DATA     BYTE      IP
      0000008FH   SFRSYM    DATA     BYTE      INTCLKO
      000000EEH   SFRSYM    DATA     BYTE      IP3H
      000000B6H   SFRSYM    DATA     BYTE      IP2H
      000000BFH   SFRSYM    DATA     BYTE      P_SW4
      000000A8H   SFRSYM    DATA     BYTE      IE
      000000BBH   SFRSYM    DATA     BYTE      P_SW3
      000000BAH   SFRSYM    DATA     BYTE      P_SW2
      000000A2H   SFRSYM    DATA     BYTE      P_SW1
      000000CEH   SFRSYM    DATA     BYTE      SPCTL
      000000F8H   SFRSYM    DATA     BYTE      P7
      000000E8H   SFRSYM    DATA     BYTE      P6
      000000C8H   SFRSYM    DATA     BYTE      P5
      000000C0H   SFRSYM    DATA     BYTE      P4
      000000ABH   SFRSYM    DATA     BYTE      WKTCH
      000000B0H   SFRSYM    DATA     BYTE      P3
      000000A0H   SFRSYM    DATA     BYTE      P2
      00000090H   SFRSYM    DATA     BYTE      P1
      00000080H   SFRSYM    DATA     BYTE      P0
      00FD77E0H   SYMBOL    ECODE    ---       fifo_head_offset
      00FD7880H   SYMBOL    ECODE    ---       fifo_end_offset

      00FD77E0H   BLOCK     ECODE    ---       LVL=0
      000126B4H   SYMBOL    XDATA    ---       fifo
      000126B8H   SYMBOL    XDATA    DWORD     offset
      00FD77E0H   LINE      ECODE    ---       #49
      00FD77F4H   LINE      ECODE    ---       #51
      00FD781CH   LINE      ECODE    ---       #53
      00FD781EH   LINE      ECODE    ---       #55
      00FD7851H   LINE      ECODE    ---       #56
      00FD787FH   LINE      ECODE    ---       #57
      ---         BLOCKEND  ---      ---       LVL=0
L251 LINKER/LOCATER V4.66.93.0                                                        03/25/2026  13:05:55  PAGE 38



      00FD7880H   BLOCK     ECODE    ---       LVL=0
      000126BCH   SYMBOL    XDATA    ---       fifo
      000126C0H   SYMBOL    XDATA    DWORD     offset
      00FD7880H   LINE      ECODE    ---       #67
      00FD7894H   LINE      ECODE    ---       #69
      00FD78BCH   LINE      ECODE    ---       #71
      00FD78BEH   LINE      ECODE    ---       #73
      00FD78F1H   LINE      ECODE    ---       #74
      00FD791FH   LINE      ECODE    ---       #75
      ---         BLOCKEND  ---      ---       LVL=0

      00FD7920H   BLOCK     ECODE    ---       LVL=0
      000127C8H   SYMBOL    XDATA    ---       fifo
      00FD792AH   BLOCK     ECODE    NEAR LAB  LVL=1
      000127CCH   SYMBOL    XDATA    INT       return_state
      ---         BLOCKEND  ---      ---       LVL=1
      00FD7920H   LINE      ECODE    ---       #84
      00FD792AH   LINE      ECODE    ---       #85
      00FD792AH   LINE      ECODE    ---       #86
      00FD7932H   LINE      ECODE    ---       #87
      00FD7955H   LINE      ECODE    ---       #89
      00FD7955H   LINE      ECODE    ---       #91
      00FD7967H   LINE      ECODE    ---       #93
      00FD7971H   LINE      ECODE    ---       #94
      00FD7974H   LINE      ECODE    ---       #95
      00FD7974H   LINE      ECODE    ---       #96
      00FD7988H   LINE      ECODE    ---       #97
      00FD799FH   LINE      ECODE    ---       #98
      00FD79B6H   LINE      ECODE    ---       #99
      00FD79E0H   LINE      ECODE    ---       #100
      00FD79FEH   LINE      ECODE    ---       #102
      00FD7A2FH   LINE      ECODE    ---       #103
      00FD7A62H   LINE      ECODE    ---       #104
      00FD7A95H   LINE      ECODE    ---       #105
      00FD7A95H   LINE      ECODE    ---       #106
      00FD7AA3H   LINE      ECODE    ---       #107
      00FD7AA3H   LINE      ECODE    ---       #108
      00FD7AA9H   LINE      ECODE    ---       #109
      ---         BLOCKEND  ---      ---       LVL=0

      00FD7AAAH   BLOCK     ECODE    ---       LVL=0
      000128DDH   SYMBOL    XDATA    ---       fifo
      00FD7AAAH   LINE      ECODE    ---       #118
      00FD7AB4H   LINE      ECODE    ---       #120
      00FD7AD7H   LINE      ECODE    ---       #121
      00FD7B03H   LINE      ECODE    ---       #122
      ---         BLOCKEND  ---      ---       LVL=0

      00FD7B04H   BLOCK     ECODE    ---       LVL=0
      0001204BH   SYMBOL    XDATA    ---       fifo
      0001204FH   SYMBOL    XDATA    ---       dat
      00012053H   SYMBOL    XDATA    DWORD     length
      00FD7B18H   BLOCK     ECODE    NEAR LAB  LVL=1
      00012057H   SYMBOL    XDATA    INT       return_state
      00012059H   SYMBOL    XDATA    DWORD     temp_length
      ---         BLOCKEND  ---      ---       LVL=1
      00FD7B04H   LINE      ECODE    ---       #176
      00FD7B18H   LINE      ECODE    ---       #177
      00FD7B18H   LINE      ECODE    ---       #178
      00FD7B20H   LINE      ECODE    ---       #179
      00FD7B2CH   LINE      ECODE    ---       #180
      00FD7B4FH   LINE      ECODE    ---       #182
      00FD7B4FH   LINE      ECODE    ---       #184
      00FD7B5DH   LINE      ECODE    ---       #186
L251 LINKER/LOCATER V4.66.93.0                                                        03/25/2026  13:05:55  PAGE 39


      00FD7B67H   LINE      ECODE    ---       #187
      00FD7B6AH   LINE      ECODE    ---       #188
      00FD7B6AH   LINE      ECODE    ---       #189
      00FD7B85H   LINE      ECODE    ---       #191
      00FD7B8FH   LINE      ECODE    ---       #192
      00FD7B92H   LINE      ECODE    ---       #193
      00FD7B92H   LINE      ECODE    ---       #194
      00FD7BA6H   LINE      ECODE    ---       #196
      00FD7BCCH   LINE      ECODE    ---       #198
      00FD7C02H   LINE      ECODE    ---       #200
      00FD7C1DH   LINE      ECODE    ---       #202
      00FD7C41H   LINE      ECODE    ---       #204
      00FD7C41H   LINE      ECODE    ---       #206
      00FD7C89H   LINE      ECODE    ---       #209
      00FD7CA0H   LINE      ECODE    ---       #210
      00FD7D06H   LINE      ECODE    ---       #214
      00FD7D29H   LINE      ECODE    ---       #215
      00FD7D2CH   LINE      ECODE    ---       #216
      00FD7D2CH   LINE      ECODE    ---       #218
      00FD7D78H   LINE      ECODE    ---       #221
      00FD7D8FH   LINE      ECODE    ---       #222
      00FD7DF7H   LINE      ECODE    ---       #226
      00FD7E1AH   LINE      ECODE    ---       #227
      00FD7E1DH   LINE      ECODE    ---       #228
      00FD7E1DH   LINE      ECODE    ---       #230
      00FD7E6DH   LINE      ECODE    ---       #233
      00FD7E84H   LINE      ECODE    ---       #234
      00FD7EF2H   LINE      ECODE    ---       #238
      00FD7F15H   LINE      ECODE    ---       #239
      00FD7F15H   LINE      ECODE    ---       #240
      00FD7F15H   LINE      ECODE    ---       #241
      00FD7F18H   LINE      ECODE    ---       #244
      00FD7F39H   LINE      ECODE    ---       #246
      00FD7F39H   LINE      ECODE    ---       #248
      00FD7F81H   LINE      ECODE    ---       #251
      00FD7F98H   LINE      ECODE    ---       #252
      00FD7F9BH   LINE      ECODE    ---       #253
      00FD7F9BH   LINE      ECODE    ---       #255
      00FD7FE7H   LINE      ECODE    ---       #258
      00FD7FFEH   LINE      ECODE    ---       #259
      00FD8000H   LINE      ECODE    ---       #260
      00FD8000H   LINE      ECODE    ---       #262
      00FD8050H   LINE      ECODE    ---       #265
      00FD8067H   LINE      ECODE    ---       #266
      00FD8067H   LINE      ECODE    ---       #267
      00FD8067H   LINE      ECODE    ---       #268
      00FD8067H   LINE      ECODE    ---       #270
      00FD808FH   LINE      ECODE    ---       #271
      00FD8091H   LINE      ECODE    ---       #274
      00FD809BH   LINE      ECODE    ---       #275
      00FD809BH   LINE      ECODE    ---       #276
      00FD80AFH   LINE      ECODE    ---       #277
      00FD80AFH   LINE      ECODE    ---       #279
      00FD80B5H   LINE      ECODE    ---       #280
      ---         BLOCKEND  ---      ---       LVL=0

      00FD80B6H   BLOCK     ECODE    ---       LVL=0
      00011EE2H   SYMBOL    XDATA    ---       fifo
      00011EE6H   SYMBOL    XDATA    ---       dat
      00011EEAH   SYMBOL    XDATA    ---       length
      00011EEEH   SYMBOL    XDATA    INT       flag
      00FD80CAH   BLOCK     ECODE    NEAR LAB  LVL=1
      00011EF0H   SYMBOL    XDATA    INT       return_state
      00011EF2H   SYMBOL    XDATA    DWORD     temp_length
      00011EF6H   SYMBOL    XDATA    DWORD     fifo_data_length
L251 LINKER/LOCATER V4.66.93.0                                                        03/25/2026  13:05:55  PAGE 40


      ---         BLOCKEND  ---      ---       LVL=1
      00FD80B6H   LINE      ECODE    ---       #353
      00FD80CAH   LINE      ECODE    ---       #354
      00FD80CAH   LINE      ECODE    ---       #355
      00FD80D2H   LINE      ECODE    ---       #356
      00FD80DEH   LINE      ECODE    ---       #357
      00FD80EAH   LINE      ECODE    ---       #359
      00FD810DH   LINE      ECODE    ---       #360
      00FD8130H   LINE      ECODE    ---       #362
      00FD8130H   LINE      ECODE    ---       #364
      00FD813EH   LINE      ECODE    ---       #366
      00FD8148H   LINE      ECODE    ---       #367
      00FD814BH   LINE      ECODE    ---       #370
      00FD8166H   LINE      ECODE    ---       #372
      00FD8181H   LINE      ECODE    ---       #373
      00FD818BH   LINE      ECODE    ---       #374
      00FD818EH   LINE      ECODE    ---       #375
      00FD818EH   LINE      ECODE    ---       #377
      00FD81A6H   LINE      ECODE    ---       #378
      00FD81C5H   LINE      ECODE    ---       #380
      00FD81E0H   LINE      ECODE    ---       #381
      00FD81EAH   LINE      ECODE    ---       #382
      00FD81F8H   LINE      ECODE    ---       #384
      00FD820CH   LINE      ECODE    ---       #385
      00FD820FH   LINE      ECODE    ---       #386
      00FD820FH   LINE      ECODE    ---       #389
      00FD8223H   LINE      ECODE    ---       #390
      00FD8259H   LINE      ECODE    ---       #391
      00FD827BH   LINE      ECODE    ---       #393
      00FD829CH   LINE      ECODE    ---       #395
      00FD82F0H   LINE      ECODE    ---       #396
      00FD8348H   LINE      ECODE    ---       #397
      00FD83A1H   LINE      ECODE    ---       #398
      00FD83A1H   LINE      ECODE    ---       #399
      00FD83A4H   LINE      ECODE    ---       #402
      00FD83C8H   LINE      ECODE    ---       #404
      00FD83C8H   LINE      ECODE    ---       #406
      00FD8412H   LINE      ECODE    ---       #407
      00FD8464H   LINE      ECODE    ---       #408
      00FD8467H   LINE      ECODE    ---       #409
      00FD8467H   LINE      ECODE    ---       #411
      00FD84B5H   LINE      ECODE    ---       #412
      00FD8509H   LINE      ECODE    ---       #413
      00FD850CH   LINE      ECODE    ---       #414
      00FD850CH   LINE      ECODE    ---       #416
      00FD855EH   LINE      ECODE    ---       #417
      00FD85B6H   LINE      ECODE    ---       #418
      00FD85B6H   LINE      ECODE    ---       #419
      00FD85B6H   LINE      ECODE    ---       #420
      00FD85B6H   LINE      ECODE    ---       #421
      00FD85CAH   LINE      ECODE    ---       #422
      00FD85CAH   LINE      ECODE    ---       #424
      00FD85D9H   LINE      ECODE    ---       #426
      00FD85EBH   LINE      ECODE    ---       #428
      00FD85F5H   LINE      ECODE    ---       #429
      00FD85F7H   LINE      ECODE    ---       #430
      00FD85F7H   LINE      ECODE    ---       #431
      00FD860BH   LINE      ECODE    ---       #432
      00FD8629H   LINE      ECODE    ---       #433
      00FD8658H   LINE      ECODE    ---       #434
      00FD866CH   LINE      ECODE    ---       #435
      00FD866CH   LINE      ECODE    ---       #438
      00FD8672H   LINE      ECODE    ---       #439
      ---         BLOCKEND  ---      ---       LVL=0

L251 LINKER/LOCATER V4.66.93.0                                                        03/25/2026  13:05:55  PAGE 41


      00FD8673H   BLOCK     ECODE    ---       LVL=0
      000121F5H   SYMBOL    XDATA    ---       fifo
      000121F9H   SYMBOL    XDATA    INT       type
      000121FBH   SYMBOL    XDATA    ---       buffer_addr
      000121FFH   SYMBOL    XDATA    DWORD     siz
      00FD8673H   LINE      ECODE    ---       #547
      00FD8683H   LINE      ECODE    ---       #549
      00FD86A6H   LINE      ECODE    ---       #550
      00FD86A6H   LINE      ECODE    ---       #552
      00FD86C5H   LINE      ECODE    ---       #553
      00FD86D3H   LINE      ECODE    ---       #554
      00FD86E8H   LINE      ECODE    ---       #555
      00FD86FFH   LINE      ECODE    ---       #556
      00FD8716H   LINE      ECODE    ---       #557
      00FD8735H   LINE      ECODE    ---       #558
      00FD8754H   LINE      ECODE    ---       #559
      00FD8754H   LINE      ECODE    ---       #560
      00FD8756H   LINE      ECODE    ---       #561
      ---         BLOCKEND  ---      ---       LVL=0

      ---         MODULE    ---      ---       zf_common_font
      00FF031FH   PUBLIC    CODE     ---       ascii_font_8x16
      000000D0H   SFRSYM    DATA     BYTE      PSW
      0000009DH   SFRSYM    DATA     BYTE      IRCBAND
      00000097H   SFRSYM    DATA     BYTE      AUXR2
      000000EAH   SFRSYM    DATA     BYTE      CKCON
      000000EFH   SFRSYM    DATA     BYTE      AUXINTIF
      000000FDH   SFRSYM    DATA     BYTE      S4CON
      000000ACH   SFRSYM    DATA     BYTE      S3CON
      0000009AH   SFRSYM    DATA     BYTE      S2CON
      000000B7H   SFRSYM    DATA     BYTE      IPH
      000000CDH   SFRSYM    DATA     BYTE      SPSTAT
      000000DDH   SFRSYM    DATA     BYTE      T4T3M
      000000C1H   SFRSYM    DATA     BYTE      WDT_CONTR
      000000DFH   SFRSYM    DATA     BYTE      IP3
      000000F4H   SFRSYM    DATA     BYTE      USBCON
      000000B5H   SFRSYM    DATA     BYTE      IP2
      000000FFH   SFRSYM    DATA     BYTE      RSTCFG
      000000E0H   SFRSYM    DATA     BYTE      ACC
      000000C7H   SFRSYM    DATA     BYTE      IAP_CONTR
      000000F9H   SFRSYM    DATA     BYTE      LINICR
      0000008EH   SFRSYM    DATA     BYTE      AUXR
      000000F0H   SFRSYM    DATA     BYTE      B
      000000AFH   SFRSYM    DATA     BYTE      IE2
      00000088H   SFRSYM    DATA     BYTE      TCON
      00000089H   SFRSYM    DATA     BYTE      TMOD
      00000098H   SFRSYM    DATA     BYTE      SCON
      00000087H   SFRSYM    DATA     BYTE      PCON
      000000BCH   SFRSYM    DATA     BYTE      ADC_CONTR
      000000D1H   SFRSYM    DATA     BYTE      PSW1
      000000E7H   SFRSYM    DATA     BYTE      CMPCR2
      000000E6H   SFRSYM    DATA     BYTE      CMPCR1
      000000DEH   SFRSYM    DATA     BYTE      ADCCFG
      000000B8H   SFRSYM    DATA     BYTE      IP
      0000008FH   SFRSYM    DATA     BYTE      INTCLKO
      000000EEH   SFRSYM    DATA     BYTE      IP3H
      000000B6H   SFRSYM    DATA     BYTE      IP2H
      000000BFH   SFRSYM    DATA     BYTE      P_SW4
      000000A8H   SFRSYM    DATA     BYTE      IE
      000000BBH   SFRSYM    DATA     BYTE      P_SW3
      000000BAH   SFRSYM    DATA     BYTE      P_SW2
      000000A2H   SFRSYM    DATA     BYTE      P_SW1
      000000CEH   SFRSYM    DATA     BYTE      SPCTL
      000000F8H   SFRSYM    DATA     BYTE      P7
      000000E8H   SFRSYM    DATA     BYTE      P6
L251 LINKER/LOCATER V4.66.93.0                                                        03/25/2026  13:05:55  PAGE 42


      000000C8H   SFRSYM    DATA     BYTE      P5
      000000C0H   SFRSYM    DATA     BYTE      P4
      000000ABH   SFRSYM    DATA     BYTE      WKTCH
      000000B0H   SFRSYM    DATA     BYTE      P3
      000000A0H   SFRSYM    DATA     BYTE      P2
      00000090H   SFRSYM    DATA     BYTE      P1
      00000080H   SFRSYM    DATA     BYTE      P0

      ---         MODULE    ---      ---       zf_common_function
      00FC572FH   PUBLIC    ECODE    ---       func_double_to_str?
      00FC53F8H   PUBLIC    ECODE    ---       func_str_to_double?
      00FC5031H   PUBLIC    ECODE    ---       func_float_to_str?
      00FC4DAAH   PUBLIC    ECODE    ---       func_str_to_float?
      00FC48A6H   PUBLIC    ECODE    ---       func_soft_delay?
      00FC681FH   PUBLIC    ECODE    ---       zf_sprintf?
      00FC4C8CH   PUBLIC    ECODE    ---       func_uint_to_str?
      00FC4BCAH   PUBLIC    ECODE    ---       func_str_to_uint?
      00FC5D1CH   PUBLIC    ECODE    ---       func_hex_to_str?
      00FC5B2EH   PUBLIC    ECODE    ---       func_str_to_hex?
      00FC4A11H   PUBLIC    ECODE    ---       func_int_to_str?
      00FC48CEH   PUBLIC    ECODE    ---       func_str_to_int?
      00FC4800H   PUBLIC    ECODE    ---       func_get_greatest_common_divisor?
      00FC6136H   PUBLIC    ECODE    ---       vsnprintf?
      0001180DH   PUBLIC    XDATA    BYTE      ?func_double_to_str??BYTE
      000114ACH   PUBLIC    XDATA    BYTE      ?vsnprintf??BYTE
      000113C3H   PUBLIC    XDATA    BYTE      ?zf_sprintf??BYTE
      000000D0H   SFRSYM    DATA     BYTE      PSW
      0000009DH   SFRSYM    DATA     BYTE      IRCBAND
      00000097H   SFRSYM    DATA     BYTE      AUXR2
      000000EAH   SFRSYM    DATA     BYTE      CKCON
      000000EFH   SFRSYM    DATA     BYTE      AUXINTIF
      000000FDH   SFRSYM    DATA     BYTE      S4CON
      000000ACH   SFRSYM    DATA     BYTE      S3CON
      0000009AH   SFRSYM    DATA     BYTE      S2CON
      000000B7H   SFRSYM    DATA     BYTE      IPH
      000000CDH   SFRSYM    DATA     BYTE      SPSTAT
      000000DDH   SFRSYM    DATA     BYTE      T4T3M
      000000C1H   SFRSYM    DATA     BYTE      WDT_CONTR
      000000DFH   SFRSYM    DATA     BYTE      IP3
      000000F4H   SFRSYM    DATA     BYTE      USBCON
      000000B5H   SFRSYM    DATA     BYTE      IP2
      000000FFH   SFRSYM    DATA     BYTE      RSTCFG
      000000E0H   SFRSYM    DATA     BYTE      ACC
      000000C7H   SFRSYM    DATA     BYTE      IAP_CONTR
      000000F9H   SFRSYM    DATA     BYTE      LINICR
      0000008EH   SFRSYM    DATA     BYTE      AUXR
      000000F0H   SFRSYM    DATA     BYTE      B
      000000AFH   SFRSYM    DATA     BYTE      IE2
      00000088H   SFRSYM    DATA     BYTE      TCON
      00000089H   SFRSYM    DATA     BYTE      TMOD
      00000098H   SFRSYM    DATA     BYTE      SCON
      00000087H   SFRSYM    DATA     BYTE      PCON
      000000BCH   SFRSYM    DATA     BYTE      ADC_CONTR
      000000D1H   SFRSYM    DATA     BYTE      PSW1
      000000E7H   SFRSYM    DATA     BYTE      CMPCR2
      000000E6H   SFRSYM    DATA     BYTE      CMPCR1
      000000DEH   SFRSYM    DATA     BYTE      ADCCFG
      000000B8H   SFRSYM    DATA     BYTE      IP
      0000008FH   SFRSYM    DATA     BYTE      INTCLKO
      000000EEH   SFRSYM    DATA     BYTE      IP3H
      000000B6H   SFRSYM    DATA     BYTE      IP2H
      000000BFH   SFRSYM    DATA     BYTE      P_SW4
      000000A8H   SFRSYM    DATA     BYTE      IE
      000000BBH   SFRSYM    DATA     BYTE      P_SW3
      000000BAH   SFRSYM    DATA     BYTE      P_SW2
L251 LINKER/LOCATER V4.66.93.0                                                        03/25/2026  13:05:55  PAGE 43


      000000A2H   SFRSYM    DATA     BYTE      P_SW1
      000000CEH   SFRSYM    DATA     BYTE      SPCTL
      000000F8H   SFRSYM    DATA     BYTE      P7
      000000E8H   SFRSYM    DATA     BYTE      P6
      000000C8H   SFRSYM    DATA     BYTE      P5
      000000C0H   SFRSYM    DATA     BYTE      P4
      000000ABH   SFRSYM    DATA     BYTE      WKTCH
      000000B0H   SFRSYM    DATA     BYTE      P3
      000000A0H   SFRSYM    DATA     BYTE      P2
      00000090H   SFRSYM    DATA     BYTE      P1
      00000080H   SFRSYM    DATA     BYTE      P0
      00FE5217H   SYMBOL    HCONST   ---       ?tpl?0001
      00FE5227H   SYMBOL    HCONST   ---       ?tpl?0002
      00FC5EA2H   SYMBOL    ECODE    ---       number_conversion_ascii
      00FC603DH   SYMBOL    ECODE    ---       printf_reverse_order

      00FC4800H   BLOCK     ECODE    ---       LVL=0
      000126C4H   SYMBOL    XDATA    DWORD     num1
      000126C8H   SYMBOL    XDATA    DWORD     num2
      00FC4800H   LINE      ECODE    ---       #49
      00FC4814H   LINE      ECODE    ---       #51
      00FC4816H   LINE      ECODE    ---       #53
      00FC482EH   LINE      ECODE    ---       #55
      00FC484BH   LINE      ECODE    ---       #56
      00FC484BH   LINE      ECODE    ---       #57
      00FC4863H   LINE      ECODE    ---       #59
      00FC4880H   LINE      ECODE    ---       #60
      00FC489BH   LINE      ECODE    ---       #62
      00FC48A5H   LINE      ECODE    ---       #63
      ---         BLOCKEND  ---      ---       LVL=0

      00FC48A6H   BLOCK     ECODE    ---       LVL=0
      000128E1H   SYMBOL    XDATA    LONG      t
      00FC48A6H   LINE      ECODE    ---       #72
      00FC48B0H   LINE      ECODE    ---       #74
      00FC48CDH   LINE      ECODE    ---       #75
      ---         BLOCKEND  ---      ---       LVL=0

      00FC48CEH   BLOCK     ECODE    ---       LVL=0
      000125C3H   SYMBOL    XDATA    ---       str
      00FC48D8H   BLOCK     ECODE    NEAR LAB  LVL=1
      000125C7H   SYMBOL    XDATA    BYTE      sign
      000125C8H   SYMBOL    XDATA    LONG      temp
      ---         BLOCKEND  ---      ---       LVL=1
      00FC48CEH   LINE      ECODE    ---       #84
      00FC48D8H   LINE      ECODE    ---       #85
      00FC48D8H   LINE      ECODE    ---       #86
      00FC48DDH   LINE      ECODE    ---       #87
      00FC48E9H   LINE      ECODE    ---       #88
      00FC490CH   LINE      ECODE    ---       #89
      00FC490CH   LINE      ECODE    ---       #91
      00FC491DH   LINE      ECODE    ---       #93
      00FC491DH   LINE      ECODE    ---       #94
      00FC491DH   LINE      ECODE    ---       #96
      00FC492FH   LINE      ECODE    ---       #98
      00FC4935H   LINE      ECODE    ---       #99
      00FC4948H   LINE      ECODE    ---       #100
      00FC494AH   LINE      ECODE    ---       #101
      00FC495CH   LINE      ECODE    ---       #103
      00FC496FH   LINE      ECODE    ---       #104
      00FC496FH   LINE      ECODE    ---       #106
      00FC4971H   LINE      ECODE    ---       #108
      00FC49A6H   LINE      ECODE    ---       #109
      00FC49B9H   LINE      ECODE    ---       #110
      00FC49DFH   LINE      ECODE    ---       #112
L251 LINKER/LOCATER V4.66.93.0                                                        03/25/2026  13:05:55  PAGE 44


      00FC49E8H   LINE      ECODE    ---       #114
      00FC4A06H   LINE      ECODE    ---       #115
      00FC4A06H   LINE      ECODE    ---       #117
      00FC4A10H   LINE      ECODE    ---       #118
      ---         BLOCKEND  ---      ---       LVL=0

      00FC4A11H   BLOCK     ECODE    ---       LVL=0
      00011DF2H   SYMBOL    XDATA    ---       str
      00011DF6H   SYMBOL    XDATA    LONG      number
      00FC4A25H   BLOCK     ECODE    NEAR LAB  LVL=1
      00011DFAH   SYMBOL    XDATA    ---       data_temp
      00011E0AH   SYMBOL    XDATA    BYTE      temp_bit
      00011E0BH   SYMBOL    XDATA    LONG      number_temp
      ---         BLOCKEND  ---      ---       LVL=1
      00FC4A11H   LINE      ECODE    ---       #128
      00FC4A25H   LINE      ECODE    ---       #129
      00FC4A25H   LINE      ECODE    ---       #131
      00FC4A2AH   LINE      ECODE    ---       #132
      00FC4A36H   LINE      ECODE    ---       #133
      00FC4A59H   LINE      ECODE    ---       #134
      00FC4A59H   LINE      ECODE    ---       #136
      00FC4A6AH   LINE      ECODE    ---       #138
      00FC4A6AH   LINE      ECODE    ---       #139
      00FC4A6AH   LINE      ECODE    ---       #141
      00FC4A7AH   LINE      ECODE    ---       #143
      00FC4A9FH   LINE      ECODE    ---       #144
      00FC4ABDH   LINE      ECODE    ---       #145
      00FC4ABFH   LINE      ECODE    ---       #146
      00FC4ACDH   LINE      ECODE    ---       #148
      00FC4ADCH   LINE      ECODE    ---       #149
      00FC4ADFH   LINE      ECODE    ---       #150
      00FC4ADFH   LINE      ECODE    ---       #152
      00FC4AE2H   LINE      ECODE    ---       #154
      00FC4AFEH   LINE      ECODE    ---       #155
      00FC4B48H   LINE      ECODE    ---       #156
      00FC4B61H   LINE      ECODE    ---       #157
      00FC4B72H   LINE      ECODE    ---       #158
      00FC4B74H   LINE      ECODE    ---       #160
      00FC4BB2H   LINE      ECODE    ---       #161
      00FC4BC0H   LINE      ECODE    ---       #162
      00FC4BC9H   LINE      ECODE    ---       #163
      00FC4BC9H   LINE      ECODE    ---       #164
      ---         BLOCKEND  ---      ---       LVL=0

      00FC4BCAH   BLOCK     ECODE    ---       LVL=0
      000126CCH   SYMBOL    XDATA    ---       str
      00FC4BD4H   BLOCK     ECODE    NEAR LAB  LVL=1
      000126D0H   SYMBOL    XDATA    DWORD     temp
      ---         BLOCKEND  ---      ---       LVL=1
      00FC4BCAH   LINE      ECODE    ---       #173
      00FC4BD4H   LINE      ECODE    ---       #174
      00FC4BD4H   LINE      ECODE    ---       #175
      00FC4BE0H   LINE      ECODE    ---       #176
      00FC4C03H   LINE      ECODE    ---       #178
      00FC4C03H   LINE      ECODE    ---       #180
      00FC4C11H   LINE      ECODE    ---       #182
      00FC4C11H   LINE      ECODE    ---       #183
      00FC4C11H   LINE      ECODE    ---       #185
      00FC4C13H   LINE      ECODE    ---       #187
      00FC4C48H   LINE      ECODE    ---       #188
      00FC4C5BH   LINE      ECODE    ---       #189
      00FC4C81H   LINE      ECODE    ---       #190
      00FC4C81H   LINE      ECODE    ---       #192
      00FC4C8BH   LINE      ECODE    ---       #193
      ---         BLOCKEND  ---      ---       LVL=0
L251 LINKER/LOCATER V4.66.93.0                                                        03/25/2026  13:05:55  PAGE 45



      00FC4C8CH   BLOCK     ECODE    ---       LVL=0
      00011E97H   SYMBOL    XDATA    ---       str
      00011E9BH   SYMBOL    XDATA    DWORD     number
      00FC4CA0H   BLOCK     ECODE    NEAR LAB  LVL=1
      00011E9FH   SYMBOL    XDATA    ---       data_temp
      00011EAFH   SYMBOL    XDATA    BYTE      temp_bit
      ---         BLOCKEND  ---      ---       LVL=1
      00FC4C8CH   LINE      ECODE    ---       #203
      00FC4CA0H   LINE      ECODE    ---       #204
      00FC4CA0H   LINE      ECODE    ---       #206
      00FC4CA5H   LINE      ECODE    ---       #208
      00FC4CC8H   LINE      ECODE    ---       #210
      00FC4CC8H   LINE      ECODE    ---       #212
      00FC4CD9H   LINE      ECODE    ---       #214
      00FC4CD9H   LINE      ECODE    ---       #215
      00FC4CD9H   LINE      ECODE    ---       #217
      00FC4CE7H   LINE      ECODE    ---       #219
      00FC4CF6H   LINE      ECODE    ---       #220
      00FC4CF9H   LINE      ECODE    ---       #221
      00FC4CF9H   LINE      ECODE    ---       #223
      00FC4CFBH   LINE      ECODE    ---       #225
      00FC4D2BH   LINE      ECODE    ---       #226
      00FC4D44H   LINE      ECODE    ---       #227
      00FC4D52H   LINE      ECODE    ---       #228
      00FC4D54H   LINE      ECODE    ---       #230
      00FC4D92H   LINE      ECODE    ---       #231
      00FC4DA0H   LINE      ECODE    ---       #232
      00FC4DA9H   LINE      ECODE    ---       #233
      00FC4DA9H   LINE      ECODE    ---       #234
      ---         BLOCKEND  ---      ---       LVL=0

      00FC4DAAH   BLOCK     ECODE    ---       LVL=0
      000120A5H   SYMBOL    XDATA    ---       str
      00FC4DB4H   BLOCK     ECODE    NEAR LAB  LVL=1
      000120A9H   SYMBOL    XDATA    BYTE      sign
      000120AAH   SYMBOL    XDATA    FLOAT     temp
      000120AEH   SYMBOL    XDATA    FLOAT     temp_point
      000120B2H   SYMBOL    XDATA    FLOAT     point_bit
      ---         BLOCKEND  ---      ---       LVL=1
      00FC4DAAH   LINE      ECODE    ---       #243
      00FC4DB4H   LINE      ECODE    ---       #244
      00FC4DB4H   LINE      ECODE    ---       #245
      00FC4DB9H   LINE      ECODE    ---       #246
      00FC4DC5H   LINE      ECODE    ---       #247
      00FC4DD1H   LINE      ECODE    ---       #248
      00FC4DE1H   LINE      ECODE    ---       #250
      00FC4E04H   LINE      ECODE    ---       #252
      00FC4E04H   LINE      ECODE    ---       #254
      00FC4E15H   LINE      ECODE    ---       #256
      00FC4E15H   LINE      ECODE    ---       #257
      00FC4E15H   LINE      ECODE    ---       #259
      00FC4E27H   LINE      ECODE    ---       #261
      00FC4E2DH   LINE      ECODE    ---       #262
      00FC4E40H   LINE      ECODE    ---       #263
      00FC4E42H   LINE      ECODE    ---       #264
      00FC4E54H   LINE      ECODE    ---       #266
      00FC4E67H   LINE      ECODE    ---       #267
      00FC4E67H   LINE      ECODE    ---       #270
      00FC4E69H   LINE      ECODE    ---       #272
      00FC4EACH   LINE      ECODE    ---       #273
      00FC4EBFH   LINE      ECODE    ---       #274
      00FC4EE5H   LINE      ECODE    ---       #275
      00FC4EFAH   LINE      ECODE    ---       #277
      00FC4F0DH   LINE      ECODE    ---       #278
L251 LINKER/LOCATER V4.66.93.0                                                        03/25/2026  13:05:55  PAGE 46


      00FC4F0FH   LINE      ECODE    ---       #280
      00FC4F52H   LINE      ECODE    ---       #281
      00FC4F6DH   LINE      ECODE    ---       #282
      00FC4F80H   LINE      ECODE    ---       #283
      00FC4FC7H   LINE      ECODE    ---       #284
      00FC4FE6H   LINE      ECODE    ---       #285
      00FC4FE6H   LINE      ECODE    ---       #286
      00FC5005H   LINE      ECODE    ---       #288
      00FC500EH   LINE      ECODE    ---       #290
      00FC5026H   LINE      ECODE    ---       #291
      00FC5026H   LINE      ECODE    ---       #293
      00FC5030H   LINE      ECODE    ---       #294
      ---         BLOCKEND  ---      ---       LVL=0

      00FC5031H   BLOCK     ECODE    ---       LVL=0
      00011A9CH   SYMBOL    XDATA    ---       str
      00011AA0H   SYMBOL    XDATA    FLOAT     number
      00011AA4H   SYMBOL    XDATA    BYTE      point_bit
      00FC5049H   BLOCK     ECODE    NEAR LAB  LVL=1
      00011AA5H   SYMBOL    XDATA    INT       data_int
      00011AA7H   SYMBOL    XDATA    INT       data_float
      00011AA9H   SYMBOL    XDATA    ---       data_temp
      00011AB9H   SYMBOL    XDATA    ---       data_temp_point
      00011AC5H   SYMBOL    XDATA    BYTE      temp_bit
      ---         BLOCKEND  ---      ---       LVL=1
      00FC5031H   LINE      ECODE    ---       #305
      00FC5049H   LINE      ECODE    ---       #306
      00FC5049H   LINE      ECODE    ---       #307
      00FC5051H   LINE      ECODE    ---       #308
      00FC5059H   LINE      ECODE    ---       #311
      00FC5061H   LINE      ECODE    ---       #313
      00FC5084H   LINE      ECODE    ---       #315
      00FC5084H   LINE      ECODE    ---       #317
      00FC5095H   LINE      ECODE    ---       #319
      00FC5095H   LINE      ECODE    ---       #320
      00FC5095H   LINE      ECODE    ---       #323
      00FC50A9H   LINE      ECODE    ---       #324
      00FC50BBH   LINE      ECODE    ---       #326
      00FC50E0H   LINE      ECODE    ---       #327
      00FC50E2H   LINE      ECODE    ---       #328
      00FC50FCH   LINE      ECODE    ---       #330
      00FC5121H   LINE      ECODE    ---       #331
      00FC5146H   LINE      ECODE    ---       #332
      00FC5155H   LINE      ECODE    ---       #333
      00FC5158H   LINE      ECODE    ---       #334
      00FC5158H   LINE      ECODE    ---       #337
      00FC517EH   LINE      ECODE    ---       #338
      00FC5180H   LINE      ECODE    ---       #340
      00FC519EH   LINE      ECODE    ---       #341
      00FC51B1H   LINE      ECODE    ---       #342
      00FC51C5H   LINE      ECODE    ---       #345
      00FC51CAH   LINE      ECODE    ---       #346
      00FC51CAH   LINE      ECODE    ---       #348
      00FC51F6H   LINE      ECODE    ---       #349
      00FC5207H   LINE      ECODE    ---       #350
      00FC5213H   LINE      ECODE    ---       #351
      00FC5216H   LINE      ECODE    ---       #353
      00FC5296H   LINE      ECODE    ---       #354
      00FC52A4H   LINE      ECODE    ---       #355
      00FC52B0H   LINE      ECODE    ---       #358
      00FC52BCH   LINE      ECODE    ---       #360
      00FC52C1H   LINE      ECODE    ---       #361
      00FC52E6H   LINE      ECODE    ---       #362
      00FC52F2H   LINE      ECODE    ---       #364
      00FC5301H   LINE      ECODE    ---       #365
L251 LINKER/LOCATER V4.66.93.0                                                        03/25/2026  13:05:55  PAGE 47


      00FC5304H   LINE      ECODE    ---       #368
      00FC5306H   LINE      ECODE    ---       #370
      00FC5332H   LINE      ECODE    ---       #371
      00FC5343H   LINE      ECODE    ---       #372
      00FC5351H   LINE      ECODE    ---       #373
      00FC535AH   LINE      ECODE    ---       #374
      00FC535DH   LINE      ECODE    ---       #376
      00FC53DDH   LINE      ECODE    ---       #377
      00FC53EBH   LINE      ECODE    ---       #378
      00FC53F7H   LINE      ECODE    ---       #379
      00FC53F7H   LINE      ECODE    ---       #380
      00FC53F7H   LINE      ECODE    ---       #382
      ---         BLOCKEND  ---      ---       LVL=0

      00FC53F8H   BLOCK     ECODE    ---       LVL=0
      00011E0FH   SYMBOL    XDATA    ---       str
      00FC5402H   BLOCK     ECODE    NEAR LAB  LVL=1
      00011E13H   SYMBOL    XDATA    BYTE      sign
      00011E14H   SYMBOL    XDATA    DOUBLE    temp
      00011E1CH   SYMBOL    XDATA    DOUBLE    temp_point
      00011E24H   SYMBOL    XDATA    DOUBLE    point_bit
      ---         BLOCKEND  ---      ---       LVL=1
      00FC53F8H   LINE      ECODE    ---       #391
      00FC5402H   LINE      ECODE    ---       #392
      00FC5402H   LINE      ECODE    ---       #393
      00FC5407H   LINE      ECODE    ---       #394
      00FC541DH   LINE      ECODE    ---       #395
      00FC5433H   LINE      ECODE    ---       #396
      00FC544DH   LINE      ECODE    ---       #398
      00FC5470H   LINE      ECODE    ---       #400
      00FC5470H   LINE      ECODE    ---       #402
      00FC5481H   LINE      ECODE    ---       #404
      00FC5481H   LINE      ECODE    ---       #405
      00FC5481H   LINE      ECODE    ---       #407
      00FC5493H   LINE      ECODE    ---       #409
      00FC5499H   LINE      ECODE    ---       #410
      00FC54ACH   LINE      ECODE    ---       #411
      00FC54AEH   LINE      ECODE    ---       #412
      00FC54C0H   LINE      ECODE    ---       #414
      00FC54D3H   LINE      ECODE    ---       #415
      00FC54D3H   LINE      ECODE    ---       #418
      00FC54D5H   LINE      ECODE    ---       #420
      00FC5530H   LINE      ECODE    ---       #421
      00FC5543H   LINE      ECODE    ---       #422
      00FC556CH   LINE      ECODE    ---       #423
      00FC5581H   LINE      ECODE    ---       #425
      00FC5594H   LINE      ECODE    ---       #426
      00FC5597H   LINE      ECODE    ---       #428
      00FC55F2H   LINE      ECODE    ---       #429
      00FC561FH   LINE      ECODE    ---       #430
      00FC5632H   LINE      ECODE    ---       #431
      00FC567DH   LINE      ECODE    ---       #432
      00FC56B4H   LINE      ECODE    ---       #433
      00FC56B4H   LINE      ECODE    ---       #434
      00FC56EBH   LINE      ECODE    ---       #436
      00FC56F4H   LINE      ECODE    ---       #438
      00FC571CH   LINE      ECODE    ---       #439
      00FC571CH   LINE      ECODE    ---       #441
      00FC572EH   LINE      ECODE    ---       #443
      ---         BLOCKEND  ---      ---       LVL=0

      00FC572FH   BLOCK     ECODE    ---       LVL=0
      0001180DH   SYMBOL    XDATA    ---       str
      00011811H   SYMBOL    XDATA    DOUBLE    number
      00011819H   SYMBOL    XDATA    BYTE      point_bit
L251 LINKER/LOCATER V4.66.93.0                                                        03/25/2026  13:05:55  PAGE 48


      00FC573DH   BLOCK     ECODE    NEAR LAB  LVL=1
      0001181AH   SYMBOL    XDATA    INT       data_int
      0001181CH   SYMBOL    XDATA    INT       data_float
      0001181EH   SYMBOL    XDATA    ---       data_temp
      00011836H   SYMBOL    XDATA    ---       data_temp_point
      00011848H   SYMBOL    XDATA    BYTE      temp_bit
      ---         BLOCKEND  ---      ---       LVL=1
      00FC572FH   LINE      ECODE    ---       #454
      00FC573DH   LINE      ECODE    ---       #455
      00FC573DH   LINE      ECODE    ---       #456
      00FC5745H   LINE      ECODE    ---       #457
      00FC574DH   LINE      ECODE    ---       #460
      00FC5755H   LINE      ECODE    ---       #462
      00FC5778H   LINE      ECODE    ---       #464
      00FC5778H   LINE      ECODE    ---       #466
      00FC5789H   LINE      ECODE    ---       #468
      00FC5789H   LINE      ECODE    ---       #469
      00FC5789H   LINE      ECODE    ---       #472
      00FC57A5H   LINE      ECODE    ---       #473
      00FC57C1H   LINE      ECODE    ---       #475
      00FC57E6H   LINE      ECODE    ---       #476
      00FC57E8H   LINE      ECODE    ---       #477
      00FC5806H   LINE      ECODE    ---       #479
      00FC582BH   LINE      ECODE    ---       #480
      00FC5850H   LINE      ECODE    ---       #481
      00FC585FH   LINE      ECODE    ---       #482
      00FC5862H   LINE      ECODE    ---       #483
      00FC5862H   LINE      ECODE    ---       #486
      00FC589AH   LINE      ECODE    ---       #487
      00FC589CH   LINE      ECODE    ---       #489
      00FC58CCH   LINE      ECODE    ---       #490
      00FC58DFH   LINE      ECODE    ---       #491
      00FC58FBH   LINE      ECODE    ---       #494
      00FC5900H   LINE      ECODE    ---       #495
      00FC5900H   LINE      ECODE    ---       #497
      00FC592CH   LINE      ECODE    ---       #498
      00FC593DH   LINE      ECODE    ---       #499
      00FC5949H   LINE      ECODE    ---       #500
      00FC594CH   LINE      ECODE    ---       #502
      00FC59CCH   LINE      ECODE    ---       #503
      00FC59DAH   LINE      ECODE    ---       #504
      00FC59E6H   LINE      ECODE    ---       #507
      00FC59F2H   LINE      ECODE    ---       #509
      00FC59F7H   LINE      ECODE    ---       #510
      00FC5A1CH   LINE      ECODE    ---       #511
      00FC5A28H   LINE      ECODE    ---       #512
      00FC5A3AH   LINE      ECODE    ---       #515
      00FC5A3CH   LINE      ECODE    ---       #517
      00FC5A68H   LINE      ECODE    ---       #518
      00FC5A79H   LINE      ECODE    ---       #519
      00FC5A87H   LINE      ECODE    ---       #520
      00FC5A90H   LINE      ECODE    ---       #521
      00FC5A93H   LINE      ECODE    ---       #523
      00FC5B13H   LINE      ECODE    ---       #524
      00FC5B21H   LINE      ECODE    ---       #525
      00FC5B2DH   LINE      ECODE    ---       #526
      00FC5B2DH   LINE      ECODE    ---       #527
      00FC5B2DH   LINE      ECODE    ---       #529
      ---         BLOCKEND  ---      ---       LVL=0

      00FC5B2EH   BLOCK     ECODE    ---       LVL=0
      00012203H   SYMBOL    XDATA    ---       str
      00FC5B38H   BLOCK     ECODE    NEAR LAB  LVL=1
      00012207H   SYMBOL    XDATA    DWORD     str_len
      0001220BH   SYMBOL    XDATA    DWORD     result_data
L251 LINKER/LOCATER V4.66.93.0                                                        03/25/2026  13:05:55  PAGE 49


      0001220FH   SYMBOL    XDATA    BYTE      temp
      00012210H   SYMBOL    XDATA    BYTE      flag
      ---         BLOCKEND  ---      ---       LVL=1
      00FC5B2EH   LINE      ECODE    ---       #538
      00FC5B38H   LINE      ECODE    ---       #539
      00FC5B38H   LINE      ECODE    ---       #540
      00FC5B52H   LINE      ECODE    ---       #541
      00FC5B5EH   LINE      ECODE    ---       #542
      00FC5B63H   LINE      ECODE    ---       #543
      00FC5B68H   LINE      ECODE    ---       #545
      00FC5B8BH   LINE      ECODE    ---       #547
      00FC5B8BH   LINE      ECODE    ---       #549
      00FC5B9CH   LINE      ECODE    ---       #551
      00FC5B9CH   LINE      ECODE    ---       #552
      00FC5B9CH   LINE      ECODE    ---       #554
      00FC5BA8H   LINE      ECODE    ---       #556
      00FC5BCEH   LINE      ECODE    ---       #558
      00FC5BE7H   LINE      ECODE    ---       #559
      00FC5BEAH   LINE      ECODE    ---       #560
      00FC5C10H   LINE      ECODE    ---       #562
      00FC5C29H   LINE      ECODE    ---       #563
      00FC5C2BH   LINE      ECODE    ---       #564
      00FC5C57H   LINE      ECODE    ---       #566
      00FC5C70H   LINE      ECODE    ---       #567
      00FC5C70H   LINE      ECODE    ---       #570
      00FC5C70H   LINE      ECODE    ---       #571
      00FC5C70H   LINE      ECODE    ---       #572
      00FC5C9DH   LINE      ECODE    ---       #573
      00FC5C9FH   LINE      ECODE    ---       #577
      00FC5CC5H   LINE      ECODE    ---       #579
      00FC5CD8H   LINE      ECODE    ---       #580
      00FC5CDEH   LINE      ECODE    ---       #581
      00FC5CDEH   LINE      ECODE    ---       #583
      00FC5CF1H   LINE      ECODE    ---       #584
      00FC5D11H   LINE      ECODE    ---       #586
      00FC5D1BH   LINE      ECODE    ---       #587
      ---         BLOCKEND  ---      ---       LVL=0

      00FC5D1CH   BLOCK     ECODE    ---       LVL=0
      00011BB6H   SYMBOL    XDATA    ---       str
      00011BBAH   SYMBOL    XDATA    DWORD     number
      00FC5D30H   BLOCK     ECODE    NEAR LAB  LVL=1
      00011BBEH   SYMBOL    XDATA    ---       hex_index
      00011BCEH   SYMBOL    XDATA    ---       data_temp
      00011BDAH   SYMBOL    XDATA    BYTE      temp_bit
      ---         BLOCKEND  ---      ---       LVL=1
      00FC5D1CH   LINE      ECODE    ---       #597
      00FC5D30H   LINE      ECODE    ---       #598
      00FC5D30H   LINE      ECODE    ---       #603
      00FC5D46H   LINE      ECODE    ---       #605
      00FC5D4BH   LINE      ECODE    ---       #607
      00FC5D6EH   LINE      ECODE    ---       #609
      00FC5D93H   LINE      ECODE    ---       #610
      00FC5DB8H   LINE      ECODE    ---       #611
      00FC5DB8H   LINE      ECODE    ---       #613
      00FC5DC9H   LINE      ECODE    ---       #615
      00FC5DC9H   LINE      ECODE    ---       #616
      00FC5DC9H   LINE      ECODE    ---       #618
      00FC5DD7H   LINE      ECODE    ---       #620
      00FC5DE6H   LINE      ECODE    ---       #621
      00FC5DE9H   LINE      ECODE    ---       #622
      00FC5DE9H   LINE      ECODE    ---       #624
      00FC5DEBH   LINE      ECODE    ---       #626
      00FC5E16H   LINE      ECODE    ---       #627
      00FC5E35H   LINE      ECODE    ---       #628
L251 LINKER/LOCATER V4.66.93.0                                                        03/25/2026  13:05:55  PAGE 50


      00FC5E43H   LINE      ECODE    ---       #629
      00FC5E45H   LINE      ECODE    ---       #631
      00FC5E8AH   LINE      ECODE    ---       #632
      00FC5E98H   LINE      ECODE    ---       #633
      00FC5EA1H   LINE      ECODE    ---       #634
      00FC5EA1H   LINE      ECODE    ---       #635
      ---         BLOCKEND  ---      ---       LVL=0

      00FC5EA2H   BLOCK     ECODE    ---       LVL=0
      00011F39H   SYMBOL    XDATA    DWORD     dat
      00011F3DH   SYMBOL    XDATA    ---       p
      00011F41H   SYMBOL    XDATA    BYTE      neg_type
      00011F42H   SYMBOL    XDATA    BYTE      radix
      00FC5EBAH   BLOCK     ECODE    NEAR LAB  LVL=1
      00011F43H   SYMBOL    XDATA    LONG      neg_dat
      00011F47H   SYMBOL    XDATA    DWORD     pos_dat
      00011F4BH   SYMBOL    XDATA    BYTE      temp_data
      00011F4CH   SYMBOL    XDATA    BYTE      valid_num
      ---         BLOCKEND  ---      ---       LVL=1
      00FC5EA2H   LINE      ECODE    ---       #647
      00FC5EBAH   LINE      ECODE    ---       #648
      00FC5EBAH   LINE      ECODE    ---       #651
      00FC5EBFH   LINE      ECODE    ---       #652
      00FC5EC4H   LINE      ECODE    ---       #654
      00FC5ED0H   LINE      ECODE    ---       #656
      00FC5EE4H   LINE      ECODE    ---       #657
      00FC5EF4H   LINE      ECODE    ---       #659
      00FC5F12H   LINE      ECODE    ---       #660
      00FC5F12H   LINE      ECODE    ---       #661
      00FC5F12H   LINE      ECODE    ---       #663
      00FC5F3BH   LINE      ECODE    ---       #664
      00FC5F58H   LINE      ECODE    ---       #665
      00FC5F63H   LINE      ECODE    ---       #667
      00FC5F71H   LINE      ECODE    ---       #669
      00FC5F71H   LINE      ECODE    ---       #670
      00FC5F71H   LINE      ECODE    ---       #671
      00FC5F84H   LINE      ECODE    ---       #672
      00FC5F86H   LINE      ECODE    ---       #673
      00FC5F89H   LINE      ECODE    ---       #676
      00FC5F9DH   LINE      ECODE    ---       #677
      00FC5F9DH   LINE      ECODE    ---       #679
      00FC5FB9H   LINE      ECODE    ---       #680
      00FC5FC5H   LINE      ECODE    ---       #682
      00FC5FCFH   LINE      ECODE    ---       #683
      00FC5FD1H   LINE      ECODE    ---       #686
      00FC5FDBH   LINE      ECODE    ---       #687
      00FC5FDBH   LINE      ECODE    ---       #689
      00FC5FECH   LINE      ECODE    ---       #691
      00FC6009H   LINE      ECODE    ---       #692
      00FC6014H   LINE      ECODE    ---       #694
      00FC6022H   LINE      ECODE    ---       #696
      00FC6022H   LINE      ECODE    ---       #697
      00FC6022H   LINE      ECODE    ---       #698
      00FC6035H   LINE      ECODE    ---       #699
      00FC6038H   LINE      ECODE    ---       #700
      00FC6038H   LINE      ECODE    ---       #701
      00FC603CH   LINE      ECODE    ---       #702
      ---         BLOCKEND  ---      ---       LVL=0

      00FC603DH   BLOCK     ECODE    ---       LVL=0
      000122C7H   SYMBOL    XDATA    ---       d_buff
      000122CBH   SYMBOL    XDATA    DWORD     len
      00FC6051H   BLOCK     ECODE    NEAR LAB  LVL=1
      000122CFH   SYMBOL    XDATA    DWORD     i
      000122D3H   SYMBOL    XDATA    CHAR      temp_data
L251 LINKER/LOCATER V4.66.93.0                                                        03/25/2026  13:05:55  PAGE 51


      ---         BLOCKEND  ---      ---       LVL=1
      00FC603DH   LINE      ECODE    ---       #712
      00FC6051H   LINE      ECODE    ---       #713
      00FC6051H   LINE      ECODE    ---       #716
      00FC6060H   LINE      ECODE    ---       #718
      00FC6091H   LINE      ECODE    ---       #719
      00FC60D9H   LINE      ECODE    ---       #720
      00FC60F8H   LINE      ECODE    ---       #721
      00FC6135H   LINE      ECODE    ---       #722
      ---         BLOCKEND  ---      ---       LVL=0

      00FC6136H   BLOCK     ECODE    ---       LVL=0
      000114ACH   SYMBOL    XDATA    ---       buffer
      000114B0H   SYMBOL    XDATA    DWORD     siz
      000114B4H   SYMBOL    XDATA    ---       format
      000114B8H   SYMBOL    XDATA    ---       args
      00FC614AH   BLOCK     ECODE    NEAR LAB  LVL=1
      000114BCH   SYMBOL    XDATA    DWORD     i
      000114C0H   SYMBOL    XDATA    ---       ptr
      000114C4H   SYMBOL    XDATA    INT       j
      000114C6H   SYMBOL    XDATA    INT       num
      000114C8H   SYMBOL    XDATA    ---       temp
      000114D8H   SYMBOL    XDATA    INT       len
      000114DAH   SYMBOL    XDATA    INT       is_negative
      000114DCH   SYMBOL    XDATA    ---       str
      000114E0H   SYMBOL    XDATA    DWORD     num_x
      000114E4H   SYMBOL    XDATA    ---       temp_x
      000114EDH   SYMBOL    XDATA    ---       hex_digits
      00FC6340H   BLOCK     ECODE    NEAR LAB  LVL=2
      000114FEH   SYMBOL    XDATA    CHAR      t
      ---         BLOCKEND  ---      ---       LVL=2
      00FC6650H   BLOCK     ECODE    NEAR LAB  LVL=2
      000114FEH   SYMBOL    XDATA    CHAR      t
      ---         BLOCKEND  ---      ---       LVL=2
      ---         BLOCKEND  ---      ---       LVL=1
      00FC6136H   LINE      ECODE    ---       #736
      00FC614AH   LINE      ECODE    ---       #737
      00FC614AH   LINE      ECODE    ---       #748
      00FC6160H   LINE      ECODE    ---       #750
      00FC616CH   LINE      ECODE    ---       #751
      00FC6180H   LINE      ECODE    ---       #753
      00FC61AAH   LINE      ECODE    ---       #755
      00FC61AFH   LINE      ECODE    ---       #756
      00FC61AFH   LINE      ECODE    ---       #758
      00FC61B2H   LINE      ECODE    ---       #760
      00FC61C4H   LINE      ECODE    ---       #762
      00FC61FDH   LINE      ECODE    ---       #763
      00FC6214H   LINE      ECODE    ---       #764
      00FC6217H   LINE      ECODE    ---       #765
      00FC6217H   LINE      ECODE    ---       #768
      00FC622AH   LINE      ECODE    ---       #769
      00FC6253H   LINE      ECODE    ---       #771
      00FC6253H   LINE      ECODE    ---       #772
      00FC6279H   LINE      ECODE    ---       #773
      00FC6281H   LINE      ECODE    ---       #774
      00FC6289H   LINE      ECODE    ---       #776
      00FC6295H   LINE      ECODE    ---       #778
      00FC629FH   LINE      ECODE    ---       #779
      00FC62B1H   LINE      ECODE    ---       #780
      00FC62B1H   LINE      ECODE    ---       #783
      00FC62B1H   LINE      ECODE    ---       #784
      00FC62E1H   LINE      ECODE    ---       #785
      00FC62F2H   LINE      ECODE    ---       #786
      00FC630CH   LINE      ECODE    ---       #789
      00FC6318H   LINE      ECODE    ---       #791
L251 LINKER/LOCATER V4.66.93.0                                                        03/25/2026  13:05:55  PAGE 52


      00FC6336H   LINE      ECODE    ---       #792
      00FC6336H   LINE      ECODE    ---       #795
      00FC6340H   LINE      ECODE    ---       #796
      00FC6340H   LINE      ECODE    ---       #797
      00FC6357H   LINE      ECODE    ---       #798
      00FC6385H   LINE      ECODE    ---       #799
      00FC63A4H   LINE      ECODE    ---       #800
      00FC63D0H   LINE      ECODE    ---       #803
      00FC63DAH   LINE      ECODE    ---       #805
      00FC6410H   LINE      ECODE    ---       #806
      00FC6427H   LINE      ECODE    ---       #807
      00FC6467H   LINE      ECODE    ---       #808
      00FC646AH   LINE      ECODE    ---       #810
      00FC646AH   LINE      ECODE    ---       #811
      00FC6498H   LINE      ECODE    ---       #812
      00FC64A6H   LINE      ECODE    ---       #814
      00FC64B8H   LINE      ECODE    ---       #815
      00FC64B8H   LINE      ECODE    ---       #817
      00FC64BAH   LINE      ECODE    ---       #819
      00FC64F3H   LINE      ECODE    ---       #820
      00FC650AH   LINE      ECODE    ---       #821
      00FC653AH   LINE      ECODE    ---       #822
      00FC653DH   LINE      ECODE    ---       #824
      00FC653DH   LINE      ECODE    ---       #825
      00FC6580H   LINE      ECODE    ---       #826
      00FC6597H   LINE      ECODE    ---       #827
      00FC659AH   LINE      ECODE    ---       #829
      00FC659AH   LINE      ECODE    ---       #830
      00FC65C8H   LINE      ECODE    ---       #831
      00FC65D0H   LINE      ECODE    ---       #833
      00FC65D0H   LINE      ECODE    ---       #834
      00FC6609H   LINE      ECODE    ---       #835
      00FC6628H   LINE      ECODE    ---       #836
      00FC6646H   LINE      ECODE    ---       #839
      00FC6650H   LINE      ECODE    ---       #840
      00FC6650H   LINE      ECODE    ---       #841
      00FC6667H   LINE      ECODE    ---       #842
      00FC6695H   LINE      ECODE    ---       #843
      00FC66B4H   LINE      ECODE    ---       #844
      00FC66E0H   LINE      ECODE    ---       #847
      00FC66EAH   LINE      ECODE    ---       #849
      00FC6720H   LINE      ECODE    ---       #850
      00FC6737H   LINE      ECODE    ---       #851
      00FC6777H   LINE      ECODE    ---       #852
      00FC6779H   LINE      ECODE    ---       #854
      00FC6779H   LINE      ECODE    ---       #855
      00FC67A9H   LINE      ECODE    ---       #856
      00FC67C0H   LINE      ECODE    ---       #857
      00FC67C0H   LINE      ECODE    ---       #858
      00FC67C0H   LINE      ECODE    ---       #859
      00FC67D3H   LINE      ECODE    ---       #860
      00FC6806H   LINE      ECODE    ---       #862
      00FC6814H   LINE      ECODE    ---       #863
      00FC681EH   LINE      ECODE    ---       #864
      ---         BLOCKEND  ---      ---       LVL=0

      00FC681FH   BLOCK     ECODE    ---       LVL=0
      000113C3H   SYMBOL    XDATA    ---       buff
      000113C7H   SYMBOL    XDATA    ---       format
      00FC6833H   BLOCK     ECODE    NEAR LAB  LVL=1
      000113CBH   SYMBOL    XDATA    DWORD     buff_len
      000113CFH   SYMBOL    XDATA    ---       arg
      00FC6854H   BLOCK     ECODE    NEAR LAB  LVL=2
      000113D3H   SYMBOL    XDATA    CHAR      ret
      00FC6998H   BLOCK     ECODE    NEAR LAB  LVL=3
L251 LINKER/LOCATER V4.66.93.0                                                        03/25/2026  13:05:55  PAGE 53


      000113D4H   SYMBOL    XDATA    CHAR      ch
      ---         BLOCKEND  ---      ---       LVL=3
      00FC69FEH   BLOCK     ECODE    NEAR LAB  LVL=3
      000113D4H   SYMBOL    XDATA    ---       vstr
      000113F5H   SYMBOL    XDATA    LONG      ival
      000113F9H   SYMBOL    XDATA    BYTE      vlen
      ---         BLOCKEND  ---      ---       LVL=3
      00FC6AEAH   BLOCK     ECODE    NEAR LAB  LVL=3
      000113D4H   SYMBOL    XDATA    ---       vstr
      000113F5H   SYMBOL    XDATA    DOUBLE    ival
      000113FDH   SYMBOL    XDATA    BYTE      vlen
      ---         BLOCKEND  ---      ---       LVL=3
      00FC6D88H   BLOCK     ECODE    NEAR LAB  LVL=3
      000113D4H   SYMBOL    XDATA    ---       vstr
      000113F5H   SYMBOL    XDATA    DWORD     ival
      000113F9H   SYMBOL    XDATA    BYTE      vlen
      ---         BLOCKEND  ---      ---       LVL=3
      00FC6E40H   BLOCK     ECODE    NEAR LAB  LVL=3
      000113D4H   SYMBOL    XDATA    ---       vstr
      000113F5H   SYMBOL    XDATA    DWORD     ival
      000113F9H   SYMBOL    XDATA    BYTE      vlen
      ---         BLOCKEND  ---      ---       LVL=3
      00FC6EF8H   BLOCK     ECODE    NEAR LAB  LVL=3
      000113D4H   SYMBOL    XDATA    ---       vstr
      000113F5H   SYMBOL    XDATA    DWORD     ival
      000113F9H   SYMBOL    XDATA    BYTE      vlen
      ---         BLOCKEND  ---      ---       LVL=3
      00FC6FB0H   BLOCK     ECODE    NEAR LAB  LVL=3
      000113D4H   SYMBOL    XDATA    ---       pc
      ---         BLOCKEND  ---      ---       LVL=3
      00FC704CH   BLOCK     ECODE    NEAR LAB  LVL=3
      000113D4H   SYMBOL    XDATA    ---       vstr
      000113F5H   SYMBOL    XDATA    DWORD     ival
      ---         BLOCKEND  ---      ---       LVL=3
      ---         BLOCKEND  ---      ---       LVL=2
      ---         BLOCKEND  ---      ---       LVL=1
      00FC681FH   LINE      ECODE    ---       #875
      00FC6833H   LINE      ECODE    ---       #876
      00FC6833H   LINE      ECODE    ---       #877
      00FC683FH   LINE      ECODE    ---       #879
      00FC6851H   LINE      ECODE    ---       #881
      00FC6854H   LINE      ECODE    ---       #882
      00FC6854H   LINE      ECODE    ---       #883
      00FC6865H   LINE      ECODE    ---       #884
      00FC6871H   LINE      ECODE    ---       #886
      00FC6995H   LINE      ECODE    ---       #888
      00FC6995H   LINE      ECODE    ---       #891
      00FC6998H   LINE      ECODE    ---       #893
      00FC6998H   LINE      ECODE    ---       #894
      00FC6998H   LINE      ECODE    ---       #895
      00FC69C0H   LINE      ECODE    ---       #896
      00FC69D1H   LINE      ECODE    ---       #897
      00FC69E4H   LINE      ECODE    ---       #898
      00FC69FBH   LINE      ECODE    ---       #900
      00FC69FEH   LINE      ECODE    ---       #902
      00FC69FEH   LINE      ECODE    ---       #903
      00FC69FEH   LINE      ECODE    ---       #904
      00FC69FEH   LINE      ECODE    ---       #906
      00FC6A2CH   LINE      ECODE    ---       #907
      00FC6A4DH   LINE      ECODE    ---       #909
      00FC6A5DH   LINE      ECODE    ---       #911
      00FC6A75H   LINE      ECODE    ---       #912
      00FC6A80H   LINE      ECODE    ---       #913
      00FC6A80H   LINE      ECODE    ---       #914
      00FC6A93H   LINE      ECODE    ---       #915
L251 LINKER/LOCATER V4.66.93.0                                                        03/25/2026  13:05:55  PAGE 54


      00FC6AB3H   LINE      ECODE    ---       #916
      00FC6ACCH   LINE      ECODE    ---       #917
      00FC6AE7H   LINE      ECODE    ---       #919
      00FC6AEAH   LINE      ECODE    ---       #921
      00FC6AEAH   LINE      ECODE    ---       #922
      00FC6AEAH   LINE      ECODE    ---       #923
      00FC6AEAH   LINE      ECODE    ---       #925
      00FC6B2AH   LINE      ECODE    ---       #926
      00FC6B57H   LINE      ECODE    ---       #928
      00FC6B73H   LINE      ECODE    ---       #930
      00FC6B8BH   LINE      ECODE    ---       #931
      00FC6B96H   LINE      ECODE    ---       #932
      00FC6B96H   LINE      ECODE    ---       #933
      00FC6BA9H   LINE      ECODE    ---       #934
      00FC6BC9H   LINE      ECODE    ---       #935
      00FC6BE2H   LINE      ECODE    ---       #936
      00FC6BFDH   LINE      ECODE    ---       #938
      00FC6C53H   LINE      ECODE    ---       #939
      00FC6C71H   LINE      ECODE    ---       #941
      00FC6C9EH   LINE      ECODE    ---       #942
      00FC6CA0H   LINE      ECODE    ---       #945
      00FC6CC4H   LINE      ECODE    ---       #946
      00FC6CCAH   LINE      ECODE    ---       #947
      00FC6CCAH   LINE      ECODE    ---       #949
      00FC6CCCH   LINE      ECODE    ---       #951
      00FC6CE4H   LINE      ECODE    ---       #952
      00FC6CEFH   LINE      ECODE    ---       #953
      00FC6CFBH   LINE      ECODE    ---       #955
      00FC6D13H   LINE      ECODE    ---       #956
      00FC6D1EH   LINE      ECODE    ---       #958
      00FC6D31H   LINE      ECODE    ---       #959
      00FC6D51H   LINE      ECODE    ---       #960
      00FC6D6AH   LINE      ECODE    ---       #961
      00FC6D85H   LINE      ECODE    ---       #963
      00FC6D88H   LINE      ECODE    ---       #965
      00FC6D88H   LINE      ECODE    ---       #966
      00FC6D88H   LINE      ECODE    ---       #968
      00FC6DB6H   LINE      ECODE    ---       #969
      00FC6DD6H   LINE      ECODE    ---       #971
      00FC6DE9H   LINE      ECODE    ---       #972
      00FC6E09H   LINE      ECODE    ---       #973
      00FC6E22H   LINE      ECODE    ---       #974
      00FC6E3DH   LINE      ECODE    ---       #976
      00FC6E40H   LINE      ECODE    ---       #978
      00FC6E40H   LINE      ECODE    ---       #979
      00FC6E40H   LINE      ECODE    ---       #981
      00FC6E6EH   LINE      ECODE    ---       #982
      00FC6E8EH   LINE      ECODE    ---       #984
      00FC6EA1H   LINE      ECODE    ---       #985
      00FC6EC1H   LINE      ECODE    ---       #986
      00FC6EDAH   LINE      ECODE    ---       #987
      00FC6EF5H   LINE      ECODE    ---       #990
      00FC6EF8H   LINE      ECODE    ---       #992
      00FC6EF8H   LINE      ECODE    ---       #993
      00FC6EF8H   LINE      ECODE    ---       #994
      00FC6EF8H   LINE      ECODE    ---       #996
      00FC6F26H   LINE      ECODE    ---       #997
      00FC6F46H   LINE      ECODE    ---       #999
      00FC6F59H   LINE      ECODE    ---       #1000
      00FC6F79H   LINE      ECODE    ---       #1001
      00FC6F92H   LINE      ECODE    ---       #1002
      00FC6FADH   LINE      ECODE    ---       #1004
      00FC6FB0H   LINE      ECODE    ---       #1006
      00FC6FB0H   LINE      ECODE    ---       #1007
      00FC6FB0H   LINE      ECODE    ---       #1008
L251 LINKER/LOCATER V4.66.93.0                                                        03/25/2026  13:05:55  PAGE 55


      00FC6FDEH   LINE      ECODE    ---       #1009
      00FC6FE0H   LINE      ECODE    ---       #1011
      00FC6FFAH   LINE      ECODE    ---       #1012
      00FC700DH   LINE      ECODE    ---       #1013
      00FC7024H   LINE      ECODE    ---       #1014
      00FC7037H   LINE      ECODE    ---       #1015
      00FC7049H   LINE      ECODE    ---       #1017
      00FC704CH   LINE      ECODE    ---       #1019
      00FC704CH   LINE      ECODE    ---       #1020
      00FC704CH   LINE      ECODE    ---       #1022
      00FC707AH   LINE      ECODE    ---       #1024
      00FC7096H   LINE      ECODE    ---       #1025
      00FC70A5H   LINE      ECODE    ---       #1026
      00FC70C3H   LINE      ECODE    ---       #1027
      00FC70D8H   LINE      ECODE    ---       #1028
      00FC70EFH   LINE      ECODE    ---       #1030
      00FC70F2H   LINE      ECODE    ---       #1032
      00FC70F2H   LINE      ECODE    ---       #1034
      00FC7101H   LINE      ECODE    ---       #1035
      00FC7114H   LINE      ECODE    ---       #1036
      00FC712BH   LINE      ECODE    ---       #1038
      00FC712DH   LINE      ECODE    ---       #1040
      00FC712DH   LINE      ECODE    ---       #1041
      00FC712DH   LINE      ECODE    ---       #1042
      00FC712DH   LINE      ECODE    ---       #1043
      00FC712DH   LINE      ECODE    ---       #1046
      00FC7147H   LINE      ECODE    ---       #1047
      00FC715AH   LINE      ECODE    ---       #1048
      00FC7171H   LINE      ECODE    ---       #1049
      00FC7171H   LINE      ECODE    ---       #1050
      00FC7184H   LINE      ECODE    ---       #1051
      00FC7199H   LINE      ECODE    ---       #1054
      00FC71A3H   LINE      ECODE    ---       #1055
      ---         BLOCKEND  ---      ---       LVL=0

      ---         MODULE    ---      ---       zf_driver_adc
      00FE09D2H   PUBLIC    ECODE    ---       adc_mean_filter_convert?
      00FE0A65H   PUBLIC    ECODE    ---       adc_convert?
      00FE0BC4H   PUBLIC    ECODE    ---       adc_init?
      000000D0H   SFRSYM    DATA     BYTE      PSW
      0000009DH   SFRSYM    DATA     BYTE      IRCBAND
      00000097H   SFRSYM    DATA     BYTE      AUXR2
      000000EAH   SFRSYM    DATA     BYTE      CKCON
      000000EFH   SFRSYM    DATA     BYTE      AUXINTIF
      000000FDH   SFRSYM    DATA     BYTE      S4CON
      000000ACH   SFRSYM    DATA     BYTE      S3CON
      0000009AH   SFRSYM    DATA     BYTE      S2CON
      000000B7H   SFRSYM    DATA     BYTE      IPH
      000000CDH   SFRSYM    DATA     BYTE      SPSTAT
      000000BEH   SFRSYM    DATA     BYTE      ADC_RESL
      000000DDH   SFRSYM    DATA     BYTE      T4T3M
      000000C1H   SFRSYM    DATA     BYTE      WDT_CONTR
      000000DFH   SFRSYM    DATA     BYTE      IP3
      000000F4H   SFRSYM    DATA     BYTE      USBCON
      000000B5H   SFRSYM    DATA     BYTE      IP2
      000000FFH   SFRSYM    DATA     BYTE      RSTCFG
      000000E0H   SFRSYM    DATA     BYTE      ACC
      000000C7H   SFRSYM    DATA     BYTE      IAP_CONTR
      000000F9H   SFRSYM    DATA     BYTE      LINICR
      0000008EH   SFRSYM    DATA     BYTE      AUXR
      000000F0H   SFRSYM    DATA     BYTE      B
      000000AFH   SFRSYM    DATA     BYTE      IE2
      00000088H   SFRSYM    DATA     BYTE      TCON
      00000089H   SFRSYM    DATA     BYTE      TMOD
      00000098H   SFRSYM    DATA     BYTE      SCON
L251 LINKER/LOCATER V4.66.93.0                                                        03/25/2026  13:05:55  PAGE 56


      00000087H   SFRSYM    DATA     BYTE      PCON
      000000BCH   SFRSYM    DATA     BYTE      ADC_CONTR
      000000D1H   SFRSYM    DATA     BYTE      PSW1
      000000E7H   SFRSYM    DATA     BYTE      CMPCR2
      000000E6H   SFRSYM    DATA     BYTE      CMPCR1
      000000DEH   SFRSYM    DATA     BYTE      ADCCFG
      000000B8H   SFRSYM    DATA     BYTE      IP
      0000008FH   SFRSYM    DATA     BYTE      INTCLKO
      000000EEH   SFRSYM    DATA     BYTE      IP3H
      000000B6H   SFRSYM    DATA     BYTE      IP2H
      000000BDH   SFRSYM    DATA     BYTE      ADC_RES
      000000BFH   SFRSYM    DATA     BYTE      P_SW4
      000000A8H   SFRSYM    DATA     BYTE      IE
      000000BBH   SFRSYM    DATA     BYTE      P_SW3
      000000BAH   SFRSYM    DATA     BYTE      P_SW2
      000000A2H   SFRSYM    DATA     BYTE      P_SW1
      000000CEH   SFRSYM    DATA     BYTE      SPCTL
      000000F8H   SFRSYM    DATA     BYTE      P7
      000000E8H   SFRSYM    DATA     BYTE      P6
      000000C8H   SFRSYM    DATA     BYTE      P5
      000000C0H   SFRSYM    DATA     BYTE      P4
      000000ABH   SFRSYM    DATA     BYTE      WKTCH
      000000B0H   SFRSYM    DATA     BYTE      P3
      000000A0H   SFRSYM    DATA     BYTE      P2
      00000090H   SFRSYM    DATA     BYTE      P1
      00000080H   SFRSYM    DATA     BYTE      P0
      000129D0H   SYMBOL    XDATA    ---       adc_resolution

      00FE09D2H   BLOCK     ECODE    ---       LVL=0
      000126D4H   SYMBOL    XDATA    INT       ch
      000126D6H   SYMBOL    XDATA    BYTE      count
      00FE09DCH   BLOCK     ECODE    NEAR LAB  LVL=1
      000126D7H   SYMBOL    XDATA    BYTE      i
      000126D8H   SYMBOL    XDATA    DWORD     sum
      ---         BLOCKEND  ---      ---       LVL=1
      00FE09D2H   LINE      ECODE    ---       #51
      00FE09DCH   LINE      ECODE    ---       #52
      00FE09DCH   LINE      ECODE    ---       #56
      00FE09F0H   LINE      ECODE    ---       #58
      00FE09FCH   LINE      ECODE    ---       #59
      00FE0A03H   LINE      ECODE    ---       #61
      00FE0A24H   LINE      ECODE    ---       #62
      00FE0A3DH   LINE      ECODE    ---       #64
      00FE0A5AH   LINE      ECODE    ---       #65
      00FE0A64H   LINE      ECODE    ---       #66
      ---         BLOCKEND  ---      ---       LVL=0

      00FE0A65H   BLOCK     ECODE    ---       LVL=0
      000128E5H   SYMBOL    XDATA    INT       ch
      00FE0A6BH   BLOCK     ECODE    NEAR LAB  LVL=1
      000128E7H   SYMBOL    XDATA    WORD      adc_value
      ---         BLOCKEND  ---      ---       LVL=1
      00FE0A65H   LINE      ECODE    ---       #75
      00FE0A6BH   LINE      ECODE    ---       #76
      00FE0A6BH   LINE      ECODE    ---       #77
      00FE0A73H   LINE      ECODE    ---       #79
      00FE0A89H   LINE      ECODE    ---       #81
      00FE0A8CH   LINE      ECODE    ---       #82
      00FE0A8FH   LINE      ECODE    ---       #83
      00FE0AA2H   LINE      ECODE    ---       #85
      00FE0AA5H   LINE      ECODE    ---       #87
      00FE0AAAH   LINE      ECODE    ---       #89
      00FE0AB8H   LINE      ECODE    ---       #90
      00FE0AC7H   LINE      ECODE    ---       #92
      00FE0ACAH   LINE      ECODE    ---       #93
L251 LINKER/LOCATER V4.66.93.0                                                        03/25/2026  13:05:55  PAGE 57


      00FE0ACDH   LINE      ECODE    ---       #95
      00FE0AE1H   LINE      ECODE    ---       #96
      00FE0AE4H   LINE      ECODE    ---       #97
      00FE0B01H   LINE      ECODE    ---       #99
      00FE0B13H   LINE      ECODE    ---       #100
      00FE0B25H   LINE      ECODE    ---       #101
      00FE0B42H   LINE      ECODE    ---       #103
      00FE0B54H   LINE      ECODE    ---       #105
      00FE0B62H   LINE      ECODE    ---       #107
      00FE0B79H   LINE      ECODE    ---       #108
      00FE0B91H   LINE      ECODE    ---       #110
      00FE0B9DH   LINE      ECODE    ---       #111
      00FE0BA9H   LINE      ECODE    ---       #113
      00FE0BBDH   LINE      ECODE    ---       #115
      00FE0BBDH   LINE      ECODE    ---       #117
      00FE0BC3H   LINE      ECODE    ---       #118
      ---         BLOCKEND  ---      ---       LVL=0

      00FE0BC4H   BLOCK     ECODE    ---       LVL=0
      000128E9H   SYMBOL    XDATA    INT       ch
      000128EBH   SYMBOL    XDATA    INT       resolution
      00FE0BC4H   LINE      ECODE    ---       #127
      00FE0BD0H   LINE      ECODE    ---       #129
      00FE0BE8H   LINE      ECODE    ---       #131
      00FE0BFEH   LINE      ECODE    ---       #134
      00FE0C01H   LINE      ECODE    ---       #135
      00FE0C14H   LINE      ECODE    ---       #137
      00FE0C17H   LINE      ECODE    ---       #138
      00FE0C1AH   LINE      ECODE    ---       #140
      00FE0C24H   LINE      ECODE    ---       #142
      00FE0C27H   LINE      ECODE    ---       #143
      00FE0C2AH   LINE      ECODE    ---       #144
      00FE0C44H   LINE      ECODE    ---       #147
      00FE0C56H   LINE      ECODE    ---       #148
      00FE0C73H   LINE      ECODE    ---       #150
      00FE0C85H   LINE      ECODE    ---       #151
      00FE0C97H   LINE      ECODE    ---       #153
      00FE0CA1H   LINE      ECODE    ---       #155
      00FE0CB3H   LINE      ECODE    ---       #156
      00FE0CB3H   LINE      ECODE    ---       #157
      00FE0CC9H   LINE      ECODE    ---       #158
      ---         BLOCKEND  ---      ---       LVL=0

      ---         MODULE    ---      ---       zf_driver_delay
      00FE19DCH   PUBLIC    ECODE    ---       system_delay?
      00FE19A5H   PUBLIC    ECODE    ---       soft_delay?
      000000D0H   SFRSYM    DATA     BYTE      PSW
      0000009DH   SFRSYM    DATA     BYTE      IRCBAND
      00000097H   SFRSYM    DATA     BYTE      AUXR2
      000000EAH   SFRSYM    DATA     BYTE      CKCON
      000000EFH   SFRSYM    DATA     BYTE      AUXINTIF
      000000FDH   SFRSYM    DATA     BYTE      S4CON
      000000ACH   SFRSYM    DATA     BYTE      S3CON
      0000009AH   SFRSYM    DATA     BYTE      S2CON
      000000B7H   SFRSYM    DATA     BYTE      IPH
      000000CDH   SFRSYM    DATA     BYTE      SPSTAT
      000000DDH   SFRSYM    DATA     BYTE      T4T3M
      000000C1H   SFRSYM    DATA     BYTE      WDT_CONTR
      000000DFH   SFRSYM    DATA     BYTE      IP3
      000000F4H   SFRSYM    DATA     BYTE      USBCON
      000000B5H   SFRSYM    DATA     BYTE      IP2
      000000FFH   SFRSYM    DATA     BYTE      RSTCFG
      000000E0H   SFRSYM    DATA     BYTE      ACC
      000000C7H   SFRSYM    DATA     BYTE      IAP_CONTR
      000000F9H   SFRSYM    DATA     BYTE      LINICR
L251 LINKER/LOCATER V4.66.93.0                                                        03/25/2026  13:05:55  PAGE 58


      0000008EH   SFRSYM    DATA     BYTE      AUXR
      000000F0H   SFRSYM    DATA     BYTE      B
      000000AFH   SFRSYM    DATA     BYTE      IE2
      00000088H   SFRSYM    DATA     BYTE      TCON
      00000089H   SFRSYM    DATA     BYTE      TMOD
      00000098H   SFRSYM    DATA     BYTE      SCON
      00000087H   SFRSYM    DATA     BYTE      PCON
      000000BCH   SFRSYM    DATA     BYTE      ADC_CONTR
      000000D1H   SFRSYM    DATA     BYTE      PSW1
      000000E7H   SFRSYM    DATA     BYTE      CMPCR2
      000000E6H   SFRSYM    DATA     BYTE      CMPCR1
      000000DEH   SFRSYM    DATA     BYTE      ADCCFG
      000000B8H   SFRSYM    DATA     BYTE      IP
      0000008FH   SFRSYM    DATA     BYTE      INTCLKO
      000000EEH   SFRSYM    DATA     BYTE      IP3H
      000000B6H   SFRSYM    DATA     BYTE      IP2H
      000000BFH   SFRSYM    DATA     BYTE      P_SW4
      000000A8H   SFRSYM    DATA     BYTE      IE
      000000BBH   SFRSYM    DATA     BYTE      P_SW3
      000000BAH   SFRSYM    DATA     BYTE      P_SW2
      000000A2H   SFRSYM    DATA     BYTE      P_SW1
      000000CEH   SFRSYM    DATA     BYTE      SPCTL
      000000F8H   SFRSYM    DATA     BYTE      P7
      000000E8H   SFRSYM    DATA     BYTE      P6
      000000C8H   SFRSYM    DATA     BYTE      P5
      000000C0H   SFRSYM    DATA     BYTE      P4
      000000ABH   SFRSYM    DATA     BYTE      WKTCH
      000000B0H   SFRSYM    DATA     BYTE      P3
      000000A0H   SFRSYM    DATA     BYTE      P2
      00000090H   SFRSYM    DATA     BYTE      P1
      00000080H   SFRSYM    DATA     BYTE      P0

      00FE19A5H   BLOCK     ECODE    ---       LVL=0
      000128EDH   SYMBOL    XDATA    DWORD     count
      00FE19AFH   BLOCK     ECODE    NEAR LAB  LVL=1
      00000010H   SYMBOL    EDATA    DWORD     i
      ---         BLOCKEND  ---      ---       LVL=1
      00FE19A5H   LINE      ECODE    ---       #44
      00FE19AFH   LINE      ECODE    ---       #45
      00FE19AFH   LINE      ECODE    ---       #46
      00FE19B5H   LINE      ECODE    ---       #48
      00FE19C3H   LINE      ECODE    ---       #49
      00FE19DBH   LINE      ECODE    ---       #50
      ---         BLOCKEND  ---      ---       LVL=0

      00FE19DCH   BLOCK     ECODE    ---       LVL=0
      000125CCH   SYMBOL    XDATA    DWORD     period
      00FE19E6H   BLOCK     ECODE    NEAR LAB  LVL=1
      000125D0H   SYMBOL    XDATA    BYTE      freq_div
      000125D1H   SYMBOL    XDATA    WORD      period_temp
      000125D3H   SYMBOL    XDATA    WORD      temp
      ---         BLOCKEND  ---      ---       LVL=1
      00FE19DCH   LINE      ECODE    ---       #59
      00FE19E6H   LINE      ECODE    ---       #60
      00FE19E6H   LINE      ECODE    ---       #65
      00FE19F2H   LINE      ECODE    ---       #66
      00FE1A08H   LINE      ECODE    ---       #69
      00FE1A2AH   LINE      ECODE    ---       #70
      00FE1A3CH   LINE      ECODE    ---       #71
      00FE1A3EH   LINE      ECODE    ---       #75
      00FE1A50H   LINE      ECODE    ---       #76
      00FE1A50H   LINE      ECODE    ---       #78
      00FE1A60H   LINE      ECODE    ---       #79
      00FE1A82H   LINE      ECODE    ---       #80
      00FE1A94H   LINE      ECODE    ---       #82
L251 LINKER/LOCATER V4.66.93.0                                                        03/25/2026  13:05:55  PAGE 59


      00FE1AA3H   LINE      ECODE    ---       #83
      00FE1AB4H   LINE      ECODE    ---       #84
      00FE1AC9H   LINE      ECODE    ---       #85
      00FE1ADBH   LINE      ECODE    ---       #87
      00FE1AE9H   LINE      ECODE    ---       #89
      ---         BLOCKEND  ---      ---       LVL=0

      ---         MODULE    ---      ---       zf_driver_eeprom
      00FE002CH   PUBLIC    ECODE    ---       iap_set_tps?
      00FE0000H   PUBLIC    ECODE    ---       eeprom_trig?
      00FE01E6H   PUBLIC    ECODE    ---       iap_erase_page?
      00FE0016H   PUBLIC    ECODE    ---       iap_idle?
      00FE00FDH   PUBLIC    ECODE    ---       iap_read_buff?
      00FE024DH   PUBLIC    ECODE    ---       extern_iap_write_buff?
      00FE0173H   PUBLIC    ECODE    ---       iap_write_buff?
      00FE0057H   PUBLIC    ECODE    ---       iap_read_byte?
      00FE000DH   PUBLIC    ECODE    ---       iap_init?
      00FE00AAH   PUBLIC    ECODE    ---       iap_write_byte?
      00FE001AH   PUBLIC    ECODE    ---       iap_get_cmd_state?
      000124FBH   PUBLIC    XDATA    BYTE      ?iap_read_buff??BYTE
      00012505H   PUBLIC    XDATA    BYTE      ?iap_write_buff??BYTE
      000000D0H   SFRSYM    DATA     BYTE      PSW
      0000009DH   SFRSYM    DATA     BYTE      IRCBAND
      00000097H   SFRSYM    DATA     BYTE      AUXR2
      000000C6H   SFRSYM    DATA     BYTE      IAP_TRIG
      000000EAH   SFRSYM    DATA     BYTE      CKCON
      000000EFH   SFRSYM    DATA     BYTE      AUXINTIF
      000000FDH   SFRSYM    DATA     BYTE      S4CON
      000000ACH   SFRSYM    DATA     BYTE      S3CON
      0000009AH   SFRSYM    DATA     BYTE      S2CON
      000000B7H   SFRSYM    DATA     BYTE      IPH
      000000CDH   SFRSYM    DATA     BYTE      SPSTAT
      000000DDH   SFRSYM    DATA     BYTE      T4T3M
      000000C1H   SFRSYM    DATA     BYTE      WDT_CONTR
      000000C2H   SFRSYM    DATA     BYTE      IAP_DATA
      000000DFH   SFRSYM    DATA     BYTE      IP3
      000000F4H   SFRSYM    DATA     BYTE      USBCON
      000000B5H   SFRSYM    DATA     BYTE      IP2
      000000FFH   SFRSYM    DATA     BYTE      RSTCFG
      000000E0H   SFRSYM    DATA     BYTE      ACC
      000000C7H   SFRSYM    DATA     BYTE      IAP_CONTR
      000000F9H   SFRSYM    DATA     BYTE      LINICR
      0000008EH   SFRSYM    DATA     BYTE      AUXR
      000000F0H   SFRSYM    DATA     BYTE      B
      000000AFH   SFRSYM    DATA     BYTE      IE2
      00000088H   SFRSYM    DATA     BYTE      TCON
      00000089H   SFRSYM    DATA     BYTE      TMOD
      00000098H   SFRSYM    DATA     BYTE      SCON
      000000F5H   SFRSYM    DATA     BYTE      IAP_TPS
      00000087H   SFRSYM    DATA     BYTE      PCON
      000000BCH   SFRSYM    DATA     BYTE      ADC_CONTR
      000000D1H   SFRSYM    DATA     BYTE      PSW1
      000000E7H   SFRSYM    DATA     BYTE      CMPCR2
      000000E6H   SFRSYM    DATA     BYTE      CMPCR1
      000000C4H   SFRSYM    DATA     BYTE      IAP_ADDRL
      000000C3H   SFRSYM    DATA     BYTE      IAP_ADDRH
      000000F6H   SFRSYM    DATA     BYTE      IAP_ADDRE
      000000DEH   SFRSYM    DATA     BYTE      ADCCFG
      000000B8H   SFRSYM    DATA     BYTE      IP
      0000008FH   SFRSYM    DATA     BYTE      INTCLKO
      000000EEH   SFRSYM    DATA     BYTE      IP3H
      000000B6H   SFRSYM    DATA     BYTE      IP2H
      000000C5H   SFRSYM    DATA     BYTE      IAP_CMD
      000000BFH   SFRSYM    DATA     BYTE      P_SW4
      000000A8H   SFRSYM    DATA     BYTE      IE
L251 LINKER/LOCATER V4.66.93.0                                                        03/25/2026  13:05:55  PAGE 60


      000000BBH   SFRSYM    DATA     BYTE      P_SW3
      000000BAH   SFRSYM    DATA     BYTE      P_SW2
      000000A2H   SFRSYM    DATA     BYTE      P_SW1
      000000CEH   SFRSYM    DATA     BYTE      SPCTL
      000000F8H   SFRSYM    DATA     BYTE      P7
      000000A8H.7 SFRSYM    DATA     BIT       EA
      000000E8H   SFRSYM    DATA     BYTE      P6
      000000C8H   SFRSYM    DATA     BYTE      P5
      000000C0H   SFRSYM    DATA     BYTE      P4
      000000ABH   SFRSYM    DATA     BYTE      WKTCH
      000000B0H   SFRSYM    DATA     BYTE      P3
      000000A0H   SFRSYM    DATA     BYTE      P2
      00000090H   SFRSYM    DATA     BYTE      P1
      00000080H   SFRSYM    DATA     BYTE      P0
      00FE48E2H   SYMBOL    HCONST   ---       ?tpl?0001

      00FE0000H   BLOCK     ECODE    ---       LVL=0
      00FE0000H   LINE      ECODE    ---       #48
      00FE0000H   LINE      ECODE    ---       #51
      00FE0004H   LINE      ECODE    ---       #52
      00FE0008H   LINE      ECODE    ---       #55
      00FE0009H   LINE      ECODE    ---       #56
      00FE000AH   LINE      ECODE    ---       #57
      00FE000BH   LINE      ECODE    ---       #58
      00FE000CH   LINE      ECODE    ---       #60
      ---         BLOCKEND  ---      ---       LVL=0

      00FE000DH   BLOCK     ECODE    ---       LVL=0
      00FE000DH   LINE      ECODE    ---       #69
      00FE000DH   LINE      ECODE    ---       #71
      00FE0011H   LINE      ECODE    ---       #72
      00FE0015H   LINE      ECODE    ---       #73
      ---         BLOCKEND  ---      ---       LVL=0

      00FE0016H   BLOCK     ECODE    ---       LVL=0
      00FE0016H   LINE      ECODE    ---       #82
      00FE0016H   LINE      ECODE    ---       #84
      00FE0019H   LINE      ECODE    ---       #85
      ---         BLOCKEND  ---      ---       LVL=0

      00FE001AH   BLOCK     ECODE    ---       LVL=0
      00FE001AH   LINE      ECODE    ---       #94
      00FE001AH   LINE      ECODE    ---       #96
      00FE002BH   LINE      ECODE    ---       #97
      ---         BLOCKEND  ---      ---       LVL=0

      00FE002CH   BLOCK     ECODE    ---       LVL=0
      00012A05H   SYMBOL    XDATA    BYTE      write_time
      00FE002CH   LINE      ECODE    ---       #106
      00FE002CH   LINE      ECODE    ---       #107
      00FE002CH   LINE      ECODE    ---       #109
      00FE0048H   LINE      ECODE    ---       #110
      00FE0056H   LINE      ECODE    ---       #111
      ---         BLOCKEND  ---      ---       LVL=0

      00FE0057H   BLOCK     ECODE    ---       LVL=0
      00012893H   SYMBOL    XDATA    DWORD     addr
      00FE0061H   BLOCK     ECODE    NEAR LAB  LVL=1
      00012897H   SYMBOL    XDATA    BYTE      temp
      00000020H.2 SYMBOL    BIT      BIT       flag
      ---         BLOCKEND  ---      ---       LVL=1
      00FE0057H   LINE      ECODE    ---       #120
      00FE0061H   LINE      ECODE    ---       #121
      00FE0061H   LINE      ECODE    ---       #123
      00FE0064H   LINE      ECODE    ---       #124
L251 LINKER/LOCATER V4.66.93.0                                                        03/25/2026  13:05:55  PAGE 61


      00FE0068H   LINE      ECODE    ---       #125
      00FE006BH   LINE      ECODE    ---       #127
      00FE006FH   LINE      ECODE    ---       #129
      00FE007BH   LINE      ECODE    ---       #130
      00FE0089H   LINE      ECODE    ---       #131
      00FE0097H   LINE      ECODE    ---       #132
      00FE009BH   LINE      ECODE    ---       #133
      00FE00A1H   LINE      ECODE    ---       #135
      00FE00A5H   LINE      ECODE    ---       #136
      00FE00A9H   LINE      ECODE    ---       #137
      ---         BLOCKEND  ---      ---       LVL=0

      00FE00AAH   BLOCK     ECODE    ---       LVL=0
      00012898H   SYMBOL    XDATA    DWORD     addr
      0001289CH   SYMBOL    XDATA    BYTE      byte
      00FE00B8H   BLOCK     ECODE    NEAR LAB  LVL=1
      00000020H.3 SYMBOL    BIT      BIT       flag
      ---         BLOCKEND  ---      ---       LVL=1
      00FE00AAH   LINE      ECODE    ---       #146
      00FE00B8H   LINE      ECODE    ---       #147
      00FE00B8H   LINE      ECODE    ---       #148
      00FE00BBH   LINE      ECODE    ---       #150
      00FE00BFH   LINE      ECODE    ---       #151
      00FE00C2H   LINE      ECODE    ---       #153
      00FE00C6H   LINE      ECODE    ---       #155
      00FE00D2H   LINE      ECODE    ---       #156
      00FE00E0H   LINE      ECODE    ---       #157
      00FE00EEH   LINE      ECODE    ---       #158
      00FE00F4H   LINE      ECODE    ---       #160
      00FE00F8H   LINE      ECODE    ---       #162
      00FE00FCH   LINE      ECODE    ---       #163
      ---         BLOCKEND  ---      ---       LVL=0

      00FE00FDH   BLOCK     ECODE    ---       LVL=0
      000124FBH   SYMBOL    XDATA    DWORD     addr
      000124FFH   SYMBOL    XDATA    ---       buf
      00012503H   SYMBOL    XDATA    WORD      len
      00FE00FDH   LINE      ECODE    ---       #173
      00FE0111H   LINE      ECODE    ---       #175
      00FE0113H   LINE      ECODE    ---       #177
      00FE0144H   LINE      ECODE    ---       #178
      00FE015BH   LINE      ECODE    ---       #179
      00FE0172H   LINE      ECODE    ---       #180
      ---         BLOCKEND  ---      ---       LVL=0

      00FE0173H   BLOCK     ECODE    ---       LVL=0
      00012505H   SYMBOL    XDATA    DWORD     addr
      00012509H   SYMBOL    XDATA    ---       buf
      0001250DH   SYMBOL    XDATA    WORD      len
      00FE0173H   LINE      ECODE    ---       #191
      00FE0187H   LINE      ECODE    ---       #193
      00FE0189H   LINE      ECODE    ---       #195
      00FE01A4H   LINE      ECODE    ---       #196
      00FE01BBH   LINE      ECODE    ---       #197
      00FE01CEH   LINE      ECODE    ---       #198
      00FE01E5H   LINE      ECODE    ---       #199
      ---         BLOCKEND  ---      ---       LVL=0

      00FE01E6H   BLOCK     ECODE    ---       LVL=0
      000128F1H   SYMBOL    XDATA    DWORD     addr
      00FE01F0H   BLOCK     ECODE    NEAR LAB  LVL=1
      00000020H.4 SYMBOL    BIT      BIT       flag
      ---         BLOCKEND  ---      ---       LVL=1
      00FE01E6H   LINE      ECODE    ---       #208
      00FE01F0H   LINE      ECODE    ---       #209
L251 LINKER/LOCATER V4.66.93.0                                                        03/25/2026  13:05:55  PAGE 62


      00FE01F0H   LINE      ECODE    ---       #210
      00FE01F3H   LINE      ECODE    ---       #212
      00FE01F7H   LINE      ECODE    ---       #213
      00FE01FAH   LINE      ECODE    ---       #214
      00FE01FEH   LINE      ECODE    ---       #215
      00FE020AH   LINE      ECODE    ---       #216
      00FE0218H   LINE      ECODE    ---       #217
      00FE0226H   LINE      ECODE    ---       #218
      00FE022AH   LINE      ECODE    ---       #220
      00FE022EH   LINE      ECODE    ---       #221
      00FE024CH   LINE      ECODE    ---       #222
      ---         BLOCKEND  ---      ---       LVL=0

      00FE024DH   BLOCK     ECODE    ---       LVL=0
      000106F3H   SYMBOL    XDATA    WORD      addr
      000106F5H   SYMBOL    XDATA    ---       buf
      000106F9H   SYMBOL    XDATA    WORD      len
      00FE0263H   BLOCK     ECODE    NEAR LAB  LVL=1
      000106FBH   SYMBOL    XDATA    ---       temp
      000108FBH   SYMBOL    XDATA    WORD      i
      ---         BLOCKEND  ---      ---       LVL=1
      00FE024DH   LINE      ECODE    ---       #236
      00FE0263H   LINE      ECODE    ---       #237
      00FE0263H   LINE      ECODE    ---       #238
      00FE027BH   LINE      ECODE    ---       #241
      00FE02B6H   LINE      ECODE    ---       #243
      00FE02DAH   LINE      ECODE    ---       #245
      00FE0339H   LINE      ECODE    ---       #247
      00FE0345H   LINE      ECODE    ---       #248
      00FE0369H   LINE      ECODE    ---       #249
      ---         BLOCKEND  ---      ---       LVL=0

      ---         MODULE    ---      ---       zf_driver_encoder
      00FD9F44H   PUBLIC    ECODE    ---       encoder_quad_init?
      00FD9596H   PUBLIC    ECODE    ---       encoder_get_count?
      00FDA33FH   PUBLIC    ECODE    ---       encoder_dir_init?
      00FD9905H   PUBLIC    ECODE    ---       encoder_clear_count?
      000000D0H   SFRSYM    DATA     BYTE      PSW
      0000009DH   SFRSYM    DATA     BYTE      IRCBAND
      00000097H   SFRSYM    DATA     BYTE      AUXR2
      000000EAH   SFRSYM    DATA     BYTE      CKCON
      000000EFH   SFRSYM    DATA     BYTE      AUXINTIF
      000000FDH   SFRSYM    DATA     BYTE      S4CON
      000000ACH   SFRSYM    DATA     BYTE      S3CON
      0000009AH   SFRSYM    DATA     BYTE      S2CON
      000000B7H   SFRSYM    DATA     BYTE      IPH
      000000CDH   SFRSYM    DATA     BYTE      SPSTAT
      000000DDH   SFRSYM    DATA     BYTE      T4T3M
      000000C1H   SFRSYM    DATA     BYTE      WDT_CONTR
      00000088H.6 SFRSYM    DATA     BIT       TR1
      00000088H.4 SFRSYM    DATA     BIT       TR0
      000000D3H   SFRSYM    DATA     BYTE      T4L
      000000D5H   SFRSYM    DATA     BYTE      T3L
      000000D7H   SFRSYM    DATA     BYTE      T2L
      0000008BH   SFRSYM    DATA     BYTE      TL1
      0000008AH   SFRSYM    DATA     BYTE      TL0
      000000D2H   SFRSYM    DATA     BYTE      T4H
      000000D4H   SFRSYM    DATA     BYTE      T3H
      000000D6H   SFRSYM    DATA     BYTE      T2H
      0000008DH   SFRSYM    DATA     BYTE      TH1
      0000008CH   SFRSYM    DATA     BYTE      TH0
      000000DFH   SFRSYM    DATA     BYTE      IP3
      000000F4H   SFRSYM    DATA     BYTE      USBCON
      000000B5H   SFRSYM    DATA     BYTE      IP2
      000000FFH   SFRSYM    DATA     BYTE      RSTCFG
L251 LINKER/LOCATER V4.66.93.0                                                        03/25/2026  13:05:55  PAGE 63


      000000E0H   SFRSYM    DATA     BYTE      ACC
      000000C7H   SFRSYM    DATA     BYTE      IAP_CONTR
      000000F9H   SFRSYM    DATA     BYTE      LINICR
      0000008EH   SFRSYM    DATA     BYTE      AUXR
      000000F0H   SFRSYM    DATA     BYTE      B
      000000AFH   SFRSYM    DATA     BYTE      IE2
      00000088H   SFRSYM    DATA     BYTE      TCON
      00000089H   SFRSYM    DATA     BYTE      TMOD
      00000098H   SFRSYM    DATA     BYTE      SCON
      00000087H   SFRSYM    DATA     BYTE      PCON
      000000BCH   SFRSYM    DATA     BYTE      ADC_CONTR
      000000D1H   SFRSYM    DATA     BYTE      PSW1
      000000E7H   SFRSYM    DATA     BYTE      CMPCR2
      000000E6H   SFRSYM    DATA     BYTE      CMPCR1
      000000DEH   SFRSYM    DATA     BYTE      ADCCFG
      000000B8H   SFRSYM    DATA     BYTE      IP
      0000008FH   SFRSYM    DATA     BYTE      INTCLKO
      000000EEH   SFRSYM    DATA     BYTE      IP3H
      000000B6H   SFRSYM    DATA     BYTE      IP2H
      000000BFH   SFRSYM    DATA     BYTE      P_SW4
      000000A8H   SFRSYM    DATA     BYTE      IE
      000000BBH   SFRSYM    DATA     BYTE      P_SW3
      000000BAH   SFRSYM    DATA     BYTE      P_SW2
      000000A2H   SFRSYM    DATA     BYTE      P_SW1
      000000CEH   SFRSYM    DATA     BYTE      SPCTL
      000000F8H   SFRSYM    DATA     BYTE      P7
      000000E8H   SFRSYM    DATA     BYTE      P6
      000000C8H   SFRSYM    DATA     BYTE      P5
      000000C0H   SFRSYM    DATA     BYTE      P4
      000000ABH   SFRSYM    DATA     BYTE      WKTCH
      000000B0H   SFRSYM    DATA     BYTE      P3
      000000A0H   SFRSYM    DATA     BYTE      P2
      00000090H   SFRSYM    DATA     BYTE      P1
      00000080H   SFRSYM    DATA     BYTE      P0
      00FD9C44H   SYMBOL    ECODE    ---       tim_encoder_dir_init
      00FD9F1BH   SYMBOL    ECODE    ---       pwm_encoder_dir_init
      00012211H   SYMBOL    XDATA    ---       encoder_dir_pin

      00FD9596H   BLOCK     ECODE    ---       LVL=0
      000128F5H   SYMBOL    XDATA    INT       encoder_n
      00FD959CH   BLOCK     ECODE    NEAR LAB  LVL=1
      000128F7H   SYMBOL    XDATA    INT       ret
      ---         BLOCKEND  ---      ---       LVL=1
      00FD9596H   LINE      ECODE    ---       #57
      00FD959CH   LINE      ECODE    ---       #58
      00FD959CH   LINE      ECODE    ---       #59
      00FD95A4H   LINE      ECODE    ---       #60
      00FD95B5H   LINE      ECODE    ---       #62
      00FD95FAH   LINE      ECODE    ---       #64
      00FD961AH   LINE      ECODE    ---       #65
      00FD963AH   LINE      ECODE    ---       #66
      00FD965AH   LINE      ECODE    ---       #67
      00FD967AH   LINE      ECODE    ---       #68
      00FD969AH   LINE      ECODE    ---       #69
      00FD96CCH   LINE      ECODE    ---       #70
      00FD96FEH   LINE      ECODE    ---       #71
      00FD9730H   LINE      ECODE    ---       #72
      00FD9762H   LINE      ECODE    ---       #73
      00FD9794H   LINE      ECODE    ---       #74
      00FD97C6H   LINE      ECODE    ---       #75
      00FD97F7H   LINE      ECODE    ---       #76
      00FD9828H   LINE      ECODE    ---       #77
      00FD9859H   LINE      ECODE    ---       #78
      00FD986AH   LINE      ECODE    ---       #79
      00FD986AH   LINE      ECODE    ---       #80
L251 LINKER/LOCATER V4.66.93.0                                                        03/25/2026  13:05:55  PAGE 64


      00FD988EH   LINE      ECODE    ---       #82
      00FD98A0H   LINE      ECODE    ---       #83
      00FD98A2H   LINE      ECODE    ---       #87
      00FD98FEH   LINE      ECODE    ---       #88
      00FD98FEH   LINE      ECODE    ---       #90
      00FD9904H   LINE      ECODE    ---       #91
      ---         BLOCKEND  ---      ---       LVL=0

      00FD9905H   BLOCK     ECODE    ---       LVL=0
      000129D2H   SYMBOL    XDATA    INT       encoder_n
      00FD9905H   LINE      ECODE    ---       #100
      00FD990BH   LINE      ECODE    ---       #102
      00FD991CH   LINE      ECODE    ---       #104
      00FD9961H   LINE      ECODE    ---       #106
      00FD9970H   LINE      ECODE    ---       #107
      00FD997FH   LINE      ECODE    ---       #108
      00FD998EH   LINE      ECODE    ---       #109
      00FD999DH   LINE      ECODE    ---       #110
      00FD99ACH   LINE      ECODE    ---       #111
      00FD99EBH   LINE      ECODE    ---       #112
      00FD9A2AH   LINE      ECODE    ---       #113
      00FD9A69H   LINE      ECODE    ---       #114
      00FD9AA8H   LINE      ECODE    ---       #115
      00FD9AE7H   LINE      ECODE    ---       #116
      00FD9B26H   LINE      ECODE    ---       #117
      00FD9B65H   LINE      ECODE    ---       #118
      00FD9BA4H   LINE      ECODE    ---       #119
      00FD9BE2H   LINE      ECODE    ---       #120
      00FD9BF3H   LINE      ECODE    ---       #121
      00FD9BF3H   LINE      ECODE    ---       #122
      00FD9BF5H   LINE      ECODE    ---       #125
      00FD9C18H   LINE      ECODE    ---       #126
      00FD9C43H   LINE      ECODE    ---       #127
      00FD9C43H   LINE      ECODE    ---       #128
      ---         BLOCKEND  ---      ---       LVL=0

      00FD9C44H   BLOCK     ECODE    ---       LVL=0
      000127CEH   SYMBOL    XDATA    INT       encoder_n
      000127D0H   SYMBOL    XDATA    INT       dir_pin
      000127D2H   SYMBOL    XDATA    INT       lsb_pin
      00FD9C44H   LINE      ECODE    ---       #141
      00FD9C56H   LINE      ECODE    ---       #147
      00FD9C7AH   LINE      ECODE    ---       #150
      00FD9CA3H   LINE      ECODE    ---       #151
      00FD9CBAH   LINE      ECODE    ---       #152
      00FD9CD1H   LINE      ECODE    ---       #153
      00FD9CF0H   LINE      ECODE    ---       #154
      00FD9D35H   LINE      ECODE    ---       #156
      00FD9D44H   LINE      ECODE    ---       #157
      00FD9D53H   LINE      ECODE    ---       #158
      00FD9D5FH   LINE      ECODE    ---       #159
      00FD9D6BH   LINE      ECODE    ---       #160
      00FD9D77H   LINE      ECODE    ---       #161
      00FD9DA4H   LINE      ECODE    ---       #162
      00FD9DD1H   LINE      ECODE    ---       #163
      00FD9DFEH   LINE      ECODE    ---       #164
      00FD9E2BH   LINE      ECODE    ---       #165
      00FD9E58H   LINE      ECODE    ---       #166
      00FD9E85H   LINE      ECODE    ---       #167
      00FD9EB1H   LINE      ECODE    ---       #168
      00FD9EDDH   LINE      ECODE    ---       #169
      00FD9F09H   LINE      ECODE    ---       #170
      00FD9F1AH   LINE      ECODE    ---       #172
      00FD9F1AH   LINE      ECODE    ---       #173
      ---         BLOCKEND  ---      ---       LVL=0
L251 LINKER/LOCATER V4.66.93.0                                                        03/25/2026  13:05:55  PAGE 65



      00FD9F1BH   BLOCK     ECODE    ---       LVL=0
      000127D4H   SYMBOL    XDATA    INT       encoder_n
      000127D6H   SYMBOL    XDATA    INT       ch1_pin
      000127D8H   SYMBOL    XDATA    INT       ch2_pin
      00FD9F1BH   LINE      ECODE    ---       #183
      00FD9F2DH   LINE      ECODE    ---       #185
      00FD9F43H   LINE      ECODE    ---       #186
      ---         BLOCKEND  ---      ---       LVL=0

      00FD9F44H   BLOCK     ECODE    ---       LVL=0
      000127DAH   SYMBOL    XDATA    INT       encoder_n
      000127DCH   SYMBOL    XDATA    INT       ch1_pin
      000127DEH   SYMBOL    XDATA    INT       ch2_pin
      00FD9F44H   LINE      ECODE    ---       #199
      00FD9F56H   LINE      ECODE    ---       #203
      00FD9F83H   LINE      ECODE    ---       #204
      00FD9FB0H   LINE      ECODE    ---       #207
      00FD9FC6H   LINE      ECODE    ---       #208
      00FD9FDCH   LINE      ECODE    ---       #210
      00FDA041H   LINE      ECODE    ---       #211
      00FDA0A6H   LINE      ECODE    ---       #213
      00FDA0D8H   LINE      ECODE    ---       #214
      00FDA112H   LINE      ECODE    ---       #216
      00FDA143H   LINE      ECODE    ---       #217
      00FDA17DH   LINE      ECODE    ---       #219
      00FDA1AFH   LINE      ECODE    ---       #221
      00FDA202H   LINE      ECODE    ---       #222
      00FDA255H   LINE      ECODE    ---       #223
      00FDA2AEH   LINE      ECODE    ---       #224
      00FDA307H   LINE      ECODE    ---       #225
      00FDA33EH   LINE      ECODE    ---       #246
      ---         BLOCKEND  ---      ---       LVL=0

      00FDA33FH   BLOCK     ECODE    ---       LVL=0
      000127E0H   SYMBOL    XDATA    WORD      encoder_n
      000127E2H   SYMBOL    XDATA    WORD      dir_pin
      000127E4H   SYMBOL    XDATA    WORD      lsb_pin
      00FDA33FH   LINE      ECODE    ---       #260
      00FDA351H   LINE      ECODE    ---       #262
      00FDA35FH   LINE      ECODE    ---       #265
      00FDA386H   LINE      ECODE    ---       #266
      00FDA39BH   LINE      ECODE    ---       #267
      00FDA39DH   LINE      ECODE    ---       #270
      00FDA3B2H   LINE      ECODE    ---       #271
      00FDA3B2H   LINE      ECODE    ---       #272
      ---         BLOCKEND  ---      ---       LVL=0

      ---         MODULE    ---      ---       zf_driver_exti
      00FE1D50H   PUBLIC    ECODE    ---       exit_init?
      000000D0H   SFRSYM    DATA     BYTE      PSW
      0000009DH   SFRSYM    DATA     BYTE      IRCBAND
      00000097H   SFRSYM    DATA     BYTE      AUXR2
      000000EAH   SFRSYM    DATA     BYTE      CKCON
      000000EFH   SFRSYM    DATA     BYTE      AUXINTIF
      000000FDH   SFRSYM    DATA     BYTE      S4CON
      000000ACH   SFRSYM    DATA     BYTE      S3CON
      0000009AH   SFRSYM    DATA     BYTE      S2CON
      000000B7H   SFRSYM    DATA     BYTE      IPH
      000000CDH   SFRSYM    DATA     BYTE      SPSTAT
      000000DDH   SFRSYM    DATA     BYTE      T4T3M
      000000C1H   SFRSYM    DATA     BYTE      WDT_CONTR
      00000088H.2 SFRSYM    DATA     BIT       IT1
      000000A8H.2 SFRSYM    DATA     BIT       EX1
      00000088H.0 SFRSYM    DATA     BIT       IT0
L251 LINKER/LOCATER V4.66.93.0                                                        03/25/2026  13:05:55  PAGE 66


      000000A8H.0 SFRSYM    DATA     BIT       EX0
      000000DFH   SFRSYM    DATA     BYTE      IP3
      000000F4H   SFRSYM    DATA     BYTE      USBCON
      000000B5H   SFRSYM    DATA     BYTE      IP2
      000000FFH   SFRSYM    DATA     BYTE      RSTCFG
      000000E0H   SFRSYM    DATA     BYTE      ACC
      000000C7H   SFRSYM    DATA     BYTE      IAP_CONTR
      000000F9H   SFRSYM    DATA     BYTE      LINICR
      0000008EH   SFRSYM    DATA     BYTE      AUXR
      000000F0H   SFRSYM    DATA     BYTE      B
      000000AFH   SFRSYM    DATA     BYTE      IE2
      00000088H   SFRSYM    DATA     BYTE      TCON
      00000089H   SFRSYM    DATA     BYTE      TMOD
      00000098H   SFRSYM    DATA     BYTE      SCON
      00000087H   SFRSYM    DATA     BYTE      PCON
      000000BCH   SFRSYM    DATA     BYTE      ADC_CONTR
      000000D1H   SFRSYM    DATA     BYTE      PSW1
      000000E7H   SFRSYM    DATA     BYTE      CMPCR2
      000000E6H   SFRSYM    DATA     BYTE      CMPCR1
      000000DEH   SFRSYM    DATA     BYTE      ADCCFG
      000000B8H   SFRSYM    DATA     BYTE      IP
      0000008FH   SFRSYM    DATA     BYTE      INTCLKO
      000000EEH   SFRSYM    DATA     BYTE      IP3H
      000000B6H   SFRSYM    DATA     BYTE      IP2H
      000000BFH   SFRSYM    DATA     BYTE      P_SW4
      000000A8H   SFRSYM    DATA     BYTE      IE
      000000BBH   SFRSYM    DATA     BYTE      P_SW3
      000000BAH   SFRSYM    DATA     BYTE      P_SW2
      000000A2H   SFRSYM    DATA     BYTE      P_SW1
      000000CEH   SFRSYM    DATA     BYTE      SPCTL
      000000F8H   SFRSYM    DATA     BYTE      P7
      000000E8H   SFRSYM    DATA     BYTE      P6
      000000C8H   SFRSYM    DATA     BYTE      P5
      000000C0H   SFRSYM    DATA     BYTE      P4
      000000ABH   SFRSYM    DATA     BYTE      WKTCH
      000000B0H   SFRSYM    DATA     BYTE      P3
      000000A0H   SFRSYM    DATA     BYTE      P2
      00000090H   SFRSYM    DATA     BYTE      P1
      00000080H   SFRSYM    DATA     BYTE      P0

      00FE1D50H   BLOCK     ECODE    ---       LVL=0
      000128F9H   SYMBOL    XDATA    INT       int_n
      000128FBH   SYMBOL    XDATA    INT       mode
      00FE1D50H   LINE      ECODE    ---       #44
      00FE1D5CH   LINE      ECODE    ---       #46
      00FE1D6AH   LINE      ECODE    ---       #48
      00FE1D76H   LINE      ECODE    ---       #49
      00FE1D79H   LINE      ECODE    ---       #50
      00FE1D79H   LINE      ECODE    ---       #52
      00FE1D87H   LINE      ECODE    ---       #54
      00FE1D93H   LINE      ECODE    ---       #55
      00FE1D96H   LINE      ECODE    ---       #56
      00FE1D96H   LINE      ECODE    ---       #58
      00FE1DA4H   LINE      ECODE    ---       #60
      00FE1DA7H   LINE      ECODE    ---       #61
      00FE1DA7H   LINE      ECODE    ---       #63
      00FE1DB5H   LINE      ECODE    ---       #65
      00FE1DB8H   LINE      ECODE    ---       #66
      00FE1DB8H   LINE      ECODE    ---       #68
      00FE1DC6H   LINE      ECODE    ---       #70
      00FE1DC9H   LINE      ECODE    ---       #71
      ---         BLOCKEND  ---      ---       LVL=0

      ---         MODULE    ---      ---       zf_driver_gpio
      00FD4246H   PUBLIC    ECODE    ---       gpio_toggle_level?
L251 LINKER/LOCATER V4.66.93.0                                                        03/25/2026  13:05:55  PAGE 67


      00FD426BH   PUBLIC    ECODE    ---       gpio_init?
      00FD3CC8H   PUBLIC    ECODE    ---       gpio_get_level?
      00FD3B71H   PUBLIC    ECODE    ---       gpio_set_level_speed?
      00FD3EC5H   PUBLIC    ECODE    ---       gpio_set_level?
      00FD34C3H   PUBLIC    ECODE    ---       gpio_set_impedance?
      00000094H   SFRSYM    DATA     BYTE      P0M0
      000000D0H   SFRSYM    DATA     BYTE      PSW
      0000009DH   SFRSYM    DATA     BYTE      IRCBAND
      00000097H   SFRSYM    DATA     BYTE      AUXR2
      000000EAH   SFRSYM    DATA     BYTE      CKCON
      000000EFH   SFRSYM    DATA     BYTE      AUXINTIF
      000000FDH   SFRSYM    DATA     BYTE      S4CON
      000000ACH   SFRSYM    DATA     BYTE      S3CON
      0000009AH   SFRSYM    DATA     BYTE      S2CON
      000000B7H   SFRSYM    DATA     BYTE      IPH
      000000CDH   SFRSYM    DATA     BYTE      SPSTAT
      000000DDH   SFRSYM    DATA     BYTE      T4T3M
      000000C1H   SFRSYM    DATA     BYTE      WDT_CONTR
      000000DFH   SFRSYM    DATA     BYTE      IP3
      000000F4H   SFRSYM    DATA     BYTE      USBCON
      000000B5H   SFRSYM    DATA     BYTE      IP2
      000000FFH   SFRSYM    DATA     BYTE      RSTCFG
      000000E0H   SFRSYM    DATA     BYTE      ACC
      000000C7H   SFRSYM    DATA     BYTE      IAP_CONTR
      000000F9H   SFRSYM    DATA     BYTE      LINICR
      0000008EH   SFRSYM    DATA     BYTE      AUXR
      000000F0H   SFRSYM    DATA     BYTE      B
      000000AFH   SFRSYM    DATA     BYTE      IE2
      00000088H   SFRSYM    DATA     BYTE      TCON
      00000089H   SFRSYM    DATA     BYTE      TMOD
      00000098H   SFRSYM    DATA     BYTE      SCON
      00000087H   SFRSYM    DATA     BYTE      PCON
      000000BCH   SFRSYM    DATA     BYTE      ADC_CONTR
      000000D1H   SFRSYM    DATA     BYTE      PSW1
      000000E7H   SFRSYM    DATA     BYTE      CMPCR2
      000000E6H   SFRSYM    DATA     BYTE      CMPCR1
      000000DEH   SFRSYM    DATA     BYTE      ADCCFG
      000000B8H   SFRSYM    DATA     BYTE      IP
      0000008FH   SFRSYM    DATA     BYTE      INTCLKO
      000000EEH   SFRSYM    DATA     BYTE      IP3H
      000000B6H   SFRSYM    DATA     BYTE      IP2H
      000000BFH   SFRSYM    DATA     BYTE      P_SW4
      000000A8H   SFRSYM    DATA     BYTE      IE
      000000BBH   SFRSYM    DATA     BYTE      P_SW3
      000000BAH   SFRSYM    DATA     BYTE      P_SW2
      000000A2H   SFRSYM    DATA     BYTE      P_SW1
      000000CEH   SFRSYM    DATA     BYTE      SPCTL
      000000F8H   SFRSYM    DATA     BYTE      P7
      000000E1H   SFRSYM    DATA     BYTE      P7M1
      000000E8H   SFRSYM    DATA     BYTE      P6
      000000C8H   SFRSYM    DATA     BYTE      P5
      000000CBH   SFRSYM    DATA     BYTE      P6M1
      000000E2H   SFRSYM    DATA     BYTE      P7M0
      000000C0H   SFRSYM    DATA     BYTE      P4
      000000C9H   SFRSYM    DATA     BYTE      P5M1
      000000CCH   SFRSYM    DATA     BYTE      P6M0
      000000ABH   SFRSYM    DATA     BYTE      WKTCH
      000000B0H   SFRSYM    DATA     BYTE      P3
      000000B3H   SFRSYM    DATA     BYTE      P4M1
      000000CAH   SFRSYM    DATA     BYTE      P5M0
      000000A0H   SFRSYM    DATA     BYTE      P2
      000000B1H   SFRSYM    DATA     BYTE      P3M1
      000000B4H   SFRSYM    DATA     BYTE      P4M0
      00000090H   SFRSYM    DATA     BYTE      P1
      00000095H   SFRSYM    DATA     BYTE      P2M1
L251 LINKER/LOCATER V4.66.93.0                                                        03/25/2026  13:05:55  PAGE 68


      000000B2H   SFRSYM    DATA     BYTE      P3M0
      00000080H   SFRSYM    DATA     BYTE      P0
      00000091H   SFRSYM    DATA     BYTE      P1M1
      00000096H   SFRSYM    DATA     BYTE      P2M0
      00000092H   SFRSYM    DATA     BYTE      P1M0
      00000093H   SFRSYM    DATA     BYTE      P0M1
      00FD3A21H   SYMBOL    ECODE    ---       gpio_set_ie
      00FD3840H   SYMBOL    ECODE    ---       gpio_set_pd
      00FD38D1H   SYMBOL    ECODE    ---       gpio_set_dr
      00FD2F03H   SYMBOL    ECODE    ---       gpio_set_push_pull
      00FD37AFH   SYMBOL    ECODE    ---       gpio_set_up
      00FD31EFH   SYMBOL    ECODE    ---       gpio_set_open_dtain

      00FD2F03H   BLOCK     ECODE    ---       LVL=0
      000128FDH   SYMBOL    XDATA    INT       pin
      00FD2F09H   BLOCK     ECODE    NEAR LAB  LVL=1
      000128FFH   SYMBOL    XDATA    BYTE      pin_bit
      00012900H   SYMBOL    XDATA    BYTE      port_flag
      ---         BLOCKEND  ---      ---       LVL=1
      00FD2F03H   LINE      ECODE    ---       #46
      00FD2F09H   LINE      ECODE    ---       #47
      00FD2F09H   LINE      ECODE    ---       #48
      00FD2F19H   LINE      ECODE    ---       #49
      00FD2F29H   LINE      ECODE    ---       #52
      00FD2F7EH   LINE      ECODE    ---       #54
      00FD2FA9H   LINE      ECODE    ---       #55
      00FD2FD4H   LINE      ECODE    ---       #56
      00FD2FFFH   LINE      ECODE    ---       #57
      00FD302AH   LINE      ECODE    ---       #58
      00FD3055H   LINE      ECODE    ---       #59
      00FD3080H   LINE      ECODE    ---       #60
      00FD30ABH   LINE      ECODE    ---       #61
      00FD30D6H   LINE      ECODE    ---       #62
      00FD311DH   LINE      ECODE    ---       #63
      00FD3164H   LINE      ECODE    ---       #64
      00FD31AAH   LINE      ECODE    ---       #65
      00FD31EEH   LINE      ECODE    ---       #67
      00FD31EEH   LINE      ECODE    ---       #68
      00FD31EEH   LINE      ECODE    ---       #70
      ---         BLOCKEND  ---      ---       LVL=0

      00FD31EFH   BLOCK     ECODE    ---       LVL=0
      00012901H   SYMBOL    XDATA    INT       pin
      00FD31F5H   BLOCK     ECODE    NEAR LAB  LVL=1
      00012903H   SYMBOL    XDATA    BYTE      pin_bit
      00012904H   SYMBOL    XDATA    BYTE      port_flag
      ---         BLOCKEND  ---      ---       LVL=1
      00FD31EFH   LINE      ECODE    ---       #78
      00FD31F5H   LINE      ECODE    ---       #79
      00FD31F5H   LINE      ECODE    ---       #80
      00FD3205H   LINE      ECODE    ---       #81
      00FD3215H   LINE      ECODE    ---       #84
      00FD326AH   LINE      ECODE    ---       #86
      00FD3293H   LINE      ECODE    ---       #87
      00FD32BCH   LINE      ECODE    ---       #88
      00FD32E5H   LINE      ECODE    ---       #89
      00FD330EH   LINE      ECODE    ---       #90
      00FD3337H   LINE      ECODE    ---       #91
      00FD3360H   LINE      ECODE    ---       #92
      00FD3389H   LINE      ECODE    ---       #93
      00FD33B2H   LINE      ECODE    ---       #94
      00FD33F7H   LINE      ECODE    ---       #95
      00FD343CH   LINE      ECODE    ---       #96
      00FD3480H   LINE      ECODE    ---       #97
      00FD34C2H   LINE      ECODE    ---       #99
L251 LINKER/LOCATER V4.66.93.0                                                        03/25/2026  13:05:55  PAGE 69


      00FD34C2H   LINE      ECODE    ---       #100
      00FD34C2H   LINE      ECODE    ---       #102
      ---         BLOCKEND  ---      ---       LVL=0

      00FD34C3H   BLOCK     ECODE    ---       LVL=0
      00012905H   SYMBOL    XDATA    INT       pin
      00FD34C9H   BLOCK     ECODE    NEAR LAB  LVL=1
      00012907H   SYMBOL    XDATA    BYTE      pin_bit
      00012908H   SYMBOL    XDATA    BYTE      port_flag
      ---         BLOCKEND  ---      ---       LVL=1
      00FD34C3H   LINE      ECODE    ---       #110
      00FD34C9H   LINE      ECODE    ---       #111
      00FD34C9H   LINE      ECODE    ---       #112
      00FD34D9H   LINE      ECODE    ---       #113
      00FD34E9H   LINE      ECODE    ---       #116
      00FD353EH   LINE      ECODE    ---       #118
      00FD3569H   LINE      ECODE    ---       #119
      00FD3594H   LINE      ECODE    ---       #120
      00FD35BFH   LINE      ECODE    ---       #121
      00FD35EAH   LINE      ECODE    ---       #122
      00FD3615H   LINE      ECODE    ---       #123
      00FD3640H   LINE      ECODE    ---       #124
      00FD366BH   LINE      ECODE    ---       #125
      00FD3696H   LINE      ECODE    ---       #126
      00FD36DDH   LINE      ECODE    ---       #127
      00FD3724H   LINE      ECODE    ---       #128
      00FD376AH   LINE      ECODE    ---       #129
      00FD37AEH   LINE      ECODE    ---       #131
      00FD37AEH   LINE      ECODE    ---       #132
      00FD37AEH   LINE      ECODE    ---       #133
      ---         BLOCKEND  ---      ---       LVL=0

      00FD37AFH   BLOCK     ECODE    ---       LVL=0
      000129D4H   SYMBOL    XDATA    INT       pin
      00FD37AFH   LINE      ECODE    ---       #136
      00FD37B5H   LINE      ECODE    ---       #140
      00FD37C3H   LINE      ECODE    ---       #142
      00FD3800H   LINE      ECODE    ---       #143
      00FD3802H   LINE      ECODE    ---       #146
      00FD383FH   LINE      ECODE    ---       #147
      00FD383FH   LINE      ECODE    ---       #148
      ---         BLOCKEND  ---      ---       LVL=0

      00FD3840H   BLOCK     ECODE    ---       LVL=0
      000129D6H   SYMBOL    XDATA    INT       pin
      00FD3840H   LINE      ECODE    ---       #151
      00FD3846H   LINE      ECODE    ---       #155
      00FD3854H   LINE      ECODE    ---       #157
      00FD3891H   LINE      ECODE    ---       #158
      00FD3893H   LINE      ECODE    ---       #161
      00FD38D0H   LINE      ECODE    ---       #162
      00FD38D0H   LINE      ECODE    ---       #163
      ---         BLOCKEND  ---      ---       LVL=0

      00FD38D1H   BLOCK     ECODE    ---       LVL=0
      00012909H   SYMBOL    XDATA    INT       pin
      0001290BH   SYMBOL    XDATA    INT       mode
      00FD38D1H   LINE      ECODE    ---       #166
      00FD38DDH   LINE      ECODE    ---       #168
      00FD38F1H   LINE      ECODE    ---       #170
      00FD38F1H   LINE      ECODE    ---       #172
      00FD38FFH   LINE      ECODE    ---       #174
      00FD393EH   LINE      ECODE    ---       #175
      00FD3941H   LINE      ECODE    ---       #178
      00FD3980H   LINE      ECODE    ---       #179
L251 LINKER/LOCATER V4.66.93.0                                                        03/25/2026  13:05:55  PAGE 70


      00FD3980H   LINE      ECODE    ---       #180
      00FD3983H   LINE      ECODE    ---       #183
      00FD3983H   LINE      ECODE    ---       #185
      00FD3991H   LINE      ECODE    ---       #187
      00FD39CEH   LINE      ECODE    ---       #188
      00FD39D0H   LINE      ECODE    ---       #191
      00FD3A0DH   LINE      ECODE    ---       #192
      00FD3A0DH   LINE      ECODE    ---       #193
      00FD3A0FH   LINE      ECODE    ---       #196
      00FD3A0FH   LINE      ECODE    ---       #198
      00FD3A20H   LINE      ECODE    ---       #199
      00FD3A20H   LINE      ECODE    ---       #201
      00FD3A20H   LINE      ECODE    ---       #202
      ---         BLOCKEND  ---      ---       LVL=0

      00FD3A21H   BLOCK     ECODE    ---       LVL=0
      0001290DH   SYMBOL    XDATA    INT       pin
      0001290FH   SYMBOL    XDATA    INT       mode
      00FD3A21H   LINE      ECODE    ---       #205
      00FD3A2DH   LINE      ECODE    ---       #213
      00FD3A41H   LINE      ECODE    ---       #215
      00FD3A41H   LINE      ECODE    ---       #217
      00FD3A4FH   LINE      ECODE    ---       #219
      00FD3A8EH   LINE      ECODE    ---       #220
      00FD3A91H   LINE      ECODE    ---       #223
      00FD3AD0H   LINE      ECODE    ---       #224
      00FD3AD0H   LINE      ECODE    ---       #225
      00FD3AD3H   LINE      ECODE    ---       #228
      00FD3AD3H   LINE      ECODE    ---       #230
      00FD3AE1H   LINE      ECODE    ---       #232
      00FD3B1EH   LINE      ECODE    ---       #233
      00FD3B20H   LINE      ECODE    ---       #236
      00FD3B5DH   LINE      ECODE    ---       #237
      00FD3B5DH   LINE      ECODE    ---       #238
      00FD3B5FH   LINE      ECODE    ---       #241
      00FD3B5FH   LINE      ECODE    ---       #243
      00FD3B70H   LINE      ECODE    ---       #244
      00FD3B70H   LINE      ECODE    ---       #246
      00FD3B70H   LINE      ECODE    ---       #247
      ---         BLOCKEND  ---      ---       LVL=0

      00FD3B71H   BLOCK     ECODE    ---       LVL=0
      00012911H   SYMBOL    XDATA    INT       pin
      00012913H   SYMBOL    XDATA    INT       speed
      00FD3B71H   LINE      ECODE    ---       #250
      00FD3B7DH   LINE      ECODE    ---       #254
      00FD3B8BH   LINE      ECODE    ---       #256
      00FD3B9CH   LINE      ECODE    ---       #257
      00FD3B9CH   LINE      ECODE    ---       #261
      00FD3BABH   LINE      ECODE    ---       #263
      00FD3BB9H   LINE      ECODE    ---       #265
      00FD3BF8H   LINE      ECODE    ---       #266
      00FD3BFBH   LINE      ECODE    ---       #269
      00FD3C3AH   LINE      ECODE    ---       #270
      00FD3C3AH   LINE      ECODE    ---       #271
      00FD3C3DH   LINE      ECODE    ---       #274
      00FD3C4BH   LINE      ECODE    ---       #276
      00FD3C88H   LINE      ECODE    ---       #277
      00FD3C8AH   LINE      ECODE    ---       #280
      00FD3CC7H   LINE      ECODE    ---       #281
      00FD3CC7H   LINE      ECODE    ---       #282
      00FD3CC7H   LINE      ECODE    ---       #283
      ---         BLOCKEND  ---      ---       LVL=0

      00FD3CC8H   BLOCK     ECODE    ---       LVL=0
L251 LINKER/LOCATER V4.66.93.0                                                        03/25/2026  13:05:55  PAGE 71


      0001289DH   SYMBOL    XDATA    INT       pin
      00FD3CCEH   BLOCK     ECODE    NEAR LAB  LVL=1
      0001289FH   SYMBOL    XDATA    BYTE      pin_bit
      000128A0H   SYMBOL    XDATA    BYTE      port_flag
      000128A1H   SYMBOL    XDATA    BYTE      status
      ---         BLOCKEND  ---      ---       LVL=1
      00FD3CC8H   LINE      ECODE    ---       #293
      00FD3CCEH   LINE      ECODE    ---       #294
      00FD3CCEH   LINE      ECODE    ---       #295
      00FD3CDEH   LINE      ECODE    ---       #296
      00FD3CEEH   LINE      ECODE    ---       #297
      00FD3CF3H   LINE      ECODE    ---       #300
      00FD3D48H   LINE      ECODE    ---       #302
      00FD3D64H   LINE      ECODE    ---       #303
      00FD3D80H   LINE      ECODE    ---       #304
      00FD3D9CH   LINE      ECODE    ---       #305
      00FD3DB8H   LINE      ECODE    ---       #306
      00FD3DD4H   LINE      ECODE    ---       #307
      00FD3DF0H   LINE      ECODE    ---       #308
      00FD3E0CH   LINE      ECODE    ---       #309
      00FD3E28H   LINE      ECODE    ---       #311
      00FD3E4CH   LINE      ECODE    ---       #312
      00FD3E70H   LINE      ECODE    ---       #313
      00FD3E94H   LINE      ECODE    ---       #314
      00FD3EB6H   LINE      ECODE    ---       #316
      00FD3EB6H   LINE      ECODE    ---       #317
      00FD3EB6H   LINE      ECODE    ---       #319
      00FD3EC4H   LINE      ECODE    ---       #320
      ---         BLOCKEND  ---      ---       LVL=0

      00FD3EC5H   BLOCK     ECODE    ---       LVL=0
      000128A2H   SYMBOL    XDATA    INT       pin
      000128A4H   SYMBOL    XDATA    BYTE      dat
      00FD3ECFH   BLOCK     ECODE    NEAR LAB  LVL=1
      000128A5H   SYMBOL    XDATA    BYTE      pin_bit
      000128A6H   SYMBOL    XDATA    BYTE      port_flag
      ---         BLOCKEND  ---      ---       LVL=1
      00FD3EC5H   LINE      ECODE    ---       #329
      00FD3ECFH   LINE      ECODE    ---       #330
      00FD3ECFH   LINE      ECODE    ---       #331
      00FD3EDFH   LINE      ECODE    ---       #332
      00FD3EEFH   LINE      ECODE    ---       #335
      00FD3F47H   LINE      ECODE    ---       #337
      00FD3F7EH   LINE      ECODE    ---       #338
      00FD3FB5H   LINE      ECODE    ---       #339
      00FD3FECH   LINE      ECODE    ---       #340
      00FD4023H   LINE      ECODE    ---       #341
      00FD405AH   LINE      ECODE    ---       #342
      00FD4091H   LINE      ECODE    ---       #343
      00FD40C8H   LINE      ECODE    ---       #344
      00FD40FFH   LINE      ECODE    ---       #346
      00FD4152H   LINE      ECODE    ---       #347
      00FD41A5H   LINE      ECODE    ---       #348
      00FD41F6H   LINE      ECODE    ---       #349
      00FD4245H   LINE      ECODE    ---       #351
      00FD4245H   LINE      ECODE    ---       #352
      00FD4245H   LINE      ECODE    ---       #353
      ---         BLOCKEND  ---      ---       LVL=0

      00FD4246H   BLOCK     ECODE    ---       LVL=0
      000129D8H   SYMBOL    XDATA    INT       pin
      00FD4246H   LINE      ECODE    ---       #361
      00FD424CH   LINE      ECODE    ---       #364
      00FD426AH   LINE      ECODE    ---       #365
      ---         BLOCKEND  ---      ---       LVL=0
L251 LINKER/LOCATER V4.66.93.0                                                        03/25/2026  13:05:55  PAGE 72



      00FD426BH   BLOCK     ECODE    ---       LVL=0
      00012774H   SYMBOL    XDATA    INT       pin
      00012776H   SYMBOL    XDATA    INT       dir
      00012778H   SYMBOL    XDATA    BYTE      dat
      00012779H   SYMBOL    XDATA    INT       mode
      00FD426BH   LINE      ECODE    ---       #377
      00FD4281H   LINE      ECODE    ---       #379
      00FD42ABH   LINE      ECODE    ---       #381
      00FD42BAH   LINE      ECODE    ---       #383
      00FD42C6H   LINE      ECODE    ---       #385
      00FD42D0H   LINE      ECODE    ---       #386
      00FD42DDH   LINE      ECODE    ---       #387
      00FD42E0H   LINE      ECODE    ---       #388
      00FD42EEH   LINE      ECODE    ---       #390
      00FD42F8H   LINE      ECODE    ---       #391
      00FD4301H   LINE      ECODE    ---       #392
      00FD430EH   LINE      ECODE    ---       #394
      00FD4311H   LINE      ECODE    ---       #395
      00FD431FH   LINE      ECODE    ---       #397
      00FD4329H   LINE      ECODE    ---       #398
      00FD4334H   LINE      ECODE    ---       #399
      00FD4337H   LINE      ECODE    ---       #400
      00FD4345H   LINE      ECODE    ---       #402
      00FD434FH   LINE      ECODE    ---       #403
      00FD4358H   LINE      ECODE    ---       #404
      00FD435AH   LINE      ECODE    ---       #406
      00FD4368H   LINE      ECODE    ---       #408
      00FD4376H   LINE      ECODE    ---       #410
      00FD437FH   LINE      ECODE    ---       #411
      00FD438AH   LINE      ECODE    ---       #412
      00FD438CH   LINE      ECODE    ---       #413
      00FD439AH   LINE      ECODE    ---       #415
      00FD43A3H   LINE      ECODE    ---       #416
      00FD43A3H   LINE      ECODE    ---       #417
      00FD43B1H   LINE      ECODE    ---       #418
      ---         BLOCKEND  ---      ---       LVL=0

      ---         MODULE    ---      ---       zf_driver_pit
      00FDD4DAH   PUBLIC    ECODE    ---       pit_init?
      00011885H   PUBLIC    XDATA    ---       tim_irq_handlers
      0001216FH   PUBLIC    XDATA    BYTE      ?pit_init??BYTE
      000000D0H   SFRSYM    DATA     BYTE      PSW
      0000009DH   SFRSYM    DATA     BYTE      IRCBAND
      00000097H   SFRSYM    DATA     BYTE      AUXR2
      000000EAH   SFRSYM    DATA     BYTE      CKCON
      000000EFH   SFRSYM    DATA     BYTE      AUXINTIF
      000000FDH   SFRSYM    DATA     BYTE      S4CON
      000000ACH   SFRSYM    DATA     BYTE      S3CON
      0000009AH   SFRSYM    DATA     BYTE      S2CON
      000000B7H   SFRSYM    DATA     BYTE      IPH
      000000CDH   SFRSYM    DATA     BYTE      SPSTAT
      000000DDH   SFRSYM    DATA     BYTE      T4T3M
      000000C1H   SFRSYM    DATA     BYTE      WDT_CONTR
      00000088H.6 SFRSYM    DATA     BIT       TR1
      00000088H.4 SFRSYM    DATA     BIT       TR0
      000000D3H   SFRSYM    DATA     BYTE      T4L
      000000D5H   SFRSYM    DATA     BYTE      T3L
      000000D7H   SFRSYM    DATA     BYTE      T2L
      0000008BH   SFRSYM    DATA     BYTE      TL1
      0000008AH   SFRSYM    DATA     BYTE      TL0
      000000D2H   SFRSYM    DATA     BYTE      T4H
      000000D4H   SFRSYM    DATA     BYTE      T3H
      000000D6H   SFRSYM    DATA     BYTE      T2H
      0000008DH   SFRSYM    DATA     BYTE      TH1
L251 LINKER/LOCATER V4.66.93.0                                                        03/25/2026  13:05:55  PAGE 73


      0000008CH   SFRSYM    DATA     BYTE      TH0
      000000DFH   SFRSYM    DATA     BYTE      IP3
      000000F4H   SFRSYM    DATA     BYTE      USBCON
      000000B5H   SFRSYM    DATA     BYTE      IP2
      000000FFH   SFRSYM    DATA     BYTE      RSTCFG
      000000A8H.3 SFRSYM    DATA     BIT       ET1
      000000A8H.1 SFRSYM    DATA     BIT       ET0
      000000E0H   SFRSYM    DATA     BYTE      ACC
      000000C7H   SFRSYM    DATA     BYTE      IAP_CONTR
      000000F9H   SFRSYM    DATA     BYTE      LINICR
      0000008EH   SFRSYM    DATA     BYTE      AUXR
      000000F0H   SFRSYM    DATA     BYTE      B
      000000AFH   SFRSYM    DATA     BYTE      IE2
      00000088H   SFRSYM    DATA     BYTE      TCON
      00000089H   SFRSYM    DATA     BYTE      TMOD
      00000098H   SFRSYM    DATA     BYTE      SCON
      00000087H   SFRSYM    DATA     BYTE      PCON
      000000BCH   SFRSYM    DATA     BYTE      ADC_CONTR
      000000D1H   SFRSYM    DATA     BYTE      PSW1
      000000E7H   SFRSYM    DATA     BYTE      CMPCR2
      000000E6H   SFRSYM    DATA     BYTE      CMPCR1
      000000DEH   SFRSYM    DATA     BYTE      ADCCFG
      000000B8H   SFRSYM    DATA     BYTE      IP
      0000008FH   SFRSYM    DATA     BYTE      INTCLKO
      000000EEH   SFRSYM    DATA     BYTE      IP3H
      000000B6H   SFRSYM    DATA     BYTE      IP2H
      000000BFH   SFRSYM    DATA     BYTE      P_SW4
      000000A8H   SFRSYM    DATA     BYTE      IE
      000000BBH   SFRSYM    DATA     BYTE      P_SW3
      000000BAH   SFRSYM    DATA     BYTE      P_SW2
      000000A2H   SFRSYM    DATA     BYTE      P_SW1
      000000CEH   SFRSYM    DATA     BYTE      SPCTL
      000000F8H   SFRSYM    DATA     BYTE      P7
      000000E8H   SFRSYM    DATA     BYTE      P6
      000000C8H   SFRSYM    DATA     BYTE      P5
      000000C0H   SFRSYM    DATA     BYTE      P4
      000000ABH   SFRSYM    DATA     BYTE      WKTCH
      000000B0H   SFRSYM    DATA     BYTE      P3
      000000A0H   SFRSYM    DATA     BYTE      P2
      00000090H   SFRSYM    DATA     BYTE      P1
      00000080H   SFRSYM    DATA     BYTE      P0

      00FDD4DAH   BLOCK     ECODE    ---       LVL=0
      0001216FH   SYMBOL    XDATA    INT       pit_n
      00012171H   SYMBOL    XDATA    DWORD     period
      00012175H   SYMBOL    XDATA    ---       pit_handler
      00FDD4EAH   BLOCK     ECODE    NEAR LAB  LVL=1
      00012179H   SYMBOL    XDATA    BYTE      freq_div
      0001217AH   SYMBOL    XDATA    WORD      period_temp
      0001217CH   SYMBOL    XDATA    WORD      temp
      ---         BLOCKEND  ---      ---       LVL=1
      00FDD4DAH   LINE      ECODE    ---       #54
      00FDD4EAH   LINE      ECODE    ---       #55
      00FDD4EAH   LINE      ECODE    ---       #56
      00FDD4EFH   LINE      ECODE    ---       #57
      00FDD4F7H   LINE      ECODE    ---       #58
      00FDD4FFH   LINE      ECODE    ---       #64
      00FDD51DH   LINE      ECODE    ---       #66
      00FDD536H   LINE      ECODE    ---       #69
      00FDD54FH   LINE      ECODE    ---       #72
      00FDD590H   LINE      ECODE    ---       #74
      00FDD590H   LINE      ECODE    ---       #76
      00FDD593H   LINE      ECODE    ---       #77
      00FDD596H   LINE      ECODE    ---       #79
      00FDD596H   LINE      ECODE    ---       #81
L251 LINKER/LOCATER V4.66.93.0                                                        03/25/2026  13:05:55  PAGE 74


      00FDD599H   LINE      ECODE    ---       #82
      00FDD59CH   LINE      ECODE    ---       #84
      00FDD59CH   LINE      ECODE    ---       #86
      00FDD59FH   LINE      ECODE    ---       #87
      00FDD5A2H   LINE      ECODE    ---       #89
      00FDD5A2H   LINE      ECODE    ---       #91
      00FDD5A5H   LINE      ECODE    ---       #92
      00FDD5A8H   LINE      ECODE    ---       #94
      00FDD5A8H   LINE      ECODE    ---       #96
      00FDD5ABH   LINE      ECODE    ---       #97
      00FDD5AEH   LINE      ECODE    ---       #99
      00FDD5AEH   LINE      ECODE    ---       #101
      00FDD5C0H   LINE      ECODE    ---       #102
      00FDD5C3H   LINE      ECODE    ---       #104
      00FDD5C3H   LINE      ECODE    ---       #106
      00FDD5D5H   LINE      ECODE    ---       #107
      00FDD5D8H   LINE      ECODE    ---       #109
      00FDD5D8H   LINE      ECODE    ---       #111
      00FDD5EAH   LINE      ECODE    ---       #112
      00FDD5EDH   LINE      ECODE    ---       #114
      00FDD5EDH   LINE      ECODE    ---       #116
      00FDD5FFH   LINE      ECODE    ---       #117
      00FDD602H   LINE      ECODE    ---       #119
      00FDD602H   LINE      ECODE    ---       #121
      00FDD614H   LINE      ECODE    ---       #122
      00FDD617H   LINE      ECODE    ---       #124
      00FDD617H   LINE      ECODE    ---       #126
      00FDD629H   LINE      ECODE    ---       #127
      00FDD62CH   LINE      ECODE    ---       #129
      00FDD62CH   LINE      ECODE    ---       #131
      00FDD63EH   LINE      ECODE    ---       #132
      00FDD641H   LINE      ECODE    ---       #135
      00FDD641H   LINE      ECODE    ---       #137
      00FDD653H   LINE      ECODE    ---       #138
      00FDD656H   LINE      ECODE    ---       #140
      00FDD656H   LINE      ECODE    ---       #142
      00FDD668H   LINE      ECODE    ---       #143
      00FDD66BH   LINE      ECODE    ---       #147
      00FDD66BH   LINE      ECODE    ---       #149
      00FDD66BH   LINE      ECODE    ---       #151
      00FDD66BH   LINE      ECODE    ---       #152
      00FDD66BH   LINE      ECODE    ---       #156
      00FDD6ACH   LINE      ECODE    ---       #158
      00FDD6ACH   LINE      ECODE    ---       #160
      00FDD6AFH   LINE      ECODE    ---       #161
      00FDD6B2H   LINE      ECODE    ---       #163
      00FDD6B2H   LINE      ECODE    ---       #165
      00FDD6B5H   LINE      ECODE    ---       #166
      00FDD6B8H   LINE      ECODE    ---       #168
      00FDD6B8H   LINE      ECODE    ---       #170
      00FDD6BBH   LINE      ECODE    ---       #171
      00FDD6BEH   LINE      ECODE    ---       #173
      00FDD6BEH   LINE      ECODE    ---       #175
      00FDD6C1H   LINE      ECODE    ---       #176
      00FDD6C4H   LINE      ECODE    ---       #178
      00FDD6C4H   LINE      ECODE    ---       #180
      00FDD6C7H   LINE      ECODE    ---       #181
      00FDD6CAH   LINE      ECODE    ---       #183
      00FDD6CAH   LINE      ECODE    ---       #185
      00FDD6DCH   LINE      ECODE    ---       #186
      00FDD6DFH   LINE      ECODE    ---       #188
      00FDD6DFH   LINE      ECODE    ---       #190
      00FDD6F1H   LINE      ECODE    ---       #191
      00FDD6F4H   LINE      ECODE    ---       #193
      00FDD6F4H   LINE      ECODE    ---       #195
L251 LINKER/LOCATER V4.66.93.0                                                        03/25/2026  13:05:55  PAGE 75


      00FDD706H   LINE      ECODE    ---       #196
      00FDD708H   LINE      ECODE    ---       #198
      00FDD708H   LINE      ECODE    ---       #200
      00FDD71AH   LINE      ECODE    ---       #201
      00FDD71CH   LINE      ECODE    ---       #203
      00FDD71CH   LINE      ECODE    ---       #205
      00FDD72EH   LINE      ECODE    ---       #206
      00FDD730H   LINE      ECODE    ---       #208
      00FDD730H   LINE      ECODE    ---       #210
      00FDD742H   LINE      ECODE    ---       #211
      00FDD744H   LINE      ECODE    ---       #213
      00FDD744H   LINE      ECODE    ---       #215
      00FDD756H   LINE      ECODE    ---       #216
      00FDD758H   LINE      ECODE    ---       #219
      00FDD758H   LINE      ECODE    ---       #221
      00FDD76AH   LINE      ECODE    ---       #222
      00FDD76CH   LINE      ECODE    ---       #224
      00FDD76CH   LINE      ECODE    ---       #226
      00FDD77EH   LINE      ECODE    ---       #227
      00FDD77EH   LINE      ECODE    ---       #232
      00FDD77EH   LINE      ECODE    ---       #234
      00FDD77EH   LINE      ECODE    ---       #236
      00FDD77EH   LINE      ECODE    ---       #237
      00FDD77EH   LINE      ECODE    ---       #240
      00FDD78EH   LINE      ECODE    ---       #241
      00FDD7B0H   LINE      ECODE    ---       #242
      00FDD7C2H   LINE      ECODE    ---       #245
      00FDD803H   LINE      ECODE    ---       #247
      00FDD803H   LINE      ECODE    ---       #249
      00FDD812H   LINE      ECODE    ---       #250
      00FDD815H   LINE      ECODE    ---       #251
      00FDD81DH   LINE      ECODE    ---       #252
      00FDD829H   LINE      ECODE    ---       #253
      00FDD82CH   LINE      ECODE    ---       #254
      00FDD82FH   LINE      ECODE    ---       #255
      00FDD832H   LINE      ECODE    ---       #257
      00FDD832H   LINE      ECODE    ---       #259
      00FDD841H   LINE      ECODE    ---       #260
      00FDD845H   LINE      ECODE    ---       #261
      00FDD84DH   LINE      ECODE    ---       #262
      00FDD859H   LINE      ECODE    ---       #263
      00FDD85CH   LINE      ECODE    ---       #264
      00FDD85FH   LINE      ECODE    ---       #265
      00FDD862H   LINE      ECODE    ---       #267
      00FDD862H   LINE      ECODE    ---       #269
      00FDD871H   LINE      ECODE    ---       #270
      00FDD879H   LINE      ECODE    ---       #271
      00FDD885H   LINE      ECODE    ---       #272
      00FDD888H   LINE      ECODE    ---       #273
      00FDD88BH   LINE      ECODE    ---       #274
      00FDD88EH   LINE      ECODE    ---       #276
      00FDD88EH   LINE      ECODE    ---       #278
      00FDD89DH   LINE      ECODE    ---       #279
      00FDD8A5H   LINE      ECODE    ---       #280
      00FDD8B1H   LINE      ECODE    ---       #281
      00FDD8B4H   LINE      ECODE    ---       #282
      00FDD8B7H   LINE      ECODE    ---       #283
      00FDD8BAH   LINE      ECODE    ---       #285
      00FDD8BAH   LINE      ECODE    ---       #287
      00FDD8C9H   LINE      ECODE    ---       #288
      00FDD8D1H   LINE      ECODE    ---       #289
      00FDD8DDH   LINE      ECODE    ---       #290
      00FDD8E0H   LINE      ECODE    ---       #291
      00FDD8E3H   LINE      ECODE    ---       #292
      00FDD8E6H   LINE      ECODE    ---       #293
L251 LINKER/LOCATER V4.66.93.0                                                        03/25/2026  13:05:55  PAGE 76


      00FDD8E9H   LINE      ECODE    ---       #295
      00FDD8E9H   LINE      ECODE    ---       #297
      00FDD8F8H   LINE      ECODE    ---       #298
      00FDD909H   LINE      ECODE    ---       #299
      00FDD91EH   LINE      ECODE    ---       #300
      00FDD930H   LINE      ECODE    ---       #301
      00FDD942H   LINE      ECODE    ---       #302
      00FDD945H   LINE      ECODE    ---       #304
      00FDD945H   LINE      ECODE    ---       #306
      00FDD954H   LINE      ECODE    ---       #307
      00FDD965H   LINE      ECODE    ---       #308
      00FDD97AH   LINE      ECODE    ---       #309
      00FDD98CH   LINE      ECODE    ---       #310
      00FDD99EH   LINE      ECODE    ---       #311
      00FDD9A1H   LINE      ECODE    ---       #313
      00FDD9A1H   LINE      ECODE    ---       #315
      00FDD9B0H   LINE      ECODE    ---       #316
      00FDD9C1H   LINE      ECODE    ---       #317
      00FDD9D6H   LINE      ECODE    ---       #318
      00FDD9E8H   LINE      ECODE    ---       #319
      00FDD9FAH   LINE      ECODE    ---       #320
      00FDD9FDH   LINE      ECODE    ---       #322
      00FDD9FDH   LINE      ECODE    ---       #324
      00FDDA0CH   LINE      ECODE    ---       #325
      00FDDA1DH   LINE      ECODE    ---       #326
      00FDDA32H   LINE      ECODE    ---       #327
      00FDDA44H   LINE      ECODE    ---       #328
      00FDDA56H   LINE      ECODE    ---       #329
      00FDDA59H   LINE      ECODE    ---       #331
      00FDDA59H   LINE      ECODE    ---       #333
      00FDDA68H   LINE      ECODE    ---       #334
      00FDDA79H   LINE      ECODE    ---       #335
      00FDDA8EH   LINE      ECODE    ---       #336
      00FDDAA0H   LINE      ECODE    ---       #337
      00FDDAB2H   LINE      ECODE    ---       #338
      00FDDAB5H   LINE      ECODE    ---       #340
      00FDDAB5H   LINE      ECODE    ---       #342
      00FDDAC4H   LINE      ECODE    ---       #343
      00FDDAD5H   LINE      ECODE    ---       #344
      00FDDAEAH   LINE      ECODE    ---       #345
      00FDDAFCH   LINE      ECODE    ---       #346
      00FDDB0EH   LINE      ECODE    ---       #347
      00FDDB11H   LINE      ECODE    ---       #349
      00FDDB11H   LINE      ECODE    ---       #351
      00FDDB20H   LINE      ECODE    ---       #352
      00FDDB31H   LINE      ECODE    ---       #353
      00FDDB46H   LINE      ECODE    ---       #354
      00FDDB58H   LINE      ECODE    ---       #355
      00FDDB5BH   LINE      ECODE    ---       #357
      00FDDB5BH   LINE      ECODE    ---       #359
      00FDDB6AH   LINE      ECODE    ---       #360
      00FDDB7BH   LINE      ECODE    ---       #361
      00FDDB90H   LINE      ECODE    ---       #362
      00FDDBA2H   LINE      ECODE    ---       #363
      00FDDBB4H   LINE      ECODE    ---       #364
      00FDDBB6H   LINE      ECODE    ---       #366
      00FDDBB6H   LINE      ECODE    ---       #368
      00FDDBC5H   LINE      ECODE    ---       #369
      00FDDBD6H   LINE      ECODE    ---       #370
      00FDDBEBH   LINE      ECODE    ---       #371
      00FDDBFDH   LINE      ECODE    ---       #372
      00FDDC0FH   LINE      ECODE    ---       #373
      00FDDC0FH   LINE      ECODE    ---       #377
      00FDDC0FH   LINE      ECODE    ---       #379
      00FDDC0FH   LINE      ECODE    ---       #381
L251 LINKER/LOCATER V4.66.93.0                                                        03/25/2026  13:05:55  PAGE 77


      00FDDC0FH   LINE      ECODE    ---       #383
      00FDDC36H   LINE      ECODE    ---       #384
      ---         BLOCKEND  ---      ---       LVL=0

      ---         MODULE    ---      ---       zf_driver_pwm
      00FE4B0CH   PUBLIC    HCONST   ---       PWMX_BKR_ADDR
      00FE4B24H   PUBLIC    HCONST   ---       PWM_PSCR_ADDR
      00FE4B3CH   PUBLIC    HCONST   ---       PWMX_ENO_ADDR
      00FE4B54H   PUBLIC    HCONST   ---       PWM_CCR_ADDR
      00FE4BB4H   PUBLIC    HCONST   ---       PWM_ARR_ADDR
      00FE4BCCH   PUBLIC    HCONST   ---       PWMX_PS_ADDR
      00FE4BE4H   PUBLIC    HCONST   ---       PWMX_SMCR_ADDR
      00FE4BFCH   PUBLIC    HCONST   ---       PWMX_CNTR_ADDR
      00FE4C14H   PUBLIC    HCONST   ---       PWM_CCER_ADDR
      00FE4C44H   PUBLIC    HCONST   ---       PWMX_CR1_ADDR
      00FE4C5CH   PUBLIC    HCONST   ---       PWM_CCMR_ADDR
      00FDB09FH   PUBLIC    ECODE    ---       pwm_set_freq?
      00FDB387H   PUBLIC    ECODE    ---       pwm_set_duty?
      00FDB565H   PUBLIC    ECODE    ---       pwm_init?
      00011F4DH   PUBLIC    XDATA    BYTE      ?pwm_set_freq??BYTE
      0001205DH   PUBLIC    XDATA    BYTE      ?pwm_init??BYTE
      000000D0H   SFRSYM    DATA     BYTE      PSW
      0000009DH   SFRSYM    DATA     BYTE      IRCBAND
      00000097H   SFRSYM    DATA     BYTE      AUXR2
      000000EAH   SFRSYM    DATA     BYTE      CKCON
      000000EFH   SFRSYM    DATA     BYTE      AUXINTIF
      000000FDH   SFRSYM    DATA     BYTE      S4CON
      000000ACH   SFRSYM    DATA     BYTE      S3CON
      0000009AH   SFRSYM    DATA     BYTE      S2CON
      000000B7H   SFRSYM    DATA     BYTE      IPH
      000000CDH   SFRSYM    DATA     BYTE      SPSTAT
      000000DDH   SFRSYM    DATA     BYTE      T4T3M
      000000C1H   SFRSYM    DATA     BYTE      WDT_CONTR
      000000DFH   SFRSYM    DATA     BYTE      IP3
      000000F4H   SFRSYM    DATA     BYTE      USBCON
      000000B5H   SFRSYM    DATA     BYTE      IP2
      000000FFH   SFRSYM    DATA     BYTE      RSTCFG
      000000E0H   SFRSYM    DATA     BYTE      ACC
      000000C7H   SFRSYM    DATA     BYTE      IAP_CONTR
      000000F9H   SFRSYM    DATA     BYTE      LINICR
      0000008EH   SFRSYM    DATA     BYTE      AUXR
      000000F0H   SFRSYM    DATA     BYTE      B
      000000AFH   SFRSYM    DATA     BYTE      IE2
      00000088H   SFRSYM    DATA     BYTE      TCON
      00000089H   SFRSYM    DATA     BYTE      TMOD
      00000098H   SFRSYM    DATA     BYTE      SCON
      00000087H   SFRSYM    DATA     BYTE      PCON
      000000BCH   SFRSYM    DATA     BYTE      ADC_CONTR
      000000D1H   SFRSYM    DATA     BYTE      PSW1
      000000E7H   SFRSYM    DATA     BYTE      CMPCR2
      000000E6H   SFRSYM    DATA     BYTE      CMPCR1
      000000DEH   SFRSYM    DATA     BYTE      ADCCFG
      000000B8H   SFRSYM    DATA     BYTE      IP
      0000008FH   SFRSYM    DATA     BYTE      INTCLKO
      000000EEH   SFRSYM    DATA     BYTE      IP3H
      000000B6H   SFRSYM    DATA     BYTE      IP2H
      000000BFH   SFRSYM    DATA     BYTE      P_SW4
      000000A8H   SFRSYM    DATA     BYTE      IE
      000000BBH   SFRSYM    DATA     BYTE      P_SW3
      000000BAH   SFRSYM    DATA     BYTE      P_SW2
      000000A2H   SFRSYM    DATA     BYTE      P_SW1
      000000CEH   SFRSYM    DATA     BYTE      SPCTL
      000000F8H   SFRSYM    DATA     BYTE      P7
      000000E8H   SFRSYM    DATA     BYTE      P6
      000000C8H   SFRSYM    DATA     BYTE      P5
L251 LINKER/LOCATER V4.66.93.0                                                        03/25/2026  13:05:55  PAGE 78


      000000C0H   SFRSYM    DATA     BYTE      P4
      000000ABH   SFRSYM    DATA     BYTE      WKTCH
      000000B0H   SFRSYM    DATA     BYTE      P3
      000000A0H   SFRSYM    DATA     BYTE      P2
      00000090H   SFRSYM    DATA     BYTE      P1
      00000080H   SFRSYM    DATA     BYTE      P0

      00FDB09FH   BLOCK     ECODE    ---       LVL=0
      00011F4DH   SYMBOL    XDATA    INT       pin
      00011F4FH   SYMBOL    XDATA    DWORD     freq
      00011F53H   SYMBOL    XDATA    DWORD     duty
      00FDB0AFH   BLOCK     ECODE    NEAR LAB  LVL=1
      00011F57H   SYMBOL    XDATA    DWORD     match_temp
      00011F5BH   SYMBOL    XDATA    DWORD     period_temp
      00011F5FH   SYMBOL    XDATA    WORD      freq_div
      ---         BLOCKEND  ---      ---       LVL=1
      00FDB09FH   LINE      ECODE    ---       #175
      00FDB0AFH   LINE      ECODE    ---       #176
      00FDB0AFH   LINE      ECODE    ---       #177
      00FDB0BBH   LINE      ECODE    ---       #178
      00FDB0C7H   LINE      ECODE    ---       #179
      00FDB0CFH   LINE      ECODE    ---       #182
      00FDB0F4H   LINE      ECODE    ---       #185
      00FDB116H   LINE      ECODE    ---       #186
      00FDB138H   LINE      ECODE    ---       #187
      00FDB162H   LINE      ECODE    ---       #189
      00FDB172H   LINE      ECODE    ---       #191
      00FDB1B0H   LINE      ECODE    ---       #192
      00FDB1B2H   LINE      ECODE    ---       #195
      00FDB1CCH   LINE      ECODE    ---       #196
      00FDB1CCH   LINE      ECODE    ---       #198
      00FDB207H   LINE      ECODE    ---       #199
      00FDB246H   LINE      ECODE    ---       #201
      00FDB281H   LINE      ECODE    ---       #202
      00FDB2C4H   LINE      ECODE    ---       #204
      00FDB321H   LINE      ECODE    ---       #205
      00FDB386H   LINE      ECODE    ---       #206
      ---         BLOCKEND  ---      ---       LVL=0

      00FDB387H   BLOCK     ECODE    ---       LVL=0
      0001221FH   SYMBOL    XDATA    INT       pin
      00012221H   SYMBOL    XDATA    DWORD     duty
      00FDB397H   BLOCK     ECODE    NEAR LAB  LVL=1
      00012225H   SYMBOL    XDATA    DWORD     match_temp
      00012229H   SYMBOL    XDATA    DWORD     arr
      ---         BLOCKEND  ---      ---       LVL=1
      00FDB387H   LINE      ECODE    ---       #216
      00FDB397H   LINE      ECODE    ---       #217
      00FDB397H   LINE      ECODE    ---       #219
      00FDB413H   LINE      ECODE    ---       #222
      00FDB438H   LINE      ECODE    ---       #224
      00FDB448H   LINE      ECODE    ---       #226
      00FDB486H   LINE      ECODE    ---       #227
      00FDB488H   LINE      ECODE    ---       #230
      00FDB4A2H   LINE      ECODE    ---       #231
      00FDB4A2H   LINE      ECODE    ---       #234
      00FDB4FFH   LINE      ECODE    ---       #235
      00FDB564H   LINE      ECODE    ---       #237
      ---         BLOCKEND  ---      ---       LVL=0

      00FDB565H   BLOCK     ECODE    ---       LVL=0
      0001205DH   SYMBOL    XDATA    INT       pin
      0001205FH   SYMBOL    XDATA    DWORD     freq
      00012063H   SYMBOL    XDATA    DWORD     duty
      00FDB575H   BLOCK     ECODE    NEAR LAB  LVL=1
L251 LINKER/LOCATER V4.66.93.0                                                        03/25/2026  13:05:55  PAGE 79


      00012067H   SYMBOL    XDATA    WORD      match_temp
      00012069H   SYMBOL    XDATA    DWORD     period_temp
      0001206DH   SYMBOL    XDATA    WORD      freq_div
      ---         BLOCKEND  ---      ---       LVL=1
      00FDB565H   LINE      ECODE    ---       #248
      00FDB575H   LINE      ECODE    ---       #249
      00FDB575H   LINE      ECODE    ---       #251
      00FDB57DH   LINE      ECODE    ---       #252
      00FDB589H   LINE      ECODE    ---       #253
      00FDB591H   LINE      ECODE    ---       #256
      00FDB5B6H   LINE      ECODE    ---       #258
      00FDB5D0H   LINE      ECODE    ---       #261
      00FDB5F2H   LINE      ECODE    ---       #262
      00FDB614H   LINE      ECODE    ---       #263
      00FDB63EH   LINE      ECODE    ---       #265
      00FDB64EH   LINE      ECODE    ---       #267
      00FDB688H   LINE      ECODE    ---       #268
      00FDB68AH   LINE      ECODE    ---       #271
      00FDB6A2H   LINE      ECODE    ---       #272
      00FDB6A2H   LINE      ECODE    ---       #275
      00FDB6DDH   LINE      ECODE    ---       #276
      00FDB71CH   LINE      ECODE    ---       #278
      00FDB757H   LINE      ECODE    ---       #279
      00FDB79AH   LINE      ECODE    ---       #281
      00FDB7F7H   LINE      ECODE    ---       #282
      00FDB858H   LINE      ECODE    ---       #284
      00FDB8D5H   LINE      ECODE    ---       #285
      00FDB92EH   LINE      ECODE    ---       #286
      00FDB987H   LINE      ECODE    ---       #288
      00FDB9F6H   LINE      ECODE    ---       #289
      00FDBA5BH   LINE      ECODE    ---       #290
      00FDBA92H   LINE      ECODE    ---       #291
      00FDBAC9H   LINE      ECODE    ---       #292
      ---         BLOCKEND  ---      ---       LVL=0

      ---         MODULE    ---      ---       zf_driver_soft_iic
      00FCB56FH   PUBLIC    ECODE    ---       soft_iic_wait_ack?
      00FCB3C4H   PUBLIC    ECODE    ---       soft_iic_stop?
      00FCBBA8H   PUBLIC    ECODE    ---       soft_iic_write_8bit_register?
      00FCC5E6H   PUBLIC    ECODE    ---       soft_iic_read_16bit_registers?
      00FCCBAEH   PUBLIC    ECODE    ---       soft_iic_sccb_read_register?
      00FCC4C5H   PUBLIC    ECODE    ---       soft_iic_read_16bit_register?
      00FCC918H   PUBLIC    ECODE    ---       soft_iic_transfer_16bit_array?
      00FCBE13H   PUBLIC    ECODE    ---       soft_iic_write_16bit_registers?
      00FCCB17H   PUBLIC    ECODE    ---       soft_iic_sccb_write_register?
      00FCBF4BH   PUBLIC    ECODE    ---       soft_iic_read_8bit?
      00FCBFD5H   PUBLIC    ECODE    ---       soft_iic_read_8bit_array?
      00FCBD2EH   PUBLIC    ECODE    ---       soft_iic_write_16bit_register?
      00FCB8A5H   PUBLIC    ECODE    ---       soft_iic_write_8bit?
      00FCB924H   PUBLIC    ECODE    ---       soft_iic_write_8bit_array?
      00FCB2DAH   PUBLIC    ECODE    ---       soft_iic_delay?
      00FCB757H   PUBLIC    ECODE    ---       soft_iic_read_data?
      00FCC0D2H   PUBLIC    ECODE    ---       soft_iic_read_16bit?
      00FCB65BH   PUBLIC    ECODE    ---       soft_iic_send_data?
      00FCC188H   PUBLIC    ECODE    ---       soft_iic_read_16bit_array?
      00FCB316H   PUBLIC    ECODE    ---       soft_iic_start?
      00FCCC89H   PUBLIC    ECODE    ---       soft_iic_init?
      00FCC385H   PUBLIC    ECODE    ---       soft_iic_read_8bit_registers?
      00FCB9FDH   PUBLIC    ECODE    ---       soft_iic_write_16bit?
      00FCBAA4H   PUBLIC    ECODE    ---       soft_iic_write_16bit_array?
      00FCB48BH   PUBLIC    ECODE    ---       soft_iic_send_ack?
      00FCC2B8H   PUBLIC    ECODE    ---       soft_iic_read_8bit_register?
      00FCC777H   PUBLIC    ECODE    ---       soft_iic_transfer_8bit_array?
      00FCBC3FH   PUBLIC    ECODE    ---       soft_iic_write_8bit_registers?
      00012349H   PUBLIC    XDATA    BYTE      ?soft_iic_write_8bit_array??BYTE
L251 LINKER/LOCATER V4.66.93.0                                                        03/25/2026  13:05:55  PAGE 80


      00012355H   PUBLIC    XDATA    BYTE      ?soft_iic_write_16bit_array??BYTE
      000122D4H   PUBLIC    XDATA    BYTE      ?soft_iic_write_8bit_registers??BYTE
      0001222DH   PUBLIC    XDATA    BYTE      ?soft_iic_write_16bit_registers??BYTE
      00012361H   PUBLIC    XDATA    BYTE      ?soft_iic_read_8bit_array??BYTE
      0001236DH   PUBLIC    XDATA    BYTE      ?soft_iic_read_16bit_array??BYTE
      000122E1H   PUBLIC    XDATA    BYTE      ?soft_iic_read_8bit_registers??BYTE
      0001223BH   PUBLIC    XDATA    BYTE      ?soft_iic_read_16bit_registers??BYTE
      00011F61H   PUBLIC    XDATA    BYTE      ?soft_iic_transfer_8bit_array??BYTE
      00011F75H   PUBLIC    XDATA    BYTE      ?soft_iic_transfer_16bit_array??BYTE
      000122EEH   PUBLIC    XDATA    BYTE      ?soft_iic_init??BYTE
      000000D0H   SFRSYM    DATA     BYTE      PSW
      0000009DH   SFRSYM    DATA     BYTE      IRCBAND
      00000097H   SFRSYM    DATA     BYTE      AUXR2
      000000EAH   SFRSYM    DATA     BYTE      CKCON
      000000EFH   SFRSYM    DATA     BYTE      AUXINTIF
      000000FDH   SFRSYM    DATA     BYTE      S4CON
      000000ACH   SFRSYM    DATA     BYTE      S3CON
      0000009AH   SFRSYM    DATA     BYTE      S2CON
      000000B7H   SFRSYM    DATA     BYTE      IPH
      000000CDH   SFRSYM    DATA     BYTE      SPSTAT
      000000DDH   SFRSYM    DATA     BYTE      T4T3M
      000000C1H   SFRSYM    DATA     BYTE      WDT_CONTR
      000000DFH   SFRSYM    DATA     BYTE      IP3
      000000F4H   SFRSYM    DATA     BYTE      USBCON
      000000B5H   SFRSYM    DATA     BYTE      IP2
      000000FFH   SFRSYM    DATA     BYTE      RSTCFG
      000000E0H   SFRSYM    DATA     BYTE      ACC
      000000C7H   SFRSYM    DATA     BYTE      IAP_CONTR
      000000F9H   SFRSYM    DATA     BYTE      LINICR
      0000008EH   SFRSYM    DATA     BYTE      AUXR
      000000F0H   SFRSYM    DATA     BYTE      B
      000000AFH   SFRSYM    DATA     BYTE      IE2
      00000088H   SFRSYM    DATA     BYTE      TCON
      00000089H   SFRSYM    DATA     BYTE      TMOD
      00000098H   SFRSYM    DATA     BYTE      SCON
      00000087H   SFRSYM    DATA     BYTE      PCON
      000000BCH   SFRSYM    DATA     BYTE      ADC_CONTR
      000000D1H   SFRSYM    DATA     BYTE      PSW1
      000000E7H   SFRSYM    DATA     BYTE      CMPCR2
      000000E6H   SFRSYM    DATA     BYTE      CMPCR1
      000000DEH   SFRSYM    DATA     BYTE      ADCCFG
      000000B8H   SFRSYM    DATA     BYTE      IP
      0000008FH   SFRSYM    DATA     BYTE      INTCLKO
      000000EEH   SFRSYM    DATA     BYTE      IP3H
      000000B6H   SFRSYM    DATA     BYTE      IP2H
      000000BFH   SFRSYM    DATA     BYTE      P_SW4
      000000A8H   SFRSYM    DATA     BYTE      IE
      000000BBH   SFRSYM    DATA     BYTE      P_SW3
      000000BAH   SFRSYM    DATA     BYTE      P_SW2
      000000A2H   SFRSYM    DATA     BYTE      P_SW1
      000000CEH   SFRSYM    DATA     BYTE      SPCTL
      000000F8H   SFRSYM    DATA     BYTE      P7
      000000E8H   SFRSYM    DATA     BYTE      P6
      000000C8H   SFRSYM    DATA     BYTE      P5
      000000C0H   SFRSYM    DATA     BYTE      P4
      000000ABH   SFRSYM    DATA     BYTE      WKTCH
      000000B0H   SFRSYM    DATA     BYTE      P3
      000000A0H   SFRSYM    DATA     BYTE      P2
      00000090H   SFRSYM    DATA     BYTE      P1
      00000080H   SFRSYM    DATA     BYTE      P0

      00FCB2DAH   BLOCK     ECODE    ---       LVL=0
      000126DCH   SYMBOL    XDATA    DWORD     delay
      00FCB2E4H   BLOCK     ECODE    NEAR LAB  LVL=1
      000126E0H   SYMBOL    XDATA    DWORD     count
L251 LINKER/LOCATER V4.66.93.0                                                        03/25/2026  13:05:55  PAGE 81


      ---         BLOCKEND  ---      ---       LVL=1
      00FCB2DAH   LINE      ECODE    ---       #51
      00FCB2E4H   LINE      ECODE    ---       #52
      00FCB2E4H   LINE      ECODE    ---       #53
      00FCB2F8H   LINE      ECODE    ---       #54
      00FCB315H   LINE      ECODE    ---       #55
      ---         BLOCKEND  ---      ---       LVL=0

      00FCB316H   BLOCK     ECODE    ---       LVL=0
      00012915H   SYMBOL    XDATA    ---       soft_iic_obj
      00FCB316H   LINE      ECODE    ---       #65
      00FCB320H   LINE      ECODE    ---       #67
      00FCB343H   LINE      ECODE    ---       #68
      00FCB356H   LINE      ECODE    ---       #69
      00FCB36BH   LINE      ECODE    ---       #71
      00FCB384H   LINE      ECODE    ---       #72
      00FCB398H   LINE      ECODE    ---       #73
      00FCB3B1H   LINE      ECODE    ---       #74
      00FCB3C3H   LINE      ECODE    ---       #75
      ---         BLOCKEND  ---      ---       LVL=0

      00FCB3C4H   BLOCK     ECODE    ---       LVL=0
      00012919H   SYMBOL    XDATA    ---       soft_iic_obj
      00FCB3C4H   LINE      ECODE    ---       #84
      00FCB3CEH   LINE      ECODE    ---       #86
      00FCB3F1H   LINE      ECODE    ---       #87
      00FCB405H   LINE      ECODE    ---       #88
      00FCB417H   LINE      ECODE    ---       #90
      00FCB430H   LINE      ECODE    ---       #91
      00FCB443H   LINE      ECODE    ---       #92
      00FCB45CH   LINE      ECODE    ---       #93
      00FCB471H   LINE      ECODE    ---       #94
      00FCB48AH   LINE      ECODE    ---       #95
      ---         BLOCKEND  ---      ---       LVL=0

      00FCB48BH   BLOCK     ECODE    ---       LVL=0
      000128A7H   SYMBOL    XDATA    ---       soft_iic_obj
      000128ABH   SYMBOL    XDATA    BYTE      ack
      00FCB48BH   LINE      ECODE    ---       #105
      00FCB499H   LINE      ECODE    ---       #107
      00FCB4BCH   LINE      ECODE    ---       #108
      00FCB4CEH   LINE      ECODE    ---       #110
      00FCB4D7H   LINE      ECODE    ---       #112
      00FCB4ECH   LINE      ECODE    ---       #113
      00FCB4EEH   LINE      ECODE    ---       #116
      00FCB502H   LINE      ECODE    ---       #117
      00FCB502H   LINE      ECODE    ---       #119
      00FCB51BH   LINE      ECODE    ---       #120
      00FCB52EH   LINE      ECODE    ---       #121
      00FCB547H   LINE      ECODE    ---       #122
      00FCB559H   LINE      ECODE    ---       #123
      00FCB56EH   LINE      ECODE    ---       #124
      ---         BLOCKEND  ---      ---       LVL=0

      00FCB56FH   BLOCK     ECODE    ---       LVL=0
      000128ACH   SYMBOL    XDATA    ---       soft_iic_obj
      00FCB579H   BLOCK     ECODE    NEAR LAB  LVL=1
      000128B0H   SYMBOL    XDATA    BYTE      temp
      ---         BLOCKEND  ---      ---       LVL=1
      00FCB56FH   LINE      ECODE    ---       #133
      00FCB579H   LINE      ECODE    ---       #134
      00FCB579H   LINE      ECODE    ---       #135
      00FCB57EH   LINE      ECODE    ---       #136
      00FCB5A1H   LINE      ECODE    ---       #138
      00FCB5B3H   LINE      ECODE    ---       #139
L251 LINKER/LOCATER V4.66.93.0                                                        03/25/2026  13:05:55  PAGE 82


      00FCB5C8H   LINE      ECODE    ---       #143
      00FCB5E1H   LINE      ECODE    ---       #145
      00FCB5F4H   LINE      ECODE    ---       #146
      00FCB60DH   LINE      ECODE    ---       #148
      00FCB625H   LINE      ECODE    ---       #150
      00FCB62BH   LINE      ECODE    ---       #151
      00FCB62BH   LINE      ECODE    ---       #152
      00FCB63DH   LINE      ECODE    ---       #156
      00FCB656H   LINE      ECODE    ---       #158
      00FCB65AH   LINE      ECODE    ---       #159
      ---         BLOCKEND  ---      ---       LVL=0

      00FCB65BH   BLOCK     ECODE    ---       LVL=0
      000127E6H   SYMBOL    XDATA    ---       soft_iic_obj
      000127EAH   SYMBOL    XDATA    BYTE      dat
      00FCB669H   BLOCK     ECODE    NEAR LAB  LVL=1
      000127EBH   SYMBOL    XDATA    BYTE      temp
      ---         BLOCKEND  ---      ---       LVL=1
      00FCB65BH   LINE      ECODE    ---       #168
      00FCB669H   LINE      ECODE    ---       #169
      00FCB669H   LINE      ECODE    ---       #170
      00FCB66FH   LINE      ECODE    ---       #172
      00FCB692H   LINE      ECODE    ---       #174
      00FCB695H   LINE      ECODE    ---       #177
      00FCB6D4H   LINE      ECODE    ---       #178
      00FCB6DBH   LINE      ECODE    ---       #180
      00FCB6F4H   LINE      ECODE    ---       #181
      00FCB707H   LINE      ECODE    ---       #182
      00FCB720H   LINE      ECODE    ---       #183
      00FCB732H   LINE      ECODE    ---       #184
      00FCB73EH   LINE      ECODE    ---       #185
      00FCB756H   LINE      ECODE    ---       #186
      ---         BLOCKEND  ---      ---       LVL=0

      00FCB757H   BLOCK     ECODE    ---       LVL=0
      0001277BH   SYMBOL    XDATA    ---       soft_iic_obj
      0001277FH   SYMBOL    XDATA    BYTE      ack
      00FCB765H   BLOCK     ECODE    NEAR LAB  LVL=1
      00012780H   SYMBOL    XDATA    BYTE      dat
      00012781H   SYMBOL    XDATA    BYTE      temp
      ---         BLOCKEND  ---      ---       LVL=1
      00FCB757H   LINE      ECODE    ---       #195
      00FCB765H   LINE      ECODE    ---       #196
      00FCB765H   LINE      ECODE    ---       #197
      00FCB76AH   LINE      ECODE    ---       #198
      00FCB770H   LINE      ECODE    ---       #199
      00FCB793H   LINE      ECODE    ---       #200
      00FCB7A5H   LINE      ECODE    ---       #201
      00FCB7BEH   LINE      ECODE    ---       #202
      00FCB7D3H   LINE      ECODE    ---       #207
      00FCB7D5H   LINE      ECODE    ---       #209
      00FCB7E7H   LINE      ECODE    ---       #210
      00FCB800H   LINE      ECODE    ---       #211
      00FCB813H   LINE      ECODE    ---       #212
      00FCB82CH   LINE      ECODE    ---       #213
      00FCB84DH   LINE      ECODE    ---       #214
      00FCB863H   LINE      ECODE    ---       #215
      00FCB875H   LINE      ECODE    ---       #219
      00FCB88EH   LINE      ECODE    ---       #220
      00FCB8A0H   LINE      ECODE    ---       #221
      00FCB8A4H   LINE      ECODE    ---       #222
      ---         BLOCKEND  ---      ---       LVL=0

      00FCB8A5H   BLOCK     ECODE    ---       LVL=0
      000128B1H   SYMBOL    XDATA    ---       soft_iic_obj
L251 LINKER/LOCATER V4.66.93.0                                                        03/25/2026  13:05:55  PAGE 83


      000128B5H   SYMBOL    XDATA    BYTE      dat
      00FCB8A5H   LINE      ECODE    ---       #232
      00FCB8B3H   LINE      ECODE    ---       #234
      00FCB8D6H   LINE      ECODE    ---       #235
      00FCB8E4H   LINE      ECODE    ---       #236
      00FCB903H   LINE      ECODE    ---       #237
      00FCB915H   LINE      ECODE    ---       #238
      00FCB923H   LINE      ECODE    ---       #239
      ---         BLOCKEND  ---      ---       LVL=0

      00FCB924H   BLOCK     ECODE    ---       LVL=0
      00012349H   SYMBOL    XDATA    ---       soft_iic_obj
      0001234DH   SYMBOL    XDATA    ---       dat
      00012351H   SYMBOL    XDATA    DWORD     len
      00FCB924H   LINE      ECODE    ---       #250
      00FCB938H   LINE      ECODE    ---       #252
      00FCB95BH   LINE      ECODE    ---       #253
      00FCB97EH   LINE      ECODE    ---       #254
      00FCB98CH   LINE      ECODE    ---       #255
      00FCB9ABH   LINE      ECODE    ---       #256
      00FCB9ADH   LINE      ECODE    ---       #258
      00FCB9D1H   LINE      ECODE    ---       #259
      00FCB9EEH   LINE      ECODE    ---       #260
      00FCB9FCH   LINE      ECODE    ---       #261
      ---         BLOCKEND  ---      ---       LVL=0

      00FCB9FDH   BLOCK     ECODE    ---       LVL=0
      000127ECH   SYMBOL    XDATA    ---       soft_iic_obj
      000127F0H   SYMBOL    XDATA    WORD      dat
      00FCB9FDH   LINE      ECODE    ---       #271
      00FCBA0DH   LINE      ECODE    ---       #273
      00FCBA30H   LINE      ECODE    ---       #274
      00FCBA3EH   LINE      ECODE    ---       #275
      00FCBA5DH   LINE      ECODE    ---       #276
      00FCBA7BH   LINE      ECODE    ---       #277
      00FCBA95H   LINE      ECODE    ---       #278
      00FCBAA3H   LINE      ECODE    ---       #279
      ---         BLOCKEND  ---      ---       LVL=0

      00FCBAA4H   BLOCK     ECODE    ---       LVL=0
      00012355H   SYMBOL    XDATA    ---       soft_iic_obj
      00012359H   SYMBOL    XDATA    ---       dat
      0001235DH   SYMBOL    XDATA    DWORD     len
      00FCBAA4H   LINE      ECODE    ---       #290
      00FCBAB8H   LINE      ECODE    ---       #292
      00FCBADBH   LINE      ECODE    ---       #293
      00FCBAFEH   LINE      ECODE    ---       #294
      00FCBB0CH   LINE      ECODE    ---       #295
      00FCBB2BH   LINE      ECODE    ---       #296
      00FCBB2DH   LINE      ECODE    ---       #298
      00FCBB52H   LINE      ECODE    ---       #299
      00FCBB7CH   LINE      ECODE    ---       #300
      00FCBB99H   LINE      ECODE    ---       #301
      00FCBBA7H   LINE      ECODE    ---       #302
      ---         BLOCKEND  ---      ---       LVL=0

      00FCBBA8H   BLOCK     ECODE    ---       LVL=0
      000127F2H   SYMBOL    XDATA    ---       soft_iic_obj
      000127F6H   SYMBOL    XDATA    BYTE      register_name
      000127F7H   SYMBOL    XDATA    BYTE      dat
      00FCBBA8H   LINE      ECODE    ---       #313
      00FCBBBCH   LINE      ECODE    ---       #315
      00FCBBDFH   LINE      ECODE    ---       #316
      00FCBBEDH   LINE      ECODE    ---       #317
      00FCBC0CH   LINE      ECODE    ---       #318
L251 LINKER/LOCATER V4.66.93.0                                                        03/25/2026  13:05:55  PAGE 84


      00FCBC1EH   LINE      ECODE    ---       #319
      00FCBC30H   LINE      ECODE    ---       #320
      00FCBC3EH   LINE      ECODE    ---       #321
      ---         BLOCKEND  ---      ---       LVL=0

      00FCBC3FH   BLOCK     ECODE    ---       LVL=0
      000122D4H   SYMBOL    XDATA    ---       soft_iic_obj
      000122D8H   SYMBOL    XDATA    BYTE      register_name
      000122D9H   SYMBOL    XDATA    ---       dat
      000122DDH   SYMBOL    XDATA    DWORD     len
      00FCBC3FH   LINE      ECODE    ---       #333
      00FCBC57H   LINE      ECODE    ---       #335
      00FCBC7AH   LINE      ECODE    ---       #336
      00FCBC9DH   LINE      ECODE    ---       #337
      00FCBCABH   LINE      ECODE    ---       #338
      00FCBCCAH   LINE      ECODE    ---       #339
      00FCBCDCH   LINE      ECODE    ---       #340
      00FCBCDEH   LINE      ECODE    ---       #342
      00FCBD02H   LINE      ECODE    ---       #343
      00FCBD1FH   LINE      ECODE    ---       #344
      00FCBD2DH   LINE      ECODE    ---       #345
      ---         BLOCKEND  ---      ---       LVL=0

      00FCBD2EH   BLOCK     ECODE    ---       LVL=0
      000126E4H   SYMBOL    XDATA    ---       soft_iic_obj
      000126E8H   SYMBOL    XDATA    WORD      register_name
      000126EAH   SYMBOL    XDATA    WORD      dat
      00FCBD2EH   LINE      ECODE    ---       #356
      00FCBD44H   LINE      ECODE    ---       #358
      00FCBD67H   LINE      ECODE    ---       #359
      00FCBD75H   LINE      ECODE    ---       #360
      00FCBD94H   LINE      ECODE    ---       #361
      00FCBDB2H   LINE      ECODE    ---       #362
      00FCBDCCH   LINE      ECODE    ---       #363
      00FCBDEAH   LINE      ECODE    ---       #364
      00FCBE04H   LINE      ECODE    ---       #365
      00FCBE12H   LINE      ECODE    ---       #366
      ---         BLOCKEND  ---      ---       LVL=0

      00FCBE13H   BLOCK     ECODE    ---       LVL=0
      0001222DH   SYMBOL    XDATA    ---       soft_iic_obj
      00012231H   SYMBOL    XDATA    WORD      register_name
      00012233H   SYMBOL    XDATA    ---       dat
      00012237H   SYMBOL    XDATA    DWORD     len
      00FCBE13H   LINE      ECODE    ---       #378
      00FCBE23H   LINE      ECODE    ---       #380
      00FCBE46H   LINE      ECODE    ---       #381
      00FCBE69H   LINE      ECODE    ---       #382
      00FCBE77H   LINE      ECODE    ---       #383
      00FCBE96H   LINE      ECODE    ---       #384
      00FCBEB4H   LINE      ECODE    ---       #385
      00FCBECEH   LINE      ECODE    ---       #386
      00FCBED0H   LINE      ECODE    ---       #388
      00FCBEF5H   LINE      ECODE    ---       #389
      00FCBF1FH   LINE      ECODE    ---       #390
      00FCBF3CH   LINE      ECODE    ---       #391
      00FCBF4AH   LINE      ECODE    ---       #392
      ---         BLOCKEND  ---      ---       LVL=0

      00FCBF4BH   BLOCK     ECODE    ---       LVL=0
      000128B6H   SYMBOL    XDATA    ---       soft_iic_obj
      00FCBF55H   BLOCK     ECODE    NEAR LAB  LVL=1
      000128BAH   SYMBOL    XDATA    BYTE      temp
      ---         BLOCKEND  ---      ---       LVL=1
      00FCBF4BH   LINE      ECODE    ---       #401
L251 LINKER/LOCATER V4.66.93.0                                                        03/25/2026  13:05:55  PAGE 85


      00FCBF55H   LINE      ECODE    ---       #402
      00FCBF55H   LINE      ECODE    ---       #403
      00FCBF5AH   LINE      ECODE    ---       #404
      00FCBF7DH   LINE      ECODE    ---       #405
      00FCBF8BH   LINE      ECODE    ---       #406
      00FCBFAEH   LINE      ECODE    ---       #407
      00FCBFC2H   LINE      ECODE    ---       #408
      00FCBFD0H   LINE      ECODE    ---       #409
      00FCBFD4H   LINE      ECODE    ---       #410
      ---         BLOCKEND  ---      ---       LVL=0

      00FCBFD5H   BLOCK     ECODE    ---       LVL=0
      00012361H   SYMBOL    XDATA    ---       soft_iic_obj
      00012365H   SYMBOL    XDATA    ---       dat
      00012369H   SYMBOL    XDATA    DWORD     len
      00FCBFD5H   LINE      ECODE    ---       #422
      00FCBFE9H   LINE      ECODE    ---       #424
      00FCC00CH   LINE      ECODE    ---       #425
      00FCC02FH   LINE      ECODE    ---       #426
      00FCC03DH   LINE      ECODE    ---       #427
      00FCC060H   LINE      ECODE    ---       #428
      00FCC062H   LINE      ECODE    ---       #430
      00FCC0A6H   LINE      ECODE    ---       #431
      00FCC0C3H   LINE      ECODE    ---       #432
      00FCC0D1H   LINE      ECODE    ---       #433
      ---         BLOCKEND  ---      ---       LVL=0

      00FCC0D2H   BLOCK     ECODE    ---       LVL=0
      000127F8H   SYMBOL    XDATA    ---       soft_iic_obj
      00FCC0DCH   BLOCK     ECODE    NEAR LAB  LVL=1
      000127FCH   SYMBOL    XDATA    WORD      temp
      ---         BLOCKEND  ---      ---       LVL=1
      00FCC0D2H   LINE      ECODE    ---       #443
      00FCC0DCH   LINE      ECODE    ---       #444
      00FCC0DCH   LINE      ECODE    ---       #445
      00FCC0E4H   LINE      ECODE    ---       #446
      00FCC107H   LINE      ECODE    ---       #447
      00FCC115H   LINE      ECODE    ---       #448
      00FCC138H   LINE      ECODE    ---       #449
      00FCC14FH   LINE      ECODE    ---       #450
      00FCC173H   LINE      ECODE    ---       #451
      00FCC181H   LINE      ECODE    ---       #452
      00FCC187H   LINE      ECODE    ---       #453
      ---         BLOCKEND  ---      ---       LVL=0

      00FCC188H   BLOCK     ECODE    ---       LVL=0
      0001236DH   SYMBOL    XDATA    ---       soft_iic_obj
      00012371H   SYMBOL    XDATA    ---       dat
      00012375H   SYMBOL    XDATA    DWORD     len
      00FCC188H   LINE      ECODE    ---       #464
      00FCC19CH   LINE      ECODE    ---       #466
      00FCC1BFH   LINE      ECODE    ---       #467
      00FCC1E2H   LINE      ECODE    ---       #468
      00FCC1F0H   LINE      ECODE    ---       #469
      00FCC213H   LINE      ECODE    ---       #470
      00FCC215H   LINE      ECODE    ---       #472
      00FCC233H   LINE      ECODE    ---       #473
      00FCC276H   LINE      ECODE    ---       #474
      00FCC289H   LINE      ECODE    ---       #475
      00FCC2A9H   LINE      ECODE    ---       #476
      00FCC2B7H   LINE      ECODE    ---       #477
      ---         BLOCKEND  ---      ---       LVL=0

      00FCC2B8H   BLOCK     ECODE    ---       LVL=0
      000127FEH   SYMBOL    XDATA    ---       soft_iic_obj
L251 LINKER/LOCATER V4.66.93.0                                                        03/25/2026  13:05:55  PAGE 86


      00012802H   SYMBOL    XDATA    BYTE      register_name
      00FCC2C6H   BLOCK     ECODE    NEAR LAB  LVL=1
      00012803H   SYMBOL    XDATA    BYTE      temp
      ---         BLOCKEND  ---      ---       LVL=1
      00FCC2B8H   LINE      ECODE    ---       #487
      00FCC2C6H   LINE      ECODE    ---       #488
      00FCC2C6H   LINE      ECODE    ---       #489
      00FCC2CBH   LINE      ECODE    ---       #490
      00FCC2EEH   LINE      ECODE    ---       #491
      00FCC2FCH   LINE      ECODE    ---       #492
      00FCC31BH   LINE      ECODE    ---       #493
      00FCC32DH   LINE      ECODE    ---       #494
      00FCC33BH   LINE      ECODE    ---       #495
      00FCC35EH   LINE      ECODE    ---       #496
      00FCC372H   LINE      ECODE    ---       #497
      00FCC380H   LINE      ECODE    ---       #498
      00FCC384H   LINE      ECODE    ---       #499
      ---         BLOCKEND  ---      ---       LVL=0

      00FCC385H   BLOCK     ECODE    ---       LVL=0
      000122E1H   SYMBOL    XDATA    ---       soft_iic_obj
      000122E5H   SYMBOL    XDATA    BYTE      register_name
      000122E6H   SYMBOL    XDATA    ---       dat
      000122EAH   SYMBOL    XDATA    DWORD     len
      00FCC385H   LINE      ECODE    ---       #511
      00FCC39DH   LINE      ECODE    ---       #513
      00FCC3C0H   LINE      ECODE    ---       #514
      00FCC3E3H   LINE      ECODE    ---       #515
      00FCC3F1H   LINE      ECODE    ---       #516
      00FCC410H   LINE      ECODE    ---       #517
      00FCC422H   LINE      ECODE    ---       #518
      00FCC430H   LINE      ECODE    ---       #519
      00FCC453H   LINE      ECODE    ---       #520
      00FCC455H   LINE      ECODE    ---       #522
      00FCC499H   LINE      ECODE    ---       #523
      00FCC4B6H   LINE      ECODE    ---       #524
      00FCC4C4H   LINE      ECODE    ---       #525
      ---         BLOCKEND  ---      ---       LVL=0

      00FCC4C5H   BLOCK     ECODE    ---       LVL=0
      000126ECH   SYMBOL    XDATA    ---       soft_iic_obj
      000126F0H   SYMBOL    XDATA    WORD      register_name
      00FCC4D5H   BLOCK     ECODE    NEAR LAB  LVL=1
      000126F2H   SYMBOL    XDATA    WORD      temp
      ---         BLOCKEND  ---      ---       LVL=1
      00FCC4C5H   LINE      ECODE    ---       #535
      00FCC4D5H   LINE      ECODE    ---       #536
      00FCC4D5H   LINE      ECODE    ---       #537
      00FCC4DDH   LINE      ECODE    ---       #538
      00FCC500H   LINE      ECODE    ---       #539
      00FCC50EH   LINE      ECODE    ---       #540
      00FCC52DH   LINE      ECODE    ---       #541
      00FCC54BH   LINE      ECODE    ---       #542
      00FCC565H   LINE      ECODE    ---       #543
      00FCC573H   LINE      ECODE    ---       #544
      00FCC596H   LINE      ECODE    ---       #545
      00FCC5ADH   LINE      ECODE    ---       #546
      00FCC5D1H   LINE      ECODE    ---       #547
      00FCC5DFH   LINE      ECODE    ---       #548
      00FCC5E5H   LINE      ECODE    ---       #549
      ---         BLOCKEND  ---      ---       LVL=0

      00FCC5E6H   BLOCK     ECODE    ---       LVL=0
      0001223BH   SYMBOL    XDATA    ---       soft_iic_obj
      0001223FH   SYMBOL    XDATA    WORD      register_name
L251 LINKER/LOCATER V4.66.93.0                                                        03/25/2026  13:05:55  PAGE 87


      00012241H   SYMBOL    XDATA    ---       dat
      00012245H   SYMBOL    XDATA    DWORD     len
      00FCC5E6H   LINE      ECODE    ---       #561
      00FCC5F6H   LINE      ECODE    ---       #563
      00FCC619H   LINE      ECODE    ---       #564
      00FCC63CH   LINE      ECODE    ---       #565
      00FCC64AH   LINE      ECODE    ---       #566
      00FCC669H   LINE      ECODE    ---       #567
      00FCC687H   LINE      ECODE    ---       #568
      00FCC6A1H   LINE      ECODE    ---       #569
      00FCC6AFH   LINE      ECODE    ---       #570
      00FCC6D2H   LINE      ECODE    ---       #571
      00FCC6D4H   LINE      ECODE    ---       #573
      00FCC6F2H   LINE      ECODE    ---       #574
      00FCC735H   LINE      ECODE    ---       #575
      00FCC748H   LINE      ECODE    ---       #576
      00FCC768H   LINE      ECODE    ---       #577
      00FCC776H   LINE      ECODE    ---       #578
      ---         BLOCKEND  ---      ---       LVL=0

      00FCC777H   BLOCK     ECODE    ---       LVL=0
      00011F61H   SYMBOL    XDATA    ---       soft_iic_obj
      00011F65H   SYMBOL    XDATA    ---       write_data
      00011F69H   SYMBOL    XDATA    DWORD     write_len
      00011F6DH   SYMBOL    XDATA    ---       read_data
      00011F71H   SYMBOL    XDATA    DWORD     read_len
      00FCC777H   LINE      ECODE    ---       #591
      00FCC78BH   LINE      ECODE    ---       #593
      00FCC7AEH   LINE      ECODE    ---       #594
      00FCC7D1H   LINE      ECODE    ---       #595
      00FCC7F4H   LINE      ECODE    ---       #596
      00FCC802H   LINE      ECODE    ---       #597
      00FCC821H   LINE      ECODE    ---       #598
      00FCC823H   LINE      ECODE    ---       #600
      00FCC847H   LINE      ECODE    ---       #601
      00FCC864H   LINE      ECODE    ---       #603
      00FCC875H   LINE      ECODE    ---       #605
      00FCC883H   LINE      ECODE    ---       #606
      00FCC8A6H   LINE      ECODE    ---       #607
      00FCC8A8H   LINE      ECODE    ---       #609
      00FCC8ECH   LINE      ECODE    ---       #610
      00FCC909H   LINE      ECODE    ---       #611
      00FCC909H   LINE      ECODE    ---       #612
      00FCC917H   LINE      ECODE    ---       #613
      ---         BLOCKEND  ---      ---       LVL=0

      00FCC918H   BLOCK     ECODE    ---       LVL=0
      00011F75H   SYMBOL    XDATA    ---       soft_iic_obj
      00011F79H   SYMBOL    XDATA    ---       write_data
      00011F7DH   SYMBOL    XDATA    DWORD     write_len
      00011F81H   SYMBOL    XDATA    ---       read_data
      00011F85H   SYMBOL    XDATA    DWORD     read_len
      00FCC918H   LINE      ECODE    ---       #626
      00FCC92CH   LINE      ECODE    ---       #628
      00FCC94FH   LINE      ECODE    ---       #629
      00FCC972H   LINE      ECODE    ---       #630
      00FCC995H   LINE      ECODE    ---       #631
      00FCC9A3H   LINE      ECODE    ---       #632
      00FCC9C2H   LINE      ECODE    ---       #633
      00FCC9C4H   LINE      ECODE    ---       #635
      00FCC9E9H   LINE      ECODE    ---       #636
      00FCCA13H   LINE      ECODE    ---       #637
      00FCCA30H   LINE      ECODE    ---       #638
      00FCCA41H   LINE      ECODE    ---       #640
      00FCCA4FH   LINE      ECODE    ---       #641
L251 LINKER/LOCATER V4.66.93.0                                                        03/25/2026  13:05:55  PAGE 88


      00FCCA72H   LINE      ECODE    ---       #642
      00FCCA74H   LINE      ECODE    ---       #644
      00FCCA92H   LINE      ECODE    ---       #645
      00FCCAD5H   LINE      ECODE    ---       #646
      00FCCAE8H   LINE      ECODE    ---       #647
      00FCCB08H   LINE      ECODE    ---       #648
      00FCCB08H   LINE      ECODE    ---       #649
      00FCCB16H   LINE      ECODE    ---       #650
      ---         BLOCKEND  ---      ---       LVL=0

      00FCCB17H   BLOCK     ECODE    ---       LVL=0
      00012804H   SYMBOL    XDATA    ---       soft_iic_obj
      00012808H   SYMBOL    XDATA    BYTE      register_name
      00012809H   SYMBOL    XDATA    BYTE      dat
      00FCCB17H   LINE      ECODE    ---       #661
      00FCCB2BH   LINE      ECODE    ---       #663
      00FCCB4EH   LINE      ECODE    ---       #664
      00FCCB5CH   LINE      ECODE    ---       #665
      00FCCB7BH   LINE      ECODE    ---       #666
      00FCCB8DH   LINE      ECODE    ---       #667
      00FCCB9FH   LINE      ECODE    ---       #668
      00FCCBADH   LINE      ECODE    ---       #669
      ---         BLOCKEND  ---      ---       LVL=0

      00FCCBAEH   BLOCK     ECODE    ---       LVL=0
      0001280AH   SYMBOL    XDATA    ---       soft_iic_obj
      0001280EH   SYMBOL    XDATA    BYTE      register_name
      00FCCBBCH   BLOCK     ECODE    NEAR LAB  LVL=1
      0001280FH   SYMBOL    XDATA    BYTE      temp
      ---         BLOCKEND  ---      ---       LVL=1
      00FCCBAEH   LINE      ECODE    ---       #679
      00FCCBBCH   LINE      ECODE    ---       #680
      00FCCBBCH   LINE      ECODE    ---       #681
      00FCCBC1H   LINE      ECODE    ---       #682
      00FCCBE4H   LINE      ECODE    ---       #683
      00FCCBF2H   LINE      ECODE    ---       #684
      00FCCC11H   LINE      ECODE    ---       #685
      00FCCC23H   LINE      ECODE    ---       #686
      00FCCC31H   LINE      ECODE    ---       #688
      00FCCC3FH   LINE      ECODE    ---       #689
      00FCCC62H   LINE      ECODE    ---       #690
      00FCCC76H   LINE      ECODE    ---       #691
      00FCCC84H   LINE      ECODE    ---       #692
      00FCCC88H   LINE      ECODE    ---       #693
      ---         BLOCKEND  ---      ---       LVL=0

      00FCCC89H   BLOCK     ECODE    ---       LVL=0
      000122EEH   SYMBOL    XDATA    ---       soft_iic_obj
      000122F2H   SYMBOL    XDATA    BYTE      addr
      000122F3H   SYMBOL    XDATA    DWORD     delay
      000122F7H   SYMBOL    XDATA    INT       scl_pin
      000122F9H   SYMBOL    XDATA    INT       sda_pin
      00FCCC89H   LINE      ECODE    ---       #706
      00FCCCA1H   LINE      ECODE    ---       #708
      00FCCCC4H   LINE      ECODE    ---       #709
      00FCCCE9H   LINE      ECODE    ---       #710
      00FCCCFCH   LINE      ECODE    ---       #711
      00FCCD11H   LINE      ECODE    ---       #712
      00FCCD24H   LINE      ECODE    ---       #713
      00FCCD43H   LINE      ECODE    ---       #714
      00FCCD57H   LINE      ECODE    ---       #715
      00FCCD6BH   LINE      ECODE    ---       #716
      ---         BLOCKEND  ---      ---       LVL=0

      ---         MODULE    ---      ---       zf_driver_spi
L251 LINKER/LOCATER V4.66.93.0                                                        03/25/2026  13:05:55  PAGE 89


      00FE4CE6H   PUBLIC    HCONST   ---       DMA_SPIx_CR_ADDR
      00FE4CF2H   PUBLIC    HCONST   ---       HSSPIX_CFG_ADDR
      00FE4D7EH   PUBLIC    HCONST   ---       DMA_SPIx_AMTH_ADDR
      00FE4D8AH   PUBLIC    HCONST   ---       DMA_SPIx_RXAH_ADDR
      00FE4D96H   PUBLIC    HCONST   ---       DMA_SPIx_TXAH_ADDR
      00FE4DA2H   PUBLIC    HCONST   ---       DMA_SPIx_RXAL_ADDR
      00FE4DAEH   PUBLIC    HCONST   ---       DMA_SPIx_TXAL_ADDR
      00FE4DBAH   PUBLIC    HCONST   ---       DMA_SPIx_ITVH_ADDR
      00FE4DC6H   PUBLIC    HCONST   ---       DMA_SPIx_ITVL_ADDR
      00FE4DD2H   PUBLIC    HCONST   ---       HSSPIX_CFG2_ADDR
      00FE4DDEH   PUBLIC    HCONST   ---       DMA_SPIx_CFG_ADDR
      00FE4DEAH   PUBLIC    HCONST   ---       DMA_SPIx_AMT_ADDR
      00FE4DF6H   PUBLIC    HCONST   ---       DMA_SPIx_STA_ADDR
      00FE4E02H   PUBLIC    HCONST   ---       SPIX_CLKDIV_ADDR
      00FC8822H   PUBLIC    ECODE    ---       spi_write_8bit_register?
      00FC7E17H   PUBLIC    ECODE    ---       spi_dma_read_8bit_register?
      00FC7F7AH   PUBLIC    ECODE    ---       spi_dma_transfer_8bit?
      00FC7C35H   PUBLIC    ECODE    ---       spi_dma_write_8bit_registers?
      00FC8C04H   PUBLIC    ECODE    ---       spi_read_16bit_registers?
      00FC7BE4H   PUBLIC    ECODE    ---       spi_dma_write_8bit_register?
      00FC8B87H   PUBLIC    ECODE    ---       spi_read_16bit_register?
      00FC8D6AH   PUBLIC    ECODE    ---       spi_transfer_16bit?
      00FC8924H   PUBLIC    ECODE    ---       spi_write_16bit_registers?
      00FC89B2H   PUBLIC    ECODE    ---       spi_read_8bit?
      00FC7F1BH   PUBLIC    ECODE    ---       spi_dma_read_16bit_registers?
      00FC89C4H   PUBLIC    ECODE    ---       spi_read_8bit_array?
      00FC71A4H   PUBLIC    ECODE    ---       spi_dma_transfer?
      00FC88B1H   PUBLIC    ECODE    ---       spi_write_16bit_register?
      00FC7EC8H   PUBLIC    ECODE    ---       spi_dma_read_16bit_register?
      00FC7FC7H   PUBLIC    ECODE    ---       spi_dma_transfer_16bit?
      00FC8705H   PUBLIC    ECODE    ---       spi_write_8bit?
      00FC7CE5H   PUBLIC    ECODE    ---       spi_dma_write_16bit_registers?
      00FC871EH   PUBLIC    ECODE    ---       spi_write_8bit_array?
      00FC7D46H   PUBLIC    ECODE    ---       spi_dma_read_8bit?
      00FC7D76H   PUBLIC    ECODE    ---       spi_dma_read_8bit_array?
      00FC7C92H   PUBLIC    ECODE    ---       spi_dma_write_16bit_register?
      00FC7B18H   PUBLIC    ECODE    ---       spi_dma_write_8bit?
      00FC7B43H   PUBLIC    ECODE    ---       spi_dma_write_8bit_array?
      00FC8A22H   PUBLIC    ECODE    ---       spi_read_16bit?
      00FC8A69H   PUBLIC    ECODE    ---       spi_read_16bit_array?
      00FC799FH   PUBLIC    ECODE    ---       spi_dma_read?
      00FC8E7EH   PUBLIC    ECODE    ---       spi_init?
      00FC8B17H   PUBLIC    ECODE    ---       spi_read_8bit_registers?
      00FC876EH   PUBLIC    ECODE    ---       spi_write_16bit?
      00FC863CH   PUBLIC    ECODE    ---       spi_read_dat?
      00FC87ABH   PUBLIC    ECODE    ---       spi_write_16bit_array?
      00FC7DAFH   PUBLIC    ECODE    ---       spi_dma_read_16bit?
      00FC7DDCH   PUBLIC    ECODE    ---       spi_dma_read_16bit_array?
      00FC7614H   PUBLIC    ECODE    ---       spi_dma_write?
      00FC8AF3H   PUBLIC    ECODE    ---       spi_read_8bit_register?
      00FC8CC4H   PUBLIC    ECODE    ---       spi_transfer_8bit?
      00FC884FH   PUBLIC    ECODE    ---       spi_write_8bit_registers?
      00FC85A5H   PUBLIC    ECODE    ---       spi_write_dat?
      00FC8016H   PUBLIC    ECODE    ---       spi_dma_init?
      00FC7E6BH   PUBLIC    ECODE    ---       spi_dma_read_8bit_registers?
      00FC7B7CH   PUBLIC    ECODE    ---       spi_dma_write_16bit?
      00FC7BA9H   PUBLIC    ECODE    ---       spi_dma_write_16bit_array?
      000114FFH   PUBLIC    XDATA    BYTE      ?spi_dma_transfer??BYTE
      0001159EH   PUBLIC    XDATA    BYTE      ?spi_dma_write??BYTE
      0001250FH   PUBLIC    XDATA    BYTE      ?spi_dma_read??BYTE
      00012519H   PUBLIC    XDATA    BYTE      ?spi_dma_write_8bit_array??BYTE
      00012523H   PUBLIC    XDATA    BYTE      ?spi_dma_write_16bit_array??BYTE
      0001248DH   PUBLIC    XDATA    BYTE      ?spi_dma_write_8bit_registers??BYTE
      00012379H   PUBLIC    XDATA    BYTE      ?spi_dma_write_16bit_registers??BYTE
      0001252DH   PUBLIC    XDATA    BYTE      ?spi_dma_read_8bit_array??BYTE
L251 LINKER/LOCATER V4.66.93.0                                                        03/25/2026  13:05:55  PAGE 90


      00012537H   PUBLIC    XDATA    BYTE      ?spi_dma_read_16bit_array??BYTE
      00012498H   PUBLIC    XDATA    BYTE      ?spi_dma_read_8bit_registers??BYTE
      00012385H   PUBLIC    XDATA    BYTE      ?spi_dma_read_16bit_registers??BYTE
      00012249H   PUBLIC    XDATA    BYTE      ?spi_dma_transfer_8bit??BYTE
      00012257H   PUBLIC    XDATA    BYTE      ?spi_dma_transfer_16bit??BYTE
      00011F89H   PUBLIC    XDATA    BYTE      ?spi_dma_init??BYTE
      00012541H   PUBLIC    XDATA    BYTE      ?spi_write_8bit_array??BYTE
      0001254BH   PUBLIC    XDATA    BYTE      ?spi_write_16bit_array??BYTE
      000124A3H   PUBLIC    XDATA    BYTE      ?spi_write_8bit_registers??BYTE
      00012391H   PUBLIC    XDATA    BYTE      ?spi_write_16bit_registers??BYTE
      00012555H   PUBLIC    XDATA    BYTE      ?spi_read_8bit_array??BYTE
      0001255FH   PUBLIC    XDATA    BYTE      ?spi_read_16bit_array??BYTE
      000124AEH   PUBLIC    XDATA    BYTE      ?spi_read_8bit_registers??BYTE
      0001239DH   PUBLIC    XDATA    BYTE      ?spi_read_16bit_registers??BYTE
      00012265H   PUBLIC    XDATA    BYTE      ?spi_transfer_8bit??BYTE
      00012273H   PUBLIC    XDATA    BYTE      ?spi_transfer_16bit??BYTE
      00011F9DH   PUBLIC    XDATA    BYTE      ?spi_init??BYTE
      000000CFH   SFRSYM    DATA     BYTE      SPDAT
      000000D0H   SFRSYM    DATA     BYTE      PSW
      0000009DH   SFRSYM    DATA     BYTE      IRCBAND
      00000097H   SFRSYM    DATA     BYTE      AUXR2
      000000EAH   SFRSYM    DATA     BYTE      CKCON
      000000EFH   SFRSYM    DATA     BYTE      AUXINTIF
      000000FDH   SFRSYM    DATA     BYTE      S4CON
      000000ACH   SFRSYM    DATA     BYTE      S3CON
      0000009AH   SFRSYM    DATA     BYTE      S2CON
      000000B7H   SFRSYM    DATA     BYTE      IPH
      000000CDH   SFRSYM    DATA     BYTE      SPSTAT
      000000DDH   SFRSYM    DATA     BYTE      T4T3M
      000000C1H   SFRSYM    DATA     BYTE      WDT_CONTR
      000000DFH   SFRSYM    DATA     BYTE      IP3
      000000F4H   SFRSYM    DATA     BYTE      USBCON
      000000B5H   SFRSYM    DATA     BYTE      IP2
      000000FFH   SFRSYM    DATA     BYTE      RSTCFG
      000000E0H   SFRSYM    DATA     BYTE      ACC
      000000C7H   SFRSYM    DATA     BYTE      IAP_CONTR
      000000F9H   SFRSYM    DATA     BYTE      LINICR
      0000008EH   SFRSYM    DATA     BYTE      AUXR
      000000F0H   SFRSYM    DATA     BYTE      B
      000000AFH   SFRSYM    DATA     BYTE      IE2
      00000088H   SFRSYM    DATA     BYTE      TCON
      00000089H   SFRSYM    DATA     BYTE      TMOD
      00000098H   SFRSYM    DATA     BYTE      SCON
      00000087H   SFRSYM    DATA     BYTE      PCON
      000000BCH   SFRSYM    DATA     BYTE      ADC_CONTR
      000000D1H   SFRSYM    DATA     BYTE      PSW1
      000000E7H   SFRSYM    DATA     BYTE      CMPCR2
      000000E6H   SFRSYM    DATA     BYTE      CMPCR1
      000000DEH   SFRSYM    DATA     BYTE      ADCCFG
      000000B8H   SFRSYM    DATA     BYTE      IP
      0000008FH   SFRSYM    DATA     BYTE      INTCLKO
      000000EEH   SFRSYM    DATA     BYTE      IP3H
      000000B6H   SFRSYM    DATA     BYTE      IP2H
      000000BFH   SFRSYM    DATA     BYTE      P_SW4
      000000A8H   SFRSYM    DATA     BYTE      IE
      000000BBH   SFRSYM    DATA     BYTE      P_SW3
      000000BAH   SFRSYM    DATA     BYTE      P_SW2
      000000A2H   SFRSYM    DATA     BYTE      P_SW1
      000000CEH   SFRSYM    DATA     BYTE      SPCTL
      000000F8H   SFRSYM    DATA     BYTE      P7
      000000E8H   SFRSYM    DATA     BYTE      P6
      000000C8H   SFRSYM    DATA     BYTE      P5
      000000C0H   SFRSYM    DATA     BYTE      P4
      000000ABH   SFRSYM    DATA     BYTE      WKTCH
      000000B0H   SFRSYM    DATA     BYTE      P3
L251 LINKER/LOCATER V4.66.93.0                                                        03/25/2026  13:05:55  PAGE 91


      000000A0H   SFRSYM    DATA     BYTE      P2
      00000090H   SFRSYM    DATA     BYTE      P1
      00000080H   SFRSYM    DATA     BYTE      P0
      00FE4CFEH   SYMBOL    HCONST   ---       ?tpl?0001
      00FE4D3EH   SYMBOL    HCONST   ---       ?tpl?0002

      00FC71A4H   BLOCK     ECODE    ---       LVL=0
      000114FFH   SYMBOL    XDATA    INT       spi_n
      00011501H   SYMBOL    XDATA    ---       write_buffer
      00011505H   SYMBOL    XDATA    ---       read_buffer
      00011509H   SYMBOL    XDATA    DWORD     len
      00FC71B4H   BLOCK     ECODE    NEAR LAB  LVL=1
      0001150DH   SYMBOL    XDATA    ---       tmp_buff
      0001154DH   SYMBOL    XDATA    WORD      tmp_len
      0001154FH   SYMBOL    XDATA    WORD      read_idx
      ---         BLOCKEND  ---      ---       LVL=1
      00FC71A4H   LINE      ECODE    ---       #203
      00FC71B4H   LINE      ECODE    ---       #204
      00FC71B4H   LINE      ECODE    ---       #208
      00FC71CAH   LINE      ECODE    ---       #209
      00FC71D2H   LINE      ECODE    ---       #210
      00FC71DAH   LINE      ECODE    ---       #213
      00FC71F1H   LINE      ECODE    ---       #215
      00FC71F4H   LINE      ECODE    ---       #217
      00FC721AH   LINE      ECODE    ---       #218
      00FC723AH   LINE      ECODE    ---       #219
      00FC7255H   LINE      ECODE    ---       #220
      00FC726EH   LINE      ECODE    ---       #222
      00FC72A2H   LINE      ECODE    ---       #223
      00FC72DAH   LINE      ECODE    ---       #225
      00FC7304H   LINE      ECODE    ---       #226
      00FC732AH   LINE      ECODE    ---       #228
      00FC7362H   LINE      ECODE    ---       #229
      00FC7398H   LINE      ECODE    ---       #231
      00FC73BCH   LINE      ECODE    ---       #232
      00FC73E0H   LINE      ECODE    ---       #233
      00FC7405H   LINE      ECODE    ---       #234
      00FC7428H   LINE      ECODE    ---       #236
      00FC7439H   LINE      ECODE    ---       #237
      00FC744AH   LINE      ECODE    ---       #238
      00FC744DH   LINE      ECODE    ---       #241
      00FC7489H   LINE      ECODE    ---       #242
      00FC74C7H   LINE      ECODE    ---       #243
      00FC74F7H   LINE      ECODE    ---       #244
      00FC7525H   LINE      ECODE    ---       #245
      00FC7555H   LINE      ECODE    ---       #246
      00FC7583H   LINE      ECODE    ---       #248
      00FC75A7H   LINE      ECODE    ---       #249
      00FC75CBH   LINE      ECODE    ---       #250
      00FC75F0H   LINE      ECODE    ---       #251
      00FC7613H   LINE      ECODE    ---       #252
      00FC7613H   LINE      ECODE    ---       #253
      ---         BLOCKEND  ---      ---       LVL=0

      00FC7614H   BLOCK     ECODE    ---       LVL=0
      0001159EH   SYMBOL    XDATA    INT       spi_n
      000115A0H   SYMBOL    XDATA    ---       write_buffer
      000115A4H   SYMBOL    XDATA    DWORD     len
      00FC7624H   BLOCK     ECODE    NEAR LAB  LVL=1
      000115A8H   SYMBOL    XDATA    ---       tmp_buff
      000115E8H   SYMBOL    XDATA    WORD      tmp_len
      ---         BLOCKEND  ---      ---       LVL=1
      00FC7614H   LINE      ECODE    ---       #260
      00FC7624H   LINE      ECODE    ---       #261
      00FC7624H   LINE      ECODE    ---       #265
L251 LINKER/LOCATER V4.66.93.0                                                        03/25/2026  13:05:55  PAGE 92


      00FC763AH   LINE      ECODE    ---       #266
      00FC7642H   LINE      ECODE    ---       #270
      00FC7659H   LINE      ECODE    ---       #272
      00FC765CH   LINE      ECODE    ---       #274
      00FC7682H   LINE      ECODE    ---       #275
      00FC76A2H   LINE      ECODE    ---       #276
      00FC76BDH   LINE      ECODE    ---       #277
      00FC76D6H   LINE      ECODE    ---       #279
      00FC770AH   LINE      ECODE    ---       #280
      00FC7742H   LINE      ECODE    ---       #282
      00FC776CH   LINE      ECODE    ---       #283
      00FC7792H   LINE      ECODE    ---       #285
      00FC77B6H   LINE      ECODE    ---       #286
      00FC77DAH   LINE      ECODE    ---       #287
      00FC77FFH   LINE      ECODE    ---       #288
      00FC7822H   LINE      ECODE    ---       #289
      00FC7833H   LINE      ECODE    ---       #290
      00FC7836H   LINE      ECODE    ---       #293
      00FC7872H   LINE      ECODE    ---       #294
      00FC78B0H   LINE      ECODE    ---       #296
      00FC78E0H   LINE      ECODE    ---       #297
      00FC790EH   LINE      ECODE    ---       #299
      00FC7932H   LINE      ECODE    ---       #300
      00FC7956H   LINE      ECODE    ---       #301
      00FC797BH   LINE      ECODE    ---       #302
      00FC799EH   LINE      ECODE    ---       #303
      00FC799EH   LINE      ECODE    ---       #304
      ---         BLOCKEND  ---      ---       LVL=0

      00FC799FH   BLOCK     ECODE    ---       LVL=0
      0001250FH   SYMBOL    XDATA    INT       spi_n
      00012511H   SYMBOL    XDATA    ---       read_buffer
      00012515H   SYMBOL    XDATA    DWORD     len
      00FC799FH   LINE      ECODE    ---       #311
      00FC79AFH   LINE      ECODE    ---       #313
      00FC79EBH   LINE      ECODE    ---       #314
      00FC7A29H   LINE      ECODE    ---       #315
      00FC7A59H   LINE      ECODE    ---       #316
      00FC7A87H   LINE      ECODE    ---       #318
      00FC7AABH   LINE      ECODE    ---       #319
      00FC7ACFH   LINE      ECODE    ---       #320
      00FC7AF4H   LINE      ECODE    ---       #321
      00FC7B17H   LINE      ECODE    ---       #322
      ---         BLOCKEND  ---      ---       LVL=0

      00FC7B18H   BLOCK     ECODE    ---       LVL=0
      000129A0H   SYMBOL    XDATA    INT       spi_n
      000129A2H   SYMBOL    XDATA    BYTE      dat
      00FC7B18H   LINE      ECODE    ---       #331
      00FC7B22H   LINE      ECODE    ---       #333
      00FC7B42H   LINE      ECODE    ---       #334
      ---         BLOCKEND  ---      ---       LVL=0

      00FC7B43H   BLOCK     ECODE    ---       LVL=0
      00012519H   SYMBOL    XDATA    INT       spi_n
      0001251BH   SYMBOL    XDATA    ---       dat
      0001251FH   SYMBOL    XDATA    DWORD     len
      00FC7B43H   LINE      ECODE    ---       #344
      00FC7B53H   LINE      ECODE    ---       #346
      00FC7B7BH   LINE      ECODE    ---       #347
      ---         BLOCKEND  ---      ---       LVL=0

      00FC7B7CH   BLOCK     ECODE    ---       LVL=0
      0001291DH   SYMBOL    XDATA    INT       spi_n
      0001291FH   SYMBOL    XDATA    WORD      dat
L251 LINKER/LOCATER V4.66.93.0                                                        03/25/2026  13:05:55  PAGE 93


      00FC7B7CH   LINE      ECODE    ---       #356
      00FC7B88H   LINE      ECODE    ---       #358
      00FC7BA8H   LINE      ECODE    ---       #359
      ---         BLOCKEND  ---      ---       LVL=0

      00FC7BA9H   BLOCK     ECODE    ---       LVL=0
      00012523H   SYMBOL    XDATA    INT       spi_n
      00012525H   SYMBOL    XDATA    ---       dat
      00012529H   SYMBOL    XDATA    DWORD     len
      00FC7BA9H   LINE      ECODE    ---       #369
      00FC7BB9H   LINE      ECODE    ---       #371
      00FC7BE3H   LINE      ECODE    ---       #372
      ---         BLOCKEND  ---      ---       LVL=0

      00FC7BE4H   BLOCK     ECODE    ---       LVL=0
      00012921H   SYMBOL    XDATA    INT       spi_n
      00012923H   SYMBOL    XDATA    BYTE      register_name
      00012924H   SYMBOL    XDATA    BYTE      dat
      00FC7BE4H   LINE      ECODE    ---       #382
      00FC7BF4H   LINE      ECODE    ---       #384
      00FC7C14H   LINE      ECODE    ---       #385
      00FC7C34H   LINE      ECODE    ---       #386
      ---         BLOCKEND  ---      ---       LVL=0

      00FC7C35H   BLOCK     ECODE    ---       LVL=0
      0001248DH   SYMBOL    XDATA    INT       spi_n
      0001248FH   SYMBOL    XDATA    BYTE      register_name
      00012490H   SYMBOL    XDATA    ---       dat
      00012494H   SYMBOL    XDATA    DWORD     len
      00FC7C35H   LINE      ECODE    ---       #397
      00FC7C49H   LINE      ECODE    ---       #399
      00FC7C69H   LINE      ECODE    ---       #400
      00FC7C91H   LINE      ECODE    ---       #401
      ---         BLOCKEND  ---      ---       LVL=0

      00FC7C92H   BLOCK     ECODE    ---       LVL=0
      00012810H   SYMBOL    XDATA    INT       spi_n
      00012812H   SYMBOL    XDATA    WORD      register_name
      00012814H   SYMBOL    XDATA    WORD      dat
      00FC7C92H   LINE      ECODE    ---       #411
      00FC7CA4H   LINE      ECODE    ---       #413
      00FC7CC4H   LINE      ECODE    ---       #414
      00FC7CE4H   LINE      ECODE    ---       #415
      ---         BLOCKEND  ---      ---       LVL=0

      00FC7CE5H   BLOCK     ECODE    ---       LVL=0
      00012379H   SYMBOL    XDATA    INT       spi_n
      0001237BH   SYMBOL    XDATA    WORD      register_name
      0001237DH   SYMBOL    XDATA    ---       dat
      00012381H   SYMBOL    XDATA    DWORD     len
      00FC7CE5H   LINE      ECODE    ---       #426
      00FC7CFBH   LINE      ECODE    ---       #428
      00FC7D1BH   LINE      ECODE    ---       #429
      00FC7D45H   LINE      ECODE    ---       #430
      ---         BLOCKEND  ---      ---       LVL=0

      00FC7D46H   BLOCK     ECODE    ---       LVL=0
      000129A3H   SYMBOL    XDATA    INT       spi_n
      00FC7D4CH   BLOCK     ECODE    NEAR LAB  LVL=1
      000129A5H   SYMBOL    XDATA    BYTE      value
      ---         BLOCKEND  ---      ---       LVL=1
      00FC7D46H   LINE      ECODE    ---       #439
      00FC7D4CH   LINE      ECODE    ---       #440
      00FC7D4CH   LINE      ECODE    ---       #441
      00FC7D51H   LINE      ECODE    ---       #442
L251 LINKER/LOCATER V4.66.93.0                                                        03/25/2026  13:05:55  PAGE 94


      00FC7D71H   LINE      ECODE    ---       #443
      00FC7D75H   LINE      ECODE    ---       #444
      ---         BLOCKEND  ---      ---       LVL=0

      00FC7D76H   BLOCK     ECODE    ---       LVL=0
      0001252DH   SYMBOL    XDATA    INT       spi_n
      0001252FH   SYMBOL    XDATA    ---       dat
      00012533H   SYMBOL    XDATA    DWORD     len
      00FC7D76H   LINE      ECODE    ---       #454
      00FC7D86H   LINE      ECODE    ---       #456
      00FC7DAEH   LINE      ECODE    ---       #457
      ---         BLOCKEND  ---      ---       LVL=0

      00FC7DAFH   BLOCK     ECODE    ---       LVL=0
      00012925H   SYMBOL    XDATA    INT       spi_n
      00FC7DB5H   BLOCK     ECODE    NEAR LAB  LVL=1
      00012927H   SYMBOL    XDATA    WORD      dat
      ---         BLOCKEND  ---      ---       LVL=1
      00FC7DAFH   LINE      ECODE    ---       #466
      00FC7DB5H   LINE      ECODE    ---       #467
      00FC7DB5H   LINE      ECODE    ---       #469
      00FC7DD5H   LINE      ECODE    ---       #470
      00FC7DDBH   LINE      ECODE    ---       #471
      ---         BLOCKEND  ---      ---       LVL=0

      00FC7DDCH   BLOCK     ECODE    ---       LVL=0
      00012537H   SYMBOL    XDATA    INT       spi_n
      00012539H   SYMBOL    XDATA    ---       dat
      0001253DH   SYMBOL    XDATA    DWORD     len
      00FC7DDCH   LINE      ECODE    ---       #481
      00FC7DECH   LINE      ECODE    ---       #483
      00FC7E16H   LINE      ECODE    ---       #484
      ---         BLOCKEND  ---      ---       LVL=0

      00FC7E17H   BLOCK     ECODE    ---       LVL=0
      00012929H   SYMBOL    XDATA    INT       spi_n
      0001292BH   SYMBOL    XDATA    BYTE      register_name
      00FC7E21H   BLOCK     ECODE    NEAR LAB  LVL=1
      0001292CH   SYMBOL    XDATA    BYTE      reg
      ---         BLOCKEND  ---      ---       LVL=1
      00FC7E17H   LINE      ECODE    ---       #493
      00FC7E21H   LINE      ECODE    ---       #494
      00FC7E21H   LINE      ECODE    ---       #495
      00FC7E26H   LINE      ECODE    ---       #496
      00FC7E46H   LINE      ECODE    ---       #497
      00FC7E66H   LINE      ECODE    ---       #498
      00FC7E6AH   LINE      ECODE    ---       #499
      ---         BLOCKEND  ---      ---       LVL=0

      00FC7E6BH   BLOCK     ECODE    ---       LVL=0
      00012498H   SYMBOL    XDATA    INT       spi_n
      0001249AH   SYMBOL    XDATA    BYTE      register_name
      0001249BH   SYMBOL    XDATA    ---       dat
      0001249FH   SYMBOL    XDATA    DWORD     len
      00FC7E6BH   LINE      ECODE    ---       #510
      00FC7E7FH   LINE      ECODE    ---       #512
      00FC7E9FH   LINE      ECODE    ---       #513
      00FC7EC7H   LINE      ECODE    ---       #514
      ---         BLOCKEND  ---      ---       LVL=0

      00FC7EC8H   BLOCK     ECODE    ---       LVL=0
      00012816H   SYMBOL    XDATA    INT       spi_n
      00012818H   SYMBOL    XDATA    WORD      register_name
      00FC7ED4H   BLOCK     ECODE    NEAR LAB  LVL=1
      0001281AH   SYMBOL    XDATA    WORD      dat
L251 LINKER/LOCATER V4.66.93.0                                                        03/25/2026  13:05:55  PAGE 95


      ---         BLOCKEND  ---      ---       LVL=1
      00FC7EC8H   LINE      ECODE    ---       #523
      00FC7ED4H   LINE      ECODE    ---       #524
      00FC7ED4H   LINE      ECODE    ---       #526
      00FC7EF4H   LINE      ECODE    ---       #527
      00FC7F14H   LINE      ECODE    ---       #528
      00FC7F1AH   LINE      ECODE    ---       #529
      ---         BLOCKEND  ---      ---       LVL=0

      00FC7F1BH   BLOCK     ECODE    ---       LVL=0
      00012385H   SYMBOL    XDATA    INT       spi_n
      00012387H   SYMBOL    XDATA    WORD      register_name
      00012389H   SYMBOL    XDATA    ---       dat
      0001238DH   SYMBOL    XDATA    DWORD     len
      00FC7F1BH   LINE      ECODE    ---       #540
      00FC7F31H   LINE      ECODE    ---       #542
      00FC7F51H   LINE      ECODE    ---       #543
      00FC7F79H   LINE      ECODE    ---       #544
      ---         BLOCKEND  ---      ---       LVL=0

      00FC7F7AH   BLOCK     ECODE    ---       LVL=0
      00012249H   SYMBOL    XDATA    INT       spi_n
      0001224BH   SYMBOL    XDATA    ---       write_buffer
      0001224FH   SYMBOL    XDATA    ---       read_buffer
      00012253H   SYMBOL    XDATA    DWORD     len
      00FC7F7AH   LINE      ECODE    ---       #555
      00FC7F8AH   LINE      ECODE    ---       #557
      00FC7FC6H   LINE      ECODE    ---       #558
      ---         BLOCKEND  ---      ---       LVL=0

      00FC7FC7H   BLOCK     ECODE    ---       LVL=0
      00012257H   SYMBOL    XDATA    INT       spi_n
      00012259H   SYMBOL    XDATA    ---       write_buffer
      0001225DH   SYMBOL    XDATA    ---       read_buffer
      00012261H   SYMBOL    XDATA    DWORD     len
      00FC7FC7H   LINE      ECODE    ---       #569
      00FC7FD7H   LINE      ECODE    ---       #571
      00FC8015H   LINE      ECODE    ---       #572
      ---         BLOCKEND  ---      ---       LVL=0

      00FC8016H   BLOCK     ECODE    ---       LVL=0
      00011F89H   SYMBOL    XDATA    INT       spi_n
      00011F8BH   SYMBOL    XDATA    INT       mode
      00011F8DH   SYMBOL    XDATA    DWORD     baud
      00011F91H   SYMBOL    XDATA    INT       sck_pin
      00011F93H   SYMBOL    XDATA    INT       mosi_pin
      00011F95H   SYMBOL    XDATA    INT       miso_pin
      00011F97H   SYMBOL    XDATA    INT       cs_pin
      00FC802CH   BLOCK     ECODE    NEAR LAB  LVL=1
      00011F99H   SYMBOL    XDATA    DWORD     spi_psc
      ---         BLOCKEND  ---      ---       LVL=1
      00FC8016H   LINE      ECODE    ---       #586
      00FC802CH   LINE      ECODE    ---       #587
      00FC802CH   LINE      ECODE    ---       #589
      00FC8038H   LINE      ECODE    ---       #591
      00FC8054H   LINE      ECODE    ---       #593
      00FC8065H   LINE      ECODE    ---       #595
      00FC8065H   LINE      ECODE    ---       #597
      00FC807FH   LINE      ECODE    ---       #598
      00FC8099H   LINE      ECODE    ---       #600
      00FC80A7H   LINE      ECODE    ---       #602
      00FC80BFH   LINE      ECODE    ---       #603
      00FC80BFH   LINE      ECODE    ---       #605
      00FC80CDH   LINE      ECODE    ---       #607
      00FC80E6H   LINE      ECODE    ---       #608
L251 LINKER/LOCATER V4.66.93.0                                                        03/25/2026  13:05:55  PAGE 96


      00FC80E6H   LINE      ECODE    ---       #611
      00FC80F6H   LINE      ECODE    ---       #613
      00FC8108H   LINE      ECODE    ---       #614
      00FC811AH   LINE      ECODE    ---       #615
      00FC8128H   LINE      ECODE    ---       #617
      00FC813AH   LINE      ECODE    ---       #618
      00FC813AH   LINE      ECODE    ---       #619
      00FC8148H   LINE      ECODE    ---       #621
      00FC815AH   LINE      ECODE    ---       #622
      00FC815AH   LINE      ECODE    ---       #625
      00FC8172H   LINE      ECODE    ---       #627
      00FC8172H   LINE      ECODE    ---       #629
      00FC8175H   LINE      ECODE    ---       #630
      00FC8197H   LINE      ECODE    ---       #632
      00FC819DH   LINE      ECODE    ---       #633
      00FC81A2H   LINE      ECODE    ---       #634
      00FC81A7H   LINE      ECODE    ---       #635
      00FC81AAH   LINE      ECODE    ---       #636
      00FC81AAH   LINE      ECODE    ---       #638
      00FC81ADH   LINE      ECODE    ---       #639
      00FC81B0H   LINE      ECODE    ---       #641
      00FC81B3H   LINE      ECODE    ---       #644
      00FC81C5H   LINE      ECODE    ---       #646
      00FC81CAH   LINE      ECODE    ---       #647
      00FC81CFH   LINE      ECODE    ---       #648
      00FC81D2H   LINE      ECODE    ---       #649
      00FC81D2H   LINE      ECODE    ---       #650
      00FC81D2H   LINE      ECODE    ---       #651
      00FC81D5H   LINE      ECODE    ---       #652
      00FC81D8H   LINE      ECODE    ---       #655
      00FC81D8H   LINE      ECODE    ---       #657
      00FC81EAH   LINE      ECODE    ---       #658
      00FC820CH   LINE      ECODE    ---       #660
      00FC821CH   LINE      ECODE    ---       #661
      00FC8230H   LINE      ECODE    ---       #662
      00FC8244H   LINE      ECODE    ---       #663
      00FC8256H   LINE      ECODE    ---       #664
      00FC8256H   LINE      ECODE    ---       #666
      00FC8262H   LINE      ECODE    ---       #667
      00FC8274H   LINE      ECODE    ---       #669
      00FC8296H   LINE      ECODE    ---       #670
      00FC82A8H   LINE      ECODE    ---       #673
      00FC82BAH   LINE      ECODE    ---       #675
      00FC82CEH   LINE      ECODE    ---       #676
      00FC82E2H   LINE      ECODE    ---       #677
      00FC82F4H   LINE      ECODE    ---       #678
      00FC82F4H   LINE      ECODE    ---       #679
      00FC82F4H   LINE      ECODE    ---       #680
      00FC8306H   LINE      ECODE    ---       #681
      00FC8309H   LINE      ECODE    ---       #684
      00FC8309H   LINE      ECODE    ---       #686
      00FC831BH   LINE      ECODE    ---       #687
      00FC833DH   LINE      ECODE    ---       #689
      00FC834DH   LINE      ECODE    ---       #690
      00FC8361H   LINE      ECODE    ---       #691
      00FC8375H   LINE      ECODE    ---       #692
      00FC8387H   LINE      ECODE    ---       #693
      00FC8387H   LINE      ECODE    ---       #695
      00FC8393H   LINE      ECODE    ---       #696
      00FC83A5H   LINE      ECODE    ---       #699
      00FC83B7H   LINE      ECODE    ---       #702
      00FC83C9H   LINE      ECODE    ---       #704
      00FC83DDH   LINE      ECODE    ---       #705
      00FC83F1H   LINE      ECODE    ---       #706
      00FC8403H   LINE      ECODE    ---       #707
L251 LINKER/LOCATER V4.66.93.0                                                        03/25/2026  13:05:55  PAGE 97


      00FC8403H   LINE      ECODE    ---       #708
      00FC8403H   LINE      ECODE    ---       #709
      00FC8415H   LINE      ECODE    ---       #710
      00FC8415H   LINE      ECODE    ---       #713
      00FC8415H   LINE      ECODE    ---       #715
      00FC8415H   LINE      ECODE    ---       #716
      00FC8415H   LINE      ECODE    ---       #718
      00FC8438H   LINE      ECODE    ---       #721
      00FC845CH   LINE      ECODE    ---       #723
      00FC84AAH   LINE      ECODE    ---       #724
      00FC84C8H   LINE      ECODE    ---       #725
      00FC84F4H   LINE      ECODE    ---       #727
      00FC8517H   LINE      ECODE    ---       #728
      00FC853AH   LINE      ECODE    ---       #732
      00FC855DH   LINE      ECODE    ---       #733
      00FC8580H   LINE      ECODE    ---       #735
      00FC85A4H   LINE      ECODE    ---       #736
      ---         BLOCKEND  ---      ---       LVL=0

      00FC85A5H   BLOCK     ECODE    ---       LVL=0
      000129A6H   SYMBOL    XDATA    INT       spi_n
      000129A8H   SYMBOL    XDATA    BYTE      dat
      00FC85A5H   LINE      ECODE    ---       #739
      00FC85AFH   LINE      ECODE    ---       #741
      00FC85C1H   LINE      ECODE    ---       #743
      00FC85C1H   LINE      ECODE    ---       #744
      00FC85C5H   LINE      ECODE    ---       #745
      00FC85CBH   LINE      ECODE    ---       #746
      00FC85D0H   LINE      ECODE    ---       #747
      00FC85D2H   LINE      ECODE    ---       #748
      00FC85D2H   LINE      ECODE    ---       #749
      00FC85DFH   LINE      ECODE    ---       #750
      00FC85EEH   LINE      ECODE    ---       #751
      00FC85FCH   LINE      ECODE    ---       #752
      00FC85FEH   LINE      ECODE    ---       #753
      00FC85FEH   LINE      ECODE    ---       #754
      00FC860BH   LINE      ECODE    ---       #755
      00FC861AH   LINE      ECODE    ---       #756
      00FC8628H   LINE      ECODE    ---       #757
      00FC862AH   LINE      ECODE    ---       #758
      00FC862AH   LINE      ECODE    ---       #759
      00FC863BH   LINE      ECODE    ---       #760
      00FC863BH   LINE      ECODE    ---       #761
      00FC863BH   LINE      ECODE    ---       #762
      ---         BLOCKEND  ---      ---       LVL=0

      00FC863CH   BLOCK     ECODE    ---       LVL=0
      0001292DH   SYMBOL    XDATA    INT       spi_n
      0001292FH   SYMBOL    XDATA    BYTE      dat
      00FC8646H   BLOCK     ECODE    NEAR LAB  LVL=1
      00012930H   SYMBOL    XDATA    BYTE      ret
      ---         BLOCKEND  ---      ---       LVL=1
      00FC863CH   LINE      ECODE    ---       #765
      00FC8646H   LINE      ECODE    ---       #766
      00FC8646H   LINE      ECODE    ---       #767
      00FC864CH   LINE      ECODE    ---       #768
      00FC8661H   LINE      ECODE    ---       #770
      00FC8661H   LINE      ECODE    ---       #771
      00FC8665H   LINE      ECODE    ---       #772
      00FC866BH   LINE      ECODE    ---       #773
      00FC8670H   LINE      ECODE    ---       #774
      00FC8676H   LINE      ECODE    ---       #775
      00FC8679H   LINE      ECODE    ---       #776
      00FC8679H   LINE      ECODE    ---       #777
      00FC8686H   LINE      ECODE    ---       #778
L251 LINKER/LOCATER V4.66.93.0                                                        03/25/2026  13:05:55  PAGE 98


      00FC8695H   LINE      ECODE    ---       #779
      00FC86A3H   LINE      ECODE    ---       #780
      00FC86B2H   LINE      ECODE    ---       #781
      00FC86B4H   LINE      ECODE    ---       #782
      00FC86B4H   LINE      ECODE    ---       #783
      00FC86C1H   LINE      ECODE    ---       #784
      00FC86D0H   LINE      ECODE    ---       #785
      00FC86DEH   LINE      ECODE    ---       #786
      00FC86EDH   LINE      ECODE    ---       #787
      00FC86EFH   LINE      ECODE    ---       #788
      00FC86EFH   LINE      ECODE    ---       #789
      00FC8700H   LINE      ECODE    ---       #790
      00FC8700H   LINE      ECODE    ---       #791
      00FC8700H   LINE      ECODE    ---       #793
      00FC8704H   LINE      ECODE    ---       #794
      ---         BLOCKEND  ---      ---       LVL=0

      00FC8705H   BLOCK     ECODE    ---       LVL=0
      000129A9H   SYMBOL    XDATA    INT       spi_n
      000129ABH   SYMBOL    XDATA    BYTE      dat
      00FC8705H   LINE      ECODE    ---       #805
      00FC870FH   LINE      ECODE    ---       #807
      00FC871DH   LINE      ECODE    ---       #808
      ---         BLOCKEND  ---      ---       LVL=0

      00FC871EH   BLOCK     ECODE    ---       LVL=0
      00012541H   SYMBOL    XDATA    INT       spi_n
      00012543H   SYMBOL    XDATA    ---       dat
      00012547H   SYMBOL    XDATA    DWORD     len
      00FC871EH   LINE      ECODE    ---       #818
      00FC872EH   LINE      ECODE    ---       #820
      00FC8730H   LINE      ECODE    ---       #822
      00FC8750H   LINE      ECODE    ---       #823
      00FC876DH   LINE      ECODE    ---       #824
      ---         BLOCKEND  ---      ---       LVL=0

      00FC876EH   BLOCK     ECODE    ---       LVL=0
      00012931H   SYMBOL    XDATA    INT       spi_n
      00012933H   SYMBOL    XDATA    WORD      dat
      00FC876EH   LINE      ECODE    ---       #833
      00FC877AH   LINE      ECODE    ---       #835
      00FC8794H   LINE      ECODE    ---       #836
      00FC87AAH   LINE      ECODE    ---       #837
      ---         BLOCKEND  ---      ---       LVL=0

      00FC87ABH   BLOCK     ECODE    ---       LVL=0
      0001254BH   SYMBOL    XDATA    INT       spi_n
      0001254DH   SYMBOL    XDATA    ---       dat
      00012551H   SYMBOL    XDATA    DWORD     len
      00FC87ABH   LINE      ECODE    ---       #847
      00FC87BBH   LINE      ECODE    ---       #849
      00FC87BDH   LINE      ECODE    ---       #851
      00FC87DEH   LINE      ECODE    ---       #852
      00FC8804H   LINE      ECODE    ---       #853
      00FC8821H   LINE      ECODE    ---       #854
      ---         BLOCKEND  ---      ---       LVL=0

      00FC8822H   BLOCK     ECODE    ---       LVL=0
      00012935H   SYMBOL    XDATA    INT       spi_n
      00012937H   SYMBOL    XDATA    BYTE      register_name
      00012938H   SYMBOL    XDATA    BYTE      dat
      00FC8822H   LINE      ECODE    ---       #864
      00FC8832H   LINE      ECODE    ---       #866
      00FC8840H   LINE      ECODE    ---       #867
      00FC884EH   LINE      ECODE    ---       #868
L251 LINKER/LOCATER V4.66.93.0                                                        03/25/2026  13:05:55  PAGE 99


      ---         BLOCKEND  ---      ---       LVL=0

      00FC884FH   BLOCK     ECODE    ---       LVL=0
      000124A3H   SYMBOL    XDATA    INT       spi_n
      000124A5H   SYMBOL    XDATA    BYTE      register_name
      000124A6H   SYMBOL    XDATA    ---       dat
      000124AAH   SYMBOL    XDATA    DWORD     len
      00FC884FH   LINE      ECODE    ---       #880
      00FC8863H   LINE      ECODE    ---       #882
      00FC8871H   LINE      ECODE    ---       #883
      00FC8873H   LINE      ECODE    ---       #885
      00FC8893H   LINE      ECODE    ---       #886
      00FC88B0H   LINE      ECODE    ---       #887
      ---         BLOCKEND  ---      ---       LVL=0

      00FC88B1H   BLOCK     ECODE    ---       LVL=0
      0001281CH   SYMBOL    XDATA    INT       spi_n
      0001281EH   SYMBOL    XDATA    WORD      register_name
      00012820H   SYMBOL    XDATA    WORD      dat
      00FC88B1H   LINE      ECODE    ---       #897
      00FC88C3H   LINE      ECODE    ---       #899
      00FC88DDH   LINE      ECODE    ---       #900
      00FC88F3H   LINE      ECODE    ---       #901
      00FC890DH   LINE      ECODE    ---       #902
      00FC8923H   LINE      ECODE    ---       #903
      ---         BLOCKEND  ---      ---       LVL=0

      00FC8924H   BLOCK     ECODE    ---       LVL=0
      00012391H   SYMBOL    XDATA    INT       spi_n
      00012393H   SYMBOL    XDATA    WORD      register_name
      00012395H   SYMBOL    XDATA    ---       dat
      00FC8924H   LINE      ECODE    ---       #914
      00FC893AH   LINE      ECODE    ---       #916
      00FC8954H   LINE      ECODE    ---       #917
      00FC896AH   LINE      ECODE    ---       #918
      00FC898BH   LINE      ECODE    ---       #919
      00FC89B1H   LINE      ECODE    ---       #920
      ---         BLOCKEND  ---      ---       LVL=0

      00FC89B2H   BLOCK     ECODE    ---       LVL=0
      000129DAH   SYMBOL    XDATA    INT       spi_n
      00FC89B2H   LINE      ECODE    ---       #929
      00FC89B8H   LINE      ECODE    ---       #931
      00FC89C3H   LINE      ECODE    ---       #932
      ---         BLOCKEND  ---      ---       LVL=0

      00FC89C4H   BLOCK     ECODE    ---       LVL=0
      00012555H   SYMBOL    XDATA    INT       spi_n
      00012557H   SYMBOL    XDATA    ---       dat
      0001255BH   SYMBOL    XDATA    DWORD     len
      00FC89C4H   LINE      ECODE    ---       #942
      00FC89D4H   LINE      ECODE    ---       #944
      00FC89D6H   LINE      ECODE    ---       #946
      00FC8A04H   LINE      ECODE    ---       #947
      00FC8A21H   LINE      ECODE    ---       #948
      ---         BLOCKEND  ---      ---       LVL=0

      00FC8A22H   BLOCK     ECODE    ---       LVL=0
      00012939H   SYMBOL    XDATA    INT       spi_n
      00FC8A28H   BLOCK     ECODE    NEAR LAB  LVL=1
      0001293BH   SYMBOL    XDATA    WORD      dat
      ---         BLOCKEND  ---      ---       LVL=1
      00FC8A22H   LINE      ECODE    ---       #957
      00FC8A28H   LINE      ECODE    ---       #958
      00FC8A28H   LINE      ECODE    ---       #959
L251 LINKER/LOCATER V4.66.93.0                                                        03/25/2026  13:05:55  PAGE 100


      00FC8A30H   LINE      ECODE    ---       #961
      00FC8A43H   LINE      ECODE    ---       #963
      00FC8A62H   LINE      ECODE    ---       #965
      00FC8A68H   LINE      ECODE    ---       #966
      ---         BLOCKEND  ---      ---       LVL=0

      00FC8A69H   BLOCK     ECODE    ---       LVL=0
      0001255FH   SYMBOL    XDATA    INT       spi_n
      00012561H   SYMBOL    XDATA    ---       dat
      00012565H   SYMBOL    XDATA    DWORD     len
      00FC8A69H   LINE      ECODE    ---       #976
      00FC8A79H   LINE      ECODE    ---       #978
      00FC8A7BH   LINE      ECODE    ---       #980
      00FC8A95H   LINE      ECODE    ---       #981
      00FC8AC2H   LINE      ECODE    ---       #982
      00FC8AD5H   LINE      ECODE    ---       #983
      00FC8AF2H   LINE      ECODE    ---       #984
      ---         BLOCKEND  ---      ---       LVL=0

      00FC8AF3H   BLOCK     ECODE    ---       LVL=0
      000129ACH   SYMBOL    XDATA    INT       spi_n
      000129AEH   SYMBOL    XDATA    BYTE      register_name
      00FC8AF3H   LINE      ECODE    ---       #993
      00FC8AFDH   LINE      ECODE    ---       #995
      00FC8B0BH   LINE      ECODE    ---       #996
      00FC8B16H   LINE      ECODE    ---       #997
      ---         BLOCKEND  ---      ---       LVL=0

      00FC8B17H   BLOCK     ECODE    ---       LVL=0
      000124AEH   SYMBOL    XDATA    INT       spi_n
      000124B0H   SYMBOL    XDATA    BYTE      register_name
      000124B1H   SYMBOL    XDATA    ---       dat
      000124B5H   SYMBOL    XDATA    DWORD     len
      00FC8B17H   LINE      ECODE    ---       #1008
      00FC8B2BH   LINE      ECODE    ---       #1010
      00FC8B39H   LINE      ECODE    ---       #1011
      00FC8B3BH   LINE      ECODE    ---       #1013
      00FC8B69H   LINE      ECODE    ---       #1014
      00FC8B86H   LINE      ECODE    ---       #1015
      ---         BLOCKEND  ---      ---       LVL=0

      00FC8B87H   BLOCK     ECODE    ---       LVL=0
      00012822H   SYMBOL    XDATA    INT       spi_n
      00012824H   SYMBOL    XDATA    WORD      register_name
      00FC8B93H   BLOCK     ECODE    NEAR LAB  LVL=1
      00012826H   SYMBOL    XDATA    WORD      dat
      ---         BLOCKEND  ---      ---       LVL=1
      00FC8B87H   LINE      ECODE    ---       #1024
      00FC8B93H   LINE      ECODE    ---       #1025
      00FC8B93H   LINE      ECODE    ---       #1026
      00FC8B9BH   LINE      ECODE    ---       #1028
      00FC8BB5H   LINE      ECODE    ---       #1029
      00FC8BCBH   LINE      ECODE    ---       #1031
      00FC8BDEH   LINE      ECODE    ---       #1032
      00FC8BFDH   LINE      ECODE    ---       #1034
      00FC8C03H   LINE      ECODE    ---       #1035
      ---         BLOCKEND  ---      ---       LVL=0

      00FC8C04H   BLOCK     ECODE    ---       LVL=0
      0001239DH   SYMBOL    XDATA    INT       spi_n
      0001239FH   SYMBOL    XDATA    WORD      register_name
      000123A1H   SYMBOL    XDATA    ---       dat
      000123A5H   SYMBOL    XDATA    DWORD     len
      00FC8C04H   LINE      ECODE    ---       #1046
      00FC8C1AH   LINE      ECODE    ---       #1048
L251 LINKER/LOCATER V4.66.93.0                                                        03/25/2026  13:05:55  PAGE 101


      00FC8C34H   LINE      ECODE    ---       #1049
      00FC8C4AH   LINE      ECODE    ---       #1051
      00FC8C4CH   LINE      ECODE    ---       #1053
      00FC8C66H   LINE      ECODE    ---       #1054
      00FC8C93H   LINE      ECODE    ---       #1055
      00FC8CA6H   LINE      ECODE    ---       #1056
      00FC8CC3H   LINE      ECODE    ---       #1057
      ---         BLOCKEND  ---      ---       LVL=0

      00FC8CC4H   BLOCK     ECODE    ---       LVL=0
      00012265H   SYMBOL    XDATA    INT       spi_n
      00012267H   SYMBOL    XDATA    ---       write_buffer
      0001226BH   SYMBOL    XDATA    ---       read_buffer
      0001226FH   SYMBOL    XDATA    DWORD     len
      00FC8CC4H   LINE      ECODE    ---       #1068
      00FC8CD4H   LINE      ECODE    ---       #1070
      00FC8CD6H   LINE      ECODE    ---       #1072
      00FC8CE4H   LINE      ECODE    ---       #1074
      00FC8D27H   LINE      ECODE    ---       #1075
      00FC8D29H   LINE      ECODE    ---       #1078
      00FC8D49H   LINE      ECODE    ---       #1079
      00FC8D49H   LINE      ECODE    ---       #1080
      00FC8D69H   LINE      ECODE    ---       #1081
      ---         BLOCKEND  ---      ---       LVL=0

      00FC8D6AH   BLOCK     ECODE    ---       LVL=0
      00012273H   SYMBOL    XDATA    INT       spi_n
      00012275H   SYMBOL    XDATA    ---       write_buffer
      00012279H   SYMBOL    XDATA    ---       read_buffer
      0001227DH   SYMBOL    XDATA    DWORD     len
      00FC8D6AH   LINE      ECODE    ---       #1092
      00FC8D7AH   LINE      ECODE    ---       #1094
      00FC8D7DH   LINE      ECODE    ---       #1096
      00FC8D8EH   LINE      ECODE    ---       #1098
      00FC8DBEH   LINE      ECODE    ---       #1099
      00FC8DF7H   LINE      ECODE    ---       #1100
      00FC8E0AH   LINE      ECODE    ---       #1101
      00FC8E0CH   LINE      ECODE    ---       #1104
      00FC8E2DH   LINE      ECODE    ---       #1105
      00FC8E4AH   LINE      ECODE    ---       #1106
      00FC8E4AH   LINE      ECODE    ---       #1107
      00FC8E5DH   LINE      ECODE    ---       #1108
      00FC8E7DH   LINE      ECODE    ---       #1109
      ---         BLOCKEND  ---      ---       LVL=0

      00FC8E7EH   BLOCK     ECODE    ---       LVL=0
      00011F9DH   SYMBOL    XDATA    INT       spi_n
      00011F9FH   SYMBOL    XDATA    INT       mode
      00011FA1H   SYMBOL    XDATA    DWORD     baud
      00011FA5H   SYMBOL    XDATA    INT       sck_pin
      00011FA7H   SYMBOL    XDATA    INT       mosi_pin
      00011FA9H   SYMBOL    XDATA    INT       miso_pin
      00011FABH   SYMBOL    XDATA    INT       cs_pin
      00FC8E94H   BLOCK     ECODE    NEAR LAB  LVL=1
      00011FADH   SYMBOL    XDATA    DWORD     spi_psc
      ---         BLOCKEND  ---      ---       LVL=1
      00FC8E7EH   LINE      ECODE    ---       #1124
      00FC8E94H   LINE      ECODE    ---       #1125
      00FC8E94H   LINE      ECODE    ---       #1126
      00FC8EA0H   LINE      ECODE    ---       #1128
      00FC8EBCH   LINE      ECODE    ---       #1130
      00FC8ECDH   LINE      ECODE    ---       #1132
      00FC8ECDH   LINE      ECODE    ---       #1134
      00FC8EE7H   LINE      ECODE    ---       #1135
      00FC8F01H   LINE      ECODE    ---       #1137
L251 LINKER/LOCATER V4.66.93.0                                                        03/25/2026  13:05:55  PAGE 102


      00FC8F0FH   LINE      ECODE    ---       #1139
      00FC8F25H   LINE      ECODE    ---       #1140
      00FC8F25H   LINE      ECODE    ---       #1142
      00FC8F33H   LINE      ECODE    ---       #1144
      00FC8F4CH   LINE      ECODE    ---       #1145
      00FC8F4CH   LINE      ECODE    ---       #1148
      00FC8F5CH   LINE      ECODE    ---       #1150
      00FC8F6EH   LINE      ECODE    ---       #1151
      00FC8F80H   LINE      ECODE    ---       #1152
      00FC8F8EH   LINE      ECODE    ---       #1154
      00FC8FA0H   LINE      ECODE    ---       #1155
      00FC8FA0H   LINE      ECODE    ---       #1156
      00FC8FAEH   LINE      ECODE    ---       #1158
      00FC8FC0H   LINE      ECODE    ---       #1159
      00FC8FC0H   LINE      ECODE    ---       #1162
      00FC8FDBH   LINE      ECODE    ---       #1164
      00FC8FDBH   LINE      ECODE    ---       #1166
      00FC8FDEH   LINE      ECODE    ---       #1167
      00FC9000H   LINE      ECODE    ---       #1169
      00FC9006H   LINE      ECODE    ---       #1170
      00FC900BH   LINE      ECODE    ---       #1171
      00FC9010H   LINE      ECODE    ---       #1172
      00FC9013H   LINE      ECODE    ---       #1173
      00FC9013H   LINE      ECODE    ---       #1175
      00FC9016H   LINE      ECODE    ---       #1176
      00FC9019H   LINE      ECODE    ---       #1178
      00FC903BH   LINE      ECODE    ---       #1185
      00FC905FH   LINE      ECODE    ---       #1187
      00FC9071H   LINE      ECODE    ---       #1189
      00FC9076H   LINE      ECODE    ---       #1190
      00FC907BH   LINE      ECODE    ---       #1191
      00FC907EH   LINE      ECODE    ---       #1192
      00FC907EH   LINE      ECODE    ---       #1193
      00FC907EH   LINE      ECODE    ---       #1194
      00FC9081H   LINE      ECODE    ---       #1195
      00FC9084H   LINE      ECODE    ---       #1198
      00FC9084H   LINE      ECODE    ---       #1200
      00FC9096H   LINE      ECODE    ---       #1201
      00FC90B8H   LINE      ECODE    ---       #1203
      00FC90C8H   LINE      ECODE    ---       #1204
      00FC90DCH   LINE      ECODE    ---       #1205
      00FC90F0H   LINE      ECODE    ---       #1206
      00FC9102H   LINE      ECODE    ---       #1207
      00FC9102H   LINE      ECODE    ---       #1209
      00FC910EH   LINE      ECODE    ---       #1210
      00FC9120H   LINE      ECODE    ---       #1212
      00FC9142H   LINE      ECODE    ---       #1218
      00FC9166H   LINE      ECODE    ---       #1220
      00FC9178H   LINE      ECODE    ---       #1222
      00FC918CH   LINE      ECODE    ---       #1223
      00FC91A0H   LINE      ECODE    ---       #1224
      00FC91B2H   LINE      ECODE    ---       #1225
      00FC91B2H   LINE      ECODE    ---       #1226
      00FC91B2H   LINE      ECODE    ---       #1227
      00FC91C4H   LINE      ECODE    ---       #1228
      00FC91C7H   LINE      ECODE    ---       #1231
      00FC91C7H   LINE      ECODE    ---       #1233
      00FC91D9H   LINE      ECODE    ---       #1234
      00FC91FBH   LINE      ECODE    ---       #1236
      00FC920BH   LINE      ECODE    ---       #1237
      00FC921FH   LINE      ECODE    ---       #1238
      00FC9233H   LINE      ECODE    ---       #1239
      00FC9245H   LINE      ECODE    ---       #1240
      00FC9245H   LINE      ECODE    ---       #1242
      00FC9251H   LINE      ECODE    ---       #1243
L251 LINKER/LOCATER V4.66.93.0                                                        03/25/2026  13:05:55  PAGE 103


      00FC9263H   LINE      ECODE    ---       #1245
      00FC9285H   LINE      ECODE    ---       #1251
      00FC92A9H   LINE      ECODE    ---       #1254
      00FC92BBH   LINE      ECODE    ---       #1256
      00FC92CFH   LINE      ECODE    ---       #1257
      00FC92E3H   LINE      ECODE    ---       #1258
      00FC92F5H   LINE      ECODE    ---       #1259
      00FC92F5H   LINE      ECODE    ---       #1260
      00FC92F5H   LINE      ECODE    ---       #1261
      00FC9307H   LINE      ECODE    ---       #1262
      00FC9307H   LINE      ECODE    ---       #1265
      00FC9307H   LINE      ECODE    ---       #1267
      00FC9307H   LINE      ECODE    ---       #1268
      00FC9307H   LINE      ECODE    ---       #1269
      ---         BLOCKEND  ---      ---       LVL=0

      ---         MODULE    ---      ---       zf_driver_timer
      00FE1CCFH   PUBLIC    ECODE    ---       timer_funciton_check?
      000000D0H   SFRSYM    DATA     BYTE      PSW
      0000009DH   SFRSYM    DATA     BYTE      IRCBAND
      00000097H   SFRSYM    DATA     BYTE      AUXR2
      000000EAH   SFRSYM    DATA     BYTE      CKCON
      000000EFH   SFRSYM    DATA     BYTE      AUXINTIF
      000000FDH   SFRSYM    DATA     BYTE      S4CON
      000000ACH   SFRSYM    DATA     BYTE      S3CON
      0000009AH   SFRSYM    DATA     BYTE      S2CON
      000000B7H   SFRSYM    DATA     BYTE      IPH
      000000CDH   SFRSYM    DATA     BYTE      SPSTAT
      000000DDH   SFRSYM    DATA     BYTE      T4T3M
      000000C1H   SFRSYM    DATA     BYTE      WDT_CONTR
      000000DFH   SFRSYM    DATA     BYTE      IP3
      000000F4H   SFRSYM    DATA     BYTE      USBCON
      000000B5H   SFRSYM    DATA     BYTE      IP2
      000000FFH   SFRSYM    DATA     BYTE      RSTCFG
      000000E0H   SFRSYM    DATA     BYTE      ACC
      000000C7H   SFRSYM    DATA     BYTE      IAP_CONTR
      000000F9H   SFRSYM    DATA     BYTE      LINICR
      0000008EH   SFRSYM    DATA     BYTE      AUXR
      000000F0H   SFRSYM    DATA     BYTE      B
      000000AFH   SFRSYM    DATA     BYTE      IE2
      00000088H   SFRSYM    DATA     BYTE      TCON
      00000089H   SFRSYM    DATA     BYTE      TMOD
      00000098H   SFRSYM    DATA     BYTE      SCON
      00000087H   SFRSYM    DATA     BYTE      PCON
      000000BCH   SFRSYM    DATA     BYTE      ADC_CONTR
      000000D1H   SFRSYM    DATA     BYTE      PSW1
      000000E7H   SFRSYM    DATA     BYTE      CMPCR2
      000000E6H   SFRSYM    DATA     BYTE      CMPCR1
      000000DEH   SFRSYM    DATA     BYTE      ADCCFG
      000000B8H   SFRSYM    DATA     BYTE      IP
      0000008FH   SFRSYM    DATA     BYTE      INTCLKO
      000000EEH   SFRSYM    DATA     BYTE      IP3H
      000000B6H   SFRSYM    DATA     BYTE      IP2H
      000000BFH   SFRSYM    DATA     BYTE      P_SW4
      000000A8H   SFRSYM    DATA     BYTE      IE
      000000BBH   SFRSYM    DATA     BYTE      P_SW3
      000000BAH   SFRSYM    DATA     BYTE      P_SW2
      000000A2H   SFRSYM    DATA     BYTE      P_SW1
      000000CEH   SFRSYM    DATA     BYTE      SPCTL
      000000F8H   SFRSYM    DATA     BYTE      P7
      000000E8H   SFRSYM    DATA     BYTE      P6
      000000C8H   SFRSYM    DATA     BYTE      P5
      000000C0H   SFRSYM    DATA     BYTE      P4
      000000ABH   SFRSYM    DATA     BYTE      WKTCH
      000000B0H   SFRSYM    DATA     BYTE      P3
L251 LINKER/LOCATER V4.66.93.0                                                        03/25/2026  13:05:55  PAGE 104


      000000A0H   SFRSYM    DATA     BYTE      P2
      00000090H   SFRSYM    DATA     BYTE      P1
      00000080H   SFRSYM    DATA     BYTE      P0
      00011E2CH   SYMBOL    XDATA    ---       timer_function_state

      00FE1CCFH   BLOCK     ECODE    ---       LVL=0
      000128BBH   SYMBOL    XDATA    INT       index
      000128BDH   SYMBOL    XDATA    INT       mode
      00FE1CDBH   BLOCK     ECODE    NEAR LAB  LVL=1
      000128BFH   SYMBOL    XDATA    BYTE      return_state
      ---         BLOCKEND  ---      ---       LVL=1
      00FE1CCFH   LINE      ECODE    ---       #68
      00FE1CDBH   LINE      ECODE    ---       #69
      00FE1CDBH   LINE      ECODE    ---       #70
      00FE1CE1H   LINE      ECODE    ---       #71
      00FE1CFEH   LINE      ECODE    ---       #73
      00FE1D1BH   LINE      ECODE    ---       #74
      00FE1D1DH   LINE      ECODE    ---       #75
      00FE1D3EH   LINE      ECODE    ---       #77
      00FE1D44H   LINE      ECODE    ---       #78
      00FE1D46H   LINE      ECODE    ---       #81
      00FE1D4BH   LINE      ECODE    ---       #82
      00FE1D4BH   LINE      ECODE    ---       #83
      00FE1D4FH   LINE      ECODE    ---       #84
      ---         BLOCKEND  ---      ---       LVL=0

      ---         MODULE    ---      ---       zf_driver_uart
      00FCDACDH   PUBLIC    ECODE    ---       uart_tim_init?
      00FCD1BCH   PUBLIC    ECODE    ---       uart_rx_start_buff?
      00FCCD6CH   PUBLIC    ECODE    ---       uart_write_buffer?
      00FCD15CH   PUBLIC    ECODE    ---       uart_write_string?
      00FCD499H   PUBLIC    ECODE    ---       uart_read_byte?
      00FCE6ACH   PUBLIC    ECODE    ---       uart_init?
      00FCD396H   PUBLIC    ECODE    ---       uart_rx_interrupt?
      00FCD19BH   PUBLIC    ECODE    ---       uart_write_byte?
      00FCD68AH   PUBLIC    ECODE    ---       uart_dma_init?
      00FCD57CH   PUBLIC    ECODE    ---       uart_query_byte?
      00011AF0H   PUBLIC    XDATA    ---       uart_rx_buff
      00011AF8H   PUBLIC    XDATA    ---       uart_rx_handlers
      00012281H   PUBLIC    XDATA    BYTE      ?uart_tim_init??BYTE
      00011FD9H   PUBLIC    XDATA    BYTE      ?uart_init??BYTE
      000000D0H   SFRSYM    DATA     BYTE      PSW
      0000009DH   SFRSYM    DATA     BYTE      IRCBAND
      00000097H   SFRSYM    DATA     BYTE      AUXR2
      000000EAH   SFRSYM    DATA     BYTE      CKCON
      000000EFH   SFRSYM    DATA     BYTE      AUXINTIF
      000000FDH   SFRSYM    DATA     BYTE      S4CON
      000000ACH   SFRSYM    DATA     BYTE      S3CON
      0000009AH   SFRSYM    DATA     BYTE      S2CON
      000000B7H   SFRSYM    DATA     BYTE      IPH
      000000CDH   SFRSYM    DATA     BYTE      SPSTAT
      000000DDH   SFRSYM    DATA     BYTE      T4T3M
      000000C1H   SFRSYM    DATA     BYTE      WDT_CONTR
      00000088H.6 SFRSYM    DATA     BIT       TR1
      000000D3H   SFRSYM    DATA     BYTE      T4L
      000000D5H   SFRSYM    DATA     BYTE      T3L
      000000D7H   SFRSYM    DATA     BYTE      T2L
      0000008BH   SFRSYM    DATA     BYTE      TL1
      000000D2H   SFRSYM    DATA     BYTE      T4H
      000000D4H   SFRSYM    DATA     BYTE      T3H
      000000D6H   SFRSYM    DATA     BYTE      T2H
      0000008DH   SFRSYM    DATA     BYTE      TH1
      000000DFH   SFRSYM    DATA     BYTE      IP3
      000000F4H   SFRSYM    DATA     BYTE      USBCON
      000000B5H   SFRSYM    DATA     BYTE      IP2
L251 LINKER/LOCATER V4.66.93.0                                                        03/25/2026  13:05:55  PAGE 105


      000000FFH   SFRSYM    DATA     BYTE      RSTCFG
      000000E0H   SFRSYM    DATA     BYTE      ACC
      000000C7H   SFRSYM    DATA     BYTE      IAP_CONTR
      000000F9H   SFRSYM    DATA     BYTE      LINICR
      0000008EH   SFRSYM    DATA     BYTE      AUXR
      000000F0H   SFRSYM    DATA     BYTE      B
      000000AFH   SFRSYM    DATA     BYTE      IE2
      00000088H   SFRSYM    DATA     BYTE      TCON
      00000089H   SFRSYM    DATA     BYTE      TMOD
      00000098H   SFRSYM    DATA     BYTE      SCON
      00000087H   SFRSYM    DATA     BYTE      PCON
      000000BCH   SFRSYM    DATA     BYTE      ADC_CONTR
      000000D1H   SFRSYM    DATA     BYTE      PSW1
      000000E7H   SFRSYM    DATA     BYTE      CMPCR2
      000000E6H   SFRSYM    DATA     BYTE      CMPCR1
      000000DEH   SFRSYM    DATA     BYTE      ADCCFG
      000000B8H   SFRSYM    DATA     BYTE      IP
      0000008FH   SFRSYM    DATA     BYTE      INTCLKO
      000000EEH   SFRSYM    DATA     BYTE      IP3H
      000000B6H   SFRSYM    DATA     BYTE      IP2H
      000000BFH   SFRSYM    DATA     BYTE      P_SW4
      000000A8H   SFRSYM    DATA     BYTE      IE
      000000BBH   SFRSYM    DATA     BYTE      P_SW3
      000000BAH   SFRSYM    DATA     BYTE      P_SW2
      000000A2H   SFRSYM    DATA     BYTE      P_SW1
      000000CEH   SFRSYM    DATA     BYTE      SPCTL
      000000F8H   SFRSYM    DATA     BYTE      P7
      000000E8H   SFRSYM    DATA     BYTE      P6
      000000C8H   SFRSYM    DATA     BYTE      P5
      000000C0H   SFRSYM    DATA     BYTE      P4
      000000ABH   SFRSYM    DATA     BYTE      WKTCH
      000000B0H   SFRSYM    DATA     BYTE      P3
      000000A0H   SFRSYM    DATA     BYTE      P2
      00000090H   SFRSYM    DATA     BYTE      P1
      00000080H   SFRSYM    DATA     BYTE      P0
      00FE5199H   SYMBOL    HCONST   ---       ?tpl?0001
      00FE51D9H   SYMBOL    HCONST   ---       ?tpl?0002

      00FCCD6CH   BLOCK     ECODE    ---       LVL=0
      00011681H   SYMBOL    XDATA    INT       uart_n
      00011683H   SYMBOL    XDATA    ---       buff
      00011687H   SYMBOL    XDATA    WORD      len
      00FCCD82H   BLOCK     ECODE    NEAR LAB  LVL=1
      00011689H   SYMBOL    XDATA    ---       tmp_buff
      000116C9H   SYMBOL    XDATA    WORD      tmp_len
      ---         BLOCKEND  ---      ---       LVL=1
      00FCCD6CH   LINE      ECODE    ---       #190
      00FCCD82H   LINE      ECODE    ---       #191
      00FCCD82H   LINE      ECODE    ---       #195
      00FCCD98H   LINE      ECODE    ---       #196
      00FCCDA0H   LINE      ECODE    ---       #197
      00FCCDA3H   LINE      ECODE    ---       #199
      00FCCDC3H   LINE      ECODE    ---       #200
      00FCCDE3H   LINE      ECODE    ---       #201
      00FCCDF4H   LINE      ECODE    ---       #202
      00FCCE0DH   LINE      ECODE    ---       #204
      00FCCE65H   LINE      ECODE    ---       #205
      00FCCEBDH   LINE      ECODE    ---       #207
      00FCCF21H   LINE      ECODE    ---       #208
      00FCCF86H   LINE      ECODE    ---       #209
      00FCCFE6H   LINE      ECODE    ---       #210
      00FCD042H   LINE      ECODE    ---       #211
      00FCD09BH   LINE      ECODE    ---       #213
      00FCD0F4H   LINE      ECODE    ---       #215
      00FCD14CH   LINE      ECODE    ---       #216
L251 LINKER/LOCATER V4.66.93.0                                                        03/25/2026  13:05:55  PAGE 106


      00FCD15BH   LINE      ECODE    ---       #217
      ---         BLOCKEND  ---      ---       LVL=0

      00FCD15CH   BLOCK     ECODE    ---       LVL=0
      000126F4H   SYMBOL    XDATA    INT       uart_n
      000126F6H   SYMBOL    XDATA    ---       str
      00FCD16CH   BLOCK     ECODE    NEAR LAB  LVL=1
      000126FAH   SYMBOL    XDATA    WORD      len
      ---         BLOCKEND  ---      ---       LVL=1
      00FCD15CH   LINE      ECODE    ---       #225
      00FCD16CH   LINE      ECODE    ---       #226
      00FCD16CH   LINE      ECODE    ---       #227
      00FCD180H   LINE      ECODE    ---       #228
      00FCD19AH   LINE      ECODE    ---       #229
      ---         BLOCKEND  ---      ---       LVL=0

      00FCD19BH   BLOCK     ECODE    ---       LVL=0
      000129AFH   SYMBOL    XDATA    INT       uart_n
      000129B1H   SYMBOL    XDATA    BYTE      dat
      00FCD19BH   LINE      ECODE    ---       #238
      00FCD1A5H   LINE      ECODE    ---       #240
      00FCD1BBH   LINE      ECODE    ---       #241
      ---         BLOCKEND  ---      ---       LVL=0

      00FCD1BCH   BLOCK     ECODE    ---       LVL=0
      000129DCH   SYMBOL    XDATA    INT       uart_n
      00FCD1BCH   LINE      ECODE    ---       #249
      00FCD1C2H   LINE      ECODE    ---       #251
      00FCD21AH   LINE      ECODE    ---       #252
      00FCD270H   LINE      ECODE    ---       #253
      00FCD2D4H   LINE      ECODE    ---       #254
      00FCD33CH   LINE      ECODE    ---       #255
      00FCD395H   LINE      ECODE    ---       #256
      ---         BLOCKEND  ---      ---       LVL=0

      00FCD396H   BLOCK     ECODE    ---       LVL=0
      00012782H   SYMBOL    XDATA    INT       uart_n
      00012784H   SYMBOL    XDATA    BYTE      status
      00012785H   SYMBOL    XDATA    ---       callback_handler
      00FCD396H   LINE      ECODE    ---       #265
      00FCD3AAH   LINE      ECODE    ---       #267
      00FCD3B3H   LINE      ECODE    ---       #269
      00FCD411H   LINE      ECODE    ---       #270
      00FCD413H   LINE      ECODE    ---       #273
      00FCD471H   LINE      ECODE    ---       #274
      00FCD471H   LINE      ECODE    ---       #276
      00FCD498H   LINE      ECODE    ---       #277
      ---         BLOCKEND  ---      ---       LVL=0

      00FCD499H   BLOCK     ECODE    ---       LVL=0
      000129B2H   SYMBOL    XDATA    INT       uart_n
      00FCD49FH   BLOCK     ECODE    NEAR LAB  LVL=1
      000129B4H   SYMBOL    XDATA    BYTE      dat
      ---         BLOCKEND  ---      ---       LVL=1
      00FCD499H   LINE      ECODE    ---       #286
      00FCD49FH   LINE      ECODE    ---       #287
      00FCD49FH   LINE      ECODE    ---       #291
      00FCD4FEH   LINE      ECODE    ---       #294
      00FCD515H   LINE      ECODE    ---       #297
      00FCD56DH   LINE      ECODE    ---       #300
      00FCD577H   LINE      ECODE    ---       #301
      00FCD57BH   LINE      ECODE    ---       #302
      ---         BLOCKEND  ---      ---       LVL=0

      00FCD57CH   BLOCK     ECODE    ---       LVL=0
L251 LINKER/LOCATER V4.66.93.0                                                        03/25/2026  13:05:55  PAGE 107


      00012789H   SYMBOL    XDATA    INT       uart_n
      0001278BH   SYMBOL    XDATA    ---       dat
      00FCD58CH   BLOCK     ECODE    NEAR LAB  LVL=1
      0001278FH   SYMBOL    XDATA    BYTE      ret
      ---         BLOCKEND  ---      ---       LVL=1
      00FCD57CH   LINE      ECODE    ---       #311
      00FCD58CH   LINE      ECODE    ---       #312
      00FCD58CH   LINE      ECODE    ---       #313
      00FCD591H   LINE      ECODE    ---       #316
      00FCD5B1H   LINE      ECODE    ---       #318
      00FCD610H   LINE      ECODE    ---       #320
      00FCD616H   LINE      ECODE    ---       #322
      00FCD674H   LINE      ECODE    ---       #323
      00FCD676H   LINE      ECODE    ---       #326
      00FCD67BH   LINE      ECODE    ---       #327
      00FCD67BH   LINE      ECODE    ---       #330
      00FCD685H   LINE      ECODE    ---       #332
      00FCD689H   LINE      ECODE    ---       #333
      ---         BLOCKEND  ---      ---       LVL=0

      00FCD68AH   BLOCK     ECODE    ---       LVL=0
      000129DEH   SYMBOL    XDATA    INT       uart_n
      00FCD68AH   LINE      ECODE    ---       #341
      00FCD690H   LINE      ECODE    ---       #343
      00FCD6E8H   LINE      ECODE    ---       #344
      00FCD740H   LINE      ECODE    ---       #345
      00FCD798H   LINE      ECODE    ---       #347
      00FCD7F0H   LINE      ECODE    ---       #348
      00FCD848H   LINE      ECODE    ---       #349
      00FCD8A0H   LINE      ECODE    ---       #351
      00FCD8F8H   LINE      ECODE    ---       #352
      00FCD94EH   LINE      ECODE    ---       #353
      00FCD9B2H   LINE      ECODE    ---       #354
      00FCDA1AH   LINE      ECODE    ---       #355
      00FCDA73H   LINE      ECODE    ---       #356
      00FCDACCH   LINE      ECODE    ---       #358
      ---         BLOCKEND  ---      ---       LVL=0

      00FCDACDH   BLOCK     ECODE    ---       LVL=0
      00012281H   SYMBOL    XDATA    INT       uart_n
      00012283H   SYMBOL    XDATA    DWORD     baud
      00012287H   SYMBOL    XDATA    INT       tx_pin
      00012289H   SYMBOL    XDATA    INT       rx_pin
      0001228BH   SYMBOL    XDATA    INT       tim_n
      00FCDAE3H   BLOCK     ECODE    NEAR LAB  LVL=1
      0001228DH   SYMBOL    XDATA    WORD      brt
      ---         BLOCKEND  ---      ---       LVL=1
      00FCDACDH   LINE      ECODE    ---       #370
      00FCDAE3H   LINE      ECODE    ---       #371
      00FCDAE3H   LINE      ECODE    ---       #378
      00FCDB01H   LINE      ECODE    ---       #383
      00FCDB38H   LINE      ECODE    ---       #388
      00FCDB6FH   LINE      ECODE    ---       #389
      00FCDBA6H   LINE      ECODE    ---       #392
      00FCDBC0H   LINE      ECODE    ---       #393
      00FCDBD8H   LINE      ECODE    ---       #395
      00FCDC0EH   LINE      ECODE    ---       #397
      00FCDC3DH   LINE      ECODE    ---       #399
      00FCDC3DH   LINE      ECODE    ---       #401
      00FCDC4BH   LINE      ECODE    ---       #403
      00FCDC4EH   LINE      ECODE    ---       #404
      00FCDC51H   LINE      ECODE    ---       #405
      00FCDC59H   LINE      ECODE    ---       #406
      00FCDC65H   LINE      ECODE    ---       #407
      00FCDC68H   LINE      ECODE    ---       #408
L251 LINKER/LOCATER V4.66.93.0                                                        03/25/2026  13:05:55  PAGE 108


      00FCDC6BH   LINE      ECODE    ---       #409
      00FCDC6DH   LINE      ECODE    ---       #410
      00FCDC7BH   LINE      ECODE    ---       #412
      00FCDC7EH   LINE      ECODE    ---       #413
      00FCDC86H   LINE      ECODE    ---       #414
      00FCDC92H   LINE      ECODE    ---       #415
      00FCDC95H   LINE      ECODE    ---       #416
      00FCDC95H   LINE      ECODE    ---       #418
      00FCDC98H   LINE      ECODE    ---       #420
      00FCDCB4H   LINE      ECODE    ---       #422
      00FCDCB8H   LINE      ECODE    ---       #423
      00FCDCBBH   LINE      ECODE    ---       #424
      00FCDCD7H   LINE      ECODE    ---       #426
      00FCDCDAH   LINE      ECODE    ---       #427
      00FCDCDDH   LINE      ECODE    ---       #428
      00FCDCF9H   LINE      ECODE    ---       #430
      00FCDCFCH   LINE      ECODE    ---       #431
      00FCDCFFH   LINE      ECODE    ---       #432
      00FCDD21H   LINE      ECODE    ---       #434
      00FCDD24H   LINE      ECODE    ---       #435
      00FCDD24H   LINE      ECODE    ---       #438
      00FCDD27H   LINE      ECODE    ---       #441
      00FCDD27H   LINE      ECODE    ---       #443
      00FCDD35H   LINE      ECODE    ---       #445
      00FCDD38H   LINE      ECODE    ---       #446
      00FCDD40H   LINE      ECODE    ---       #447
      00FCDD4CH   LINE      ECODE    ---       #448
      00FCDD4FH   LINE      ECODE    ---       #449
      00FCDD4FH   LINE      ECODE    ---       #451
      00FCDD52H   LINE      ECODE    ---       #452
      00FCDD64H   LINE      ECODE    ---       #453
      00FCDD80H   LINE      ECODE    ---       #455
      00FCDD84H   LINE      ECODE    ---       #456
      00FCDD92H   LINE      ECODE    ---       #457
      00FCDD95H   LINE      ECODE    ---       #458
      00FCDDB1H   LINE      ECODE    ---       #460
      00FCDDB4H   LINE      ECODE    ---       #461
      00FCDDC2H   LINE      ECODE    ---       #462
      00FCDDC5H   LINE      ECODE    ---       #463
      00FCDDE1H   LINE      ECODE    ---       #465
      00FCDDE5H   LINE      ECODE    ---       #466
      00FCDDF7H   LINE      ECODE    ---       #467
      00FCDDFAH   LINE      ECODE    ---       #468
      00FCDE1CH   LINE      ECODE    ---       #470
      00FCDE1FH   LINE      ECODE    ---       #471
      00FCDE31H   LINE      ECODE    ---       #472
      00FCDE31H   LINE      ECODE    ---       #475
      00FCDE34H   LINE      ECODE    ---       #478
      00FCDE34H   LINE      ECODE    ---       #480
      00FCDE42H   LINE      ECODE    ---       #482
      00FCDE4AH   LINE      ECODE    ---       #483
      00FCDE56H   LINE      ECODE    ---       #484
      00FCDE59H   LINE      ECODE    ---       #485
      00FCDE5BH   LINE      ECODE    ---       #486
      00FCDE69H   LINE      ECODE    ---       #488
      00FCDE71H   LINE      ECODE    ---       #489
      00FCDE7DH   LINE      ECODE    ---       #490
      00FCDE80H   LINE      ECODE    ---       #491
      00FCDE80H   LINE      ECODE    ---       #493
      00FCDE83H   LINE      ECODE    ---       #494
      00FCDE86H   LINE      ECODE    ---       #495
      00FCDE98H   LINE      ECODE    ---       #497
      00FCDEB4H   LINE      ECODE    ---       #499
      00FCDEB8H   LINE      ECODE    ---       #500
      00FCDEC6H   LINE      ECODE    ---       #501
L251 LINKER/LOCATER V4.66.93.0                                                        03/25/2026  13:05:55  PAGE 109


      00FCDEC9H   LINE      ECODE    ---       #502
      00FCDEE5H   LINE      ECODE    ---       #504
      00FCDEE8H   LINE      ECODE    ---       #505
      00FCDEF6H   LINE      ECODE    ---       #506
      00FCDEF9H   LINE      ECODE    ---       #507
      00FCDF15H   LINE      ECODE    ---       #509
      00FCDF19H   LINE      ECODE    ---       #510
      00FCDF2BH   LINE      ECODE    ---       #511
      00FCDF2EH   LINE      ECODE    ---       #512
      00FCDF50H   LINE      ECODE    ---       #514
      00FCDF53H   LINE      ECODE    ---       #515
      00FCDF65H   LINE      ECODE    ---       #516
      00FCDF65H   LINE      ECODE    ---       #519
      00FCDF68H   LINE      ECODE    ---       #522
      00FCDF68H   LINE      ECODE    ---       #524
      00FCDF76H   LINE      ECODE    ---       #526
      00FCDF7EH   LINE      ECODE    ---       #527
      00FCDF8AH   LINE      ECODE    ---       #528
      00FCDF8DH   LINE      ECODE    ---       #530
      00FCDF9FH   LINE      ECODE    ---       #531
      00FCDFA1H   LINE      ECODE    ---       #532
      00FCDFAFH   LINE      ECODE    ---       #534
      00FCDFB7H   LINE      ECODE    ---       #535
      00FCDFC3H   LINE      ECODE    ---       #536
      00FCDFC6H   LINE      ECODE    ---       #538
      00FCDFD8H   LINE      ECODE    ---       #539
      00FCDFD8H   LINE      ECODE    ---       #540
      00FCDFDBH   LINE      ECODE    ---       #541
      00FCDFDEH   LINE      ECODE    ---       #542
      00FCDFF0H   LINE      ECODE    ---       #543
      00FCE00CH   LINE      ECODE    ---       #545
      00FCE010H   LINE      ECODE    ---       #546
      00FCE01EH   LINE      ECODE    ---       #547
      00FCE021H   LINE      ECODE    ---       #548
      00FCE03DH   LINE      ECODE    ---       #550
      00FCE040H   LINE      ECODE    ---       #551
      00FCE04EH   LINE      ECODE    ---       #552
      00FCE051H   LINE      ECODE    ---       #553
      00FCE06DH   LINE      ECODE    ---       #555
      00FCE071H   LINE      ECODE    ---       #556
      00FCE083H   LINE      ECODE    ---       #557
      00FCE086H   LINE      ECODE    ---       #558
      00FCE0A8H   LINE      ECODE    ---       #560
      00FCE0ABH   LINE      ECODE    ---       #561
      00FCE0BDH   LINE      ECODE    ---       #562
      00FCE0BDH   LINE      ECODE    ---       #566
      00FCE0C0H   LINE      ECODE    ---       #569
      00FCE0C0H   LINE      ECODE    ---       #572
      00FCE0CEH   LINE      ECODE    ---       #574
      00FCE0D6H   LINE      ECODE    ---       #575
      00FCE0E2H   LINE      ECODE    ---       #576
      00FCE0E5H   LINE      ECODE    ---       #577
      00FCE0F7H   LINE      ECODE    ---       #578
      00FCE0F9H   LINE      ECODE    ---       #579
      00FCE107H   LINE      ECODE    ---       #581
      00FCE118H   LINE      ECODE    ---       #582
      00FCE12DH   LINE      ECODE    ---       #583
      00FCE13FH   LINE      ECODE    ---       #584
      00FCE151H   LINE      ECODE    ---       #585
      00FCE151H   LINE      ECODE    ---       #587
      00FCE163H   LINE      ECODE    ---       #588
      00FCE175H   LINE      ECODE    ---       #590
      00FCE191H   LINE      ECODE    ---       #592
      00FCE19FH   LINE      ECODE    ---       #593
      00FCE1A2H   LINE      ECODE    ---       #594
L251 LINKER/LOCATER V4.66.93.0                                                        03/25/2026  13:05:55  PAGE 110


      00FCE1BEH   LINE      ECODE    ---       #596
      00FCE1D0H   LINE      ECODE    ---       #597
      00FCE1D3H   LINE      ECODE    ---       #598
      00FCE1EFH   LINE      ECODE    ---       #600
      00FCE201H   LINE      ECODE    ---       #601
      00FCE204H   LINE      ECODE    ---       #602
      00FCE226H   LINE      ECODE    ---       #604
      00FCE238H   LINE      ECODE    ---       #605
      00FCE238H   LINE      ECODE    ---       #606
      00FCE23BH   LINE      ECODE    ---       #609
      00FCE23BH   LINE      ECODE    ---       #611
      00FCE249H   LINE      ECODE    ---       #613
      00FCE251H   LINE      ECODE    ---       #614
      00FCE25DH   LINE      ECODE    ---       #615
      00FCE260H   LINE      ECODE    ---       #616
      00FCE272H   LINE      ECODE    ---       #617
      00FCE274H   LINE      ECODE    ---       #618
      00FCE282H   LINE      ECODE    ---       #620
      00FCE293H   LINE      ECODE    ---       #621
      00FCE2A8H   LINE      ECODE    ---       #622
      00FCE2BAH   LINE      ECODE    ---       #623
      00FCE2CCH   LINE      ECODE    ---       #624
      00FCE2CCH   LINE      ECODE    ---       #626
      00FCE2DEH   LINE      ECODE    ---       #627
      00FCE2F0H   LINE      ECODE    ---       #629
      00FCE30CH   LINE      ECODE    ---       #631
      00FCE31AH   LINE      ECODE    ---       #632
      00FCE31DH   LINE      ECODE    ---       #633
      00FCE339H   LINE      ECODE    ---       #635
      00FCE34BH   LINE      ECODE    ---       #636
      00FCE34EH   LINE      ECODE    ---       #637
      00FCE36AH   LINE      ECODE    ---       #639
      00FCE37CH   LINE      ECODE    ---       #640
      00FCE37FH   LINE      ECODE    ---       #641
      00FCE3A1H   LINE      ECODE    ---       #643
      00FCE3B3H   LINE      ECODE    ---       #644
      00FCE3B3H   LINE      ECODE    ---       #645
      00FCE3B6H   LINE      ECODE    ---       #648
      00FCE3B6H   LINE      ECODE    ---       #651
      00FCE3C4H   LINE      ECODE    ---       #653
      00FCE3CCH   LINE      ECODE    ---       #654
      00FCE3D8H   LINE      ECODE    ---       #655
      00FCE3DBH   LINE      ECODE    ---       #656
      00FCE3EDH   LINE      ECODE    ---       #657
      00FCE3EFH   LINE      ECODE    ---       #658
      00FCE3FDH   LINE      ECODE    ---       #660
      00FCE40EH   LINE      ECODE    ---       #661
      00FCE423H   LINE      ECODE    ---       #662
      00FCE435H   LINE      ECODE    ---       #663
      00FCE447H   LINE      ECODE    ---       #664
      00FCE447H   LINE      ECODE    ---       #666
      00FCE459H   LINE      ECODE    ---       #667
      00FCE46BH   LINE      ECODE    ---       #668
      00FCE487H   LINE      ECODE    ---       #670
      00FCE495H   LINE      ECODE    ---       #671
      00FCE498H   LINE      ECODE    ---       #672
      00FCE4B4H   LINE      ECODE    ---       #674
      00FCE4C6H   LINE      ECODE    ---       #675
      00FCE4C9H   LINE      ECODE    ---       #676
      00FCE4E5H   LINE      ECODE    ---       #678
      00FCE4F7H   LINE      ECODE    ---       #679
      00FCE4FAH   LINE      ECODE    ---       #680
      00FCE51CH   LINE      ECODE    ---       #682
      00FCE52EH   LINE      ECODE    ---       #683
      00FCE52EH   LINE      ECODE    ---       #684
L251 LINKER/LOCATER V4.66.93.0                                                        03/25/2026  13:05:55  PAGE 111


      00FCE531H   LINE      ECODE    ---       #687
      00FCE531H   LINE      ECODE    ---       #689
      00FCE53FH   LINE      ECODE    ---       #691
      00FCE547H   LINE      ECODE    ---       #692
      00FCE553H   LINE      ECODE    ---       #693
      00FCE556H   LINE      ECODE    ---       #694
      00FCE568H   LINE      ECODE    ---       #695
      00FCE56AH   LINE      ECODE    ---       #696
      00FCE578H   LINE      ECODE    ---       #698
      00FCE589H   LINE      ECODE    ---       #699
      00FCE59EH   LINE      ECODE    ---       #700
      00FCE5B0H   LINE      ECODE    ---       #701
      00FCE5C2H   LINE      ECODE    ---       #702
      00FCE5C2H   LINE      ECODE    ---       #704
      00FCE5D4H   LINE      ECODE    ---       #705
      00FCE5E6H   LINE      ECODE    ---       #706
      00FCE602H   LINE      ECODE    ---       #708
      00FCE610H   LINE      ECODE    ---       #709
      00FCE613H   LINE      ECODE    ---       #710
      00FCE62FH   LINE      ECODE    ---       #712
      00FCE641H   LINE      ECODE    ---       #713
      00FCE643H   LINE      ECODE    ---       #714
      00FCE65FH   LINE      ECODE    ---       #716
      00FCE671H   LINE      ECODE    ---       #717
      00FCE673H   LINE      ECODE    ---       #718
      00FCE68FH   LINE      ECODE    ---       #720
      00FCE6A1H   LINE      ECODE    ---       #721
      00FCE6A1H   LINE      ECODE    ---       #722
      00FCE6A1H   LINE      ECODE    ---       #724
      00FCE6A1H   LINE      ECODE    ---       #727
      00FCE6ABH   LINE      ECODE    ---       #729
      ---         BLOCKEND  ---      ---       LVL=0

      00FCE6ACH   BLOCK     ECODE    ---       LVL=0
      00011FD9H   SYMBOL    XDATA    INT       uart_n
      00011FDBH   SYMBOL    XDATA    DWORD     baud
      00011FDFH   SYMBOL    XDATA    INT       tx_pin
      00011FE1H   SYMBOL    XDATA    INT       rx_pin
      00FCE6C2H   BLOCK     ECODE    NEAR LAB  LVL=1
      00011FE3H   SYMBOL    XDATA    ---       tim_index_map
      00011FEBH   SYMBOL    XDATA    BYTE      tim_index
      ---         BLOCKEND  ---      ---       LVL=1
      00FCE6ACH   LINE      ECODE    ---       #731
      00FCE6C2H   LINE      ECODE    ---       #732
      00FCE6C2H   LINE      ECODE    ---       #734
      00FCE6D8H   LINE      ECODE    ---       #736
      00FCE6EFH   LINE      ECODE    ---       #739
      00FCE71EH   LINE      ECODE    ---       #741
      00FCE750H   LINE      ECODE    ---       #742
      ---         BLOCKEND  ---      ---       LVL=0

      ---         MODULE    ---      ---       zf_driver_usb_cdc
      00FCFE64H   PUBLIC    ECODE    ---       usb_cdc_write_buffer?
      00FCFF94H   PUBLIC    ECODE    ---       usb_cdc_write_string?
      00FCFE5FH   PUBLIC    ECODE    ---       usb_cdc_init?
      00FCFFC7H   PUBLIC    ECODE    ---       usb_cdc_rx_interrupt?
      00FCFF7FH   PUBLIC    ECODE    ---       usb_cdc_write_byte?
      0001293DH   PUBLIC    XDATA    ---       usb_cdc_read_buffer_handler
      000000D0H   SFRSYM    DATA     BYTE      PSW
      0000009DH   SFRSYM    DATA     BYTE      IRCBAND
      00000097H   SFRSYM    DATA     BYTE      AUXR2
      000000EAH   SFRSYM    DATA     BYTE      CKCON
      000000EFH   SFRSYM    DATA     BYTE      AUXINTIF
      000000FDH   SFRSYM    DATA     BYTE      S4CON
      000000ACH   SFRSYM    DATA     BYTE      S3CON
L251 LINKER/LOCATER V4.66.93.0                                                        03/25/2026  13:05:55  PAGE 112


      0000009AH   SFRSYM    DATA     BYTE      S2CON
      000000B7H   SFRSYM    DATA     BYTE      IPH
      000000CDH   SFRSYM    DATA     BYTE      SPSTAT
      000000DDH   SFRSYM    DATA     BYTE      T4T3M
      000000C1H   SFRSYM    DATA     BYTE      WDT_CONTR
      000000DFH   SFRSYM    DATA     BYTE      IP3
      000000F4H   SFRSYM    DATA     BYTE      USBCON
      000000B5H   SFRSYM    DATA     BYTE      IP2
      000000FFH   SFRSYM    DATA     BYTE      RSTCFG
      000000E0H   SFRSYM    DATA     BYTE      ACC
      000000C7H   SFRSYM    DATA     BYTE      IAP_CONTR
      000000F9H   SFRSYM    DATA     BYTE      LINICR
      0000008EH   SFRSYM    DATA     BYTE      AUXR
      000000F0H   SFRSYM    DATA     BYTE      B
      000000AFH   SFRSYM    DATA     BYTE      IE2
      00000088H   SFRSYM    DATA     BYTE      TCON
      00000089H   SFRSYM    DATA     BYTE      TMOD
      00000098H   SFRSYM    DATA     BYTE      SCON
      00000087H   SFRSYM    DATA     BYTE      PCON
      000000BCH   SFRSYM    DATA     BYTE      ADC_CONTR
      000000AFH.7 SFRSYM    DATA     BIT       EUSB
      000000D1H   SFRSYM    DATA     BYTE      PSW1
      000000E7H   SFRSYM    DATA     BYTE      CMPCR2
      000000E6H   SFRSYM    DATA     BYTE      CMPCR1
      000000DEH   SFRSYM    DATA     BYTE      ADCCFG
      000000B8H   SFRSYM    DATA     BYTE      IP
      0000008FH   SFRSYM    DATA     BYTE      INTCLKO
      000000EEH   SFRSYM    DATA     BYTE      IP3H
      000000B6H   SFRSYM    DATA     BYTE      IP2H
      000000BFH   SFRSYM    DATA     BYTE      P_SW4
      000000A8H   SFRSYM    DATA     BYTE      IE
      000000BBH   SFRSYM    DATA     BYTE      P_SW3
      000000BAH   SFRSYM    DATA     BYTE      P_SW2
      000000A2H   SFRSYM    DATA     BYTE      P_SW1
      000000CEH   SFRSYM    DATA     BYTE      SPCTL
      000000F8H   SFRSYM    DATA     BYTE      P7
      000000E8H   SFRSYM    DATA     BYTE      P6
      000000C8H   SFRSYM    DATA     BYTE      P5
      000000C0H   SFRSYM    DATA     BYTE      P4
      000000ABH   SFRSYM    DATA     BYTE      WKTCH
      000000B0H   SFRSYM    DATA     BYTE      P3
      000000A0H   SFRSYM    DATA     BYTE      P2
      00000090H   SFRSYM    DATA     BYTE      P1
      00000080H   SFRSYM    DATA     BYTE      P0

      00FCFE5FH   BLOCK     ECODE    ---       LVL=0
      00FCFE5FH   LINE      ECODE    ---       #45
      00FCFE5FH   LINE      ECODE    ---       #47
      00FCFE63H   LINE      ECODE    ---       #48
      ---         BLOCKEND  ---      ---       LVL=0

      00FCFE64H   BLOCK     ECODE    ---       LVL=0
      000123A9H   SYMBOL    XDATA    ---       buff
      000123ADH   SYMBOL    XDATA    WORD      len
      00FCFE74H   BLOCK     ECODE    NEAR LAB  LVL=1
      000123AFH   SYMBOL    XDATA    LONG      timeout
      000123B3H   SYMBOL    XDATA    BYTE      tmp_len
      000123B4H   SYMBOL    XDATA    BYTE      idx
      ---         BLOCKEND  ---      ---       LVL=1
      00FCFE64H   LINE      ECODE    ---       #52
      00FCFE74H   LINE      ECODE    ---       #53
      00FCFE74H   LINE      ECODE    ---       #54
      00FCFE82H   LINE      ECODE    ---       #55
      00FCFE87H   LINE      ECODE    ---       #56
      00FCFE8CH   LINE      ECODE    ---       #59
L251 LINKER/LOCATER V4.66.93.0                                                        03/25/2026  13:05:55  PAGE 113


      00FCFE95H   LINE      ECODE    ---       #60
      00FCFE9EH   LINE      ECODE    ---       #62
      00FCFEA1H   LINE      ECODE    ---       #64
      00FCFEAFH   LINE      ECODE    ---       #65
      00FCFECBH   LINE      ECODE    ---       #67
      00FCFECEH   LINE      ECODE    ---       #69
      00FCFED2H   LINE      ECODE    ---       #71
      00FCFEDBH   LINE      ECODE    ---       #74
      00FCFEE2H   LINE      ECODE    ---       #76
      00FCFEFEH   LINE      ECODE    ---       #77
      00FCFF17H   LINE      ECODE    ---       #80
      00FCFF20H   LINE      ECODE    ---       #82
      00FCFF24H   LINE      ECODE    ---       #85
      00FCFF44H   LINE      ECODE    ---       #88
      00FCFF54H   LINE      ECODE    ---       #90
      00FCFF5CH   LINE      ECODE    ---       #91
      00FCFF5CH   LINE      ECODE    ---       #94
      00FCFF6DH   LINE      ECODE    ---       #95
      00FCFF6DH   LINE      ECODE    ---       #96
      00FCFF7CH   LINE      ECODE    ---       #98
      00FCFF7EH   LINE      ECODE    ---       #99
      ---         BLOCKEND  ---      ---       LVL=0

      00FCFF7FH   BLOCK     ECODE    ---       LVL=0
      00012A06H   SYMBOL    XDATA    BYTE      dat
      00FCFF7FH   LINE      ECODE    ---       #101
      00FCFF83H   LINE      ECODE    ---       #103
      00FCFF93H   LINE      ECODE    ---       #104
      ---         BLOCKEND  ---      ---       LVL=0

      00FCFF94H   BLOCK     ECODE    ---       LVL=0
      00012828H   SYMBOL    XDATA    ---       str
      00FCFF9EH   BLOCK     ECODE    NEAR LAB  LVL=1
      0001282CH   SYMBOL    XDATA    WORD      len
      ---         BLOCKEND  ---      ---       LVL=1
      00FCFF94H   LINE      ECODE    ---       #106
      00FCFF9EH   LINE      ECODE    ---       #107
      00FCFF9EH   LINE      ECODE    ---       #108
      00FCFFB2H   LINE      ECODE    ---       #109
      00FCFFC6H   LINE      ECODE    ---       #110
      ---         BLOCKEND  ---      ---       LVL=0

      00FCFFC7H   BLOCK     ECODE    ---       LVL=0
      00012941H   SYMBOL    XDATA    ---       handler
      00FCFFC7H   LINE      ECODE    ---       #115
      00FCFFD1H   LINE      ECODE    ---       #118
      00FCFFE5H   LINE      ECODE    ---       #119
      ---         BLOCKEND  ---      ---       LVL=0

      ---         MODULE    ---      ---       zf_device_type
      00FE17F3H   PUBLIC    ECODE    ---       set_tof_type?
      00FE16CDH   PUBLIC    ECODE    ---       set_camera_type?
      00FE176EH   PUBLIC    ECODE    ---       set_wireless_type?
      00011DB6H   PUBLIC    XDATA    INT       camera_type
      00011DB8H   PUBLIC    XDATA    ---       tof_module_exti_handler
      00011DBCH   PUBLIC    XDATA    INT       wireless_type
      00011DBEH   PUBLIC    XDATA    ---       wireless_module_uart_handler
      00011DC2H   PUBLIC    XDATA    ---       camera_dma_handler
      00011DC6H   PUBLIC    XDATA    ---       camera_vsync_handler
      00011DCAH   PUBLIC    XDATA    ---       camera_uart_handler
      00011DCEH   PUBLIC    XDATA    ---       wireless_module_spi_handler
      00011DD2H   PUBLIC    XDATA    INT       tof_type
      0001228FH   PUBLIC    XDATA    BYTE      ?set_camera_type??BYTE
      000000D0H   SFRSYM    DATA     BYTE      PSW
      0000009DH   SFRSYM    DATA     BYTE      IRCBAND
L251 LINKER/LOCATER V4.66.93.0                                                        03/25/2026  13:05:55  PAGE 114


      00000097H   SFRSYM    DATA     BYTE      AUXR2
      000000EAH   SFRSYM    DATA     BYTE      CKCON
      000000EFH   SFRSYM    DATA     BYTE      AUXINTIF
      000000FDH   SFRSYM    DATA     BYTE      S4CON
      000000ACH   SFRSYM    DATA     BYTE      S3CON
      0000009AH   SFRSYM    DATA     BYTE      S2CON
      000000B7H   SFRSYM    DATA     BYTE      IPH
      000000CDH   SFRSYM    DATA     BYTE      SPSTAT
      000000DDH   SFRSYM    DATA     BYTE      T4T3M
      000000C1H   SFRSYM    DATA     BYTE      WDT_CONTR
      000000DFH   SFRSYM    DATA     BYTE      IP3
      000000F4H   SFRSYM    DATA     BYTE      USBCON
      000000B5H   SFRSYM    DATA     BYTE      IP2
      000000FFH   SFRSYM    DATA     BYTE      RSTCFG
      000000E0H   SFRSYM    DATA     BYTE      ACC
      000000C7H   SFRSYM    DATA     BYTE      IAP_CONTR
      000000F9H   SFRSYM    DATA     BYTE      LINICR
      0000008EH   SFRSYM    DATA     BYTE      AUXR
      000000F0H   SFRSYM    DATA     BYTE      B
      000000AFH   SFRSYM    DATA     BYTE      IE2
      00000088H   SFRSYM    DATA     BYTE      TCON
      00000089H   SFRSYM    DATA     BYTE      TMOD
      00000098H   SFRSYM    DATA     BYTE      SCON
      00000087H   SFRSYM    DATA     BYTE      PCON
      000000BCH   SFRSYM    DATA     BYTE      ADC_CONTR
      000000D1H   SFRSYM    DATA     BYTE      PSW1
      000000E7H   SFRSYM    DATA     BYTE      CMPCR2
      000000E6H   SFRSYM    DATA     BYTE      CMPCR1
      000000DEH   SFRSYM    DATA     BYTE      ADCCFG
      000000B8H   SFRSYM    DATA     BYTE      IP
      0000008FH   SFRSYM    DATA     BYTE      INTCLKO
      000000EEH   SFRSYM    DATA     BYTE      IP3H
      000000B6H   SFRSYM    DATA     BYTE      IP2H
      000000BFH   SFRSYM    DATA     BYTE      P_SW4
      000000A8H   SFRSYM    DATA     BYTE      IE
      000000BBH   SFRSYM    DATA     BYTE      P_SW3
      000000BAH   SFRSYM    DATA     BYTE      P_SW2
      000000A2H   SFRSYM    DATA     BYTE      P_SW1
      000000CEH   SFRSYM    DATA     BYTE      SPCTL
      000000F8H   SFRSYM    DATA     BYTE      P7
      000000E8H   SFRSYM    DATA     BYTE      P6
      000000C8H   SFRSYM    DATA     BYTE      P5
      000000C0H   SFRSYM    DATA     BYTE      P4
      000000ABH   SFRSYM    DATA     BYTE      WKTCH
      000000B0H   SFRSYM    DATA     BYTE      P3
      000000A0H   SFRSYM    DATA     BYTE      P2
      00000090H   SFRSYM    DATA     BYTE      P1
      00000080H   SFRSYM    DATA     BYTE      P0
      00FE16CCH   SYMBOL    ECODE    ---       type_default_callback?

      00FE16CCH   BLOCK     ECODE    ---       LVL=0
      00FE16CCH   LINE      ECODE    ---       #59
      00FE16CCH   LINE      ECODE    ---       #62
      ---         BLOCKEND  ---      ---       LVL=0

      00FE16CDH   BLOCK     ECODE    ---       LVL=0
      0001228FH   SYMBOL    XDATA    INT       type_set
      00012291H   SYMBOL    XDATA    ---       vsync_callback
      00012295H   SYMBOL    XDATA    ---       dma_callback
      00012299H   SYMBOL    XDATA    ---       uart_callback
      00FE16CDH   LINE      ECODE    ---       #74
      00FE16DDH   LINE      ECODE    ---       #76
      00FE16E9H   LINE      ECODE    ---       #77
      00FE1715H   LINE      ECODE    ---       #78
      00FE1741H   LINE      ECODE    ---       #79
L251 LINKER/LOCATER V4.66.93.0                                                        03/25/2026  13:05:55  PAGE 115


      00FE176DH   LINE      ECODE    ---       #80
      ---         BLOCKEND  ---      ---       LVL=0

      00FE176EH   BLOCK     ECODE    ---       LVL=0
      0001282EH   SYMBOL    XDATA    INT       type_set
      00012830H   SYMBOL    XDATA    ---       wireless_callback
      00FE176EH   LINE      ECODE    ---       #90
      00FE177EH   LINE      ECODE    ---       #92
      00FE178AH   LINE      ECODE    ---       #93
      00FE1798H   LINE      ECODE    ---       #95
      00FE17C4H   LINE      ECODE    ---       #96
      00FE17C6H   LINE      ECODE    ---       #99
      00FE17F2H   LINE      ECODE    ---       #100
      00FE17F2H   LINE      ECODE    ---       #101
      ---         BLOCKEND  ---      ---       LVL=0

      00FE17F3H   BLOCK     ECODE    ---       LVL=0
      00012834H   SYMBOL    XDATA    INT       type_set
      00012836H   SYMBOL    XDATA    ---       exti_callback
      00FE17F3H   LINE      ECODE    ---       #111
      00FE1803H   LINE      ECODE    ---       #113
      00FE180FH   LINE      ECODE    ---       #114
      00FE183BH   LINE      ECODE    ---       #115
      ---         BLOCKEND  ---      ---       LVL=0

      ---         MODULE    ---      ---       zf_device_mt9v03x
      00FE13C3H   PUBLIC    ECODE    ---       mt9v03x_sccb_init?
      00FE1412H   PUBLIC    ECODE    ---       mt9v03x_init?
      00FE1389H   PUBLIC    ECODE    ---       mt9v03x_set_exposure_time?
      00FE13A2H   PUBLIC    ECODE    ---       mt9v03x_set_reg?
      00FE54E7H   PUBLIC    HCONST   ---       mt9v03x_set_confing_buffer
      000000D0H   SFRSYM    DATA     BYTE      PSW
      0000009DH   SFRSYM    DATA     BYTE      IRCBAND
      00000097H   SFRSYM    DATA     BYTE      AUXR2
      000000EAH   SFRSYM    DATA     BYTE      CKCON
      000000EFH   SFRSYM    DATA     BYTE      AUXINTIF
      000000FDH   SFRSYM    DATA     BYTE      S4CON
      000000ACH   SFRSYM    DATA     BYTE      S3CON
      0000009AH   SFRSYM    DATA     BYTE      S2CON
      000000B7H   SFRSYM    DATA     BYTE      IPH
      000000CDH   SFRSYM    DATA     BYTE      SPSTAT
      000000DDH   SFRSYM    DATA     BYTE      T4T3M
      000000C1H   SFRSYM    DATA     BYTE      WDT_CONTR
      000000DFH   SFRSYM    DATA     BYTE      IP3
      000000F4H   SFRSYM    DATA     BYTE      USBCON
      000000B5H   SFRSYM    DATA     BYTE      IP2
      000000FFH   SFRSYM    DATA     BYTE      RSTCFG
      000000E0H   SFRSYM    DATA     BYTE      ACC
      000000C7H   SFRSYM    DATA     BYTE      IAP_CONTR
      000000F9H   SFRSYM    DATA     BYTE      LINICR
      0000008EH   SFRSYM    DATA     BYTE      AUXR
      000000F0H   SFRSYM    DATA     BYTE      B
      000000AFH   SFRSYM    DATA     BYTE      IE2
      00000088H   SFRSYM    DATA     BYTE      TCON
      00000089H   SFRSYM    DATA     BYTE      TMOD
      00000098H   SFRSYM    DATA     BYTE      SCON
      00000087H   SFRSYM    DATA     BYTE      PCON
      000000BCH   SFRSYM    DATA     BYTE      ADC_CONTR
      000000D1H   SFRSYM    DATA     BYTE      PSW1
      000000E7H   SFRSYM    DATA     BYTE      CMPCR2
      000000E6H   SFRSYM    DATA     BYTE      CMPCR1
      000000DEH   SFRSYM    DATA     BYTE      ADCCFG
      000000B8H   SFRSYM    DATA     BYTE      IP
      0000008FH   SFRSYM    DATA     BYTE      INTCLKO
      000000EEH   SFRSYM    DATA     BYTE      IP3H
L251 LINKER/LOCATER V4.66.93.0                                                        03/25/2026  13:05:55  PAGE 116


      000000B6H   SFRSYM    DATA     BYTE      IP2H
      000000BFH   SFRSYM    DATA     BYTE      P_SW4
      000000A8H   SFRSYM    DATA     BYTE      IE
      000000BBH   SFRSYM    DATA     BYTE      P_SW3
      000000BAH   SFRSYM    DATA     BYTE      P_SW2
      000000A2H   SFRSYM    DATA     BYTE      P_SW1
      000000CEH   SFRSYM    DATA     BYTE      SPCTL
      000000F8H   SFRSYM    DATA     BYTE      P7
      000000E8H   SFRSYM    DATA     BYTE      P6
      000000C8H   SFRSYM    DATA     BYTE      P5
      000000C0H   SFRSYM    DATA     BYTE      P4
      000000ABH   SFRSYM    DATA     BYTE      WKTCH
      000000B0H   SFRSYM    DATA     BYTE      P3
      000000A0H   SFRSYM    DATA     BYTE      P2
      00000090H   SFRSYM    DATA     BYTE      P1
      00000080H   SFRSYM    DATA     BYTE      P0

      00FE1389H   BLOCK     ECODE    ---       LVL=0
      000129B5H   SYMBOL    XDATA    WORD      light
      00FE138FH   BLOCK     ECODE    NEAR LAB  LVL=1
      000129B7H   SYMBOL    XDATA    BYTE      return_state
      ---         BLOCKEND  ---      ---       LVL=1
      00FE1389H   LINE      ECODE    ---       #80
      00FE138FH   LINE      ECODE    ---       #81
      00FE138FH   LINE      ECODE    ---       #82
      00FE139DH   LINE      ECODE    ---       #83
      00FE13A1H   LINE      ECODE    ---       #84
      ---         BLOCKEND  ---      ---       LVL=0

      00FE13A2H   BLOCK     ECODE    ---       LVL=0
      00012945H   SYMBOL    XDATA    BYTE      addr
      00012946H   SYMBOL    XDATA    WORD      dat
      00FE13ACH   BLOCK     ECODE    NEAR LAB  LVL=1
      00012948H   SYMBOL    XDATA    BYTE      return_state
      ---         BLOCKEND  ---      ---       LVL=1
      00FE13A2H   LINE      ECODE    ---       #94
      00FE13ACH   LINE      ECODE    ---       #95
      00FE13ACH   LINE      ECODE    ---       #96
      00FE13BEH   LINE      ECODE    ---       #97
      00FE13C2H   LINE      ECODE    ---       #98
      ---         BLOCKEND  ---      ---       LVL=0

      00FE13C3H   BLOCK     ECODE    ---       LVL=0
      00012569H   SYMBOL    XDATA    BYTE      return_state
      0001256AH   SYMBOL    XDATA    ---       mt9v03x_iic_struct
      00FE13C3H   LINE      ECODE    ---       #107
      00FE13C3H   LINE      ECODE    ---       #108
      00FE13C3H   LINE      ECODE    ---       #109
      00FE13C9H   LINE      ECODE    ---       #113
      00FE13ECH   LINE      ECODE    ---       #119
      00FE13FDH   LINE      ECODE    ---       #122
      00FE140DH   LINE      ECODE    ---       #123
      00FE140DH   LINE      ECODE    ---       #125
      00FE1411H   LINE      ECODE    ---       #126
      ---         BLOCKEND  ---      ---       LVL=0

      00FE1412H   BLOCK     ECODE    ---       LVL=0
      000129E0H   SYMBOL    XDATA    BYTE      loop_count
      000129E1H   SYMBOL    XDATA    BYTE      return_state
      00FE1412H   LINE      ECODE    ---       #136
      00FE1412H   LINE      ECODE    ---       #137
      00FE1412H   LINE      ECODE    ---       #138
      00FE1417H   LINE      ECODE    ---       #139
      00FE141CH   LINE      ECODE    ---       #141
      00FE141CH   LINE      ECODE    ---       #143
L251 LINKER/LOCATER V4.66.93.0                                                        03/25/2026  13:05:55  PAGE 117


      00FE1424H   LINE      ECODE    ---       #145
      00FE1430H   LINE      ECODE    ---       #147
      00FE143FH   LINE      ECODE    ---       #148
      00FE144EH   LINE      ECODE    ---       #149
      00FE145DH   LINE      ECODE    ---       #150
      00FE146CH   LINE      ECODE    ---       #151
      00FE147BH   LINE      ECODE    ---       #152
      00FE148AH   LINE      ECODE    ---       #153
      00FE1499H   LINE      ECODE    ---       #154
      00FE14A8H   LINE      ECODE    ---       #156
      00FE14B9H   LINE      ECODE    ---       #157
      00FE14CBH   LINE      ECODE    ---       #158
      00FE14DDH   LINE      ECODE    ---       #159
      00FE14EEH   LINE      ECODE    ---       #160
      00FE1500H   LINE      ECODE    ---       #161
      00FE1510H   LINE      ECODE    ---       #164
      00FE152DH   LINE      ECODE    ---       #166
      00FE1537H   LINE      ECODE    ---       #168
      00FE1541H   LINE      ECODE    ---       #170
      00FE1541H   LINE      ECODE    ---       #171
      00FE1541H   LINE      ECODE    ---       #174
      00FE1545H   LINE      ECODE    ---       #175
      ---         BLOCKEND  ---      ---       LVL=0

      ---         MODULE    ---      ---       zf_device_mt9v03x_dma
      00FD9332H   PUBLIC    ECODE    ---       mt9v03x_sccb_set_exposure_time?
      00FD9451H   PUBLIC    ECODE    ---       mt9v03x_dma_init?
      00FD93B4H   PUBLIC    ECODE    ---       mt9v03x_sccb_set_reg?
      00FD93ECH   PUBLIC    ECODE    ---       mt9v03x_dma_handler?
      00FD9406H   PUBLIC    ECODE    ---       mt9v03x_vsync_handler?
      00FD8953H   PUBLIC    ECODE    ---       mt9v03x_sccb_set_config?
      00FD8896H   PUBLIC    ECODE    ---       mt9v03x_sccb_check_id?
      00012A1CH   PUBLIC    HDATA    ---       mt9v03x_image
      0001823CH   PUBLIC    HDATA    BYTE      mt9v03x_finish_flag
      000124B9H   PUBLIC    XDATA    BYTE      ?mt9v03x_dma_init??BYTE
      000000D0H   SFRSYM    DATA     BYTE      PSW
      0000009DH   SFRSYM    DATA     BYTE      IRCBAND
      00000097H   SFRSYM    DATA     BYTE      AUXR2
      000000EAH   SFRSYM    DATA     BYTE      CKCON
      000000EFH   SFRSYM    DATA     BYTE      AUXINTIF
      000000FDH   SFRSYM    DATA     BYTE      S4CON
      000000ACH   SFRSYM    DATA     BYTE      S3CON
      0000009AH   SFRSYM    DATA     BYTE      S2CON
      000000B7H   SFRSYM    DATA     BYTE      IPH
      000000CDH   SFRSYM    DATA     BYTE      SPSTAT
      000000DDH   SFRSYM    DATA     BYTE      T4T3M
      000000C1H   SFRSYM    DATA     BYTE      WDT_CONTR
      000000DFH   SFRSYM    DATA     BYTE      IP3
      000000F4H   SFRSYM    DATA     BYTE      USBCON
      000000B5H   SFRSYM    DATA     BYTE      IP2
      000000FFH   SFRSYM    DATA     BYTE      RSTCFG
      000000E0H   SFRSYM    DATA     BYTE      ACC
      000000C7H   SFRSYM    DATA     BYTE      IAP_CONTR
      000000F9H   SFRSYM    DATA     BYTE      LINICR
      0000008EH   SFRSYM    DATA     BYTE      AUXR
      000000F0H   SFRSYM    DATA     BYTE      B
      000000AFH   SFRSYM    DATA     BYTE      IE2
      000000B0H.7 SFRSYM    DATA     BIT       P37
      000000F8H.3 SFRSYM    DATA     BIT       P73
      000000C0H.3 SFRSYM    DATA     BIT       P43
      000000B0H.3 SFRSYM    DATA     BIT       P33
      00000088H   SFRSYM    DATA     BYTE      TCON
      00000089H   SFRSYM    DATA     BYTE      TMOD
      000000C0H.1 SFRSYM    DATA     BIT       P41
      00000098H   SFRSYM    DATA     BYTE      SCON
L251 LINKER/LOCATER V4.66.93.0                                                        03/25/2026  13:05:55  PAGE 118


      00000087H   SFRSYM    DATA     BYTE      PCON
      000000BCH   SFRSYM    DATA     BYTE      ADC_CONTR
      000000D1H   SFRSYM    DATA     BYTE      PSW1
      000000E7H   SFRSYM    DATA     BYTE      CMPCR2
      000000E6H   SFRSYM    DATA     BYTE      CMPCR1
      000000DEH   SFRSYM    DATA     BYTE      ADCCFG
      000000B8H   SFRSYM    DATA     BYTE      IP
      0000008FH   SFRSYM    DATA     BYTE      INTCLKO
      000000EEH   SFRSYM    DATA     BYTE      IP3H
      000000B6H   SFRSYM    DATA     BYTE      IP2H
      000000BFH   SFRSYM    DATA     BYTE      P_SW4
      000000A8H   SFRSYM    DATA     BYTE      IE
      000000BBH   SFRSYM    DATA     BYTE      P_SW3
      000000BAH   SFRSYM    DATA     BYTE      P_SW2
      000000A2H   SFRSYM    DATA     BYTE      P_SW1
      000000CEH   SFRSYM    DATA     BYTE      SPCTL
      000000F8H   SFRSYM    DATA     BYTE      P7
      000000E8H   SFRSYM    DATA     BYTE      P6
      000000C8H   SFRSYM    DATA     BYTE      P5
      000000C0H   SFRSYM    DATA     BYTE      P4
      000000ABH   SFRSYM    DATA     BYTE      WKTCH
      000000B0H   SFRSYM    DATA     BYTE      P3
      000000A0H   SFRSYM    DATA     BYTE      P2
      00000090H   SFRSYM    DATA     BYTE      P1
      00000080H   SFRSYM    DATA     BYTE      P0
      00FD8859H   SYMBOL    ECODE    ---       mt9v03x_read_word_sccb
      00FD878EH   SYMBOL    ECODE    ---       mt9v03x_write_and_check_word_sccb
      00FD8757H   SYMBOL    ECODE    ---       mt9v03x_write_word_sccb
      00011FB1H   SYMBOL    XDATA    INT       mt9v03x_h_blank
      00011FB3H   SYMBOL    XDATA    INT       mt9v03x_row
      00011FB5H   SYMBOL    XDATA    ---       mt9v03x_iic_inf_struct
      00011FBEH   SYMBOL    XDATA    INT       mt9v03x_exp_time
      00011FC0H   SYMBOL    XDATA    INT       mt9v03x_v_blank
      00011FC2H   SYMBOL    XDATA    INT       mt9v03x_auto_exp

      00FD8757H   BLOCK     ECODE    ---       LVL=0
      000129B8H   SYMBOL    XDATA    BYTE      reg
      000129B9H   SYMBOL    XDATA    WORD      dat
      00FD8757H   LINE      ECODE    ---       #187
      00FD8761H   LINE      ECODE    ---       #189
      00FD8779H   LINE      ECODE    ---       #190
      00FD878DH   LINE      ECODE    ---       #191
      ---         BLOCKEND  ---      ---       LVL=0

      00FD878EH   BLOCK     ECODE    ---       LVL=0
      00012790H   SYMBOL    XDATA    BYTE      reg
      00012791H   SYMBOL    XDATA    WORD      dat
      00FD8798H   BLOCK     ECODE    NEAR LAB  LVL=1
      00012793H   SYMBOL    XDATA    BYTE      return_state
      00012794H   SYMBOL    XDATA    BYTE      temp1
      00012795H   SYMBOL    XDATA    BYTE      temp2
      00012796H   SYMBOL    XDATA    CHAR      loop_cout
      ---         BLOCKEND  ---      ---       LVL=1
      00FD878EH   LINE      ECODE    ---       #199
      00FD8798H   LINE      ECODE    ---       #200
      00FD8798H   LINE      ECODE    ---       #201
      00FD879EH   LINE      ECODE    ---       #202
      00FD87A3H   LINE      ECODE    ---       #203
      00FD87A8H   LINE      ECODE    ---       #204
      00FD87AEH   LINE      ECODE    ---       #206
      00FD87B1H   LINE      ECODE    ---       #208
      00FD87C5H   LINE      ECODE    ---       #210
      00FD87DDH   LINE      ECODE    ---       #211
      00FD87F1H   LINE      ECODE    ---       #212
      00FD87F1H   LINE      ECODE    ---       #213
L251 LINKER/LOCATER V4.66.93.0                                                        03/25/2026  13:05:55  PAGE 119


      00FD8805H   LINE      ECODE    ---       #214
      00FD8817H   LINE      ECODE    ---       #215
      00FD8833H   LINE      ECODE    ---       #217
      00FD8838H   LINE      ECODE    ---       #218
      00FD883AH   LINE      ECODE    ---       #219
      00FD883AH   LINE      ECODE    ---       #220
      00FD8848H   LINE      ECODE    ---       #221
      00FD8854H   LINE      ECODE    ---       #223
      00FD8858H   LINE      ECODE    ---       #224
      ---         BLOCKEND  ---      ---       LVL=0

      00FD8859H   BLOCK     ECODE    ---       LVL=0
      000129BBH   SYMBOL    XDATA    BYTE      reg
      00FD885DH   BLOCK     ECODE    NEAR LAB  LVL=1
      000129BCH   SYMBOL    XDATA    BYTE      temp1
      000129BDH   SYMBOL    XDATA    BYTE      temp2
      ---         BLOCKEND  ---      ---       LVL=1
      00FD8859H   LINE      ECODE    ---       #232
      00FD885DH   LINE      ECODE    ---       #233
      00FD885DH   LINE      ECODE    ---       #235
      00FD8871H   LINE      ECODE    ---       #236
      00FD8883H   LINE      ECODE    ---       #237
      00FD8895H   LINE      ECODE    ---       #238
      ---         BLOCKEND  ---      ---       LVL=0

      00FD8896H   BLOCK     ECODE    ---       LVL=0
      000126FCH   SYMBOL    XDATA    ---       soft_iic_obj
      00FD88A0H   BLOCK     ECODE    NEAR LAB  LVL=1
      00012700H   SYMBOL    XDATA    BYTE      delay_num
      00012701H   SYMBOL    XDATA    WORD      camera_id
      00012703H   SYMBOL    XDATA    BYTE      return_state
      ---         BLOCKEND  ---      ---       LVL=1
      00FD8896H   LINE      ECODE    ---       #246
      00FD88A0H   LINE      ECODE    ---       #247
      00FD88A0H   LINE      ECODE    ---       #248
      00FD88A5H   LINE      ECODE    ---       #249
      00FD88ADH   LINE      ECODE    ---       #250
      00FD88B3H   LINE      ECODE    ---       #252
      00FD88B9H   LINE      ECODE    ---       #253
      00FD88D8H   LINE      ECODE    ---       #254
      00FD88EBH   LINE      ECODE    ---       #255
      00FD8900H   LINE      ECODE    ---       #257
      00FD8900H   LINE      ECODE    ---       #259
      00FD890AH   LINE      ECODE    ---       #260
      00FD8934H   LINE      ECODE    ---       #264
      00FD8939H   LINE      ECODE    ---       #265
      00FD893BH   LINE      ECODE    ---       #266
      00FD894EH   LINE      ECODE    ---       #268
      00FD8952H   LINE      ECODE    ---       #269
      ---         BLOCKEND  ---      ---       LVL=0

      00FD8953H   BLOCK     ECODE    ---       LVL=0
      00011B90H   SYMBOL    XDATA    ---       buff
      00FD895DH   BLOCK     ECODE    NEAR LAB  LVL=1
      00011B94H   SYMBOL    XDATA    WORD      temp_bin
      00011B96H   SYMBOL    XDATA    WORD      max_fps
      00011B98H   SYMBOL    XDATA    INT       temp_data
      00011B9AH   SYMBOL    XDATA    WORD      set_col
      00011B9CH   SYMBOL    XDATA    WORD      set_row
      00011B9EH   SYMBOL    XDATA    WORD      lr_off
      00011BA0H   SYMBOL    XDATA    WORD      ud_off
      00011BA2H   SYMBOL    XDATA    BYTE      return_state
      00011BA3H   SYMBOL    XDATA    BYTE      delay_num
      00011BA4H   SYMBOL    XDATA    WORD      camera_id
      00011BA6H   SYMBOL    XDATA    ---       mt9v03x_init_config
L251 LINKER/LOCATER V4.66.93.0                                                        03/25/2026  13:05:55  PAGE 120


      ---         BLOCKEND  ---      ---       LVL=1
      00FD8953H   LINE      ECODE    ---       #278
      00FD895DH   LINE      ECODE    ---       #279
      00FD895DH   LINE      ECODE    ---       #280
      00FD8965H   LINE      ECODE    ---       #281
      00FD896DH   LINE      ECODE    ---       #282
      00FD8975H   LINE      ECODE    ---       #283
      00FD897DH   LINE      ECODE    ---       #284
      00FD8985H   LINE      ECODE    ---       #285
      00FD898DH   LINE      ECODE    ---       #286
      00FD8995H   LINE      ECODE    ---       #288
      00FD899AH   LINE      ECODE    ---       #289
      00FD899FH   LINE      ECODE    ---       #290
      00FD89A7H   LINE      ECODE    ---       #294
      00FD89BEH   LINE      ECODE    ---       #295
      00FD89D5H   LINE      ECODE    ---       #296
      00FD89ECH   LINE      ECODE    ---       #297
      00FD8A03H   LINE      ECODE    ---       #298
      00FD8A1AH   LINE      ECODE    ---       #299
      00FD8A31H   LINE      ECODE    ---       #300
      00FD8A48H   LINE      ECODE    ---       #301
      00FD8A5FH   LINE      ECODE    ---       #303
      00FD8A68H   LINE      ECODE    ---       #306
      00FD8A71H   LINE      ECODE    ---       #307
      00FD8A71H   LINE      ECODE    ---       #309
      00FD8A7BH   LINE      ECODE    ---       #310
      00FD8AA5H   LINE      ECODE    ---       #314
      00FD8AA5H   LINE      ECODE    ---       #315
      00FD8AA5H   LINE      ECODE    ---       #316
      00FD8AB8H   LINE      ECODE    ---       #319
      00FD8ABEH   LINE      ECODE    ---       #320
      00FD8ABEH   LINE      ECODE    ---       #321
      00FD8ABEH   LINE      ECODE    ---       #324
      00FD8AC1H   LINE      ECODE    ---       #327
      00FD8ACFH   LINE      ECODE    ---       #329
      00FD8ADFH   LINE      ECODE    ---       #330
      00FD8AEFH   LINE      ECODE    ---       #331
      00FD8AF1H   LINE      ECODE    ---       #332
      00FD8AFFH   LINE      ECODE    ---       #334
      00FD8B0DH   LINE      ECODE    ---       #335
      00FD8B1DH   LINE      ECODE    ---       #336
      00FD8B1FH   LINE      ECODE    ---       #337
      00FD8B2DH   LINE      ECODE    ---       #339
      00FD8B39H   LINE      ECODE    ---       #340
      00FD8B3FH   LINE      ECODE    ---       #341
      00FD8B3FH   LINE      ECODE    ---       #343
      00FD8B4DH   LINE      ECODE    ---       #345
      00FD8B5DH   LINE      ECODE    ---       #346
      00FD8B6DH   LINE      ECODE    ---       #347
      00FD8B6FH   LINE      ECODE    ---       #348
      00FD8B7DH   LINE      ECODE    ---       #350
      00FD8B8BH   LINE      ECODE    ---       #351
      00FD8B9BH   LINE      ECODE    ---       #352
      00FD8B9DH   LINE      ECODE    ---       #353
      00FD8BABH   LINE      ECODE    ---       #355
      00FD8BB7H   LINE      ECODE    ---       #356
      00FD8BBDH   LINE      ECODE    ---       #357
      00FD8BBDH   LINE      ECODE    ---       #361
      00FD8BCFH   LINE      ECODE    ---       #363
      00FD8BE0H   LINE      ECODE    ---       #365
      00FD8BF2H   LINE      ECODE    ---       #367
      00FD8C26H   LINE      ECODE    ---       #368
      00FD8C34H   LINE      ECODE    ---       #370
      00FD8C3EH   LINE      ECODE    ---       #371
      00FD8C3EH   LINE      ECODE    ---       #372
L251 LINKER/LOCATER V4.66.93.0                                                        03/25/2026  13:05:55  PAGE 121


      00FD8C4EH   LINE      ECODE    ---       #374
      00FD8C5AH   LINE      ECODE    ---       #375
      00FD8C5AH   LINE      ECODE    ---       #378
      00FD8C96H   LINE      ECODE    ---       #379
      00FD8CB2H   LINE      ECODE    ---       #381
      00FD8CE6H   LINE      ECODE    ---       #382
      00FD8CE6H   LINE      ECODE    ---       #384
      00FD8D22H   LINE      ECODE    ---       #385
      00FD8D56H   LINE      ECODE    ---       #387
      00FD8D59H   LINE      ECODE    ---       #390
      00FD8D8DH   LINE      ECODE    ---       #391
      00FD8D9BH   LINE      ECODE    ---       #393
      00FD8DA5H   LINE      ECODE    ---       #394
      00FD8DA5H   LINE      ECODE    ---       #395
      00FD8DB5H   LINE      ECODE    ---       #397
      00FD8DC1H   LINE      ECODE    ---       #398
      00FD8DC1H   LINE      ECODE    ---       #401
      00FD8DFDH   LINE      ECODE    ---       #402
      00FD8E19H   LINE      ECODE    ---       #404
      00FD8E4DH   LINE      ECODE    ---       #405
      00FD8E4DH   LINE      ECODE    ---       #407
      00FD8E89H   LINE      ECODE    ---       #408
      00FD8EBDH   LINE      ECODE    ---       #410
      00FD8EBDH   LINE      ECODE    ---       #413
      00FD8EDBH   LINE      ECODE    ---       #415
      00FD8EF5H   LINE      ECODE    ---       #416
      00FD8EF5H   LINE      ECODE    ---       #419
      00FD8F09H   LINE      ECODE    ---       #421
      00FD8F4FH   LINE      ECODE    ---       #422
      00FD8F5EH   LINE      ECODE    ---       #423
      00FD8F76H   LINE      ECODE    ---       #426
      00FD8F8AH   LINE      ECODE    ---       #428
      00FD8FD0H   LINE      ECODE    ---       #429
      00FD8FDFH   LINE      ECODE    ---       #430
      00FD8FF3H   LINE      ECODE    ---       #432
      00FD9005H   LINE      ECODE    ---       #433
      00FD9019H   LINE      ECODE    ---       #434
      00FD902DH   LINE      ECODE    ---       #435
      00FD9041H   LINE      ECODE    ---       #436
      00FD9055H   LINE      ECODE    ---       #437
      00FD9069H   LINE      ECODE    ---       #438
      00FD907DH   LINE      ECODE    ---       #439
      00FD908FH   LINE      ECODE    ---       #440
      00FD90A1H   LINE      ECODE    ---       #441
      00FD90B3H   LINE      ECODE    ---       #443
      00FD90BFH   LINE      ECODE    ---       #445
      00FD90D3H   LINE      ECODE    ---       #446
      00FD90D3H   LINE      ECODE    ---       #447
      00FD90EDH   LINE      ECODE    ---       #448
      00FD90FFH   LINE      ECODE    ---       #449
      00FD9111H   LINE      ECODE    ---       #450
      00FD9123H   LINE      ECODE    ---       #451
      00FD9137H   LINE      ECODE    ---       #455
      00FD9145H   LINE      ECODE    ---       #458
      00FD9171H   LINE      ECODE    ---       #459
      00FD9183H   LINE      ECODE    ---       #460
      00FD9195H   LINE      ECODE    ---       #461
      00FD91A7H   LINE      ECODE    ---       #462
      00FD91A9H   LINE      ECODE    ---       #465
      00FD91BBH   LINE      ECODE    ---       #466
      00FD91CDH   LINE      ECODE    ---       #467
      00FD91DFH   LINE      ECODE    ---       #468
      00FD91DFH   LINE      ECODE    ---       #470
      00FD91F1H   LINE      ECODE    ---       #471
      00FD9203H   LINE      ECODE    ---       #472
L251 LINKER/LOCATER V4.66.93.0                                                        03/25/2026  13:05:55  PAGE 122


      00FD9215H   LINE      ECODE    ---       #475
      00FD9221H   LINE      ECODE    ---       #477
      00FD9231H   LINE      ECODE    ---       #478
      00FD9234H   LINE      ECODE    ---       #481
      00FD9248H   LINE      ECODE    ---       #482
      00FD925AH   LINE      ECODE    ---       #483
      00FD926CH   LINE      ECODE    ---       #487
      00FD92BAH   LINE      ECODE    ---       #489
      00FD92CCH   LINE      ECODE    ---       #490
      00FD92DEH   LINE      ECODE    ---       #491
      00FD92F2H   LINE      ECODE    ---       #492
      00FD92F2H   LINE      ECODE    ---       #493
      00FD92FEH   LINE      ECODE    ---       #494
      00FD930AH   LINE      ECODE    ---       #495
      00FD9316H   LINE      ECODE    ---       #497
      00FD931FH   LINE      ECODE    ---       #499
      00FD9321H   LINE      ECODE    ---       #500
      00FD932DH   LINE      ECODE    ---       #501
      00FD9331H   LINE      ECODE    ---       #502
      ---         BLOCKEND  ---      ---       LVL=0

      00FD9332H   BLOCK     ECODE    ---       LVL=0
      000129BEH   SYMBOL    XDATA    WORD      light
      00FD9338H   BLOCK     ECODE    NEAR LAB  LVL=1
      000129C0H   SYMBOL    XDATA    BYTE      return_state
      ---         BLOCKEND  ---      ---       LVL=1
      00FD9332H   LINE      ECODE    ---       #511
      00FD9338H   LINE      ECODE    ---       #512
      00FD9338H   LINE      ECODE    ---       #513
      00FD933EH   LINE      ECODE    ---       #516
      00FD937EH   LINE      ECODE    ---       #518
      00FD9387H   LINE      ECODE    ---       #519
      00FD93A6H   LINE      ECODE    ---       #520
      00FD93AFH   LINE      ECODE    ---       #522
      00FD93B3H   LINE      ECODE    ---       #523
      ---         BLOCKEND  ---      ---       LVL=0

      00FD93B4H   BLOCK     ECODE    ---       LVL=0
      00012949H   SYMBOL    XDATA    BYTE      reg
      0001294AH   SYMBOL    XDATA    WORD      dat
      00FD93BEH   BLOCK     ECODE    NEAR LAB  LVL=1
      0001294CH   SYMBOL    XDATA    BYTE      return_state
      ---         BLOCKEND  ---      ---       LVL=1
      00FD93B4H   LINE      ECODE    ---       #533
      00FD93BEH   LINE      ECODE    ---       #534
      00FD93BEH   LINE      ECODE    ---       #535
      00FD93C4H   LINE      ECODE    ---       #537
      00FD93CDH   LINE      ECODE    ---       #538
      00FD93DEH   LINE      ECODE    ---       #539
      00FD93E7H   LINE      ECODE    ---       #541
      00FD93EBH   LINE      ECODE    ---       #542
      ---         BLOCKEND  ---      ---       LVL=0

      00FD93ECH   BLOCK     ECODE    ---       LVL=0
      00FD93ECH   LINE      ECODE    ---       #557
      00FD93ECH   LINE      ECODE    ---       #559
      00FD93F8H   LINE      ECODE    ---       #560
      00FD9405H   LINE      ECODE    ---       #561
      ---         BLOCKEND  ---      ---       LVL=0

      00FD9406H   BLOCK     ECODE    ---       LVL=0
      00011FC4H   SYMBOL    XDATA    BYTE      get_sensor_flag
      00FD9406H   LINE      ECODE    ---       #564
      00FD9406H   LINE      ECODE    ---       #565
      00FD9406H   LINE      ECODE    ---       #568
L251 LINKER/LOCATER V4.66.93.0                                                        03/25/2026  13:05:55  PAGE 123


      00FD940FH   LINE      ECODE    ---       #571
      00FD9412H   LINE      ECODE    ---       #572
      00FD9415H   LINE      ECODE    ---       #575
      00FD9418H   LINE      ECODE    ---       #576
      00FD941BH   LINE      ECODE    ---       #577
      00FD941EH   LINE      ECODE    ---       #578
      00FD9421H   LINE      ECODE    ---       #579
      00FD9424H   LINE      ECODE    ---       #580
      00FD9427H   LINE      ECODE    ---       #582
      00FD942DH   LINE      ECODE    ---       #583
      00FD942FH   LINE      ECODE    ---       #586
      00FD9438H   LINE      ECODE    ---       #589
      00FD943BH   LINE      ECODE    ---       #592
      00FD9448H   LINE      ECODE    ---       #595
      00FD944BH   LINE      ECODE    ---       #596
      00FD944BH   LINE      ECODE    ---       #599
      00FD9450H   LINE      ECODE    ---       #600
      00FD9450H   LINE      ECODE    ---       #601
      ---         BLOCKEND  ---      ---       LVL=0

      00FD9451H   BLOCK     ECODE    ---       LVL=0
      000124B9H   SYMBOL    XDATA    ---       image_addr
      000124BDH   SYMBOL    XDATA    DWORD     image_size
      000124C1H   SYMBOL    XDATA    BYTE      value
      000124C2H   SYMBOL    XDATA    BYTE      isr_priority
      000124C3H   SYMBOL    XDATA    BYTE      dma_priority
      00FD9451H   LINE      ECODE    ---       #607
      00FD9469H   LINE      ECODE    ---       #610
      00FD9475H   LINE      ECODE    ---       #612
      00FD9483H   LINE      ECODE    ---       #614
      00FD948FH   LINE      ECODE    ---       #615
      00FD94A1H   LINE      ECODE    ---       #616
      00FD94AFH   LINE      ECODE    ---       #617
      00FD94BDH   LINE      ECODE    ---       #619
      00FD94C9H   LINE      ECODE    ---       #620
      00FD94D6H   LINE      ECODE    ---       #622
      00FD94E5H   LINE      ECODE    ---       #626
      00FD9507H   LINE      ECODE    ---       #628
      00FD9513H   LINE      ECODE    ---       #629
      00FD9532H   LINE      ECODE    ---       #630
      00FD954DH   LINE      ECODE    ---       #631
      00FD9566H   LINE      ECODE    ---       #632
      00FD957DH   LINE      ECODE    ---       #634
      00FD9589H   LINE      ECODE    ---       #635
      00FD9595H   LINE      ECODE    ---       #637
      ---         BLOCKEND  ---      ---       LVL=0

      ---         MODULE    ---      ---       zf_device_ips114
      00FD0C15H   PUBLIC    ECODE    ---       ips114_show_float?
      00FD038BH   PUBLIC    ECODE    ---       ips114_draw_point?
      00FD0530H   PUBLIC    ECODE    ---       ips114_show_string?
      00FD1051H   PUBLIC    ECODE    ---       ips114_show_gray_image?
      00FD0411H   PUBLIC    ECODE    ---       ips114_show_char?
      00FD0996H   PUBLIC    ECODE    ---       ips114_show_uint16?
      00FD0366H   PUBLIC    ECODE    ---       ips114_set_color?
      00FD0AB2H   PUBLIC    ECODE    ---       ips114_show_int32?
      00FD081CH   PUBLIC    ECODE    ---       ips114_show_int16?
      00FD0E37H   PUBLIC    ECODE    ---       ips114_show_wave?
      00FD032BH   PUBLIC    ECODE    ---       ips114_set_dir?
      00FD1323H   PUBLIC    ECODE    ---       ips114_show_chinese?
      00FD027CH   PUBLIC    ECODE    ---       ips114_clear?
      00FD072EH   PUBLIC    ECODE    ---       ips114_show_uint8?
      00FD05F7H   PUBLIC    ECODE    ---       ips114_show_int8?
      00FD1527H   PUBLIC    ECODE    ---       ips114_init?
      00012704H   PUBLIC    XDATA    WORD      ips114_pencolor
L251 LINKER/LOCATER V4.66.93.0                                                        03/25/2026  13:05:55  PAGE 124


      00012706H   PUBLIC    XDATA    WORD      ips114_bgcolor
      00012708H   PUBLIC    XDATA    INT       ips114_display_dir
      0001270AH   PUBLIC    XDATA    BYTE      ips114_x_max
      0001270BH   PUBLIC    XDATA    BYTE      ips114_y_max
      000118BDH   PUBLIC    XDATA    BYTE      ?ips114_show_float??BYTE
      00011CDAH   PUBLIC    XDATA    BYTE      ?ips114_show_wave??BYTE
      000108FDH   PUBLIC    XDATA    BYTE      ?ips114_show_gray_image??BYTE
      00011EB0H   PUBLIC    XDATA    BYTE      ?ips114_show_chinese??BYTE
      000000D0H   SFRSYM    DATA     BYTE      PSW
      0000009DH   SFRSYM    DATA     BYTE      IRCBAND
      00000097H   SFRSYM    DATA     BYTE      AUXR2
      000000EAH   SFRSYM    DATA     BYTE      CKCON
      000000EFH   SFRSYM    DATA     BYTE      AUXINTIF
      000000FDH   SFRSYM    DATA     BYTE      S4CON
      000000ACH   SFRSYM    DATA     BYTE      S3CON
      0000009AH   SFRSYM    DATA     BYTE      S2CON
      000000B7H   SFRSYM    DATA     BYTE      IPH
      000000CDH   SFRSYM    DATA     BYTE      SPSTAT
      000000DDH   SFRSYM    DATA     BYTE      T4T3M
      000000C1H   SFRSYM    DATA     BYTE      WDT_CONTR
      000000DFH   SFRSYM    DATA     BYTE      IP3
      000000F4H   SFRSYM    DATA     BYTE      USBCON
      000000B5H   SFRSYM    DATA     BYTE      IP2
      000000FFH   SFRSYM    DATA     BYTE      RSTCFG
      000000E0H   SFRSYM    DATA     BYTE      ACC
      000000C7H   SFRSYM    DATA     BYTE      IAP_CONTR
      000000F9H   SFRSYM    DATA     BYTE      LINICR
      0000008EH   SFRSYM    DATA     BYTE      AUXR
      000000F0H   SFRSYM    DATA     BYTE      B
      000000AFH   SFRSYM    DATA     BYTE      IE2
      000000B0H.5 SFRSYM    DATA     BIT       P35
      000000F8H.1 SFRSYM    DATA     BIT       P71
      000000F8H.0 SFRSYM    DATA     BIT       P70
      00000088H   SFRSYM    DATA     BYTE      TCON
      00000089H   SFRSYM    DATA     BYTE      TMOD
      00000098H   SFRSYM    DATA     BYTE      SCON
      00000087H   SFRSYM    DATA     BYTE      PCON
      000000BCH   SFRSYM    DATA     BYTE      ADC_CONTR
      000000D1H   SFRSYM    DATA     BYTE      PSW1
      000000E7H   SFRSYM    DATA     BYTE      CMPCR2
      000000E6H   SFRSYM    DATA     BYTE      CMPCR1
      000000DEH   SFRSYM    DATA     BYTE      ADCCFG
      000000B8H   SFRSYM    DATA     BYTE      IP
      0000008FH   SFRSYM    DATA     BYTE      INTCLKO
      000000EEH   SFRSYM    DATA     BYTE      IP3H
      000000B6H   SFRSYM    DATA     BYTE      IP2H
      000000BFH   SFRSYM    DATA     BYTE      P_SW4
      000000A8H   SFRSYM    DATA     BYTE      IE
      000000BBH   SFRSYM    DATA     BYTE      P_SW3
      000000BAH   SFRSYM    DATA     BYTE      P_SW2
      000000A2H   SFRSYM    DATA     BYTE      P_SW1
      000000CEH   SFRSYM    DATA     BYTE      SPCTL
      000000F8H   SFRSYM    DATA     BYTE      P7
      000000E8H   SFRSYM    DATA     BYTE      P6
      000000C8H   SFRSYM    DATA     BYTE      P5
      000000C0H   SFRSYM    DATA     BYTE      P4
      000000ABH   SFRSYM    DATA     BYTE      WKTCH
      000000B0H   SFRSYM    DATA     BYTE      P3
      000000A0H   SFRSYM    DATA     BYTE      P2
      00000090H   SFRSYM    DATA     BYTE      P1
      00000080H   SFRSYM    DATA     BYTE      P0
      00FD0000H   SYMBOL    ECODE    ---       ips114_write_index
      00FD0023H   SYMBOL    ECODE    ---       ips114_set_region

      00FD0000H   BLOCK     ECODE    ---       LVL=0
L251 LINKER/LOCATER V4.66.93.0                                                        03/25/2026  13:05:55  PAGE 125


      00012A07H   SYMBOL    XDATA    BYTE      dat
      00FD0000H   LINE      ECODE    ---       #84
      00FD0004H   LINE      ECODE    ---       #86
      00FD0007H   LINE      ECODE    ---       #87
      00FD000AH   LINE      ECODE    ---       #88
      00FD000DH   LINE      ECODE    ---       #89
      00FD0019H   LINE      ECODE    ---       #90
      00FD001CH   LINE      ECODE    ---       #91
      00FD001FH   LINE      ECODE    ---       #92
      00FD0022H   LINE      ECODE    ---       #93
      ---         BLOCKEND  ---      ---       LVL=0

      00FD0023H   BLOCK     ECODE    ---       LVL=0
      0001270CH   SYMBOL    XDATA    WORD      x1
      0001270EH   SYMBOL    XDATA    WORD      y1
      00012710H   SYMBOL    XDATA    WORD      x2
      00012712H   SYMBOL    XDATA    WORD      y2
      00FD0023H   LINE      ECODE    ---       #104
      00FD003BH   LINE      ECODE    ---       #106
      00FD0060H   LINE      ECODE    ---       #107
      00FD0085H   LINE      ECODE    ---       #108
      00FD00AAH   LINE      ECODE    ---       #109
      00FD00CFH   LINE      ECODE    ---       #111
      00FD00DBH   LINE      ECODE    ---       #113
      00FD00E0H   LINE      ECODE    ---       #114
      00FD00F4H   LINE      ECODE    ---       #115
      00FD0108H   LINE      ECODE    ---       #116
      00FD010DH   LINE      ECODE    ---       #117
      00FD0121H   LINE      ECODE    ---       #118
      00FD0135H   LINE      ECODE    ---       #119
      00FD013AH   LINE      ECODE    ---       #120
      00FD013DH   LINE      ECODE    ---       #121
      00FD014BH   LINE      ECODE    ---       #123
      00FD0150H   LINE      ECODE    ---       #124
      00FD0164H   LINE      ECODE    ---       #125
      00FD0178H   LINE      ECODE    ---       #126
      00FD017DH   LINE      ECODE    ---       #127
      00FD0191H   LINE      ECODE    ---       #128
      00FD01A5H   LINE      ECODE    ---       #129
      00FD01AAH   LINE      ECODE    ---       #130
      00FD01ADH   LINE      ECODE    ---       #131
      00FD01BBH   LINE      ECODE    ---       #133
      00FD01C0H   LINE      ECODE    ---       #134
      00FD01D4H   LINE      ECODE    ---       #135
      00FD01E8H   LINE      ECODE    ---       #136
      00FD01EDH   LINE      ECODE    ---       #137
      00FD0201H   LINE      ECODE    ---       #138
      00FD0215H   LINE      ECODE    ---       #139
      00FD021AH   LINE      ECODE    ---       #140
      00FD021CH   LINE      ECODE    ---       #143
      00FD0221H   LINE      ECODE    ---       #144
      00FD0235H   LINE      ECODE    ---       #145
      00FD0249H   LINE      ECODE    ---       #146
      00FD024EH   LINE      ECODE    ---       #147
      00FD0262H   LINE      ECODE    ---       #148
      00FD0276H   LINE      ECODE    ---       #149
      00FD027BH   LINE      ECODE    ---       #150
      00FD027BH   LINE      ECODE    ---       #151
      ---         BLOCKEND  ---      ---       LVL=0

      00FD027CH   BLOCK     ECODE    ---       LVL=0
      00010AFEH   SYMBOL    XDATA    WORD      color
      00FD0282H   BLOCK     ECODE    NEAR LAB  LVL=1
      00010B00H   SYMBOL    XDATA    WORD      i
      00010B02H   SYMBOL    XDATA    ---       tmp
L251 LINKER/LOCATER V4.66.93.0                                                        03/25/2026  13:05:55  PAGE 126


      ---         BLOCKEND  ---      ---       LVL=1
      00FD027CH   LINE      ECODE    ---       #159
      00FD0282H   LINE      ECODE    ---       #160
      00FD0282H   LINE      ECODE    ---       #163
      00FD02A1H   LINE      ECODE    ---       #165
      00FD02ABH   LINE      ECODE    ---       #167
      00FD02C8H   LINE      ECODE    ---       #168
      00FD02E5H   LINE      ECODE    ---       #169
      00FD02EFH   LINE      ECODE    ---       #171
      00FD030DH   LINE      ECODE    ---       #172
      00FD032AH   LINE      ECODE    ---       #173
      ---         BLOCKEND  ---      ---       LVL=0

      00FD032BH   BLOCK     ECODE    ---       LVL=0
      000129E2H   SYMBOL    XDATA    INT       dir
      00FD032BH   LINE      ECODE    ---       #181
      00FD0331H   LINE      ECODE    ---       #183
      00FD033DH   LINE      ECODE    ---       #184
      00FD034BH   LINE      ECODE    ---       #186
      00FD0351H   LINE      ECODE    ---       #187
      00FD0357H   LINE      ECODE    ---       #188
      00FD0359H   LINE      ECODE    ---       #191
      00FD035FH   LINE      ECODE    ---       #192
      00FD0365H   LINE      ECODE    ---       #193
      00FD0365H   LINE      ECODE    ---       #194
      ---         BLOCKEND  ---      ---       LVL=0

      00FD0366H   BLOCK     ECODE    ---       LVL=0
      0001294DH   SYMBOL    XDATA    WORD      pen
      0001294FH   SYMBOL    XDATA    WORD      bgcolor
      00FD0366H   LINE      ECODE    ---       #203
      00FD0372H   LINE      ECODE    ---       #205
      00FD037EH   LINE      ECODE    ---       #206
      00FD038AH   LINE      ECODE    ---       #207
      ---         BLOCKEND  ---      ---       LVL=0

      00FD038BH   BLOCK     ECODE    ---       LVL=0
      0001283AH   SYMBOL    XDATA    WORD      x
      0001283CH   SYMBOL    XDATA    WORD      y
      0001283EH   SYMBOL    XDATA    WORD      color
      00FD038BH   LINE      ECODE    ---       #217
      00FD039DH   LINE      ECODE    ---       #219
      00FD03C2H   LINE      ECODE    ---       #220
      00FD03E7H   LINE      ECODE    ---       #222
      00FD0402H   LINE      ECODE    ---       #223
      00FD0410H   LINE      ECODE    ---       #224
      ---         BLOCKEND  ---      ---       LVL=0

      00FD0411H   BLOCK     ECODE    ---       LVL=0
      00012714H   SYMBOL    XDATA    WORD      x
      00012716H   SYMBOL    XDATA    WORD      y
      00012718H   SYMBOL    XDATA    CHAR      dat
      00FD0421H   BLOCK     ECODE    NEAR LAB  LVL=1
      00012719H   SYMBOL    XDATA    BYTE      i
      0001271AH   SYMBOL    XDATA    BYTE      j
      0001271BH   SYMBOL    XDATA    BYTE      temp
      ---         BLOCKEND  ---      ---       LVL=1
      00FD0411H   LINE      ECODE    ---       #234
      00FD0421H   LINE      ECODE    ---       #235
      00FD0421H   LINE      ECODE    ---       #239
      00FD0446H   LINE      ECODE    ---       #240
      00FD046BH   LINE      ECODE    ---       #242
      00FD0473H   LINE      ECODE    ---       #244
      00FD04A4H   LINE      ECODE    ---       #245
      00FD04CBH   LINE      ECODE    ---       #246
L251 LINKER/LOCATER V4.66.93.0                                                        03/25/2026  13:05:55  PAGE 127


      00FD04D2H   LINE      ECODE    ---       #248
      00FD04D9H   LINE      ECODE    ---       #249
      00FD04E9H   LINE      ECODE    ---       #251
      00FD04F7H   LINE      ECODE    ---       #252
      00FD04FEH   LINE      ECODE    ---       #253
      00FD0515H   LINE      ECODE    ---       #254
      00FD052FH   LINE      ECODE    ---       #255
      ---         BLOCKEND  ---      ---       LVL=0

      00FD0530H   BLOCK     ECODE    ---       LVL=0
      00012573H   SYMBOL    XDATA    WORD      x
      00012575H   SYMBOL    XDATA    WORD      y
      00012577H   SYMBOL    XDATA    ---       dat
      00FD0546H   BLOCK     ECODE    NEAR LAB  LVL=1
      0001257BH   SYMBOL    XDATA    WORD      j
      ---         BLOCKEND  ---      ---       LVL=1
      00FD0530H   LINE      ECODE    ---       #265
      00FD0546H   LINE      ECODE    ---       #266
      00FD0546H   LINE      ECODE    ---       #267
      00FD054EH   LINE      ECODE    ---       #269
      00FD0573H   LINE      ECODE    ---       #270
      00FD0598H   LINE      ECODE    ---       #272
      00FD059AH   LINE      ECODE    ---       #274
      00FD05CDH   LINE      ECODE    ---       #275
      00FD05DCH   LINE      ECODE    ---       #276
      00FD05F6H   LINE      ECODE    ---       #277
      ---         BLOCKEND  ---      ---       LVL=0

      00FD05F7H   BLOCK     ECODE    ---       LVL=0
      000125D5H   SYMBOL    XDATA    WORD      x
      000125D7H   SYMBOL    XDATA    WORD      y
      000125D9H   SYMBOL    XDATA    CHAR      dat
      00FD0607H   BLOCK     ECODE    NEAR LAB  LVL=1
      000125DAH   SYMBOL    XDATA    ---       a
      000125DDH   SYMBOL    XDATA    BYTE      i
      ---         BLOCKEND  ---      ---       LVL=1
      00FD05F7H   LINE      ECODE    ---       #287
      00FD0607H   LINE      ECODE    ---       #288
      00FD0607H   LINE      ECODE    ---       #292
      00FD062CH   LINE      ECODE    ---       #293
      00FD0651H   LINE      ECODE    ---       #295
      00FD065BH   LINE      ECODE    ---       #297
      00FD066DH   LINE      ECODE    ---       #298
      00FD0678H   LINE      ECODE    ---       #299
      00FD067AH   LINE      ECODE    ---       #301
      00FD068CH   LINE      ECODE    ---       #303
      00FD06A0H   LINE      ECODE    ---       #304
      00FD06BCH   LINE      ECODE    ---       #305
      00FD06D0H   LINE      ECODE    ---       #306
      00FD06D5H   LINE      ECODE    ---       #307
      00FD06D7H   LINE      ECODE    ---       #309
      00FD0716H   LINE      ECODE    ---       #310
      00FD0721H   LINE      ECODE    ---       #311
      00FD072DH   LINE      ECODE    ---       #312
      ---         BLOCKEND  ---      ---       LVL=0

      00FD072EH   BLOCK     ECODE    ---       LVL=0
      000125DEH   SYMBOL    XDATA    WORD      x
      000125E0H   SYMBOL    XDATA    WORD      y
      000125E2H   SYMBOL    XDATA    BYTE      dat
      00FD073EH   BLOCK     ECODE    NEAR LAB  LVL=1
      000125E3H   SYMBOL    XDATA    ---       a
      000125E6H   SYMBOL    XDATA    BYTE      i
      ---         BLOCKEND  ---      ---       LVL=1
      00FD072EH   LINE      ECODE    ---       #322
L251 LINKER/LOCATER V4.66.93.0                                                        03/25/2026  13:05:55  PAGE 128


      00FD073EH   LINE      ECODE    ---       #323
      00FD073EH   LINE      ECODE    ---       #327
      00FD0763H   LINE      ECODE    ---       #328
      00FD0788H   LINE      ECODE    ---       #330
      00FD0798H   LINE      ECODE    ---       #331
      00FD07B2H   LINE      ECODE    ---       #332
      00FD07C6H   LINE      ECODE    ---       #333
      00FD07CBH   LINE      ECODE    ---       #334
      00FD07CDH   LINE      ECODE    ---       #336
      00FD0804H   LINE      ECODE    ---       #337
      00FD080FH   LINE      ECODE    ---       #338
      00FD081BH   LINE      ECODE    ---       #340
      ---         BLOCKEND  ---      ---       LVL=0

      00FD081CH   BLOCK     ECODE    ---       LVL=0
      000123B5H   SYMBOL    XDATA    WORD      x
      000123B7H   SYMBOL    XDATA    WORD      y
      000123B9H   SYMBOL    XDATA    INT       dat
      00FD082EH   BLOCK     ECODE    NEAR LAB  LVL=1
      000123BBH   SYMBOL    XDATA    ---       a
      000123C0H   SYMBOL    XDATA    BYTE      i
      ---         BLOCKEND  ---      ---       LVL=1
      00FD081CH   LINE      ECODE    ---       #350
      00FD082EH   LINE      ECODE    ---       #351
      00FD082EH   LINE      ECODE    ---       #355
      00FD0853H   LINE      ECODE    ---       #356
      00FD0878H   LINE      ECODE    ---       #358
      00FD0884H   LINE      ECODE    ---       #360
      00FD0896H   LINE      ECODE    ---       #361
      00FD08A8H   LINE      ECODE    ---       #362
      00FD08AAH   LINE      ECODE    ---       #363
      00FD08BCH   LINE      ECODE    ---       #365
      00FD08D0H   LINE      ECODE    ---       #366
      00FD08ECH   LINE      ECODE    ---       #367
      00FD0908H   LINE      ECODE    ---       #368
      00FD0924H   LINE      ECODE    ---       #369
      00FD0938H   LINE      ECODE    ---       #371
      00FD093DH   LINE      ECODE    ---       #372
      00FD093FH   LINE      ECODE    ---       #374
      00FD097EH   LINE      ECODE    ---       #375
      00FD0989H   LINE      ECODE    ---       #376
      00FD0995H   LINE      ECODE    ---       #377
      ---         BLOCKEND  ---      ---       LVL=0

      00FD0996H   BLOCK     ECODE    ---       LVL=0
      000123C1H   SYMBOL    XDATA    WORD      x
      000123C3H   SYMBOL    XDATA    WORD      y
      000123C5H   SYMBOL    XDATA    WORD      dat
      00FD09A8H   BLOCK     ECODE    NEAR LAB  LVL=1
      000123C7H   SYMBOL    XDATA    ---       a
      000123CCH   SYMBOL    XDATA    BYTE      i
      ---         BLOCKEND  ---      ---       LVL=1
      00FD0996H   LINE      ECODE    ---       #387
      00FD09A8H   LINE      ECODE    ---       #388
      00FD09A8H   LINE      ECODE    ---       #392
      00FD09CDH   LINE      ECODE    ---       #393
      00FD09F2H   LINE      ECODE    ---       #395
      00FD0A02H   LINE      ECODE    ---       #396
      00FD0A1AH   LINE      ECODE    ---       #397
      00FD0A32H   LINE      ECODE    ---       #398
      00FD0A4AH   LINE      ECODE    ---       #399
      00FD0A5CH   LINE      ECODE    ---       #401
      00FD0A61H   LINE      ECODE    ---       #402
      00FD0A63H   LINE      ECODE    ---       #404
      00FD0A9AH   LINE      ECODE    ---       #405
L251 LINKER/LOCATER V4.66.93.0                                                        03/25/2026  13:05:55  PAGE 129


      00FD0AA5H   LINE      ECODE    ---       #406
      00FD0AB1H   LINE      ECODE    ---       #407
      ---         BLOCKEND  ---      ---       LVL=0

      00FD0AB2H   BLOCK     ECODE    ---       LVL=0
      00011A18H   SYMBOL    XDATA    WORD      x
      00011A1AH   SYMBOL    XDATA    WORD      y
      00011A1CH   SYMBOL    XDATA    LONG      dat
      00011A20H   SYMBOL    XDATA    BYTE      num
      00FD0ACCH   BLOCK     ECODE    NEAR LAB  LVL=1
      00011A21H   SYMBOL    XDATA    ---       buff
      00011A43H   SYMBOL    XDATA    BYTE      length
      ---         BLOCKEND  ---      ---       LVL=1
      00FD0AB2H   LINE      ECODE    ---       #419
      00FD0ACCH   LINE      ECODE    ---       #420
      00FD0ACCH   LINE      ECODE    ---       #425
      00FD0AF1H   LINE      ECODE    ---       #426
      00FD0B16H   LINE      ECODE    ---       #428
      00FD0B28H   LINE      ECODE    ---       #430
      00FD0B33H   LINE      ECODE    ---       #431
      00FD0B73H   LINE      ECODE    ---       #434
      00FD0B79H   LINE      ECODE    ---       #435
      00FD0BA7H   LINE      ECODE    ---       #436
      00FD0BB2H   LINE      ECODE    ---       #437
      00FD0BB2H   LINE      ECODE    ---       #438
      00FD0BB4H   LINE      ECODE    ---       #440
      00FD0BCCH   LINE      ECODE    ---       #441
      00FD0BD7H   LINE      ECODE    ---       #442
      00FD0BE5H   LINE      ECODE    ---       #443
      00FD0BFCH   LINE      ECODE    ---       #445
      00FD0C14H   LINE      ECODE    ---       #446
      ---         BLOCKEND  ---      ---       LVL=0

      00FD0C15H   BLOCK     ECODE    ---       LVL=0
      000118BDH   SYMBOL    XDATA    WORD      x
      000118BFH   SYMBOL    XDATA    WORD      y
      000118C1H   SYMBOL    XDATA    DOUBLE    dat
      000118C9H   SYMBOL    XDATA    BYTE      num
      000118CAH   SYMBOL    XDATA    BYTE      pointnum
      00FD0C2BH   BLOCK     ECODE    NEAR LAB  LVL=1
      000118CBH   SYMBOL    XDATA    BYTE      length
      000118CCH   SYMBOL    XDATA    ---       buff
      000118EEH   SYMBOL    XDATA    CHAR      start
      000118EFH   SYMBOL    XDATA    CHAR      end
      000118F0H   SYMBOL    XDATA    CHAR      point
      ---         BLOCKEND  ---      ---       LVL=1
      00FD0C15H   LINE      ECODE    ---       #462
      00FD0C2BH   LINE      ECODE    ---       #463
      00FD0C2BH   LINE      ECODE    ---       #468
      00FD0C50H   LINE      ECODE    ---       #469
      00FD0C75H   LINE      ECODE    ---       #471
      00FD0C87H   LINE      ECODE    ---       #472
      00FD0C99H   LINE      ECODE    ---       #474
      00FD0CF5H   LINE      ECODE    ---       #477
      00FD0D33H   LINE      ECODE    ---       #478
      00FD0D3EH   LINE      ECODE    ---       #479
      00FD0D3EH   LINE      ECODE    ---       #480
      00FD0D4EH   LINE      ECODE    ---       #481
      00FD0D66H   LINE      ECODE    ---       #482
      00FD0D7EH   LINE      ECODE    ---       #483
      00FD0D80H   LINE      ECODE    ---       #485
      00FD0D98H   LINE      ECODE    ---       #486
      00FD0DA3H   LINE      ECODE    ---       #487
      00FD0DAEH   LINE      ECODE    ---       #488
      00FD0DB9H   LINE      ECODE    ---       #490
L251 LINKER/LOCATER V4.66.93.0                                                        03/25/2026  13:05:55  PAGE 130


      00FD0DEFH   LINE      ECODE    ---       #491
      00FD0E07H   LINE      ECODE    ---       #493
      00FD0E1EH   LINE      ECODE    ---       #495
      00FD0E36H   LINE      ECODE    ---       #496
      ---         BLOCKEND  ---      ---       LVL=0

      00FD0E37H   BLOCK     ECODE    ---       LVL=0
      00011CDAH   SYMBOL    XDATA    WORD      x
      00011CDCH   SYMBOL    XDATA    WORD      y
      00011CDEH   SYMBOL    XDATA    ---       p
      00011CE2H   SYMBOL    XDATA    WORD      width
      00011CE4H   SYMBOL    XDATA    WORD      value_max
      00011CE6H   SYMBOL    XDATA    WORD      dis_width
      00011CE8H   SYMBOL    XDATA    WORD      dis_value_max
      00FD0E4DH   BLOCK     ECODE    NEAR LAB  LVL=1
      00011CEAH   SYMBOL    XDATA    DWORD     i
      00011CEEH   SYMBOL    XDATA    DWORD     j
      00011CF2H   SYMBOL    XDATA    DWORD     width_index
      00011CF6H   SYMBOL    XDATA    DWORD     value_max_index
      ---         BLOCKEND  ---      ---       LVL=1
      00FD0E37H   LINE      ECODE    ---       #511
      00FD0E4DH   LINE      ECODE    ---       #512
      00FD0E4DH   LINE      ECODE    ---       #513
      00FD0E65H   LINE      ECODE    ---       #516
      00FD0E8AH   LINE      ECODE    ---       #517
      00FD0EAFH   LINE      ECODE    ---       #519
      00FD0EE6H   LINE      ECODE    ---       #520
      00FD0EF4H   LINE      ECODE    ---       #522
      00FD0F02H   LINE      ECODE    ---       #524
      00FD0F10H   LINE      ECODE    ---       #525
      00FD0F3DH   LINE      ECODE    ---       #526
      00FD0F6AH   LINE      ECODE    ---       #528
      00FD0F79H   LINE      ECODE    ---       #530
      00FD0FA1H   LINE      ECODE    ---       #531
      00FD0FE0H   LINE      ECODE    ---       #532
      00FD1020H   LINE      ECODE    ---       #533
      00FD1050H   LINE      ECODE    ---       #534
      ---         BLOCKEND  ---      ---       LVL=0

      00FD1051H   BLOCK     ECODE    ---       LVL=0
      000108FDH   SYMBOL    XDATA    WORD      x
      000108FFH   SYMBOL    XDATA    WORD      y
      00010901H   SYMBOL    XDATA    ---       image
      00010905H   SYMBOL    XDATA    WORD      width
      00010907H   SYMBOL    XDATA    WORD      height
      00010909H   SYMBOL    XDATA    WORD      dis_width
      0001090BH   SYMBOL    XDATA    WORD      dis_height
      0001090DH   SYMBOL    XDATA    BYTE      threshold
      00FD106BH   BLOCK     ECODE    NEAR LAB  LVL=1
      0001090EH   SYMBOL    XDATA    DWORD     i
      00010912H   SYMBOL    XDATA    DWORD     j
      00010916H   SYMBOL    XDATA    WORD      color
      00010918H   SYMBOL    XDATA    WORD      temp
      0001091AH   SYMBOL    XDATA    ---       data_buffer
      00010AFAH   SYMBOL    XDATA    ---       image_temp
      ---         BLOCKEND  ---      ---       LVL=1
      00FD1051H   LINE      ECODE    ---       #553
      00FD106BH   LINE      ECODE    ---       #554
      00FD106BH   LINE      ECODE    ---       #555
      00FD1083H   LINE      ECODE    ---       #562
      00FD10A8H   LINE      ECODE    ---       #563
      00FD10CDH   LINE      ECODE    ---       #564
      00FD10F0H   LINE      ECODE    ---       #566
      00FD10F3H   LINE      ECODE    ---       #567
      00FD112AH   LINE      ECODE    ---       #569
L251 LINKER/LOCATER V4.66.93.0                                                        03/25/2026  13:05:55  PAGE 131


      00FD1139H   LINE      ECODE    ---       #571
      00FD1179H   LINE      ECODE    ---       #572
      00FD1188H   LINE      ECODE    ---       #574
      00FD11BFH   LINE      ECODE    ---       #575
      00FD11CBH   LINE      ECODE    ---       #577
      00FD11EDH   LINE      ECODE    ---       #578
      00FD120FH   LINE      ECODE    ---       #579
      00FD122CH   LINE      ECODE    ---       #580
      00FD124DH   LINE      ECODE    ---       #581
      00FD124FH   LINE      ECODE    ---       #582
      00FD125FH   LINE      ECODE    ---       #584
      00FD127CH   LINE      ECODE    ---       #585
      00FD127EH   LINE      ECODE    ---       #588
      00FD129DH   LINE      ECODE    ---       #589
      00FD129DH   LINE      ECODE    ---       #590
      00FD12CDH   LINE      ECODE    ---       #591
      00FD12EFH   LINE      ECODE    ---       #592
      00FD131FH   LINE      ECODE    ---       #593
      00FD1322H   LINE      ECODE    ---       #594
      ---         BLOCKEND  ---      ---       LVL=0

      00FD1323H   BLOCK     ECODE    ---       LVL=0
      00011EB0H   SYMBOL    XDATA    WORD      x
      00011EB2H   SYMBOL    XDATA    WORD      y
      00011EB4H   SYMBOL    XDATA    BYTE      siz
      00011EB5H   SYMBOL    XDATA    ---       p
      00011EB9H   SYMBOL    XDATA    BYTE      number
      00011EBAH   SYMBOL    XDATA    WORD      color
      00FD133DH   BLOCK     ECODE    NEAR LAB  LVL=1
      00011EBCH   SYMBOL    XDATA    INT       i
      00011EBEH   SYMBOL    XDATA    INT       j
      00011EC0H   SYMBOL    XDATA    INT       k
      00011EC2H   SYMBOL    XDATA    BYTE      temp
      00011EC3H   SYMBOL    XDATA    BYTE      temp1
      00011EC4H   SYMBOL    XDATA    BYTE      temp2
      00011EC5H   SYMBOL    XDATA    ---       p_data
      ---         BLOCKEND  ---      ---       LVL=1
      00FD1323H   LINE      ECODE    ---       #608
      00FD133DH   LINE      ECODE    ---       #609
      00FD133DH   LINE      ECODE    ---       #615
      00FD1362H   LINE      ECODE    ---       #616
      00FD1387H   LINE      ECODE    ---       #618
      00FD1397H   LINE      ECODE    ---       #620
      00FD13D4H   LINE      ECODE    ---       #622
      00FD13DFH   LINE      ECODE    ---       #624
      00FD13E7H   LINE      ECODE    ---       #625
      00FD140BH   LINE      ECODE    ---       #626
      00FD140EH   LINE      ECODE    ---       #628
      00FD1419H   LINE      ECODE    ---       #630
      00FD1425H   LINE      ECODE    ---       #632
      00FD144DH   LINE      ECODE    ---       #633
      00FD1466H   LINE      ECODE    ---       #634
      00FD1474H   LINE      ECODE    ---       #635
      00FD148FH   LINE      ECODE    ---       #636
      00FD14A2H   LINE      ECODE    ---       #637
      00FD14C4H   LINE      ECODE    ---       #638
      00FD14EEH   LINE      ECODE    ---       #639
      00FD1504H   LINE      ECODE    ---       #640
      00FD1526H   LINE      ECODE    ---       #641
      ---         BLOCKEND  ---      ---       LVL=0

      00FD1527H   BLOCK     ECODE    ---       LVL=0
      00FD1527H   LINE      ECODE    ---       #648
      00FD1527H   LINE      ECODE    ---       #653
      00FD1539H   LINE      ECODE    ---       #654
L251 LINKER/LOCATER V4.66.93.0                                                        03/25/2026  13:05:55  PAGE 132


      00FD154AH   LINE      ECODE    ---       #655
      00FD1584H   LINE      ECODE    ---       #658
      00FD1595H   LINE      ECODE    ---       #659
      00FD15A6H   LINE      ECODE    ---       #660
      00FD15B7H   LINE      ECODE    ---       #661
      00FD15C9H   LINE      ECODE    ---       #663
      00FD15D3H   LINE      ECODE    ---       #664
      00FD15E3H   LINE      ECODE    ---       #666
      00FD15E6H   LINE      ECODE    ---       #667
      00FD1604H   LINE      ECODE    ---       #669
      00FD1607H   LINE      ECODE    ---       #670
      00FD1625H   LINE      ECODE    ---       #672
      00FD162AH   LINE      ECODE    ---       #673
      00FD1648H   LINE      ECODE    ---       #674
      00FD165FH   LINE      ECODE    ---       #675
      00FD1679H   LINE      ECODE    ---       #676
      00FD1693H   LINE      ECODE    ---       #677
      00FD169DH   LINE      ECODE    ---       #679
      00FD16A2H   LINE      ECODE    ---       #680
      00FD16ACH   LINE      ECODE    ---       #682
      00FD16B1H   LINE      ECODE    ---       #683
      00FD16BBH   LINE      ECODE    ---       #684
      00FD16C5H   LINE      ECODE    ---       #685
      00FD16CEH   LINE      ECODE    ---       #686
      00FD16D8H   LINE      ECODE    ---       #687
      00FD16E2H   LINE      ECODE    ---       #689
      00FD16E7H   LINE      ECODE    ---       #690
      00FD16F1H   LINE      ECODE    ---       #692
      00FD16F6H   LINE      ECODE    ---       #693
      00FD1700H   LINE      ECODE    ---       #695
      00FD1705H   LINE      ECODE    ---       #696
      00FD170FH   LINE      ECODE    ---       #698
      00FD1714H   LINE      ECODE    ---       #699
      00FD171EH   LINE      ECODE    ---       #701
      00FD1723H   LINE      ECODE    ---       #702
      00FD172DH   LINE      ECODE    ---       #704
      00FD1732H   LINE      ECODE    ---       #705
      00FD173CH   LINE      ECODE    ---       #707
      00FD1741H   LINE      ECODE    ---       #708
      00FD174BH   LINE      ECODE    ---       #710
      00FD1750H   LINE      ECODE    ---       #711
      00FD175AH   LINE      ECODE    ---       #712
      00FD1764H   LINE      ECODE    ---       #714
      00FD1769H   LINE      ECODE    ---       #715
      00FD1773H   LINE      ECODE    ---       #716
      00FD177DH   LINE      ECODE    ---       #717
      00FD1787H   LINE      ECODE    ---       #718
      00FD1791H   LINE      ECODE    ---       #719
      00FD179BH   LINE      ECODE    ---       #720
      00FD17A5H   LINE      ECODE    ---       #721
      00FD17AFH   LINE      ECODE    ---       #722
      00FD17B9H   LINE      ECODE    ---       #723
      00FD17C3H   LINE      ECODE    ---       #724
      00FD17CDH   LINE      ECODE    ---       #725
      00FD17D7H   LINE      ECODE    ---       #726
      00FD17E1H   LINE      ECODE    ---       #727
      00FD17EBH   LINE      ECODE    ---       #728
      00FD17F5H   LINE      ECODE    ---       #730
      00FD17FAH   LINE      ECODE    ---       #731
      00FD1804H   LINE      ECODE    ---       #732
      00FD180EH   LINE      ECODE    ---       #733
      00FD1818H   LINE      ECODE    ---       #734
      00FD1822H   LINE      ECODE    ---       #735
      00FD182CH   LINE      ECODE    ---       #736
      00FD1836H   LINE      ECODE    ---       #737
L251 LINKER/LOCATER V4.66.93.0                                                        03/25/2026  13:05:55  PAGE 133


      00FD1840H   LINE      ECODE    ---       #738
      00FD184AH   LINE      ECODE    ---       #739
      00FD1854H   LINE      ECODE    ---       #740
      00FD185EH   LINE      ECODE    ---       #741
      00FD1868H   LINE      ECODE    ---       #742
      00FD1872H   LINE      ECODE    ---       #743
      00FD187CH   LINE      ECODE    ---       #744
      00FD1886H   LINE      ECODE    ---       #746
      00FD188BH   LINE      ECODE    ---       #748
      00FD1890H   LINE      ECODE    ---       #749
      00FD18AEH   LINE      ECODE    ---       #751
      00FD18B3H   LINE      ECODE    ---       #753
      00FD18BDH   LINE      ECODE    ---       #754
      ---         BLOCKEND  ---      ---       LVL=0

      ---         MODULE    ---      ---       zf_device_tft180
      00FD2AC0H   PUBLIC    ECODE    ---       tft180_init?
      00FD23FCH   PUBLIC    ECODE    ---       tft180_show_float?
      00FD1B72H   PUBLIC    ECODE    ---       tft180_draw_point?
      00FD1D17H   PUBLIC    ECODE    ---       tft180_show_string?
      00FD261EH   PUBLIC    ECODE    ---       tft180_show_gray_image?
      00FD1BF8H   PUBLIC    ECODE    ---       tft180_show_char?
      00FD217DH   PUBLIC    ECODE    ---       tft180_show_uint16?
      00FD1B4DH   PUBLIC    ECODE    ---       tft180_set_color?
      00FD2299H   PUBLIC    ECODE    ---       tft180_show_int32?
      00FD2003H   PUBLIC    ECODE    ---       tft180_show_int16?
      00FD28A6H   PUBLIC    ECODE    ---       tft180_show_wave?
      00FD1B12H   PUBLIC    ECODE    ---       tft180_set_dir?
      00FD1A63H   PUBLIC    ECODE    ---       tft180_clear?
      00FD1F15H   PUBLIC    ECODE    ---       tft180_show_uint8?
      00FD1DDEH   PUBLIC    ECODE    ---       tft180_show_int8?
      0001271CH   PUBLIC    XDATA    WORD      tft180_pencolor
      0001271EH   PUBLIC    XDATA    WORD      tft180_bgcolor
      00012720H   PUBLIC    XDATA    INT       tft180_display_dir
      00012722H   PUBLIC    XDATA    BYTE      tft180_x_max
      00012723H   PUBLIC    XDATA    BYTE      tft180_y_max
      000118F1H   PUBLIC    XDATA    BYTE      ?tft180_show_float??BYTE
      00011BDBH   PUBLIC    XDATA    BYTE      ?tft180_show_gray_image??BYTE
      00011CFAH   PUBLIC    XDATA    BYTE      ?tft180_show_wave??BYTE
      000000D0H   SFRSYM    DATA     BYTE      PSW
      0000009DH   SFRSYM    DATA     BYTE      IRCBAND
      00000097H   SFRSYM    DATA     BYTE      AUXR2
      000000EAH   SFRSYM    DATA     BYTE      CKCON
      000000EFH   SFRSYM    DATA     BYTE      AUXINTIF
      000000FDH   SFRSYM    DATA     BYTE      S4CON
      000000ACH   SFRSYM    DATA     BYTE      S3CON
      0000009AH   SFRSYM    DATA     BYTE      S2CON
      000000B7H   SFRSYM    DATA     BYTE      IPH
      000000CDH   SFRSYM    DATA     BYTE      SPSTAT
      000000DDH   SFRSYM    DATA     BYTE      T4T3M
      000000C1H   SFRSYM    DATA     BYTE      WDT_CONTR
      000000DFH   SFRSYM    DATA     BYTE      IP3
      000000F4H   SFRSYM    DATA     BYTE      USBCON
      000000B5H   SFRSYM    DATA     BYTE      IP2
      000000FFH   SFRSYM    DATA     BYTE      RSTCFG
      000000E0H   SFRSYM    DATA     BYTE      ACC
      000000C7H   SFRSYM    DATA     BYTE      IAP_CONTR
      000000F9H   SFRSYM    DATA     BYTE      LINICR
      0000008EH   SFRSYM    DATA     BYTE      AUXR
      000000F0H   SFRSYM    DATA     BYTE      B
      000000AFH   SFRSYM    DATA     BYTE      IE2
      000000B0H.5 SFRSYM    DATA     BIT       P35
      000000F8H.1 SFRSYM    DATA     BIT       P71
      000000F8H.0 SFRSYM    DATA     BIT       P70
      00000088H   SFRSYM    DATA     BYTE      TCON
L251 LINKER/LOCATER V4.66.93.0                                                        03/25/2026  13:05:55  PAGE 134


      00000089H   SFRSYM    DATA     BYTE      TMOD
      00000098H   SFRSYM    DATA     BYTE      SCON
      00000087H   SFRSYM    DATA     BYTE      PCON
      000000BCH   SFRSYM    DATA     BYTE      ADC_CONTR
      000000D1H   SFRSYM    DATA     BYTE      PSW1
      000000E7H   SFRSYM    DATA     BYTE      CMPCR2
      000000E6H   SFRSYM    DATA     BYTE      CMPCR1
      000000DEH   SFRSYM    DATA     BYTE      ADCCFG
      000000B8H   SFRSYM    DATA     BYTE      IP
      0000008FH   SFRSYM    DATA     BYTE      INTCLKO
      000000EEH   SFRSYM    DATA     BYTE      IP3H
      000000B6H   SFRSYM    DATA     BYTE      IP2H
      000000BFH   SFRSYM    DATA     BYTE      P_SW4
      000000A8H   SFRSYM    DATA     BYTE      IE
      000000BBH   SFRSYM    DATA     BYTE      P_SW3
      000000BAH   SFRSYM    DATA     BYTE      P_SW2
      000000A2H   SFRSYM    DATA     BYTE      P_SW1
      000000CEH   SFRSYM    DATA     BYTE      SPCTL
      000000F8H   SFRSYM    DATA     BYTE      P7
      000000E8H   SFRSYM    DATA     BYTE      P6
      000000C8H   SFRSYM    DATA     BYTE      P5
      000000C0H   SFRSYM    DATA     BYTE      P4
      000000ABH   SFRSYM    DATA     BYTE      WKTCH
      000000B0H   SFRSYM    DATA     BYTE      P3
      000000A0H   SFRSYM    DATA     BYTE      P2
      00000090H   SFRSYM    DATA     BYTE      P1
      00000080H   SFRSYM    DATA     BYTE      P0
      00FD18E1H   SYMBOL    ECODE    ---       tft180_set_region
      00FD18BEH   SYMBOL    ECODE    ---       tft180_write_index

      00FD18BEH   BLOCK     ECODE    ---       LVL=0
      00012A08H   SYMBOL    XDATA    BYTE      dat
      00FD18BEH   LINE      ECODE    ---       #84
      00FD18C2H   LINE      ECODE    ---       #86
      00FD18C5H   LINE      ECODE    ---       #87
      00FD18C8H   LINE      ECODE    ---       #88
      00FD18CBH   LINE      ECODE    ---       #89
      00FD18D7H   LINE      ECODE    ---       #90
      00FD18DAH   LINE      ECODE    ---       #91
      00FD18DDH   LINE      ECODE    ---       #92
      00FD18E0H   LINE      ECODE    ---       #93
      ---         BLOCKEND  ---      ---       LVL=0

      00FD18E1H   BLOCK     ECODE    ---       LVL=0
      00012724H   SYMBOL    XDATA    WORD      x1
      00012726H   SYMBOL    XDATA    WORD      y1
      00012728H   SYMBOL    XDATA    WORD      x2
      0001272AH   SYMBOL    XDATA    WORD      y2
      00FD18E1H   LINE      ECODE    ---       #104
      00FD18F9H   LINE      ECODE    ---       #106
      00FD191EH   LINE      ECODE    ---       #107
      00FD1943H   LINE      ECODE    ---       #108
      00FD1968H   LINE      ECODE    ---       #109
      00FD198DH   LINE      ECODE    ---       #111
      00FD19A7H   LINE      ECODE    ---       #113
      00FD19ACH   LINE      ECODE    ---       #114
      00FD19C0H   LINE      ECODE    ---       #115
      00FD19D4H   LINE      ECODE    ---       #117
      00FD19D9H   LINE      ECODE    ---       #118
      00FD19EDH   LINE      ECODE    ---       #119
      00FD1A01H   LINE      ECODE    ---       #120
      00FD1A03H   LINE      ECODE    ---       #123
      00FD1A08H   LINE      ECODE    ---       #124
      00FD1A1CH   LINE      ECODE    ---       #125
      00FD1A30H   LINE      ECODE    ---       #127
L251 LINKER/LOCATER V4.66.93.0                                                        03/25/2026  13:05:55  PAGE 135


      00FD1A35H   LINE      ECODE    ---       #128
      00FD1A49H   LINE      ECODE    ---       #129
      00FD1A5DH   LINE      ECODE    ---       #130
      00FD1A5DH   LINE      ECODE    ---       #131
      00FD1A62H   LINE      ECODE    ---       #132
      ---         BLOCKEND  ---      ---       LVL=0

      00FD1A63H   BLOCK     ECODE    ---       LVL=0
      00010CE2H   SYMBOL    XDATA    WORD      color
      00FD1A69H   BLOCK     ECODE    NEAR LAB  LVL=1
      00010CE4H   SYMBOL    XDATA    WORD      i
      00010CE6H   SYMBOL    XDATA    ---       tmp
      ---         BLOCKEND  ---      ---       LVL=1
      00FD1A63H   LINE      ECODE    ---       #142
      00FD1A69H   LINE      ECODE    ---       #143
      00FD1A69H   LINE      ECODE    ---       #146
      00FD1A88H   LINE      ECODE    ---       #148
      00FD1A92H   LINE      ECODE    ---       #150
      00FD1AAFH   LINE      ECODE    ---       #151
      00FD1ACCH   LINE      ECODE    ---       #152
      00FD1AD6H   LINE      ECODE    ---       #154
      00FD1AF4H   LINE      ECODE    ---       #155
      00FD1B11H   LINE      ECODE    ---       #156
      ---         BLOCKEND  ---      ---       LVL=0

      00FD1B12H   BLOCK     ECODE    ---       LVL=0
      000129E4H   SYMBOL    XDATA    INT       dir
      00FD1B12H   LINE      ECODE    ---       #164
      00FD1B18H   LINE      ECODE    ---       #166
      00FD1B24H   LINE      ECODE    ---       #167
      00FD1B32H   LINE      ECODE    ---       #169
      00FD1B38H   LINE      ECODE    ---       #170
      00FD1B3EH   LINE      ECODE    ---       #171
      00FD1B40H   LINE      ECODE    ---       #174
      00FD1B46H   LINE      ECODE    ---       #175
      00FD1B4CH   LINE      ECODE    ---       #176
      00FD1B4CH   LINE      ECODE    ---       #177
      ---         BLOCKEND  ---      ---       LVL=0

      00FD1B4DH   BLOCK     ECODE    ---       LVL=0
      00012951H   SYMBOL    XDATA    WORD      pen
      00012953H   SYMBOL    XDATA    WORD      bgcolor
      00FD1B4DH   LINE      ECODE    ---       #186
      00FD1B59H   LINE      ECODE    ---       #188
      00FD1B65H   LINE      ECODE    ---       #189
      00FD1B71H   LINE      ECODE    ---       #190
      ---         BLOCKEND  ---      ---       LVL=0

      00FD1B72H   BLOCK     ECODE    ---       LVL=0
      00012840H   SYMBOL    XDATA    WORD      x
      00012842H   SYMBOL    XDATA    WORD      y
      00012844H   SYMBOL    XDATA    WORD      color
      00FD1B72H   LINE      ECODE    ---       #200
      00FD1B84H   LINE      ECODE    ---       #202
      00FD1BA9H   LINE      ECODE    ---       #203
      00FD1BCEH   LINE      ECODE    ---       #205
      00FD1BE9H   LINE      ECODE    ---       #206
      00FD1BF7H   LINE      ECODE    ---       #207
      ---         BLOCKEND  ---      ---       LVL=0

      00FD1BF8H   BLOCK     ECODE    ---       LVL=0
      0001272CH   SYMBOL    XDATA    WORD      x
      0001272EH   SYMBOL    XDATA    WORD      y
      00012730H   SYMBOL    XDATA    CHAR      dat
      00FD1C08H   BLOCK     ECODE    NEAR LAB  LVL=1
L251 LINKER/LOCATER V4.66.93.0                                                        03/25/2026  13:05:55  PAGE 136


      00012731H   SYMBOL    XDATA    BYTE      i
      00012732H   SYMBOL    XDATA    BYTE      j
      00012733H   SYMBOL    XDATA    BYTE      temp
      ---         BLOCKEND  ---      ---       LVL=1
      00FD1BF8H   LINE      ECODE    ---       #217
      00FD1C08H   LINE      ECODE    ---       #218
      00FD1C08H   LINE      ECODE    ---       #222
      00FD1C2DH   LINE      ECODE    ---       #223
      00FD1C52H   LINE      ECODE    ---       #225
      00FD1C5AH   LINE      ECODE    ---       #227
      00FD1C8BH   LINE      ECODE    ---       #228
      00FD1CB2H   LINE      ECODE    ---       #229
      00FD1CB9H   LINE      ECODE    ---       #231
      00FD1CC0H   LINE      ECODE    ---       #232
      00FD1CD0H   LINE      ECODE    ---       #234
      00FD1CDEH   LINE      ECODE    ---       #235
      00FD1CE5H   LINE      ECODE    ---       #236
      00FD1CFCH   LINE      ECODE    ---       #237
      00FD1D16H   LINE      ECODE    ---       #238
      ---         BLOCKEND  ---      ---       LVL=0

      00FD1D17H   BLOCK     ECODE    ---       LVL=0
      0001257DH   SYMBOL    XDATA    WORD      x
      0001257FH   SYMBOL    XDATA    WORD      y
      00012581H   SYMBOL    XDATA    ---       dat
      00FD1D2DH   BLOCK     ECODE    NEAR LAB  LVL=1
      00012585H   SYMBOL    XDATA    WORD      j
      ---         BLOCKEND  ---      ---       LVL=1
      00FD1D17H   LINE      ECODE    ---       #248
      00FD1D2DH   LINE      ECODE    ---       #249
      00FD1D2DH   LINE      ECODE    ---       #250
      00FD1D35H   LINE      ECODE    ---       #252
      00FD1D5AH   LINE      ECODE    ---       #253
      00FD1D7FH   LINE      ECODE    ---       #256
      00FD1D81H   LINE      ECODE    ---       #258
      00FD1DB4H   LINE      ECODE    ---       #259
      00FD1DC3H   LINE      ECODE    ---       #260
      00FD1DDDH   LINE      ECODE    ---       #261
      ---         BLOCKEND  ---      ---       LVL=0

      00FD1DDEH   BLOCK     ECODE    ---       LVL=0
      000125E7H   SYMBOL    XDATA    WORD      x
      000125E9H   SYMBOL    XDATA    WORD      y
      000125EBH   SYMBOL    XDATA    CHAR      dat
      00FD1DEEH   BLOCK     ECODE    NEAR LAB  LVL=1
      000125ECH   SYMBOL    XDATA    ---       a
      000125EFH   SYMBOL    XDATA    BYTE      i
      ---         BLOCKEND  ---      ---       LVL=1
      00FD1DDEH   LINE      ECODE    ---       #271
      00FD1DEEH   LINE      ECODE    ---       #272
      00FD1DEEH   LINE      ECODE    ---       #276
      00FD1E13H   LINE      ECODE    ---       #277
      00FD1E38H   LINE      ECODE    ---       #280
      00FD1E42H   LINE      ECODE    ---       #282
      00FD1E54H   LINE      ECODE    ---       #283
      00FD1E5FH   LINE      ECODE    ---       #284
      00FD1E61H   LINE      ECODE    ---       #286
      00FD1E73H   LINE      ECODE    ---       #288
      00FD1E87H   LINE      ECODE    ---       #289
      00FD1EA3H   LINE      ECODE    ---       #290
      00FD1EB7H   LINE      ECODE    ---       #291
      00FD1EBCH   LINE      ECODE    ---       #292
      00FD1EBEH   LINE      ECODE    ---       #294
      00FD1EFDH   LINE      ECODE    ---       #295
      00FD1F08H   LINE      ECODE    ---       #296
L251 LINKER/LOCATER V4.66.93.0                                                        03/25/2026  13:05:55  PAGE 137


      00FD1F14H   LINE      ECODE    ---       #297
      ---         BLOCKEND  ---      ---       LVL=0

      00FD1F15H   BLOCK     ECODE    ---       LVL=0
      000125F0H   SYMBOL    XDATA    WORD      x
      000125F2H   SYMBOL    XDATA    WORD      y
      000125F4H   SYMBOL    XDATA    BYTE      dat
      00FD1F25H   BLOCK     ECODE    NEAR LAB  LVL=1
      000125F5H   SYMBOL    XDATA    ---       a
      000125F8H   SYMBOL    XDATA    BYTE      i
      ---         BLOCKEND  ---      ---       LVL=1
      00FD1F15H   LINE      ECODE    ---       #307
      00FD1F25H   LINE      ECODE    ---       #308
      00FD1F25H   LINE      ECODE    ---       #312
      00FD1F4AH   LINE      ECODE    ---       #313
      00FD1F6FH   LINE      ECODE    ---       #315
      00FD1F7FH   LINE      ECODE    ---       #316
      00FD1F99H   LINE      ECODE    ---       #317
      00FD1FADH   LINE      ECODE    ---       #318
      00FD1FB2H   LINE      ECODE    ---       #319
      00FD1FB4H   LINE      ECODE    ---       #321
      00FD1FEBH   LINE      ECODE    ---       #322
      00FD1FF6H   LINE      ECODE    ---       #323
      00FD2002H   LINE      ECODE    ---       #325
      ---         BLOCKEND  ---      ---       LVL=0

      00FD2003H   BLOCK     ECODE    ---       LVL=0
      000123CDH   SYMBOL    XDATA    WORD      x
      000123CFH   SYMBOL    XDATA    WORD      y
      000123D1H   SYMBOL    XDATA    INT       dat
      00FD2015H   BLOCK     ECODE    NEAR LAB  LVL=1
      000123D3H   SYMBOL    XDATA    ---       a
      000123D8H   SYMBOL    XDATA    BYTE      i
      ---         BLOCKEND  ---      ---       LVL=1
      00FD2003H   LINE      ECODE    ---       #335
      00FD2015H   LINE      ECODE    ---       #336
      00FD2015H   LINE      ECODE    ---       #340
      00FD203AH   LINE      ECODE    ---       #341
      00FD205FH   LINE      ECODE    ---       #343
      00FD206BH   LINE      ECODE    ---       #345
      00FD207DH   LINE      ECODE    ---       #346
      00FD208FH   LINE      ECODE    ---       #347
      00FD2091H   LINE      ECODE    ---       #348
      00FD20A3H   LINE      ECODE    ---       #350
      00FD20B7H   LINE      ECODE    ---       #351
      00FD20D3H   LINE      ECODE    ---       #352
      00FD20EFH   LINE      ECODE    ---       #353
      00FD210BH   LINE      ECODE    ---       #354
      00FD211FH   LINE      ECODE    ---       #356
      00FD2124H   LINE      ECODE    ---       #357
      00FD2126H   LINE      ECODE    ---       #359
      00FD2165H   LINE      ECODE    ---       #360
      00FD2170H   LINE      ECODE    ---       #361
      00FD217CH   LINE      ECODE    ---       #362
      ---         BLOCKEND  ---      ---       LVL=0

      00FD217DH   BLOCK     ECODE    ---       LVL=0
      000123D9H   SYMBOL    XDATA    WORD      x
      000123DBH   SYMBOL    XDATA    WORD      y
      000123DDH   SYMBOL    XDATA    WORD      dat
      00FD218FH   BLOCK     ECODE    NEAR LAB  LVL=1
      000123DFH   SYMBOL    XDATA    ---       a
      000123E4H   SYMBOL    XDATA    BYTE      i
      ---         BLOCKEND  ---      ---       LVL=1
      00FD217DH   LINE      ECODE    ---       #372
L251 LINKER/LOCATER V4.66.93.0                                                        03/25/2026  13:05:55  PAGE 138


      00FD218FH   LINE      ECODE    ---       #373
      00FD218FH   LINE      ECODE    ---       #377
      00FD21B4H   LINE      ECODE    ---       #378
      00FD21D9H   LINE      ECODE    ---       #380
      00FD21E9H   LINE      ECODE    ---       #381
      00FD2201H   LINE      ECODE    ---       #382
      00FD2219H   LINE      ECODE    ---       #383
      00FD2231H   LINE      ECODE    ---       #384
      00FD2243H   LINE      ECODE    ---       #386
      00FD2248H   LINE      ECODE    ---       #387
      00FD224AH   LINE      ECODE    ---       #389
      00FD2281H   LINE      ECODE    ---       #390
      00FD228CH   LINE      ECODE    ---       #391
      00FD2298H   LINE      ECODE    ---       #392
      ---         BLOCKEND  ---      ---       LVL=0

      00FD2299H   BLOCK     ECODE    ---       LVL=0
      00011A44H   SYMBOL    XDATA    WORD      x
      00011A46H   SYMBOL    XDATA    WORD      y
      00011A48H   SYMBOL    XDATA    LONG      dat
      00011A4CH   SYMBOL    XDATA    BYTE      num
      00FD22B3H   BLOCK     ECODE    NEAR LAB  LVL=1
      00011A4DH   SYMBOL    XDATA    ---       buff
      00011A6FH   SYMBOL    XDATA    BYTE      length
      ---         BLOCKEND  ---      ---       LVL=1
      00FD2299H   LINE      ECODE    ---       #404
      00FD22B3H   LINE      ECODE    ---       #405
      00FD22B3H   LINE      ECODE    ---       #409
      00FD22D8H   LINE      ECODE    ---       #410
      00FD22FDH   LINE      ECODE    ---       #412
      00FD230FH   LINE      ECODE    ---       #414
      00FD231AH   LINE      ECODE    ---       #415
      00FD235AH   LINE      ECODE    ---       #418
      00FD2360H   LINE      ECODE    ---       #419
      00FD238EH   LINE      ECODE    ---       #420
      00FD2399H   LINE      ECODE    ---       #421
      00FD2399H   LINE      ECODE    ---       #422
      00FD239BH   LINE      ECODE    ---       #424
      00FD23B3H   LINE      ECODE    ---       #425
      00FD23BEH   LINE      ECODE    ---       #426
      00FD23CCH   LINE      ECODE    ---       #427
      00FD23E3H   LINE      ECODE    ---       #429
      00FD23FBH   LINE      ECODE    ---       #430
      ---         BLOCKEND  ---      ---       LVL=0

      00FD23FCH   BLOCK     ECODE    ---       LVL=0
      000118F1H   SYMBOL    XDATA    WORD      x
      000118F3H   SYMBOL    XDATA    WORD      y
      000118F5H   SYMBOL    XDATA    DOUBLE    dat
      000118FDH   SYMBOL    XDATA    BYTE      num
      000118FEH   SYMBOL    XDATA    BYTE      pointnum
      00FD2412H   BLOCK     ECODE    NEAR LAB  LVL=1
      000118FFH   SYMBOL    XDATA    BYTE      length
      00011900H   SYMBOL    XDATA    ---       buff
      00011922H   SYMBOL    XDATA    CHAR      start
      00011923H   SYMBOL    XDATA    CHAR      end
      00011924H   SYMBOL    XDATA    CHAR      point
      ---         BLOCKEND  ---      ---       LVL=1
      00FD23FCH   LINE      ECODE    ---       #446
      00FD2412H   LINE      ECODE    ---       #447
      00FD2412H   LINE      ECODE    ---       #452
      00FD2437H   LINE      ECODE    ---       #453
      00FD245CH   LINE      ECODE    ---       #455
      00FD246EH   LINE      ECODE    ---       #456
      00FD2480H   LINE      ECODE    ---       #458
L251 LINKER/LOCATER V4.66.93.0                                                        03/25/2026  13:05:55  PAGE 139


      00FD24DCH   LINE      ECODE    ---       #461
      00FD251AH   LINE      ECODE    ---       #462
      00FD2525H   LINE      ECODE    ---       #463
      00FD2525H   LINE      ECODE    ---       #464
      00FD2535H   LINE      ECODE    ---       #465
      00FD254DH   LINE      ECODE    ---       #466
      00FD2565H   LINE      ECODE    ---       #467
      00FD2567H   LINE      ECODE    ---       #469
      00FD257FH   LINE      ECODE    ---       #470
      00FD258AH   LINE      ECODE    ---       #471
      00FD2595H   LINE      ECODE    ---       #472
      00FD25A0H   LINE      ECODE    ---       #474
      00FD25D6H   LINE      ECODE    ---       #475
      00FD25EEH   LINE      ECODE    ---       #477
      00FD2605H   LINE      ECODE    ---       #479
      00FD261DH   LINE      ECODE    ---       #480
      ---         BLOCKEND  ---      ---       LVL=0

      00FD261EH   BLOCK     ECODE    ---       LVL=0
      00011BDBH   SYMBOL    XDATA    WORD      x
      00011BDDH   SYMBOL    XDATA    WORD      y
      00011BDFH   SYMBOL    XDATA    ---       image
      00011BE3H   SYMBOL    XDATA    WORD      width
      00011BE5H   SYMBOL    XDATA    WORD      height
      00011BE7H   SYMBOL    XDATA    WORD      dis_width
      00011BE9H   SYMBOL    XDATA    WORD      dis_height
      00011BEBH   SYMBOL    XDATA    BYTE      threshold
      00FD2638H   BLOCK     ECODE    NEAR LAB  LVL=1
      00011BECH   SYMBOL    XDATA    DWORD     i
      00011BF0H   SYMBOL    XDATA    DWORD     j
      00011BF4H   SYMBOL    XDATA    WORD      color
      00011BF6H   SYMBOL    XDATA    WORD      temp
      00011BF8H   SYMBOL    XDATA    DWORD     width_index
      00011BFCH   SYMBOL    XDATA    DWORD     height_index
      ---         BLOCKEND  ---      ---       LVL=1
      00FD261EH   LINE      ECODE    ---       #499
      00FD2638H   LINE      ECODE    ---       #500
      00FD2638H   LINE      ECODE    ---       #501
      00FD2650H   LINE      ECODE    ---       #507
      00FD2675H   LINE      ECODE    ---       #508
      00FD269AH   LINE      ECODE    ---       #509
      00FD26BDH   LINE      ECODE    ---       #511
      00FD26C0H   LINE      ECODE    ---       #512
      00FD26F7H   LINE      ECODE    ---       #514
      00FD2706H   LINE      ECODE    ---       #516
      00FD272EH   LINE      ECODE    ---       #517
      00FD273DH   LINE      ECODE    ---       #519
      00FD2765H   LINE      ECODE    ---       #520
      00FD27A0H   LINE      ECODE    ---       #521
      00FD27A9H   LINE      ECODE    ---       #523
      00FD27CBH   LINE      ECODE    ---       #524
      00FD27EDH   LINE      ECODE    ---       #525
      00FD280AH   LINE      ECODE    ---       #526
      00FD2818H   LINE      ECODE    ---       #527
      00FD281AH   LINE      ECODE    ---       #528
      00FD282AH   LINE      ECODE    ---       #530
      00FD2834H   LINE      ECODE    ---       #531
      00FD2836H   LINE      ECODE    ---       #534
      00FD2842H   LINE      ECODE    ---       #535
      00FD2842H   LINE      ECODE    ---       #536
      00FD2872H   LINE      ECODE    ---       #537
      00FD28A2H   LINE      ECODE    ---       #538
      00FD28A5H   LINE      ECODE    ---       #539
      ---         BLOCKEND  ---      ---       LVL=0

L251 LINKER/LOCATER V4.66.93.0                                                        03/25/2026  13:05:55  PAGE 140


      00FD28A6H   BLOCK     ECODE    ---       LVL=0
      00011CFAH   SYMBOL    XDATA    WORD      x
      00011CFCH   SYMBOL    XDATA    WORD      y
      00011CFEH   SYMBOL    XDATA    ---       p
      00011D02H   SYMBOL    XDATA    WORD      width
      00011D04H   SYMBOL    XDATA    WORD      value_max
      00011D06H   SYMBOL    XDATA    WORD      dis_width
      00011D08H   SYMBOL    XDATA    WORD      dis_value_max
      00FD28BCH   BLOCK     ECODE    NEAR LAB  LVL=1
      00011D0AH   SYMBOL    XDATA    DWORD     i
      00011D0EH   SYMBOL    XDATA    DWORD     j
      00011D12H   SYMBOL    XDATA    DWORD     width_index
      00011D16H   SYMBOL    XDATA    DWORD     value_max_index
      ---         BLOCKEND  ---      ---       LVL=1
      00FD28A6H   LINE      ECODE    ---       #553
      00FD28BCH   LINE      ECODE    ---       #554
      00FD28BCH   LINE      ECODE    ---       #555
      00FD28D4H   LINE      ECODE    ---       #558
      00FD28F9H   LINE      ECODE    ---       #559
      00FD291EH   LINE      ECODE    ---       #561
      00FD2955H   LINE      ECODE    ---       #562
      00FD2963H   LINE      ECODE    ---       #564
      00FD2971H   LINE      ECODE    ---       #566
      00FD297FH   LINE      ECODE    ---       #567
      00FD29ACH   LINE      ECODE    ---       #568
      00FD29D9H   LINE      ECODE    ---       #570
      00FD29E8H   LINE      ECODE    ---       #572
      00FD2A10H   LINE      ECODE    ---       #573
      00FD2A4FH   LINE      ECODE    ---       #574
      00FD2A8FH   LINE      ECODE    ---       #575
      00FD2ABFH   LINE      ECODE    ---       #576
      ---         BLOCKEND  ---      ---       LVL=0

      00FD2AC0H   BLOCK     ECODE    ---       LVL=0
      00FD2AC0H   LINE      ECODE    ---       #583
      00FD2AC0H   LINE      ECODE    ---       #588
      00FD2AFAH   LINE      ECODE    ---       #591
      00FD2B0BH   LINE      ECODE    ---       #592
      00FD2B1CH   LINE      ECODE    ---       #593
      00FD2B2DH   LINE      ECODE    ---       #594
      00FD2B3FH   LINE      ECODE    ---       #596
      00FD2B49H   LINE      ECODE    ---       #597
      00FD2B59H   LINE      ECODE    ---       #599
      00FD2B5CH   LINE      ECODE    ---       #600
      00FD2B7AH   LINE      ECODE    ---       #602
      00FD2B7DH   LINE      ECODE    ---       #603
      00FD2B9BH   LINE      ECODE    ---       #605
      00FD2BA0H   LINE      ECODE    ---       #606
      00FD2BBEH   LINE      ECODE    ---       #608
      00FD2BC3H   LINE      ECODE    ---       #609
      00FD2BCDH   LINE      ECODE    ---       #610
      00FD2BD7H   LINE      ECODE    ---       #611
      00FD2BE1H   LINE      ECODE    ---       #613
      00FD2BE6H   LINE      ECODE    ---       #614
      00FD2BF0H   LINE      ECODE    ---       #615
      00FD2BFAH   LINE      ECODE    ---       #616
      00FD2C04H   LINE      ECODE    ---       #618
      00FD2C09H   LINE      ECODE    ---       #619
      00FD2C13H   LINE      ECODE    ---       #620
      00FD2C1DH   LINE      ECODE    ---       #621
      00FD2C27H   LINE      ECODE    ---       #622
      00FD2C31H   LINE      ECODE    ---       #623
      00FD2C3BH   LINE      ECODE    ---       #624
      00FD2C45H   LINE      ECODE    ---       #626
      00FD2C4AH   LINE      ECODE    ---       #627
L251 LINKER/LOCATER V4.66.93.0                                                        03/25/2026  13:05:55  PAGE 141


      00FD2C54H   LINE      ECODE    ---       #629
      00FD2C59H   LINE      ECODE    ---       #630
      00FD2C63H   LINE      ECODE    ---       #631
      00FD2C6DH   LINE      ECODE    ---       #632
      00FD2C77H   LINE      ECODE    ---       #633
      00FD2C7CH   LINE      ECODE    ---       #634
      00FD2C86H   LINE      ECODE    ---       #636
      00FD2C8BH   LINE      ECODE    ---       #637
      00FD2C95H   LINE      ECODE    ---       #638
      00FD2C9EH   LINE      ECODE    ---       #640
      00FD2CA3H   LINE      ECODE    ---       #641
      00FD2CADH   LINE      ECODE    ---       #642
      00FD2CB7H   LINE      ECODE    ---       #643
      00FD2CBCH   LINE      ECODE    ---       #644
      00FD2CC6H   LINE      ECODE    ---       #645
      00FD2CD0H   LINE      ECODE    ---       #647
      00FD2CD5H   LINE      ECODE    ---       #648
      00FD2CDFH   LINE      ECODE    ---       #650
      00FD2CE4H   LINE      ECODE    ---       #651
      00FD2CFCH   LINE      ECODE    ---       #653
      00FD2D08H   LINE      ECODE    ---       #654
      00FD2D13H   LINE      ECODE    ---       #655
      00FD2D1FH   LINE      ECODE    ---       #656
      00FD2D29H   LINE      ECODE    ---       #657
      00FD2D29H   LINE      ECODE    ---       #659
      00FD2D2EH   LINE      ECODE    ---       #660
      00FD2D38H   LINE      ECODE    ---       #661
      00FD2D42H   LINE      ECODE    ---       #662
      00FD2D4CH   LINE      ECODE    ---       #663
      00FD2D56H   LINE      ECODE    ---       #664
      00FD2D60H   LINE      ECODE    ---       #665
      00FD2D6AH   LINE      ECODE    ---       #666
      00FD2D74H   LINE      ECODE    ---       #667
      00FD2D7EH   LINE      ECODE    ---       #668
      00FD2D88H   LINE      ECODE    ---       #669
      00FD2D92H   LINE      ECODE    ---       #670
      00FD2D9CH   LINE      ECODE    ---       #671
      00FD2DA6H   LINE      ECODE    ---       #672
      00FD2DAFH   LINE      ECODE    ---       #673
      00FD2DB9H   LINE      ECODE    ---       #674
      00FD2DC3H   LINE      ECODE    ---       #675
      00FD2DCDH   LINE      ECODE    ---       #677
      00FD2DD2H   LINE      ECODE    ---       #678
      00FD2DDCH   LINE      ECODE    ---       #679
      00FD2DE6H   LINE      ECODE    ---       #680
      00FD2DF0H   LINE      ECODE    ---       #681
      00FD2DFAH   LINE      ECODE    ---       #682
      00FD2E04H   LINE      ECODE    ---       #683
      00FD2E0EH   LINE      ECODE    ---       #684
      00FD2E18H   LINE      ECODE    ---       #685
      00FD2E22H   LINE      ECODE    ---       #686
      00FD2E2CH   LINE      ECODE    ---       #687
      00FD2E36H   LINE      ECODE    ---       #688
      00FD2E40H   LINE      ECODE    ---       #689
      00FD2E4AH   LINE      ECODE    ---       #690
      00FD2E53H   LINE      ECODE    ---       #691
      00FD2E5DH   LINE      ECODE    ---       #692
      00FD2E67H   LINE      ECODE    ---       #693
      00FD2E71H   LINE      ECODE    ---       #695
      00FD2E76H   LINE      ECODE    ---       #696
      00FD2E7FH   LINE      ECODE    ---       #697
      00FD2E89H   LINE      ECODE    ---       #698
      00FD2E92H   LINE      ECODE    ---       #699
      00FD2E9CH   LINE      ECODE    ---       #701
      00FD2EA1H   LINE      ECODE    ---       #702
L251 LINKER/LOCATER V4.66.93.0                                                        03/25/2026  13:05:55  PAGE 142


      00FD2EAAH   LINE      ECODE    ---       #703
      00FD2EB4H   LINE      ECODE    ---       #704
      00FD2EBDH   LINE      ECODE    ---       #705
      00FD2EC7H   LINE      ECODE    ---       #707
      00FD2ECCH   LINE      ECODE    ---       #708
      00FD2ED6H   LINE      ECODE    ---       #709
      00FD2EDBH   LINE      ECODE    ---       #710
      00FD2EE4H   LINE      ECODE    ---       #712
      00FD2EE9H   LINE      ECODE    ---       #713
      00FD2EF3H   LINE      ECODE    ---       #714
      00FD2EF8H   LINE      ECODE    ---       #716
      00FD2F02H   LINE      ECODE    ---       #717
      ---         BLOCKEND  ---      ---       LVL=0

      ---         MODULE    ---      ---       zf_device_ips200
      00FCF1D9H   PUBLIC    ECODE    ---       ips200_show_float?
      00FCE94FH   PUBLIC    ECODE    ---       ips200_draw_point?
      00FCEAF4H   PUBLIC    ECODE    ---       ips200_show_string?
      00FCF819H   PUBLIC    ECODE    ---       ips200_show_gray_image?
      00FCE9D5H   PUBLIC    ECODE    ---       ips200_show_char?
      00FCEF5AH   PUBLIC    ECODE    ---       ips200_show_uint16?
      00FCE92AH   PUBLIC    ECODE    ---       ips200_set_color?
      00FCF076H   PUBLIC    ECODE    ---       ips200_show_int32?
      00FCEDE0H   PUBLIC    ECODE    ---       ips200_show_int16?
      00FCF3FBH   PUBLIC    ECODE    ---       ips200_show_wave?
      00FCE917H   PUBLIC    ECODE    ---       ips200_set_dir?
      00FCF615H   PUBLIC    ECODE    ---       ips200_show_chinese?
      00FCE868H   PUBLIC    ECODE    ---       ips200_clear?
      00FCECF2H   PUBLIC    ECODE    ---       ips200_show_uint8?
      00FCEBBBH   PUBLIC    ECODE    ---       ips200_show_int8?
      00FCFAEBH   PUBLIC    ECODE    ---       ips200_init?
      00012587H   PUBLIC    XDATA    WORD      ips200_pencolor
      00012589H   PUBLIC    XDATA    WORD      ips200_bgcolor
      0001258BH   PUBLIC    XDATA    INT       ips200_display_dir
      0001258DH   PUBLIC    XDATA    WORD      ips200_x_max
      0001258FH   PUBLIC    XDATA    WORD      ips200_y_max
      00011925H   PUBLIC    XDATA    BYTE      ?ips200_show_float??BYTE
      00011D1AH   PUBLIC    XDATA    BYTE      ?ips200_show_wave??BYTE
      00011EC9H   PUBLIC    XDATA    BYTE      ?ips200_show_chinese??BYTE
      00010452H   PUBLIC    XDATA    BYTE      ?ips200_show_gray_image??BYTE
      000000D0H   SFRSYM    DATA     BYTE      PSW
      0000009DH   SFRSYM    DATA     BYTE      IRCBAND
      00000097H   SFRSYM    DATA     BYTE      AUXR2
      000000EAH   SFRSYM    DATA     BYTE      CKCON
      000000EFH   SFRSYM    DATA     BYTE      AUXINTIF
      000000FDH   SFRSYM    DATA     BYTE      S4CON
      000000ACH   SFRSYM    DATA     BYTE      S3CON
      0000009AH   SFRSYM    DATA     BYTE      S2CON
      000000B7H   SFRSYM    DATA     BYTE      IPH
      000000CDH   SFRSYM    DATA     BYTE      SPSTAT
      000000DDH   SFRSYM    DATA     BYTE      T4T3M
      000000C1H   SFRSYM    DATA     BYTE      WDT_CONTR
      000000DFH   SFRSYM    DATA     BYTE      IP3
      000000F4H   SFRSYM    DATA     BYTE      USBCON
      000000B5H   SFRSYM    DATA     BYTE      IP2
      000000FFH   SFRSYM    DATA     BYTE      RSTCFG
      000000E0H   SFRSYM    DATA     BYTE      ACC
      000000C7H   SFRSYM    DATA     BYTE      IAP_CONTR
      000000F9H   SFRSYM    DATA     BYTE      LINICR
      0000008EH   SFRSYM    DATA     BYTE      AUXR
      000000F0H   SFRSYM    DATA     BYTE      B
      000000AFH   SFRSYM    DATA     BYTE      IE2
      000000B0H.5 SFRSYM    DATA     BIT       P35
      000000F8H.1 SFRSYM    DATA     BIT       P71
      000000F8H.0 SFRSYM    DATA     BIT       P70
L251 LINKER/LOCATER V4.66.93.0                                                        03/25/2026  13:05:55  PAGE 143


      00000088H   SFRSYM    DATA     BYTE      TCON
      00000089H   SFRSYM    DATA     BYTE      TMOD
      00000098H   SFRSYM    DATA     BYTE      SCON
      00000087H   SFRSYM    DATA     BYTE      PCON
      000000BCH   SFRSYM    DATA     BYTE      ADC_CONTR
      000000D1H   SFRSYM    DATA     BYTE      PSW1
      000000E7H   SFRSYM    DATA     BYTE      CMPCR2
      000000E6H   SFRSYM    DATA     BYTE      CMPCR1
      000000DEH   SFRSYM    DATA     BYTE      ADCCFG
      000000B8H   SFRSYM    DATA     BYTE      IP
      0000008FH   SFRSYM    DATA     BYTE      INTCLKO
      000000EEH   SFRSYM    DATA     BYTE      IP3H
      000000B6H   SFRSYM    DATA     BYTE      IP2H
      000000BFH   SFRSYM    DATA     BYTE      P_SW4
      000000A8H   SFRSYM    DATA     BYTE      IE
      000000BBH   SFRSYM    DATA     BYTE      P_SW3
      000000BAH   SFRSYM    DATA     BYTE      P_SW2
      000000A2H   SFRSYM    DATA     BYTE      P_SW1
      000000CEH   SFRSYM    DATA     BYTE      SPCTL
      000000F8H   SFRSYM    DATA     BYTE      P7
      000000E8H   SFRSYM    DATA     BYTE      P6
      000000C8H   SFRSYM    DATA     BYTE      P5
      000000C0H   SFRSYM    DATA     BYTE      P4
      000000ABH   SFRSYM    DATA     BYTE      WKTCH
      000000B0H   SFRSYM    DATA     BYTE      P3
      000000A0H   SFRSYM    DATA     BYTE      P2
      00000090H   SFRSYM    DATA     BYTE      P1
      00000080H   SFRSYM    DATA     BYTE      P0
      00FCE751H   SYMBOL    ECODE    ---       ips200_write_index
      00FCE774H   SYMBOL    ECODE    ---       ips200_set_region

      00FCE751H   BLOCK     ECODE    ---       LVL=0
      00012A09H   SYMBOL    XDATA    BYTE      dat
      00FCE751H   LINE      ECODE    ---       #85
      00FCE755H   LINE      ECODE    ---       #87
      00FCE758H   LINE      ECODE    ---       #88
      00FCE75BH   LINE      ECODE    ---       #89
      00FCE75EH   LINE      ECODE    ---       #90
      00FCE76AH   LINE      ECODE    ---       #91
      00FCE76DH   LINE      ECODE    ---       #92
      00FCE770H   LINE      ECODE    ---       #93
      00FCE773H   LINE      ECODE    ---       #94
      ---         BLOCKEND  ---      ---       LVL=0

      00FCE774H   BLOCK     ECODE    ---       LVL=0
      00012734H   SYMBOL    XDATA    WORD      x1
      00012736H   SYMBOL    XDATA    WORD      y1
      00012738H   SYMBOL    XDATA    WORD      x2
      0001273AH   SYMBOL    XDATA    WORD      y2
      00FCE774H   LINE      ECODE    ---       #105
      00FCE78CH   LINE      ECODE    ---       #107
      00FCE7B1H   LINE      ECODE    ---       #108
      00FCE7D6H   LINE      ECODE    ---       #109
      00FCE7FBH   LINE      ECODE    ---       #110
      00FCE820H   LINE      ECODE    ---       #113
      00FCE825H   LINE      ECODE    ---       #114
      00FCE833H   LINE      ECODE    ---       #115
      00FCE841H   LINE      ECODE    ---       #116
      00FCE846H   LINE      ECODE    ---       #117
      00FCE854H   LINE      ECODE    ---       #118
      00FCE862H   LINE      ECODE    ---       #119
      00FCE867H   LINE      ECODE    ---       #121
      ---         BLOCKEND  ---      ---       LVL=0

      00FCE868H   BLOCK     ECODE    ---       LVL=0
L251 LINKER/LOCATER V4.66.93.0                                                        03/25/2026  13:05:55  PAGE 144


      00010EC6H   SYMBOL    XDATA    WORD      color
      00FCE86EH   BLOCK     ECODE    NEAR LAB  LVL=1
      00010EC8H   SYMBOL    XDATA    WORD      i
      00010ECAH   SYMBOL    XDATA    ---       tmp
      ---         BLOCKEND  ---      ---       LVL=1
      00FCE868H   LINE      ECODE    ---       #129
      00FCE86EH   LINE      ECODE    ---       #130
      00FCE86EH   LINE      ECODE    ---       #133
      00FCE88DH   LINE      ECODE    ---       #135
      00FCE897H   LINE      ECODE    ---       #137
      00FCE8B4H   LINE      ECODE    ---       #138
      00FCE8D1H   LINE      ECODE    ---       #140
      00FCE8DBH   LINE      ECODE    ---       #142
      00FCE8F9H   LINE      ECODE    ---       #143
      00FCE916H   LINE      ECODE    ---       #145
      ---         BLOCKEND  ---      ---       LVL=0

      00FCE917H   BLOCK     ECODE    ---       LVL=0
      000129E6H   SYMBOL    XDATA    INT       dir
      00FCE917H   LINE      ECODE    ---       #153
      00FCE91DH   LINE      ECODE    ---       #155
      00FCE929H   LINE      ECODE    ---       #166
      ---         BLOCKEND  ---      ---       LVL=0

      00FCE92AH   BLOCK     ECODE    ---       LVL=0
      00012955H   SYMBOL    XDATA    WORD      pen
      00012957H   SYMBOL    XDATA    WORD      bgcolor
      00FCE92AH   LINE      ECODE    ---       #175
      00FCE936H   LINE      ECODE    ---       #177
      00FCE942H   LINE      ECODE    ---       #178
      00FCE94EH   LINE      ECODE    ---       #179
      ---         BLOCKEND  ---      ---       LVL=0

      00FCE94FH   BLOCK     ECODE    ---       LVL=0
      00012846H   SYMBOL    XDATA    WORD      x
      00012848H   SYMBOL    XDATA    WORD      y
      0001284AH   SYMBOL    XDATA    WORD      color
      00FCE94FH   LINE      ECODE    ---       #189
      00FCE961H   LINE      ECODE    ---       #191
      00FCE986H   LINE      ECODE    ---       #192
      00FCE9ABH   LINE      ECODE    ---       #194
      00FCE9C6H   LINE      ECODE    ---       #195
      00FCE9D4H   LINE      ECODE    ---       #196
      ---         BLOCKEND  ---      ---       LVL=0

      00FCE9D5H   BLOCK     ECODE    ---       LVL=0
      0001273CH   SYMBOL    XDATA    WORD      x
      0001273EH   SYMBOL    XDATA    WORD      y
      00012740H   SYMBOL    XDATA    CHAR      dat
      00FCE9E5H   BLOCK     ECODE    NEAR LAB  LVL=1
      00012741H   SYMBOL    XDATA    BYTE      i
      00012742H   SYMBOL    XDATA    BYTE      j
      00012743H   SYMBOL    XDATA    BYTE      temp
      ---         BLOCKEND  ---      ---       LVL=1
      00FCE9D5H   LINE      ECODE    ---       #206
      00FCE9E5H   LINE      ECODE    ---       #207
      00FCE9E5H   LINE      ECODE    ---       #211
      00FCEA0AH   LINE      ECODE    ---       #212
      00FCEA2FH   LINE      ECODE    ---       #214
      00FCEA37H   LINE      ECODE    ---       #216
      00FCEA68H   LINE      ECODE    ---       #217
      00FCEA8FH   LINE      ECODE    ---       #218
      00FCEA96H   LINE      ECODE    ---       #220
      00FCEA9DH   LINE      ECODE    ---       #221
      00FCEAADH   LINE      ECODE    ---       #223
L251 LINKER/LOCATER V4.66.93.0                                                        03/25/2026  13:05:55  PAGE 145


      00FCEABBH   LINE      ECODE    ---       #224
      00FCEAC2H   LINE      ECODE    ---       #225
      00FCEAD9H   LINE      ECODE    ---       #226
      00FCEAF3H   LINE      ECODE    ---       #227
      ---         BLOCKEND  ---      ---       LVL=0

      00FCEAF4H   BLOCK     ECODE    ---       LVL=0
      00012591H   SYMBOL    XDATA    WORD      x
      00012593H   SYMBOL    XDATA    WORD      y
      00012595H   SYMBOL    XDATA    ---       dat
      00FCEB0AH   BLOCK     ECODE    NEAR LAB  LVL=1
      00012599H   SYMBOL    XDATA    WORD      j
      ---         BLOCKEND  ---      ---       LVL=1
      00FCEAF4H   LINE      ECODE    ---       #237
      00FCEB0AH   LINE      ECODE    ---       #238
      00FCEB0AH   LINE      ECODE    ---       #239
      00FCEB12H   LINE      ECODE    ---       #241
      00FCEB37H   LINE      ECODE    ---       #242
      00FCEB5CH   LINE      ECODE    ---       #244
      00FCEB5EH   LINE      ECODE    ---       #246
      00FCEB91H   LINE      ECODE    ---       #247
      00FCEBA0H   LINE      ECODE    ---       #248
      00FCEBBAH   LINE      ECODE    ---       #249
      ---         BLOCKEND  ---      ---       LVL=0

      00FCEBBBH   BLOCK     ECODE    ---       LVL=0
      000125F9H   SYMBOL    XDATA    WORD      x
      000125FBH   SYMBOL    XDATA    WORD      y
      000125FDH   SYMBOL    XDATA    CHAR      dat
      00FCEBCBH   BLOCK     ECODE    NEAR LAB  LVL=1
      000125FEH   SYMBOL    XDATA    ---       a
      00012601H   SYMBOL    XDATA    BYTE      i
      ---         BLOCKEND  ---      ---       LVL=1
      00FCEBBBH   LINE      ECODE    ---       #259
      00FCEBCBH   LINE      ECODE    ---       #260
      00FCEBCBH   LINE      ECODE    ---       #264
      00FCEBF0H   LINE      ECODE    ---       #265
      00FCEC15H   LINE      ECODE    ---       #267
      00FCEC1FH   LINE      ECODE    ---       #269
      00FCEC31H   LINE      ECODE    ---       #270
      00FCEC3CH   LINE      ECODE    ---       #271
      00FCEC3EH   LINE      ECODE    ---       #273
      00FCEC50H   LINE      ECODE    ---       #275
      00FCEC64H   LINE      ECODE    ---       #276
      00FCEC80H   LINE      ECODE    ---       #277
      00FCEC94H   LINE      ECODE    ---       #278
      00FCEC99H   LINE      ECODE    ---       #279
      00FCEC9BH   LINE      ECODE    ---       #281
      00FCECDAH   LINE      ECODE    ---       #282
      00FCECE5H   LINE      ECODE    ---       #283
      00FCECF1H   LINE      ECODE    ---       #284
      ---         BLOCKEND  ---      ---       LVL=0

      00FCECF2H   BLOCK     ECODE    ---       LVL=0
      00012602H   SYMBOL    XDATA    WORD      x
      00012604H   SYMBOL    XDATA    WORD      y
      00012606H   SYMBOL    XDATA    BYTE      dat
      00FCED02H   BLOCK     ECODE    NEAR LAB  LVL=1
      00012607H   SYMBOL    XDATA    ---       a
      0001260AH   SYMBOL    XDATA    BYTE      i
      ---         BLOCKEND  ---      ---       LVL=1
      00FCECF2H   LINE      ECODE    ---       #294
      00FCED02H   LINE      ECODE    ---       #295
      00FCED02H   LINE      ECODE    ---       #300
      00FCED27H   LINE      ECODE    ---       #301
L251 LINKER/LOCATER V4.66.93.0                                                        03/25/2026  13:05:55  PAGE 146


      00FCED4CH   LINE      ECODE    ---       #303
      00FCED5CH   LINE      ECODE    ---       #304
      00FCED76H   LINE      ECODE    ---       #305
      00FCED8AH   LINE      ECODE    ---       #306
      00FCED8FH   LINE      ECODE    ---       #307
      00FCED91H   LINE      ECODE    ---       #309
      00FCEDC8H   LINE      ECODE    ---       #310
      00FCEDD3H   LINE      ECODE    ---       #311
      00FCEDDFH   LINE      ECODE    ---       #313
      ---         BLOCKEND  ---      ---       LVL=0

      00FCEDE0H   BLOCK     ECODE    ---       LVL=0
      000123E5H   SYMBOL    XDATA    WORD      x
      000123E7H   SYMBOL    XDATA    WORD      y
      000123E9H   SYMBOL    XDATA    INT       dat
      00FCEDF2H   BLOCK     ECODE    NEAR LAB  LVL=1
      000123EBH   SYMBOL    XDATA    ---       a
      000123F0H   SYMBOL    XDATA    BYTE      i
      ---         BLOCKEND  ---      ---       LVL=1
      00FCEDE0H   LINE      ECODE    ---       #323
      00FCEDF2H   LINE      ECODE    ---       #324
      00FCEDF2H   LINE      ECODE    ---       #328
      00FCEE17H   LINE      ECODE    ---       #329
      00FCEE3CH   LINE      ECODE    ---       #331
      00FCEE48H   LINE      ECODE    ---       #333
      00FCEE5AH   LINE      ECODE    ---       #334
      00FCEE6CH   LINE      ECODE    ---       #335
      00FCEE6EH   LINE      ECODE    ---       #336
      00FCEE80H   LINE      ECODE    ---       #338
      00FCEE94H   LINE      ECODE    ---       #339
      00FCEEB0H   LINE      ECODE    ---       #340
      00FCEECCH   LINE      ECODE    ---       #341
      00FCEEE8H   LINE      ECODE    ---       #342
      00FCEEFCH   LINE      ECODE    ---       #344
      00FCEF01H   LINE      ECODE    ---       #345
      00FCEF03H   LINE      ECODE    ---       #347
      00FCEF42H   LINE      ECODE    ---       #348
      00FCEF4DH   LINE      ECODE    ---       #349
      00FCEF59H   LINE      ECODE    ---       #350
      ---         BLOCKEND  ---      ---       LVL=0

      00FCEF5AH   BLOCK     ECODE    ---       LVL=0
      000123F1H   SYMBOL    XDATA    WORD      x
      000123F3H   SYMBOL    XDATA    WORD      y
      000123F5H   SYMBOL    XDATA    WORD      dat
      00FCEF6CH   BLOCK     ECODE    NEAR LAB  LVL=1
      000123F7H   SYMBOL    XDATA    ---       a
      000123FCH   SYMBOL    XDATA    BYTE      i
      ---         BLOCKEND  ---      ---       LVL=1
      00FCEF5AH   LINE      ECODE    ---       #360
      00FCEF6CH   LINE      ECODE    ---       #361
      00FCEF6CH   LINE      ECODE    ---       #365
      00FCEF91H   LINE      ECODE    ---       #366
      00FCEFB6H   LINE      ECODE    ---       #368
      00FCEFC6H   LINE      ECODE    ---       #369
      00FCEFDEH   LINE      ECODE    ---       #370
      00FCEFF6H   LINE      ECODE    ---       #371
      00FCF00EH   LINE      ECODE    ---       #372
      00FCF020H   LINE      ECODE    ---       #374
      00FCF025H   LINE      ECODE    ---       #375
      00FCF027H   LINE      ECODE    ---       #377
      00FCF05EH   LINE      ECODE    ---       #378
      00FCF069H   LINE      ECODE    ---       #379
      00FCF075H   LINE      ECODE    ---       #380
      ---         BLOCKEND  ---      ---       LVL=0
L251 LINKER/LOCATER V4.66.93.0                                                        03/25/2026  13:05:55  PAGE 147



      00FCF076H   BLOCK     ECODE    ---       LVL=0
      00011A70H   SYMBOL    XDATA    WORD      x
      00011A72H   SYMBOL    XDATA    WORD      y
      00011A74H   SYMBOL    XDATA    LONG      dat
      00011A78H   SYMBOL    XDATA    BYTE      num
      00FCF090H   BLOCK     ECODE    NEAR LAB  LVL=1
      00011A79H   SYMBOL    XDATA    ---       buff
      00011A9BH   SYMBOL    XDATA    BYTE      length
      ---         BLOCKEND  ---      ---       LVL=1
      00FCF076H   LINE      ECODE    ---       #392
      00FCF090H   LINE      ECODE    ---       #393
      00FCF090H   LINE      ECODE    ---       #397
      00FCF0B5H   LINE      ECODE    ---       #398
      00FCF0DAH   LINE      ECODE    ---       #400
      00FCF0ECH   LINE      ECODE    ---       #402
      00FCF0F7H   LINE      ECODE    ---       #403
      00FCF137H   LINE      ECODE    ---       #406
      00FCF13DH   LINE      ECODE    ---       #407
      00FCF16BH   LINE      ECODE    ---       #408
      00FCF176H   LINE      ECODE    ---       #409
      00FCF176H   LINE      ECODE    ---       #410
      00FCF178H   LINE      ECODE    ---       #412
      00FCF190H   LINE      ECODE    ---       #413
      00FCF19BH   LINE      ECODE    ---       #414
      00FCF1A9H   LINE      ECODE    ---       #415
      00FCF1C0H   LINE      ECODE    ---       #417
      00FCF1D8H   LINE      ECODE    ---       #418
      ---         BLOCKEND  ---      ---       LVL=0

      00FCF1D9H   BLOCK     ECODE    ---       LVL=0
      00011925H   SYMBOL    XDATA    WORD      x
      00011927H   SYMBOL    XDATA    WORD      y
      00011929H   SYMBOL    XDATA    DOUBLE    dat
      00011931H   SYMBOL    XDATA    BYTE      num
      00011932H   SYMBOL    XDATA    BYTE      pointnum
      00FCF1EFH   BLOCK     ECODE    NEAR LAB  LVL=1
      00011933H   SYMBOL    XDATA    BYTE      length
      00011934H   SYMBOL    XDATA    ---       buff
      00011956H   SYMBOL    XDATA    CHAR      start
      00011957H   SYMBOL    XDATA    CHAR      end
      00011958H   SYMBOL    XDATA    CHAR      point
      ---         BLOCKEND  ---      ---       LVL=1
      00FCF1D9H   LINE      ECODE    ---       #434
      00FCF1EFH   LINE      ECODE    ---       #435
      00FCF1EFH   LINE      ECODE    ---       #440
      00FCF214H   LINE      ECODE    ---       #441
      00FCF239H   LINE      ECODE    ---       #443
      00FCF24BH   LINE      ECODE    ---       #444
      00FCF25DH   LINE      ECODE    ---       #446
      00FCF2B9H   LINE      ECODE    ---       #449
      00FCF2F7H   LINE      ECODE    ---       #450
      00FCF302H   LINE      ECODE    ---       #451
      00FCF302H   LINE      ECODE    ---       #452
      00FCF312H   LINE      ECODE    ---       #453
      00FCF32AH   LINE      ECODE    ---       #454
      00FCF342H   LINE      ECODE    ---       #455
      00FCF344H   LINE      ECODE    ---       #457
      00FCF35CH   LINE      ECODE    ---       #458
      00FCF367H   LINE      ECODE    ---       #459
      00FCF372H   LINE      ECODE    ---       #460
      00FCF37DH   LINE      ECODE    ---       #462
      00FCF3B3H   LINE      ECODE    ---       #463
      00FCF3CBH   LINE      ECODE    ---       #465
      00FCF3E2H   LINE      ECODE    ---       #467
L251 LINKER/LOCATER V4.66.93.0                                                        03/25/2026  13:05:55  PAGE 148


      00FCF3FAH   LINE      ECODE    ---       #468
      ---         BLOCKEND  ---      ---       LVL=0

      00FCF3FBH   BLOCK     ECODE    ---       LVL=0
      00011D1AH   SYMBOL    XDATA    WORD      x
      00011D1CH   SYMBOL    XDATA    WORD      y
      00011D1EH   SYMBOL    XDATA    ---       p
      00011D22H   SYMBOL    XDATA    WORD      width
      00011D24H   SYMBOL    XDATA    WORD      value_max
      00011D26H   SYMBOL    XDATA    WORD      dis_width
      00011D28H   SYMBOL    XDATA    WORD      dis_value_max
      00FCF411H   BLOCK     ECODE    NEAR LAB  LVL=1
      00011D2AH   SYMBOL    XDATA    DWORD     i
      00011D2EH   SYMBOL    XDATA    DWORD     j
      00011D32H   SYMBOL    XDATA    DWORD     width_index
      00011D36H   SYMBOL    XDATA    DWORD     value_max_index
      ---         BLOCKEND  ---      ---       LVL=1
      00FCF3FBH   LINE      ECODE    ---       #483
      00FCF411H   LINE      ECODE    ---       #484
      00FCF411H   LINE      ECODE    ---       #485
      00FCF429H   LINE      ECODE    ---       #488
      00FCF44EH   LINE      ECODE    ---       #489
      00FCF473H   LINE      ECODE    ---       #491
      00FCF4AAH   LINE      ECODE    ---       #492
      00FCF4B8H   LINE      ECODE    ---       #494
      00FCF4C6H   LINE      ECODE    ---       #496
      00FCF4D4H   LINE      ECODE    ---       #497
      00FCF501H   LINE      ECODE    ---       #498
      00FCF52EH   LINE      ECODE    ---       #500
      00FCF53DH   LINE      ECODE    ---       #502
      00FCF565H   LINE      ECODE    ---       #503
      00FCF5A4H   LINE      ECODE    ---       #504
      00FCF5E4H   LINE      ECODE    ---       #505
      00FCF614H   LINE      ECODE    ---       #506
      ---         BLOCKEND  ---      ---       LVL=0

      00FCF615H   BLOCK     ECODE    ---       LVL=0
      00011EC9H   SYMBOL    XDATA    WORD      x
      00011ECBH   SYMBOL    XDATA    WORD      y
      00011ECDH   SYMBOL    XDATA    BYTE      siz
      00011ECEH   SYMBOL    XDATA    ---       p
      00011ED2H   SYMBOL    XDATA    BYTE      number
      00011ED3H   SYMBOL    XDATA    WORD      color
      00FCF62FH   BLOCK     ECODE    NEAR LAB  LVL=1
      00011ED5H   SYMBOL    XDATA    INT       i
      00011ED7H   SYMBOL    XDATA    INT       j
      00011ED9H   SYMBOL    XDATA    INT       k
      00011EDBH   SYMBOL    XDATA    BYTE      temp
      00011EDCH   SYMBOL    XDATA    BYTE      temp1
      00011EDDH   SYMBOL    XDATA    BYTE      temp2
      00011EDEH   SYMBOL    XDATA    ---       p_data
      ---         BLOCKEND  ---      ---       LVL=1
      00FCF615H   LINE      ECODE    ---       #520
      00FCF62FH   LINE      ECODE    ---       #521
      00FCF62FH   LINE      ECODE    ---       #526
      00FCF654H   LINE      ECODE    ---       #527
      00FCF679H   LINE      ECODE    ---       #529
      00FCF689H   LINE      ECODE    ---       #531
      00FCF6C6H   LINE      ECODE    ---       #533
      00FCF6D1H   LINE      ECODE    ---       #535
      00FCF6D9H   LINE      ECODE    ---       #536
      00FCF6FDH   LINE      ECODE    ---       #537
      00FCF700H   LINE      ECODE    ---       #539
      00FCF70BH   LINE      ECODE    ---       #541
      00FCF717H   LINE      ECODE    ---       #543
L251 LINKER/LOCATER V4.66.93.0                                                        03/25/2026  13:05:55  PAGE 149


      00FCF73FH   LINE      ECODE    ---       #544
      00FCF758H   LINE      ECODE    ---       #545
      00FCF766H   LINE      ECODE    ---       #546
      00FCF781H   LINE      ECODE    ---       #547
      00FCF794H   LINE      ECODE    ---       #548
      00FCF7B6H   LINE      ECODE    ---       #549
      00FCF7E0H   LINE      ECODE    ---       #550
      00FCF7F6H   LINE      ECODE    ---       #551
      00FCF818H   LINE      ECODE    ---       #552
      ---         BLOCKEND  ---      ---       LVL=0

      00FCF819H   BLOCK     ECODE    ---       LVL=0
      00010452H   SYMBOL    XDATA    WORD      x
      00010454H   SYMBOL    XDATA    WORD      y
      00010456H   SYMBOL    XDATA    ---       image
      0001045AH   SYMBOL    XDATA    WORD      width
      0001045CH   SYMBOL    XDATA    WORD      height
      0001045EH   SYMBOL    XDATA    WORD      dis_width
      00010460H   SYMBOL    XDATA    WORD      dis_height
      00010462H   SYMBOL    XDATA    BYTE      threshold
      00FCF833H   BLOCK     ECODE    NEAR LAB  LVL=1
      00010463H   SYMBOL    XDATA    DWORD     i
      00010467H   SYMBOL    XDATA    DWORD     j
      0001046BH   SYMBOL    XDATA    WORD      color
      0001046DH   SYMBOL    XDATA    WORD      temp
      0001046FH   SYMBOL    XDATA    ---       data_buffer
      000106EFH   SYMBOL    XDATA    ---       image_temp
      ---         BLOCKEND  ---      ---       LVL=1
      00FCF819H   LINE      ECODE    ---       #572
      00FCF833H   LINE      ECODE    ---       #573
      00FCF833H   LINE      ECODE    ---       #574
      00FCF84BH   LINE      ECODE    ---       #581
      00FCF870H   LINE      ECODE    ---       #582
      00FCF895H   LINE      ECODE    ---       #583
      00FCF8B8H   LINE      ECODE    ---       #585
      00FCF8BBH   LINE      ECODE    ---       #587
      00FCF8F2H   LINE      ECODE    ---       #589
      00FCF901H   LINE      ECODE    ---       #591
      00FCF941H   LINE      ECODE    ---       #592
      00FCF950H   LINE      ECODE    ---       #594
      00FCF987H   LINE      ECODE    ---       #595
      00FCF993H   LINE      ECODE    ---       #597
      00FCF9B5H   LINE      ECODE    ---       #598
      00FCF9D7H   LINE      ECODE    ---       #599
      00FCF9F4H   LINE      ECODE    ---       #600
      00FCFA15H   LINE      ECODE    ---       #601
      00FCFA17H   LINE      ECODE    ---       #602
      00FCFA27H   LINE      ECODE    ---       #604
      00FCFA44H   LINE      ECODE    ---       #605
      00FCFA46H   LINE      ECODE    ---       #608
      00FCFA65H   LINE      ECODE    ---       #609
      00FCFA65H   LINE      ECODE    ---       #610
      00FCFA95H   LINE      ECODE    ---       #611
      00FCFAB7H   LINE      ECODE    ---       #612
      00FCFAE7H   LINE      ECODE    ---       #614
      00FCFAEAH   LINE      ECODE    ---       #616
      ---         BLOCKEND  ---      ---       LVL=0

      00FCFAEBH   BLOCK     ECODE    ---       LVL=0
      00FCFAEBH   LINE      ECODE    ---       #623
      00FCFAEBH   LINE      ECODE    ---       #628
      00FCFB25H   LINE      ECODE    ---       #631
      00FCFB36H   LINE      ECODE    ---       #632
      00FCFB47H   LINE      ECODE    ---       #633
      00FCFB58H   LINE      ECODE    ---       #634
L251 LINKER/LOCATER V4.66.93.0                                                        03/25/2026  13:05:55  PAGE 150


      00FCFB6AH   LINE      ECODE    ---       #636
      00FCFB74H   LINE      ECODE    ---       #637
      00FCFB84H   LINE      ECODE    ---       #639
      00FCFB87H   LINE      ECODE    ---       #640
      00FCFBA5H   LINE      ECODE    ---       #642
      00FCFBA8H   LINE      ECODE    ---       #643
      00FCFBC6H   LINE      ECODE    ---       #645
      00FCFBCBH   LINE      ECODE    ---       #646
      00FCFBE9H   LINE      ECODE    ---       #647
      00FCFC00H   LINE      ECODE    ---       #648
      00FCFC1AH   LINE      ECODE    ---       #649
      00FCFC34H   LINE      ECODE    ---       #650
      00FCFC3EH   LINE      ECODE    ---       #652
      00FCFC43H   LINE      ECODE    ---       #653
      00FCFC4DH   LINE      ECODE    ---       #655
      00FCFC52H   LINE      ECODE    ---       #656
      00FCFC5CH   LINE      ECODE    ---       #657
      00FCFC66H   LINE      ECODE    ---       #658
      00FCFC6FH   LINE      ECODE    ---       #659
      00FCFC79H   LINE      ECODE    ---       #660
      00FCFC83H   LINE      ECODE    ---       #662
      00FCFC88H   LINE      ECODE    ---       #663
      00FCFC92H   LINE      ECODE    ---       #665
      00FCFC97H   LINE      ECODE    ---       #666
      00FCFCA1H   LINE      ECODE    ---       #668
      00FCFCA6H   LINE      ECODE    ---       #669
      00FCFCB0H   LINE      ECODE    ---       #671
      00FCFCB5H   LINE      ECODE    ---       #672
      00FCFCBFH   LINE      ECODE    ---       #674
      00FCFCC4H   LINE      ECODE    ---       #675
      00FCFCCEH   LINE      ECODE    ---       #677
      00FCFCD3H   LINE      ECODE    ---       #678
      00FCFCDDH   LINE      ECODE    ---       #680
      00FCFCE2H   LINE      ECODE    ---       #681
      00FCFCECH   LINE      ECODE    ---       #683
      00FCFCF1H   LINE      ECODE    ---       #684
      00FCFCFBH   LINE      ECODE    ---       #685
      00FCFD05H   LINE      ECODE    ---       #687
      00FCFD0AH   LINE      ECODE    ---       #688
      00FCFD14H   LINE      ECODE    ---       #689
      00FCFD1EH   LINE      ECODE    ---       #690
      00FCFD28H   LINE      ECODE    ---       #691
      00FCFD32H   LINE      ECODE    ---       #692
      00FCFD3CH   LINE      ECODE    ---       #693
      00FCFD46H   LINE      ECODE    ---       #694
      00FCFD50H   LINE      ECODE    ---       #695
      00FCFD5AH   LINE      ECODE    ---       #696
      00FCFD64H   LINE      ECODE    ---       #697
      00FCFD6EH   LINE      ECODE    ---       #698
      00FCFD78H   LINE      ECODE    ---       #699
      00FCFD82H   LINE      ECODE    ---       #700
      00FCFD8CH   LINE      ECODE    ---       #701
      00FCFD96H   LINE      ECODE    ---       #703
      00FCFD9BH   LINE      ECODE    ---       #704
      00FCFDA5H   LINE      ECODE    ---       #705
      00FCFDAFH   LINE      ECODE    ---       #706
      00FCFDB9H   LINE      ECODE    ---       #707
      00FCFDC3H   LINE      ECODE    ---       #708
      00FCFDCDH   LINE      ECODE    ---       #709
      00FCFDD7H   LINE      ECODE    ---       #710
      00FCFDE1H   LINE      ECODE    ---       #711
      00FCFDEBH   LINE      ECODE    ---       #712
      00FCFDF5H   LINE      ECODE    ---       #713
      00FCFDFFH   LINE      ECODE    ---       #714
      00FCFE09H   LINE      ECODE    ---       #715
L251 LINKER/LOCATER V4.66.93.0                                                        03/25/2026  13:05:55  PAGE 151


      00FCFE13H   LINE      ECODE    ---       #716
      00FCFE1DH   LINE      ECODE    ---       #717
      00FCFE27H   LINE      ECODE    ---       #719
      00FCFE2CH   LINE      ECODE    ---       #721
      00FCFE31H   LINE      ECODE    ---       #722
      00FCFE4FH   LINE      ECODE    ---       #724
      00FCFE54H   LINE      ECODE    ---       #726
      00FCFE5EH   LINE      ECODE    ---       #727
      ---         BLOCKEND  ---      ---       LVL=0

      ---         MODULE    ---      ---       zf_device_ips200pro
      00FCA805H   PUBLIC    ECODE    ---       ips200pro_progress_bar_create?
      00FC9A75H   PUBLIC    ECODE    ---       ips200pro_set_crc_state?
      00FCA607H   PUBLIC    ECODE    ---       ips200pro_table_select?
      00FCA07CH   PUBLIC    ECODE    ---       ips200pro_page_hidden?
      00FC9A1FH   PUBLIC    ECODE    ---       ips200pro_set_direction?
      00FC9F7BH   PUBLIC    ECODE    ---       ips200pro_page_create?
      00FCAA7EH   PUBLIC    ECODE    ---       ips200pro_waveform_add_value?
      00FCA678H   PUBLIC    ECODE    ---       ips200pro_meter_create?
      00FCA221H   PUBLIC    ECODE    ---       ips200pro_label_printf?
      00FCAB8BH   PUBLIC    ECODE    ---       ips200pro_waveform_line_state?
      00FCA480H   PUBLIC    ECODE    ---       ips200pro_table_cell_printf?
      00FC94B4H   PUBLIC    ECODE    ---       ips200pro_write_packet?
      00FC9377H   PUBLIC    ECODE    ---       ips200pro_send_buffer?
      00FCA389H   PUBLIC    ECODE    ---       ips200pro_label_mode?
      00FCA01BH   PUBLIC    ECODE    ---       ips200pro_page_switch?
      00FCA90CH   PUBLIC    ECODE    ---       ips200pro_calendar_create?
      00FCA960H   PUBLIC    ECODE    ---       ips200pro_calendar_display?
      00FCABFEH   PUBLIC    ECODE    ---       ips200pro_waveform_line_type?
      00FC9F18H   PUBLIC    ECODE    ---       ips200pro_set_hidden?
      00FCB0ABH   PUBLIC    ECODE    ---       ips200pro_container_create?
      00FCAF02H   PUBLIC    ECODE    ---       ips200pro_image_draw_line?
      00FCA306H   PUBLIC    ECODE    ---       ips200pro_label_show_string?
      00FC9B1FH   PUBLIC    ECODE    ---       ips200pro_set_optimize?
      00FC9EA1H   PUBLIC    ECODE    ---       ips200pro_set_position?
      00FC9AC9H   PUBLIC    ECODE    ---       ips200pro_set_default_font?
      00FCA124H   PUBLIC    ECODE    ---       ips200pro_page_set_title_position_width?
      00FCAFE9H   PUBLIC    ECODE    ---       ips200pro_image_draw_rectangle?
      00FCB1B4H   PUBLIC    ECODE    ---       ips200pro_init?
      00FCB141H   PUBLIC    ECODE    ---       ips200pro_container_radius?
      00FC9975H   PUBLIC    ECODE    ---       ips200pro_set_format?
      00FC990DH   PUBLIC    ECODE    ---       ips200pro_set_parent?
      00FCA89BH   PUBLIC    ECODE    ---       ips200pro_progress_bar_set_value?
      00FC9B73H   PUBLIC    ECODE    ---       ips200pro_get_date?
      00FCA9E8H   PUBLIC    ECODE    ---       ips200pro_waveform_create?
      00FC973CH   PUBLIC    ECODE    ---       ips200pro_read_parameter?
      00FC9412H   PUBLIC    ECODE    ---       ips200pro_receive_buffer?
      00FC97F4H   PUBLIC    ECODE    ---       ips200pro_set_date?
      00FCA70EH   PUBLIC    ECODE    ---       ips200pro_meter_set_value?
      00FC9E2AH   PUBLIC    ECODE    ---       ips200pro_set_color?
      00FC9C0DH   PUBLIC    ECODE    ---       ips200pro_get_information?
      00FC9D72H   PUBLIC    ECODE    ---       ips200pro_delete_widgets?
      00FC9BBFH   PUBLIC    ECODE    ---       ips200pro_get_time?
      00FC9CBCH   PUBLIC    ECODE    ---       ips200pro_create_widgets?
      00FCAC5DH   PUBLIC    ECODE    ---       ips200pro_waveform_clear?
      00FCA0B3H   PUBLIC    ECODE    ---       ips200pro_page_set_title_name?
      00FCA18BH   PUBLIC    ECODE    ---       ips200pro_label_create?
      00FCA596H   PUBLIC    ECODE    ---       ips200pro_table_set_col_width?
      00FC99CBH   PUBLIC    ECODE    ---       ips200pro_set_backlight?
      00FCACACH   PUBLIC    ECODE    ---       ips200pro_image_create?
      00FC9C6EH   PUBLIC    ECODE    ---       ips200pro_get_free_stack_size?
      00FC987BH   PUBLIC    ECODE    ---       ips200pro_set_time?
      00FCAD42H   PUBLIC    ECODE    ---       ips200pro_image_display?
      00FCA3EAH   PUBLIC    ECODE    ---       ips200pro_table_create?
      00FCA76FH   PUBLIC    ECODE    ---       ips200pro_clock_create?
L251 LINKER/LOCATER V4.66.93.0                                                        03/25/2026  13:05:55  PAGE 152


      00FC9DC5H   PUBLIC    ECODE    ---       ips200pro_set_font?
      00011584H   PUBLIC    XDATA    ---       ips200pro_information
      0001158DH   PUBLIC    XDATA    ---       ips200pro_time
      0001229DH   PUBLIC    XDATA    BYTE      ?ips200pro_send_buffer??BYTE
      000122FBH   PUBLIC    XDATA    BYTE      ?ips200pro_receive_buffer??BYTE
      00011D3AH   PUBLIC    XDATA    BYTE      ?ips200pro_write_packet??BYTE
      00011E48H   PUBLIC    XDATA    BYTE      ?ips200pro_create_widgets??BYTE
      0001177BH   PUBLIC    XDATA    BYTE      ?ips200pro_label_printf??BYTE
      000116F3H   PUBLIC    XDATA    BYTE      ?ips200pro_table_cell_printf??BYTE
      00011E63H   PUBLIC    XDATA    BYTE      ?ips200pro_waveform_add_value??BYTE
      00011B18H   PUBLIC    XDATA    BYTE      ?ips200pro_image_display??BYTE
      00011E7DH   PUBLIC    XDATA    BYTE      ?ips200pro_image_draw_line??BYTE
      00011CB8H   PUBLIC    XDATA    BYTE      ?ips200pro_image_draw_rectangle??BYTE
      000000D0H   SFRSYM    DATA     BYTE      PSW
      0000009DH   SFRSYM    DATA     BYTE      IRCBAND
      00000097H   SFRSYM    DATA     BYTE      AUXR2
      000000EAH   SFRSYM    DATA     BYTE      CKCON
      000000EFH   SFRSYM    DATA     BYTE      AUXINTIF
      000000FDH   SFRSYM    DATA     BYTE      S4CON
      000000ACH   SFRSYM    DATA     BYTE      S3CON
      0000009AH   SFRSYM    DATA     BYTE      S2CON
      000000B7H   SFRSYM    DATA     BYTE      IPH
      000000CDH   SFRSYM    DATA     BYTE      SPSTAT
      000000DDH   SFRSYM    DATA     BYTE      T4T3M
      000000C1H   SFRSYM    DATA     BYTE      WDT_CONTR
      000000DFH   SFRSYM    DATA     BYTE      IP3
      000000F4H   SFRSYM    DATA     BYTE      USBCON
      000000B5H   SFRSYM    DATA     BYTE      IP2
      000000FFH   SFRSYM    DATA     BYTE      RSTCFG
      000000E0H   SFRSYM    DATA     BYTE      ACC
      000000C7H   SFRSYM    DATA     BYTE      IAP_CONTR
      000000F9H   SFRSYM    DATA     BYTE      LINICR
      0000008EH   SFRSYM    DATA     BYTE      AUXR
      000000F0H   SFRSYM    DATA     BYTE      B
      000000AFH   SFRSYM    DATA     BYTE      IE2
      000000B0H.5 SFRSYM    DATA     BIT       P35
      000000F8H.1 SFRSYM    DATA     BIT       P71
      00000088H   SFRSYM    DATA     BYTE      TCON
      00000089H   SFRSYM    DATA     BYTE      TMOD
      00000098H   SFRSYM    DATA     BYTE      SCON
      00000087H   SFRSYM    DATA     BYTE      PCON
      000000BCH   SFRSYM    DATA     BYTE      ADC_CONTR
      000000D1H   SFRSYM    DATA     BYTE      PSW1
      000000E7H   SFRSYM    DATA     BYTE      CMPCR2
      000000E6H   SFRSYM    DATA     BYTE      CMPCR1
      000000DEH   SFRSYM    DATA     BYTE      ADCCFG
      000000B8H   SFRSYM    DATA     BYTE      IP
      0000008FH   SFRSYM    DATA     BYTE      INTCLKO
      000000EEH   SFRSYM    DATA     BYTE      IP3H
      000000B6H   SFRSYM    DATA     BYTE      IP2H
      000000BFH   SFRSYM    DATA     BYTE      P_SW4
      000000A8H   SFRSYM    DATA     BYTE      IE
      000000BBH   SFRSYM    DATA     BYTE      P_SW3
      000000BAH   SFRSYM    DATA     BYTE      P_SW2
      000000A2H   SFRSYM    DATA     BYTE      P_SW1
      000000CEH   SFRSYM    DATA     BYTE      SPCTL
      000000F8H   SFRSYM    DATA     BYTE      P7
      000000E8H   SFRSYM    DATA     BYTE      P6
      000000C8H   SFRSYM    DATA     BYTE      P5
      000000C0H   SFRSYM    DATA     BYTE      P4
      000000ABH   SFRSYM    DATA     BYTE      WKTCH
      000000B0H   SFRSYM    DATA     BYTE      P3
      000000A0H   SFRSYM    DATA     BYTE      P2
      00000090H   SFRSYM    DATA     BYTE      P1
      00000080H   SFRSYM    DATA     BYTE      P0
L251 LINKER/LOCATER V4.66.93.0                                                        03/25/2026  13:05:55  PAGE 153


      00FC9308H   SYMBOL    ECODE    ---       ips200pro_wait_idle
      00011551H   SYMBOL    XDATA    ---       ips200pro_printf_buffer
      00011595H   SYMBOL    XDATA    BYTE      ips200pro_page_num

      00FC9308H   BLOCK     ECODE    ---       LVL=0
      00012959H   SYMBOL    XDATA    DWORD     wait_time
      00FC9308H   LINE      ECODE    ---       #197
      00FC9312H   LINE      ECODE    ---       #199
      00FC932BH   LINE      ECODE    ---       #201
      00FC932DH   LINE      ECODE    ---       #203
      00FC9335H   LINE      ECODE    ---       #204
      00FC934CH   LINE      ECODE    ---       #205
      00FC9363H   LINE      ECODE    ---       #206
      00FC9376H   LINE      ECODE    ---       #207
      ---         BLOCKEND  ---      ---       LVL=0

      00FC9377H   BLOCK     ECODE    ---       LVL=0
      0001229DH   SYMBOL    XDATA    ---       buffer
      000122A1H   SYMBOL    XDATA    DWORD     length
      000122A5H   SYMBOL    XDATA    DWORD     time_out
      000122A9H   SYMBOL    XDATA    BYTE      end_flag
      00FC938FH   BLOCK     ECODE    NEAR LAB  LVL=1
      000122AAH   SYMBOL    XDATA    BYTE      return_state
      ---         BLOCKEND  ---      ---       LVL=1
      00FC9377H   LINE      ECODE    ---       #225
      00FC938FH   LINE      ECODE    ---       #226
      00FC938FH   LINE      ECODE    ---       #227
      00FC9395H   LINE      ECODE    ---       #229
      00FC93D3H   LINE      ECODE    ---       #233
      00FC93D6H   LINE      ECODE    ---       #234
      00FC93FCH   LINE      ECODE    ---       #235
      00FC9405H   LINE      ECODE    ---       #237
      00FC9408H   LINE      ECODE    ---       #238
      00FC9408H   LINE      ECODE    ---       #239
      00FC940DH   LINE      ECODE    ---       #240
      00FC940DH   LINE      ECODE    ---       #241
      00FC9411H   LINE      ECODE    ---       #242
      ---         BLOCKEND  ---      ---       LVL=0

      00FC9412H   BLOCK     ECODE    ---       LVL=0
      000122FBH   SYMBOL    XDATA    ---       buffer
      000122FFH   SYMBOL    XDATA    DWORD     length
      00012303H   SYMBOL    XDATA    DWORD     time_out
      00FC9426H   BLOCK     ECODE    NEAR LAB  LVL=1
      00012307H   SYMBOL    XDATA    BYTE      return_state
      ---         BLOCKEND  ---      ---       LVL=1
      00FC9412H   LINE      ECODE    ---       #245
      00FC9426H   LINE      ECODE    ---       #246
      00FC9426H   LINE      ECODE    ---       #247
      00FC942CH   LINE      ECODE    ---       #249
      00FC946AH   LINE      ECODE    ---       #253
      00FC946DH   LINE      ECODE    ---       #254
      00FC94A7H   LINE      ECODE    ---       #255
      00FC94AAH   LINE      ECODE    ---       #256
      00FC94AFH   LINE      ECODE    ---       #257
      00FC94AFH   LINE      ECODE    ---       #259
      00FC94B3H   LINE      ECODE    ---       #260
      ---         BLOCKEND  ---      ---       LVL=0

      00FC94B4H   BLOCK     ECODE    ---       LVL=0
      00011D3AH   SYMBOL    XDATA    INT       command1
      00011D3CH   SYMBOL    XDATA    INT       command2
      00011D3EH   SYMBOL    XDATA    BYTE      widgets_id
      00011D3FH   SYMBOL    XDATA    ---       temp
      00011D43H   SYMBOL    XDATA    DWORD     length
L251 LINKER/LOCATER V4.66.93.0                                                        03/25/2026  13:05:55  PAGE 154


      00011D47H   SYMBOL    XDATA    ---       buffer
      00011D4BH   SYMBOL    XDATA    DWORD     buffer_length
      00FC94CEH   BLOCK     ECODE    NEAR LAB  LVL=1
      00011D4FH   SYMBOL    XDATA    BYTE      return_state
      00011D50H   SYMBOL    XDATA    ---       p
      00011D54H   SYMBOL    XDATA    BYTE      tmp
      00011D55H   SYMBOL    XDATA    WORD      i
      00011D57H   SYMBOL    XDATA    WORD      struct_len
      ---         BLOCKEND  ---      ---       LVL=1
      00FC94B4H   LINE      ECODE    ---       #262
      00FC94CEH   LINE      ECODE    ---       #263
      00FC94CEH   LINE      ECODE    ---       #264
      00FC94D4H   LINE      ECODE    ---       #265
      00FC94E8H   LINE      ECODE    ---       #266
      00FC94EDH   LINE      ECODE    ---       #267
      00FC94F5H   LINE      ECODE    ---       #268
      00FC94FFH   LINE      ECODE    ---       #270
      00FC9512H   LINE      ECODE    ---       #271
      00FC9527H   LINE      ECODE    ---       #272
      00FC953CH   LINE      ECODE    ---       #273
      00FC9565H   LINE      ECODE    ---       #281
      00FC9610H   LINE      ECODE    ---       #287
      00FC961EH   LINE      ECODE    ---       #289
      00FC9637H   LINE      ECODE    ---       #290
      00FC9663H   LINE      ECODE    ---       #291
      00FC967EH   LINE      ECODE    ---       #292
      00FC96A6H   LINE      ECODE    ---       #294
      00FC96E3H   LINE      ECODE    ---       #295
      00FC9708H   LINE      ECODE    ---       #297
      00FC9732H   LINE      ECODE    ---       #298
      00FC9734H   LINE      ECODE    ---       #301
      00FC9737H   LINE      ECODE    ---       #302
      00FC9737H   LINE      ECODE    ---       #303
      00FC973BH   LINE      ECODE    ---       #304
      ---         BLOCKEND  ---      ---       LVL=0

      00FC973CH   BLOCK     ECODE    ---       LVL=0
      00012744H   SYMBOL    XDATA    INT       command2
      00012746H   SYMBOL    XDATA    ---       temp
      0001274AH   SYMBOL    XDATA    BYTE      length
      00FC9750H   BLOCK     ECODE    NEAR LAB  LVL=1
      0001274BH   SYMBOL    XDATA    BYTE      return_state
      ---         BLOCKEND  ---      ---       LVL=1
      00FC973CH   LINE      ECODE    ---       #306
      00FC9750H   LINE      ECODE    ---       #307
      00FC9750H   LINE      ECODE    ---       #310
      00FC975FH   LINE      ECODE    ---       #311
      00FC9774H   LINE      ECODE    ---       #312
      00FC978FH   LINE      ECODE    ---       #314
      00FC97B9H   LINE      ECODE    ---       #316
      00FC97C7H   LINE      ECODE    ---       #317
      00FC97EFH   LINE      ECODE    ---       #319
      00FC97F3H   LINE      ECODE    ---       #320
      ---         BLOCKEND  ---      ---       LVL=0

      00FC97F4H   BLOCK     ECODE    ---       LVL=0
      000120B6H   SYMBOL    XDATA    WORD      year
      000120B8H   SYMBOL    XDATA    BYTE      month
      000120B9H   SYMBOL    XDATA    BYTE      day
      00FC9804H   BLOCK     ECODE    NEAR LAB  LVL=1
      000120BAH   SYMBOL    XDATA    BYTE      return_state
      000120BBH   SYMBOL    XDATA    ---       temp
      ---         BLOCKEND  ---      ---       LVL=1
      00FC97F4H   LINE      ECODE    ---       #324
      00FC9804H   LINE      ECODE    ---       #325
L251 LINKER/LOCATER V4.66.93.0                                                        03/25/2026  13:05:55  PAGE 155


      00FC9804H   LINE      ECODE    ---       #329
      00FC9810H   LINE      ECODE    ---       #330
      00FC9837H   LINE      ECODE    ---       #332
      00FC9876H   LINE      ECODE    ---       #333
      00FC987AH   LINE      ECODE    ---       #334
      ---         BLOCKEND  ---      ---       LVL=0

      00FC987BH   BLOCK     ECODE    ---       LVL=0
      0001214FH   SYMBOL    XDATA    BYTE      hour
      00012150H   SYMBOL    XDATA    BYTE      minute
      00012151H   SYMBOL    XDATA    BYTE      second
      00FC988BH   BLOCK     ECODE    NEAR LAB  LVL=1
      00012152H   SYMBOL    XDATA    BYTE      return_state
      00012153H   SYMBOL    XDATA    ---       temp
      ---         BLOCKEND  ---      ---       LVL=1
      00FC987BH   LINE      ECODE    ---       #336
      00FC988BH   LINE      ECODE    ---       #337
      00FC988BH   LINE      ECODE    ---       #341
      00FC98B2H   LINE      ECODE    ---       #342
      00FC98C9H   LINE      ECODE    ---       #344
      00FC9908H   LINE      ECODE    ---       #345
      00FC990CH   LINE      ECODE    ---       #346
      ---         BLOCKEND  ---      ---       LVL=0

      00FC990DH   BLOCK     ECODE    ---       LVL=0
      000120C7H   SYMBOL    XDATA    WORD      child_id
      000120C9H   SYMBOL    XDATA    WORD      parent_id
      00FC9919H   BLOCK     ECODE    NEAR LAB  LVL=1
      000120CBH   SYMBOL    XDATA    BYTE      return_state
      000120CCH   SYMBOL    XDATA    ---       temp
      ---         BLOCKEND  ---      ---       LVL=1
      00FC990DH   LINE      ECODE    ---       #348
      00FC9919H   LINE      ECODE    ---       #349
      00FC9919H   LINE      ECODE    ---       #353
      00FC9925H   LINE      ECODE    ---       #354
      00FC9931H   LINE      ECODE    ---       #356
      00FC9970H   LINE      ECODE    ---       #357
      00FC9974H   LINE      ECODE    ---       #358
      ---         BLOCKEND  ---      ---       LVL=0

      00FC9975H   BLOCK     ECODE    ---       LVL=0
      00012308H   SYMBOL    XDATA    INT       format
      00FC997BH   BLOCK     ECODE    NEAR LAB  LVL=1
      0001230AH   SYMBOL    XDATA    BYTE      return_state
      0001230BH   SYMBOL    XDATA    ---       temp
      ---         BLOCKEND  ---      ---       LVL=1
      00FC9975H   LINE      ECODE    ---       #360
      00FC997BH   LINE      ECODE    ---       #361
      00FC997BH   LINE      ECODE    ---       #365
      00FC9987H   LINE      ECODE    ---       #367
      00FC99C6H   LINE      ECODE    ---       #368
      00FC99CAH   LINE      ECODE    ---       #369
      ---         BLOCKEND  ---      ---       LVL=0

      00FC99CBH   BLOCK     ECODE    ---       LVL=0
      000123FDH   SYMBOL    XDATA    BYTE      backlight
      00FC99CFH   BLOCK     ECODE    NEAR LAB  LVL=1
      000123FEH   SYMBOL    XDATA    BYTE      return_state
      000123FFH   SYMBOL    XDATA    ---       temp
      ---         BLOCKEND  ---      ---       LVL=1
      00FC99CBH   LINE      ECODE    ---       #371
      00FC99CFH   LINE      ECODE    ---       #372
      00FC99CFH   LINE      ECODE    ---       #376
      00FC99DBH   LINE      ECODE    ---       #378
      00FC9A1AH   LINE      ECODE    ---       #379
L251 LINKER/LOCATER V4.66.93.0                                                        03/25/2026  13:05:55  PAGE 156


      00FC9A1EH   LINE      ECODE    ---       #380
      ---         BLOCKEND  ---      ---       LVL=0

      00FC9A1FH   BLOCK     ECODE    ---       LVL=0
      00012315H   SYMBOL    XDATA    INT       dir
      00FC9A25H   BLOCK     ECODE    NEAR LAB  LVL=1
      00012317H   SYMBOL    XDATA    BYTE      return_state
      00012318H   SYMBOL    XDATA    ---       temp
      ---         BLOCKEND  ---      ---       LVL=1
      00FC9A1FH   LINE      ECODE    ---       #382
      00FC9A25H   LINE      ECODE    ---       #383
      00FC9A25H   LINE      ECODE    ---       #387
      00FC9A31H   LINE      ECODE    ---       #389
      00FC9A70H   LINE      ECODE    ---       #390
      00FC9A74H   LINE      ECODE    ---       #391
      ---         BLOCKEND  ---      ---       LVL=0

      00FC9A75H   BLOCK     ECODE    ---       LVL=0
      00012409H   SYMBOL    XDATA    BYTE      crc_state
      00FC9A79H   BLOCK     ECODE    NEAR LAB  LVL=1
      0001240AH   SYMBOL    XDATA    BYTE      return_state
      0001240BH   SYMBOL    XDATA    ---       temp
      ---         BLOCKEND  ---      ---       LVL=1
      00FC9A75H   LINE      ECODE    ---       #393
      00FC9A79H   LINE      ECODE    ---       #394
      00FC9A79H   LINE      ECODE    ---       #398
      00FC9A85H   LINE      ECODE    ---       #400
      00FC9AC4H   LINE      ECODE    ---       #401
      00FC9AC8H   LINE      ECODE    ---       #402
      ---         BLOCKEND  ---      ---       LVL=0

      00FC9AC9H   BLOCK     ECODE    ---       LVL=0
      00012322H   SYMBOL    XDATA    INT       font
      00FC9ACFH   BLOCK     ECODE    NEAR LAB  LVL=1
      00012324H   SYMBOL    XDATA    BYTE      return_state
      00012325H   SYMBOL    XDATA    ---       temp
      ---         BLOCKEND  ---      ---       LVL=1
      00FC9AC9H   LINE      ECODE    ---       #404
      00FC9ACFH   LINE      ECODE    ---       #405
      00FC9ACFH   LINE      ECODE    ---       #409
      00FC9ADBH   LINE      ECODE    ---       #411
      00FC9B1AH   LINE      ECODE    ---       #412
      00FC9B1EH   LINE      ECODE    ---       #413
      ---         BLOCKEND  ---      ---       LVL=0

      00FC9B1FH   BLOCK     ECODE    ---       LVL=0
      00012415H   SYMBOL    XDATA    BYTE      state
      00FC9B23H   BLOCK     ECODE    NEAR LAB  LVL=1
      00012416H   SYMBOL    XDATA    BYTE      return_state
      00012417H   SYMBOL    XDATA    ---       temp
      ---         BLOCKEND  ---      ---       LVL=1
      00FC9B1FH   LINE      ECODE    ---       #415
      00FC9B23H   LINE      ECODE    ---       #416
      00FC9B23H   LINE      ECODE    ---       #420
      00FC9B2FH   LINE      ECODE    ---       #422
      00FC9B6EH   LINE      ECODE    ---       #423
      00FC9B72H   LINE      ECODE    ---       #424
      ---         BLOCKEND  ---      ---       LVL=0

      00FC9B73H   BLOCK     ECODE    ---       LVL=0
      000120D8H   SYMBOL    XDATA    ---       time
      00FC9B7DH   BLOCK     ECODE    NEAR LAB  LVL=1
      000120DCH   SYMBOL    XDATA    BYTE      return_state
      000120DDH   SYMBOL    XDATA    ---       temp
      ---         BLOCKEND  ---      ---       LVL=1
L251 LINKER/LOCATER V4.66.93.0                                                        03/25/2026  13:05:55  PAGE 157


      00FC9B73H   LINE      ECODE    ---       #426
      00FC9B7DH   LINE      ECODE    ---       #427
      00FC9B7DH   LINE      ECODE    ---       #431
      00FC9B93H   LINE      ECODE    ---       #432
      00FC9B9CH   LINE      ECODE    ---       #434
      00FC9BBAH   LINE      ECODE    ---       #435
      00FC9BBAH   LINE      ECODE    ---       #436
      00FC9BBEH   LINE      ECODE    ---       #437
      ---         BLOCKEND  ---      ---       LVL=0

      00FC9BBFH   BLOCK     ECODE    ---       LVL=0
      000120E9H   SYMBOL    XDATA    ---       time
      00FC9BC9H   BLOCK     ECODE    NEAR LAB  LVL=1
      000120EDH   SYMBOL    XDATA    BYTE      return_state
      000120EEH   SYMBOL    XDATA    ---       temp
      ---         BLOCKEND  ---      ---       LVL=1
      00FC9BBFH   LINE      ECODE    ---       #439
      00FC9BC9H   LINE      ECODE    ---       #440
      00FC9BC9H   LINE      ECODE    ---       #444
      00FC9BDFH   LINE      ECODE    ---       #445
      00FC9BE8H   LINE      ECODE    ---       #447
      00FC9C08H   LINE      ECODE    ---       #448
      00FC9C08H   LINE      ECODE    ---       #449
      00FC9C0CH   LINE      ECODE    ---       #450
      ---         BLOCKEND  ---      ---       LVL=0

      00FC9C0DH   BLOCK     ECODE    ---       LVL=0
      00011F10H   SYMBOL    XDATA    ---       information
      00FC9C17H   BLOCK     ECODE    NEAR LAB  LVL=1
      00011F14H   SYMBOL    XDATA    BYTE      return_state
      00011F15H   SYMBOL    XDATA    ---       temp
      ---         BLOCKEND  ---      ---       LVL=1
      00FC9C0DH   LINE      ECODE    ---       #452
      00FC9C17H   LINE      ECODE    ---       #453
      00FC9C17H   LINE      ECODE    ---       #457
      00FC9C2DH   LINE      ECODE    ---       #458
      00FC9C36H   LINE      ECODE    ---       #460
      00FC9C4BH   LINE      ECODE    ---       #461
      00FC9C69H   LINE      ECODE    ---       #462
      00FC9C69H   LINE      ECODE    ---       #463
      00FC9C6DH   LINE      ECODE    ---       #464
      ---         BLOCKEND  ---      ---       LVL=0

      00FC9C6EH   BLOCK     ECODE    ---       LVL=0
      000120FAH   SYMBOL    XDATA    ---       stack_size
      00FC9C78H   BLOCK     ECODE    NEAR LAB  LVL=1
      000120FEH   SYMBOL    XDATA    BYTE      return_state
      000120FFH   SYMBOL    XDATA    ---       temp
      ---         BLOCKEND  ---      ---       LVL=1
      00FC9C6EH   LINE      ECODE    ---       #466
      00FC9C78H   LINE      ECODE    ---       #467
      00FC9C78H   LINE      ECODE    ---       #471
      00FC9C8EH   LINE      ECODE    ---       #472
      00FC9C97H   LINE      ECODE    ---       #474
      00FC9CB7H   LINE      ECODE    ---       #475
      00FC9CB7H   LINE      ECODE    ---       #476
      00FC9CBBH   LINE      ECODE    ---       #477
      ---         BLOCKEND  ---      ---       LVL=0

      00FC9CBCH   BLOCK     ECODE    ---       LVL=0
      00011E48H   SYMBOL    XDATA    WORD      widgets_id
      00011E4AH   SYMBOL    XDATA    INT       x
      00011E4CH   SYMBOL    XDATA    INT       y
      00011E4EH   SYMBOL    XDATA    WORD      width
      00011E50H   SYMBOL    XDATA    WORD      height
L251 LINKER/LOCATER V4.66.93.0                                                        03/25/2026  13:05:55  PAGE 158


      00FC9CD4H   BLOCK     ECODE    NEAR LAB  LVL=1
      00011E52H   SYMBOL    XDATA    BYTE      return_state
      00011E53H   SYMBOL    XDATA    ---       temp
      ---         BLOCKEND  ---      ---       LVL=1
      00FC9CBCH   LINE      ECODE    ---       #479
      00FC9CD4H   LINE      ECODE    ---       #480
      00FC9CD4H   LINE      ECODE    ---       #481
      00FC9CDAH   LINE      ECODE    ---       #484
      00FC9CE6H   LINE      ECODE    ---       #485
      00FC9CF2H   LINE      ECODE    ---       #486
      00FC9CFEH   LINE      ECODE    ---       #487
      00FC9D0AH   LINE      ECODE    ---       #489
      00FC9D25H   LINE      ECODE    ---       #492
      00FC9D6DH   LINE      ECODE    ---       #493
      00FC9D6DH   LINE      ECODE    ---       #495
      00FC9D71H   LINE      ECODE    ---       #496
      ---         BLOCKEND  ---      ---       LVL=0

      00FC9D72H   BLOCK     ECODE    ---       LVL=0
      000124C4H   SYMBOL    XDATA    WORD      widgets_id
      00FC9D78H   BLOCK     ECODE    NEAR LAB  LVL=1
      000124C6H   SYMBOL    XDATA    BYTE      return_state
      000124C7H   SYMBOL    XDATA    ---       temp
      ---         BLOCKEND  ---      ---       LVL=1
      00FC9D72H   LINE      ECODE    ---       #498
      00FC9D78H   LINE      ECODE    ---       #499
      00FC9D78H   LINE      ECODE    ---       #503
      00FC9DC0H   LINE      ECODE    ---       #504
      00FC9DC4H   LINE      ECODE    ---       #505
      ---         BLOCKEND  ---      ---       LVL=0

      00FC9DC5H   BLOCK     ECODE    ---       LVL=0
      0001217EH   SYMBOL    XDATA    WORD      widgets_id
      00012180H   SYMBOL    XDATA    INT       font_size
      00FC9DD1H   BLOCK     ECODE    NEAR LAB  LVL=1
      00012182H   SYMBOL    XDATA    BYTE      return_state
      00012183H   SYMBOL    XDATA    ---       temp
      ---         BLOCKEND  ---      ---       LVL=1
      00FC9DC5H   LINE      ECODE    ---       #507
      00FC9DD1H   LINE      ECODE    ---       #508
      00FC9DD1H   LINE      ECODE    ---       #512
      00FC9DDDH   LINE      ECODE    ---       #513
      00FC9E25H   LINE      ECODE    ---       #514
      00FC9E29H   LINE      ECODE    ---       #515
      ---         BLOCKEND  ---      ---       LVL=0

      00FC9E2AH   BLOCK     ECODE    ---       LVL=0
      00011FECH   SYMBOL    XDATA    WORD      widgets_id
      00011FEEH   SYMBOL    XDATA    INT       color_type
      00011FF0H   SYMBOL    XDATA    WORD      color
      00FC9E3CH   BLOCK     ECODE    NEAR LAB  LVL=1
      00011FF2H   SYMBOL    XDATA    BYTE      return_state
      00011FF3H   SYMBOL    XDATA    ---       temp
      ---         BLOCKEND  ---      ---       LVL=1
      00FC9E2AH   LINE      ECODE    ---       #517
      00FC9E3CH   LINE      ECODE    ---       #518
      00FC9E3CH   LINE      ECODE    ---       #522
      00FC9E48H   LINE      ECODE    ---       #523
      00FC9E54H   LINE      ECODE    ---       #524
      00FC9E9CH   LINE      ECODE    ---       #525
      00FC9EA0H   LINE      ECODE    ---       #526
      ---         BLOCKEND  ---      ---       LVL=0

      00FC9EA1H   BLOCK     ECODE    ---       LVL=0
      00011FFFH   SYMBOL    XDATA    WORD      widgets_id
L251 LINKER/LOCATER V4.66.93.0                                                        03/25/2026  13:05:55  PAGE 159


      00012001H   SYMBOL    XDATA    INT       x
      00012003H   SYMBOL    XDATA    INT       y
      00FC9EB3H   BLOCK     ECODE    NEAR LAB  LVL=1
      00012005H   SYMBOL    XDATA    BYTE      return_state
      00012006H   SYMBOL    XDATA    ---       temp
      ---         BLOCKEND  ---      ---       LVL=1
      00FC9EA1H   LINE      ECODE    ---       #528
      00FC9EB3H   LINE      ECODE    ---       #529
      00FC9EB3H   LINE      ECODE    ---       #533
      00FC9EBFH   LINE      ECODE    ---       #534
      00FC9ECBH   LINE      ECODE    ---       #535
      00FC9F13H   LINE      ECODE    ---       #536
      00FC9F17H   LINE      ECODE    ---       #537
      ---         BLOCKEND  ---      ---       LVL=0

      00FC9F18H   BLOCK     ECODE    ---       LVL=0
      000122ABH   SYMBOL    XDATA    WORD      widgets_id
      000122ADH   SYMBOL    XDATA    BYTE      state
      00FC9F22H   BLOCK     ECODE    NEAR LAB  LVL=1
      000122AEH   SYMBOL    XDATA    BYTE      return_state
      000122AFH   SYMBOL    XDATA    ---       temp
      ---         BLOCKEND  ---      ---       LVL=1
      00FC9F18H   LINE      ECODE    ---       #539
      00FC9F22H   LINE      ECODE    ---       #540
      00FC9F22H   LINE      ECODE    ---       #544
      00FC9F2EH   LINE      ECODE    ---       #545
      00FC9F76H   LINE      ECODE    ---       #546
      00FC9F7AH   LINE      ECODE    ---       #547
      ---         BLOCKEND  ---      ---       LVL=0

      00FC9F7BH   BLOCK     ECODE    ---       LVL=0
      000128C0H   SYMBOL    XDATA    ---       str
      00FC9F85H   BLOCK     ECODE    NEAR LAB  LVL=1
      000128C4H   SYMBOL    XDATA    BYTE      return_state
      ---         BLOCKEND  ---      ---       LVL=1
      00FC9F7BH   LINE      ECODE    ---       #550
      00FC9F85H   LINE      ECODE    ---       #551
      00FC9F85H   LINE      ECODE    ---       #552
      00FC9F8BH   LINE      ECODE    ---       #554
      00FC9F97H   LINE      ECODE    ---       #556
      00FC9FC2H   LINE      ECODE    ---       #557
      00FC9FCBH   LINE      ECODE    ---       #559
      00FC9FD9H   LINE      ECODE    ---       #560
      00FC9FDBH   LINE      ECODE    ---       #561
      00FC9FE9H   LINE      ECODE    ---       #563
      00FCA001H   LINE      ECODE    ---       #564
      00FCA001H   LINE      ECODE    ---       #566
      00FCA01AH   LINE      ECODE    ---       #567
      ---         BLOCKEND  ---      ---       LVL=0

      00FCA01BH   BLOCK     ECODE    ---       LVL=0
      0001218DH   SYMBOL    XDATA    WORD      page_id
      0001218FH   SYMBOL    XDATA    INT       anim_en
      00FCA027H   BLOCK     ECODE    NEAR LAB  LVL=1
      00012191H   SYMBOL    XDATA    BYTE      return_state
      00012192H   SYMBOL    XDATA    ---       temp
      ---         BLOCKEND  ---      ---       LVL=1
      00FCA01BH   LINE      ECODE    ---       #569
      00FCA027H   LINE      ECODE    ---       #570
      00FCA027H   LINE      ECODE    ---       #574
      00FCA033H   LINE      ECODE    ---       #575
      00FCA077H   LINE      ECODE    ---       #576
      00FCA07BH   LINE      ECODE    ---       #577
      ---         BLOCKEND  ---      ---       LVL=0

L251 LINKER/LOCATER V4.66.93.0                                                        03/25/2026  13:05:55  PAGE 160


      00FCA07CH   BLOCK     ECODE    ---       LVL=0
      0001295DH   SYMBOL    XDATA    WORD      page_id
      0001295FH   SYMBOL    XDATA    BYTE      state
      00FCA086H   BLOCK     ECODE    NEAR LAB  LVL=1
      00012960H   SYMBOL    XDATA    BYTE      return_state
      ---         BLOCKEND  ---      ---       LVL=1
      00FCA07CH   LINE      ECODE    ---       #579
      00FCA086H   LINE      ECODE    ---       #580
      00FCA086H   LINE      ECODE    ---       #582
      00FCA092H   LINE      ECODE    ---       #584
      00FCA09CH   LINE      ECODE    ---       #585
      00FCA09CH   LINE      ECODE    ---       #586
      00FCA0AEH   LINE      ECODE    ---       #587
      00FCA0B2H   LINE      ECODE    ---       #588
      ---         BLOCKEND  ---      ---       LVL=0

      00FCA0B3H   BLOCK     ECODE    ---       LVL=0
      0001219CH   SYMBOL    XDATA    WORD      page_id
      0001219EH   SYMBOL    XDATA    ---       str
      00FCA0C3H   BLOCK     ECODE    NEAR LAB  LVL=1
      000121A2H   SYMBOL    XDATA    BYTE      return_state
      000121A3H   SYMBOL    XDATA    ---       temp
      ---         BLOCKEND  ---      ---       LVL=1
      00FCA0B3H   LINE      ECODE    ---       #590
      00FCA0C3H   LINE      ECODE    ---       #591
      00FCA0C3H   LINE      ECODE    ---       #595
      00FCA11FH   LINE      ECODE    ---       #596
      00FCA123H   LINE      ECODE    ---       #597
      ---         BLOCKEND  ---      ---       LVL=0

      00FCA124H   BLOCK     ECODE    ---       LVL=0
      0001215FH   SYMBOL    XDATA    INT       title_position
      00012161H   SYMBOL    XDATA    BYTE      title_width
      00FCA12EH   BLOCK     ECODE    NEAR LAB  LVL=1
      00012162H   SYMBOL    XDATA    BYTE      return_state
      00012163H   SYMBOL    XDATA    ---       temp
      ---         BLOCKEND  ---      ---       LVL=1
      00FCA124H   LINE      ECODE    ---       #599
      00FCA12EH   LINE      ECODE    ---       #600
      00FCA12EH   LINE      ECODE    ---       #604
      00FCA13AH   LINE      ECODE    ---       #605
      00FCA146H   LINE      ECODE    ---       #606
      00FCA186H   LINE      ECODE    ---       #607
      00FCA18AH   LINE      ECODE    ---       #608
      ---         BLOCKEND  ---      ---       LVL=0

      00FCA18BH   BLOCK     ECODE    ---       LVL=0
      0001260BH   SYMBOL    XDATA    INT       x
      0001260DH   SYMBOL    XDATA    INT       y
      0001260FH   SYMBOL    XDATA    WORD      width
      00012611H   SYMBOL    XDATA    WORD      height
      00FCA1A3H   BLOCK     ECODE    NEAR LAB  LVL=1
      00012613H   SYMBOL    XDATA    BYTE      return_state
      00011596H   SYMBOL    XDATA    BYTE      lebel_num
      ---         BLOCKEND  ---      ---       LVL=1
      00FCA18BH   LINE      ECODE    ---       #610
      00FCA1A3H   LINE      ECODE    ---       #611
      00FCA1A3H   LINE      ECODE    ---       #612
      00FCA1A9H   LINE      ECODE    ---       #615
      00FCA1B5H   LINE      ECODE    ---       #617
      00FCA1F0H   LINE      ECODE    ---       #618
      00FCA1F9H   LINE      ECODE    ---       #620
      00FCA207H   LINE      ECODE    ---       #621
      00FCA207H   LINE      ECODE    ---       #623
      00FCA220H   LINE      ECODE    ---       #624
L251 LINKER/LOCATER V4.66.93.0                                                        03/25/2026  13:05:55  PAGE 161


      ---         BLOCKEND  ---      ---       LVL=0

      00FCA221H   BLOCK     ECODE    ---       LVL=0
      0001177BH   SYMBOL    XDATA    WORD      label_id
      0001177DH   SYMBOL    XDATA    ---       format
      00FCA231H   BLOCK     ECODE    NEAR LAB  LVL=1
      00011781H   SYMBOL    XDATA    LONG      str_length
      00011785H   SYMBOL    XDATA    BYTE      return_state
      00011786H   SYMBOL    XDATA    ---       temp
      0001178EH   SYMBOL    XDATA    ---       arg
      ---         BLOCKEND  ---      ---       LVL=1
      00FCA221H   LINE      ECODE    ---       #626
      00FCA231H   LINE      ECODE    ---       #627
      00FCA231H   LINE      ECODE    ---       #629
      00FCA237H   LINE      ECODE    ---       #633
      00FCA249H   LINE      ECODE    ---       #635
      00FCA28BH   LINE      ECODE    ---       #636
      00FCA29BH   LINE      ECODE    ---       #638
      00FCA2AFH   LINE      ECODE    ---       #639
      00FCA301H   LINE      ECODE    ---       #640
      00FCA301H   LINE      ECODE    ---       #643
      00FCA305H   LINE      ECODE    ---       #644
      ---         BLOCKEND  ---      ---       LVL=0

      00FCA306H   BLOCK     ECODE    ---       LVL=0
      000121ABH   SYMBOL    XDATA    WORD      label_id
      000121ADH   SYMBOL    XDATA    ---       str
      00FCA316H   BLOCK     ECODE    NEAR LAB  LVL=1
      000121B1H   SYMBOL    XDATA    BYTE      return_state
      000121B2H   SYMBOL    XDATA    ---       temp
      ---         BLOCKEND  ---      ---       LVL=1
      00FCA306H   LINE      ECODE    ---       #646
      00FCA316H   LINE      ECODE    ---       #647
      00FCA316H   LINE      ECODE    ---       #651
      00FCA330H   LINE      ECODE    ---       #652
      00FCA384H   LINE      ECODE    ---       #654
      00FCA388H   LINE      ECODE    ---       #655
      ---         BLOCKEND  ---      ---       LVL=0

      00FCA389H   BLOCK     ECODE    ---       LVL=0
      000121BAH   SYMBOL    XDATA    WORD      label_id
      000121BCH   SYMBOL    XDATA    INT       mode
      00FCA395H   BLOCK     ECODE    NEAR LAB  LVL=1
      000121BEH   SYMBOL    XDATA    BYTE      return_state
      000121BFH   SYMBOL    XDATA    ---       temp
      ---         BLOCKEND  ---      ---       LVL=1
      00FCA389H   LINE      ECODE    ---       #657
      00FCA395H   LINE      ECODE    ---       #658
      00FCA395H   LINE      ECODE    ---       #662
      00FCA3A1H   LINE      ECODE    ---       #663
      00FCA3E5H   LINE      ECODE    ---       #664
      00FCA3E9H   LINE      ECODE    ---       #665
      ---         BLOCKEND  ---      ---       LVL=0

      00FCA3EAH   BLOCK     ECODE    ---       LVL=0
      00012614H   SYMBOL    XDATA    INT       x
      00012616H   SYMBOL    XDATA    INT       y
      00012618H   SYMBOL    XDATA    WORD      row_num
      0001261AH   SYMBOL    XDATA    WORD      col_num
      00FCA402H   BLOCK     ECODE    NEAR LAB  LVL=1
      0001261CH   SYMBOL    XDATA    BYTE      return_state
      00011597H   SYMBOL    XDATA    BYTE      table_num
      ---         BLOCKEND  ---      ---       LVL=1
      00FCA3EAH   LINE      ECODE    ---       #668
      00FCA402H   LINE      ECODE    ---       #669
L251 LINKER/LOCATER V4.66.93.0                                                        03/25/2026  13:05:55  PAGE 162


      00FCA402H   LINE      ECODE    ---       #670
      00FCA408H   LINE      ECODE    ---       #672
      00FCA414H   LINE      ECODE    ---       #674
      00FCA44FH   LINE      ECODE    ---       #675
      00FCA458H   LINE      ECODE    ---       #677
      00FCA466H   LINE      ECODE    ---       #678
      00FCA466H   LINE      ECODE    ---       #680
      00FCA47FH   LINE      ECODE    ---       #681
      ---         BLOCKEND  ---      ---       LVL=0

      00FCA480H   BLOCK     ECODE    ---       LVL=0
      000116F3H   SYMBOL    XDATA    WORD      table_id
      000116F5H   SYMBOL    XDATA    BYTE      row
      000116F6H   SYMBOL    XDATA    BYTE      col
      000116F7H   SYMBOL    XDATA    ---       format
      00FCA49AH   BLOCK     ECODE    NEAR LAB  LVL=1
      000116FBH   SYMBOL    XDATA    LONG      str_length
      000116FFH   SYMBOL    XDATA    BYTE      return_state
      00011700H   SYMBOL    XDATA    ---       arg
      00011704H   SYMBOL    XDATA    ---       temp
      ---         BLOCKEND  ---      ---       LVL=1
      00FCA480H   LINE      ECODE    ---       #683
      00FCA49AH   LINE      ECODE    ---       #684
      00FCA49AH   LINE      ECODE    ---       #685
      00FCA4A6H   LINE      ECODE    ---       #686
      00FCA4ACH   LINE      ECODE    ---       #690
      00FCA4BEH   LINE      ECODE    ---       #692
      00FCA500H   LINE      ECODE    ---       #693
      00FCA513H   LINE      ECODE    ---       #695
      00FCA527H   LINE      ECODE    ---       #696
      00FCA533H   LINE      ECODE    ---       #697
      00FCA53FH   LINE      ECODE    ---       #698
      00FCA591H   LINE      ECODE    ---       #699
      00FCA591H   LINE      ECODE    ---       #702
      00FCA595H   LINE      ECODE    ---       #703
      ---         BLOCKEND  ---      ---       LVL=0

      00FCA596H   BLOCK     ECODE    ---       LVL=0
      0001206FH   SYMBOL    XDATA    WORD      table_id
      00012071H   SYMBOL    XDATA    BYTE      col
      00012072H   SYMBOL    XDATA    WORD      width
      00FCA5A6H   BLOCK     ECODE    NEAR LAB  LVL=1
      00012074H   SYMBOL    XDATA    BYTE      return_state
      00012075H   SYMBOL    XDATA    ---       temp
      ---         BLOCKEND  ---      ---       LVL=1
      00FCA596H   LINE      ECODE    ---       #706
      00FCA5A6H   LINE      ECODE    ---       #707
      00FCA5A6H   LINE      ECODE    ---       #711
      00FCA5B2H   LINE      ECODE    ---       #712
      00FCA5BEH   LINE      ECODE    ---       #713
      00FCA602H   LINE      ECODE    ---       #714
      00FCA606H   LINE      ECODE    ---       #715
      ---         BLOCKEND  ---      ---       LVL=0

      00FCA607H   BLOCK     ECODE    ---       LVL=0
      0001210BH   SYMBOL    XDATA    WORD      table_id
      0001210DH   SYMBOL    XDATA    BYTE      row
      0001210EH   SYMBOL    XDATA    BYTE      col
      00FCA617H   BLOCK     ECODE    NEAR LAB  LVL=1
      0001210FH   SYMBOL    XDATA    BYTE      return_state
      00012110H   SYMBOL    XDATA    ---       temp
      ---         BLOCKEND  ---      ---       LVL=1
      00FCA607H   LINE      ECODE    ---       #717
      00FCA617H   LINE      ECODE    ---       #718
      00FCA617H   LINE      ECODE    ---       #722
L251 LINKER/LOCATER V4.66.93.0                                                        03/25/2026  13:05:55  PAGE 163


      00FCA623H   LINE      ECODE    ---       #723
      00FCA62FH   LINE      ECODE    ---       #724
      00FCA673H   LINE      ECODE    ---       #725
      00FCA677H   LINE      ECODE    ---       #726
      ---         BLOCKEND  ---      ---       LVL=0

      00FCA678H   BLOCK     ECODE    ---       LVL=0
      0001261DH   SYMBOL    XDATA    INT       x
      0001261FH   SYMBOL    XDATA    INT       y
      00012621H   SYMBOL    XDATA    WORD      siz
      00012623H   SYMBOL    XDATA    INT       style
      00FCA690H   BLOCK     ECODE    NEAR LAB  LVL=1
      00012625H   SYMBOL    XDATA    BYTE      return_state
      00011598H   SYMBOL    XDATA    BYTE      meter_num
      ---         BLOCKEND  ---      ---       LVL=1
      00FCA678H   LINE      ECODE    ---       #728
      00FCA690H   LINE      ECODE    ---       #729
      00FCA690H   LINE      ECODE    ---       #730
      00FCA696H   LINE      ECODE    ---       #732
      00FCA6A2H   LINE      ECODE    ---       #734
      00FCA6DDH   LINE      ECODE    ---       #735
      00FCA6E6H   LINE      ECODE    ---       #737
      00FCA6F4H   LINE      ECODE    ---       #738
      00FCA6F4H   LINE      ECODE    ---       #740
      00FCA70DH   LINE      ECODE    ---       #741
      ---         BLOCKEND  ---      ---       LVL=0

      00FCA70EH   BLOCK     ECODE    ---       LVL=0
      000121C9H   SYMBOL    XDATA    WORD      meter_id
      000121CBH   SYMBOL    XDATA    INT       value
      00FCA71AH   BLOCK     ECODE    NEAR LAB  LVL=1
      000121CDH   SYMBOL    XDATA    BYTE      return_state
      000121CEH   SYMBOL    XDATA    ---       temp
      ---         BLOCKEND  ---      ---       LVL=1
      00FCA70EH   LINE      ECODE    ---       #743
      00FCA71AH   LINE      ECODE    ---       #744
      00FCA71AH   LINE      ECODE    ---       #748
      00FCA726H   LINE      ECODE    ---       #749
      00FCA76AH   LINE      ECODE    ---       #750
      00FCA76EH   LINE      ECODE    ---       #751
      ---         BLOCKEND  ---      ---       LVL=0

      00FCA76FH   BLOCK     ECODE    ---       LVL=0
      00012626H   SYMBOL    XDATA    INT       x
      00012628H   SYMBOL    XDATA    INT       y
      0001262AH   SYMBOL    XDATA    WORD      clock_size
      0001262CH   SYMBOL    XDATA    INT       clock_type
      00FCA787H   BLOCK     ECODE    NEAR LAB  LVL=1
      0001262EH   SYMBOL    XDATA    BYTE      return_state
      00011599H   SYMBOL    XDATA    BYTE      clock_num
      ---         BLOCKEND  ---      ---       LVL=1
      00FCA76FH   LINE      ECODE    ---       #753
      00FCA787H   LINE      ECODE    ---       #754
      00FCA787H   LINE      ECODE    ---       #755
      00FCA78DH   LINE      ECODE    ---       #757
      00FCA799H   LINE      ECODE    ---       #759
      00FCA7D4H   LINE      ECODE    ---       #760
      00FCA7DDH   LINE      ECODE    ---       #762
      00FCA7EBH   LINE      ECODE    ---       #763
      00FCA7EBH   LINE      ECODE    ---       #765
      00FCA804H   LINE      ECODE    ---       #766
      ---         BLOCKEND  ---      ---       LVL=0

      00FCA805H   BLOCK     ECODE    ---       LVL=0
      0001262FH   SYMBOL    XDATA    INT       x
L251 LINKER/LOCATER V4.66.93.0                                                        03/25/2026  13:05:55  PAGE 164


      00012631H   SYMBOL    XDATA    INT       y
      00012633H   SYMBOL    XDATA    WORD      width
      00012635H   SYMBOL    XDATA    WORD      height
      00FCA81DH   BLOCK     ECODE    NEAR LAB  LVL=1
      00012637H   SYMBOL    XDATA    BYTE      return_state
      0001159AH   SYMBOL    XDATA    BYTE      progress_bar_num
      ---         BLOCKEND  ---      ---       LVL=1
      00FCA805H   LINE      ECODE    ---       #769
      00FCA81DH   LINE      ECODE    ---       #770
      00FCA81DH   LINE      ECODE    ---       #771
      00FCA823H   LINE      ECODE    ---       #773
      00FCA82FH   LINE      ECODE    ---       #775
      00FCA86AH   LINE      ECODE    ---       #776
      00FCA873H   LINE      ECODE    ---       #778
      00FCA881H   LINE      ECODE    ---       #779
      00FCA881H   LINE      ECODE    ---       #781
      00FCA89AH   LINE      ECODE    ---       #782
      ---         BLOCKEND  ---      ---       LVL=0

      00FCA89BH   BLOCK     ECODE    ---       LVL=0
      0001211CH   SYMBOL    XDATA    WORD      progress_bar_id
      0001211EH   SYMBOL    XDATA    BYTE      start_value
      0001211FH   SYMBOL    XDATA    BYTE      end_value
      00FCA8ABH   BLOCK     ECODE    NEAR LAB  LVL=1
      00012120H   SYMBOL    XDATA    BYTE      return_state
      00012121H   SYMBOL    XDATA    ---       temp
      ---         BLOCKEND  ---      ---       LVL=1
      00FCA89BH   LINE      ECODE    ---       #784
      00FCA8ABH   LINE      ECODE    ---       #785
      00FCA8ABH   LINE      ECODE    ---       #789
      00FCA8B7H   LINE      ECODE    ---       #790
      00FCA8C3H   LINE      ECODE    ---       #791
      00FCA907H   LINE      ECODE    ---       #792
      00FCA90BH   LINE      ECODE    ---       #793
      ---         BLOCKEND  ---      ---       LVL=0

      00FCA90CH   BLOCK     ECODE    ---       LVL=0
      00012638H   SYMBOL    XDATA    INT       x
      0001263AH   SYMBOL    XDATA    INT       y
      0001263CH   SYMBOL    XDATA    WORD      width
      0001263EH   SYMBOL    XDATA    WORD      height
      00FCA924H   BLOCK     ECODE    NEAR LAB  LVL=1
      00012640H   SYMBOL    XDATA    BYTE      return_state
      ---         BLOCKEND  ---      ---       LVL=1
      00FCA90CH   LINE      ECODE    ---       #795
      00FCA924H   LINE      ECODE    ---       #796
      00FCA924H   LINE      ECODE    ---       #799
      00FCA94EH   LINE      ECODE    ---       #800
      00FCA95FH   LINE      ECODE    ---       #801
      ---         BLOCKEND  ---      ---       LVL=0

      00FCA960H   BLOCK     ECODE    ---       LVL=0
      00012081H   SYMBOL    XDATA    WORD      year
      00012083H   SYMBOL    XDATA    BYTE      month
      00012084H   SYMBOL    XDATA    INT       mode
      00FCA970H   BLOCK     ECODE    NEAR LAB  LVL=1
      00012086H   SYMBOL    XDATA    BYTE      return_state
      00012087H   SYMBOL    XDATA    ---       temp
      ---         BLOCKEND  ---      ---       LVL=1
      00FCA960H   LINE      ECODE    ---       #803
      00FCA970H   LINE      ECODE    ---       #804
      00FCA970H   LINE      ECODE    ---       #808
      00FCA97CH   LINE      ECODE    ---       #809
      00FCA9A3H   LINE      ECODE    ---       #811
      00FCA9E3H   LINE      ECODE    ---       #812
L251 LINKER/LOCATER V4.66.93.0                                                        03/25/2026  13:05:55  PAGE 165


      00FCA9E7H   LINE      ECODE    ---       #813
      ---         BLOCKEND  ---      ---       LVL=0

      00FCA9E8H   BLOCK     ECODE    ---       LVL=0
      00012641H   SYMBOL    XDATA    INT       x
      00012643H   SYMBOL    XDATA    INT       y
      00012645H   SYMBOL    XDATA    WORD      width
      00012647H   SYMBOL    XDATA    WORD      height
      00FCAA00H   BLOCK     ECODE    NEAR LAB  LVL=1
      00012649H   SYMBOL    XDATA    BYTE      return_state
      0001159BH   SYMBOL    XDATA    BYTE      waveform_num
      ---         BLOCKEND  ---      ---       LVL=1
      00FCA9E8H   LINE      ECODE    ---       #815
      00FCAA00H   LINE      ECODE    ---       #816
      00FCAA00H   LINE      ECODE    ---       #817
      00FCAA06H   LINE      ECODE    ---       #819
      00FCAA12H   LINE      ECODE    ---       #821
      00FCAA4DH   LINE      ECODE    ---       #822
      00FCAA56H   LINE      ECODE    ---       #824
      00FCAA64H   LINE      ECODE    ---       #825
      00FCAA64H   LINE      ECODE    ---       #827
      00FCAA7DH   LINE      ECODE    ---       #828
      ---         BLOCKEND  ---      ---       LVL=0

      00FCAA7EH   BLOCK     ECODE    ---       LVL=0
      00011E63H   SYMBOL    XDATA    WORD      waveform_id
      00011E65H   SYMBOL    XDATA    BYTE      line_id
      00011E66H   SYMBOL    XDATA    ---       dat
      00011E6AH   SYMBOL    XDATA    WORD      length
      00011E6CH   SYMBOL    XDATA    WORD      color
      00FCAA98H   BLOCK     ECODE    NEAR LAB  LVL=1
      00011E6EH   SYMBOL    XDATA    BYTE      return_state
      00011E6FH   SYMBOL    XDATA    WORD      i
      00011E71H   SYMBOL    XDATA    ---       temp
      ---         BLOCKEND  ---      ---       LVL=1
      00FCAA7EH   LINE      ECODE    ---       #830
      00FCAA98H   LINE      ECODE    ---       #831
      00FCAA98H   LINE      ECODE    ---       #838
      00FCAAA4H   LINE      ECODE    ---       #839
      00FCAAB0H   LINE      ECODE    ---       #842
      00FCAABAH   LINE      ECODE    ---       #844
      00FCAB13H   LINE      ECODE    ---       #845
      00FCAB32H   LINE      ECODE    ---       #847
      00FCAB86H   LINE      ECODE    ---       #848
      00FCAB8AH   LINE      ECODE    ---       #849
      ---         BLOCKEND  ---      ---       LVL=0

      00FCAB8BH   BLOCK     ECODE    ---       LVL=0
      00012012H   SYMBOL    XDATA    WORD      waveform_id
      00012014H   SYMBOL    XDATA    WORD      line_id
      00012016H   SYMBOL    XDATA    WORD      line_state
      00FCAB9DH   BLOCK     ECODE    NEAR LAB  LVL=1
      00012018H   SYMBOL    XDATA    BYTE      return_state
      00012019H   SYMBOL    XDATA    ---       temp
      ---         BLOCKEND  ---      ---       LVL=1
      00FCAB8BH   LINE      ECODE    ---       #851
      00FCAB9DH   LINE      ECODE    ---       #852
      00FCAB9DH   LINE      ECODE    ---       #856
      00FCABA9H   LINE      ECODE    ---       #857
      00FCABB5H   LINE      ECODE    ---       #858
      00FCABF9H   LINE      ECODE    ---       #859
      00FCABFDH   LINE      ECODE    ---       #860
      ---         BLOCKEND  ---      ---       LVL=0

      00FCABFEH   BLOCK     ECODE    ---       LVL=0
L251 LINKER/LOCATER V4.66.93.0                                                        03/25/2026  13:05:55  PAGE 166


      000122B9H   SYMBOL    XDATA    WORD      waveform_id
      000122BBH   SYMBOL    XDATA    BYTE      line_type
      00FCAC08H   BLOCK     ECODE    NEAR LAB  LVL=1
      000122BCH   SYMBOL    XDATA    BYTE      return_state
      000122BDH   SYMBOL    XDATA    ---       temp
      ---         BLOCKEND  ---      ---       LVL=1
      00FCABFEH   LINE      ECODE    ---       #862
      00FCAC08H   LINE      ECODE    ---       #863
      00FCAC08H   LINE      ECODE    ---       #867
      00FCAC14H   LINE      ECODE    ---       #868
      00FCAC58H   LINE      ECODE    ---       #869
      00FCAC5CH   LINE      ECODE    ---       #870
      ---         BLOCKEND  ---      ---       LVL=0

      00FCAC5DH   BLOCK     ECODE    ---       LVL=0
      000124CFH   SYMBOL    XDATA    WORD      waveform_id
      00FCAC63H   BLOCK     ECODE    NEAR LAB  LVL=1
      000124D1H   SYMBOL    XDATA    BYTE      return_state
      000124D2H   SYMBOL    XDATA    ---       temp
      ---         BLOCKEND  ---      ---       LVL=1
      00FCAC5DH   LINE      ECODE    ---       #872
      00FCAC63H   LINE      ECODE    ---       #873
      00FCAC63H   LINE      ECODE    ---       #877
      00FCACA7H   LINE      ECODE    ---       #878
      00FCACABH   LINE      ECODE    ---       #879
      ---         BLOCKEND  ---      ---       LVL=0

      00FCACACH   BLOCK     ECODE    ---       LVL=0
      0001264AH   SYMBOL    XDATA    INT       x
      0001264CH   SYMBOL    XDATA    INT       y
      0001264EH   SYMBOL    XDATA    WORD      width
      00012650H   SYMBOL    XDATA    WORD      height
      00FCACC4H   BLOCK     ECODE    NEAR LAB  LVL=1
      00012652H   SYMBOL    XDATA    BYTE      return_state
      0001159CH   SYMBOL    XDATA    BYTE      image_num
      ---         BLOCKEND  ---      ---       LVL=1
      00FCACACH   LINE      ECODE    ---       #881
      00FCACC4H   LINE      ECODE    ---       #882
      00FCACC4H   LINE      ECODE    ---       #883
      00FCACCAH   LINE      ECODE    ---       #885
      00FCACD6H   LINE      ECODE    ---       #887
      00FCAD11H   LINE      ECODE    ---       #888
      00FCAD1AH   LINE      ECODE    ---       #890
      00FCAD28H   LINE      ECODE    ---       #891
      00FCAD28H   LINE      ECODE    ---       #893
      00FCAD41H   LINE      ECODE    ---       #894
      ---         BLOCKEND  ---      ---       LVL=0

      00FCAD42H   BLOCK     ECODE    ---       LVL=0
      00011B18H   SYMBOL    XDATA    WORD      image_id
      00011B1AH   SYMBOL    XDATA    ---       image
      00011B1EH   SYMBOL    XDATA    WORD      width
      00011B20H   SYMBOL    XDATA    WORD      height
      00011B22H   SYMBOL    XDATA    INT       image_type
      00011B24H   SYMBOL    XDATA    BYTE      threshold
      00FCAD5CH   BLOCK     ECODE    NEAR LAB  LVL=1
      00011B25H   SYMBOL    XDATA    BYTE      return_state
      00011B26H   SYMBOL    XDATA    WORD      send_length
      00011B28H   SYMBOL    XDATA    DWORD     image_size
      00011B2CH   SYMBOL    XDATA    ---       image_data
      00011B30H   SYMBOL    XDATA    ---       temp
      ---         BLOCKEND  ---      ---       LVL=1
      00FCAD42H   LINE      ECODE    ---       #896
      00FCAD5CH   LINE      ECODE    ---       #897
      00FCAD5CH   LINE      ECODE    ---       #898
L251 LINKER/LOCATER V4.66.93.0                                                        03/25/2026  13:05:55  PAGE 167


      00FCAD61H   LINE      ECODE    ---       #904
      00FCAD75H   LINE      ECODE    ---       #905
      00FCADA9H   LINE      ECODE    ---       #907
      00FCADDBH   LINE      ECODE    ---       #909
      00FCADE3H   LINE      ECODE    ---       #910
      00FCADEBH   LINE      ECODE    ---       #911
      00FCADF3H   LINE      ECODE    ---       #912
      00FCADF5H   LINE      ECODE    ---       #915
      00FCAE01H   LINE      ECODE    ---       #916
      00FCAE0DH   LINE      ECODE    ---       #917
      00FCAE1DH   LINE      ECODE    ---       #918
      00FCAE1DH   LINE      ECODE    ---       #919
      00FCAE27H   LINE      ECODE    ---       #920
      00FCAE33H   LINE      ECODE    ---       #922
      00FCAE33H   LINE      ECODE    ---       #925
      00FCAE59H   LINE      ECODE    ---       #926
      00FCAEB0H   LINE      ECODE    ---       #927
      00FCAEC9H   LINE      ECODE    ---       #928
      00FCAEE4H   LINE      ECODE    ---       #929
      00FCAEECH   LINE      ECODE    ---       #930
      00FCAEFDH   LINE      ECODE    ---       #932
      00FCAF01H   LINE      ECODE    ---       #933
      ---         BLOCKEND  ---      ---       LVL=0

      00FCAF02H   BLOCK     ECODE    ---       LVL=0
      00011E7DH   SYMBOL    XDATA    WORD      image_id
      00011E7FH   SYMBOL    XDATA    BYTE      line_id
      00011E80H   SYMBOL    XDATA    ---       line_data
      00011E84H   SYMBOL    XDATA    WORD      line_length
      00011E86H   SYMBOL    XDATA    INT       data_type
      00011E88H   SYMBOL    XDATA    WORD      color
      00FCAF1CH   BLOCK     ECODE    NEAR LAB  LVL=1
      00011E8AH   SYMBOL    XDATA    BYTE      return_state
      00011E8BH   SYMBOL    XDATA    ---       temp
      ---         BLOCKEND  ---      ---       LVL=1
      00FCAF02H   LINE      ECODE    ---       #935
      00FCAF1CH   LINE      ECODE    ---       #936
      00FCAF1CH   LINE      ECODE    ---       #937
      00FCAF22H   LINE      ECODE    ---       #940
      00FCAF31H   LINE      ECODE    ---       #942
      00FCAF55H   LINE      ECODE    ---       #943
      00FCAF7CH   LINE      ECODE    ---       #944
      00FCAF88H   LINE      ECODE    ---       #945
      00FCAFE4H   LINE      ECODE    ---       #946
      00FCAFE4H   LINE      ECODE    ---       #947
      00FCAFE8H   LINE      ECODE    ---       #948
      ---         BLOCKEND  ---      ---       LVL=0

      00FCAFE9H   BLOCK     ECODE    ---       LVL=0
      00011CB8H   SYMBOL    XDATA    WORD      image_id
      00011CBAH   SYMBOL    XDATA    BYTE      rectangle_id
      00011CBBH   SYMBOL    XDATA    INT       x
      00011CBDH   SYMBOL    XDATA    INT       y
      00011CBFH   SYMBOL    XDATA    WORD      rectangle_width
      00011CC1H   SYMBOL    XDATA    WORD      rectangle_height
      00011CC3H   SYMBOL    XDATA    WORD      color
      00FCB005H   BLOCK     ECODE    NEAR LAB  LVL=1
      00011CC5H   SYMBOL    XDATA    BYTE      return_state
      00011CC6H   SYMBOL    XDATA    ---       temp
      ---         BLOCKEND  ---      ---       LVL=1
      00FCAFE9H   LINE      ECODE    ---       #950
      00FCB005H   LINE      ECODE    ---       #951
      00FCB005H   LINE      ECODE    ---       #952
      00FCB00BH   LINE      ECODE    ---       #954
      00FCB01AH   LINE      ECODE    ---       #956
L251 LINKER/LOCATER V4.66.93.0                                                        03/25/2026  13:05:55  PAGE 168


      00FCB026H   LINE      ECODE    ---       #957
      00FCB032H   LINE      ECODE    ---       #958
      00FCB03EH   LINE      ECODE    ---       #959
      00FCB04AH   LINE      ECODE    ---       #960
      00FCB056H   LINE      ECODE    ---       #961
      00FCB062H   LINE      ECODE    ---       #962
      00FCB0A6H   LINE      ECODE    ---       #963
      00FCB0A6H   LINE      ECODE    ---       #964
      00FCB0AAH   LINE      ECODE    ---       #965
      ---         BLOCKEND  ---      ---       LVL=0

      00FCB0ABH   BLOCK     ECODE    ---       LVL=0
      00012653H   SYMBOL    XDATA    INT       x
      00012655H   SYMBOL    XDATA    INT       y
      00012657H   SYMBOL    XDATA    WORD      width
      00012659H   SYMBOL    XDATA    WORD      height
      00FCB0C3H   BLOCK     ECODE    NEAR LAB  LVL=1
      0001265BH   SYMBOL    XDATA    BYTE      return_state
      0001159DH   SYMBOL    XDATA    BYTE      container_num
      ---         BLOCKEND  ---      ---       LVL=1
      00FCB0ABH   LINE      ECODE    ---       #967
      00FCB0C3H   LINE      ECODE    ---       #968
      00FCB0C3H   LINE      ECODE    ---       #969
      00FCB0C9H   LINE      ECODE    ---       #971
      00FCB0D5H   LINE      ECODE    ---       #973
      00FCB110H   LINE      ECODE    ---       #974
      00FCB119H   LINE      ECODE    ---       #976
      00FCB127H   LINE      ECODE    ---       #977
      00FCB127H   LINE      ECODE    ---       #979
      00FCB140H   LINE      ECODE    ---       #980
      ---         BLOCKEND  ---      ---       LVL=0

      00FCB141H   BLOCK     ECODE    ---       LVL=0
      00012025H   SYMBOL    XDATA    WORD      container_id
      00012027H   SYMBOL    XDATA    WORD      border_width
      00012029H   SYMBOL    XDATA    WORD      radius
      00FCB153H   BLOCK     ECODE    NEAR LAB  LVL=1
      0001202BH   SYMBOL    XDATA    BYTE      return_state
      0001202CH   SYMBOL    XDATA    ---       temp
      ---         BLOCKEND  ---      ---       LVL=1
      00FCB141H   LINE      ECODE    ---       #982
      00FCB153H   LINE      ECODE    ---       #983
      00FCB153H   LINE      ECODE    ---       #987
      00FCB15FH   LINE      ECODE    ---       #988
      00FCB16BH   LINE      ECODE    ---       #989
      00FCB1AFH   LINE      ECODE    ---       #990
      00FCB1B3H   LINE      ECODE    ---       #991
      ---         BLOCKEND  ---      ---       LVL=0

      00FCB1B4H   BLOCK     ECODE    ---       LVL=0
      0001265CH   SYMBOL    XDATA    ---       str
      00012660H   SYMBOL    XDATA    INT       title_position
      00012662H   SYMBOL    XDATA    BYTE      title_size
      00FCB1C8H   BLOCK     ECODE    NEAR LAB  LVL=1
      00012663H   SYMBOL    XDATA    WORD      page_id
      ---         BLOCKEND  ---      ---       LVL=1
      00FCB1B4H   LINE      ECODE    ---       #993
      00FCB1C8H   LINE      ECODE    ---       #994
      00FCB1C8H   LINE      ECODE    ---       #995
      00FCB1D0H   LINE      ECODE    ---       #996
      00FCB20AH   LINE      ECODE    ---       #997
      00FCB21CH   LINE      ECODE    ---       #998
      00FCB22EH   LINE      ECODE    ---       #1000
      00FCB23EH   LINE      ECODE    ---       #1002
      00FCB247H   LINE      ECODE    ---       #1003
L251 LINKER/LOCATER V4.66.93.0                                                        03/25/2026  13:05:55  PAGE 169


      00FCB265H   LINE      ECODE    ---       #1004
      00FCB26FH   LINE      ECODE    ---       #1005
      00FCB28DH   LINE      ECODE    ---       #1021
      00FCB29BH   LINE      ECODE    ---       #1023
      00FCB2A3H   LINE      ECODE    ---       #1024
      00FCB2ABH   LINE      ECODE    ---       #1025
      00FCB2B1H   LINE      ECODE    ---       #1030
      00FCB2BFH   LINE      ECODE    ---       #1032
      00FCB2D3H   LINE      ECODE    ---       #1033
      00FCB2D3H   LINE      ECODE    ---       #1039
      00FCB2D9H   LINE      ECODE    ---       #1040
      ---         BLOCKEND  ---      ---       LVL=0

      ---         MODULE    ---      ---       zf_device_ble6a20
      00FE056AH   PUBLIC    ECODE    ---       ble6a20_read_buffer?
      00FE03E8H   PUBLIC    ECODE    ---       ble6a20_send_buffer?
      00FE050AH   PUBLIC    ECODE    ---       ble6a20_send_string?
      00FE05F0H   PUBLIC    ECODE    ---       ble6a20_callback?
      00FE0617H   PUBLIC    ECODE    ---       ble6a20_init?
      00FE036AH   PUBLIC    ECODE    ---       ble6a20_send_byte?
      000000D0H   SFRSYM    DATA     BYTE      PSW
      0000009DH   SFRSYM    DATA     BYTE      IRCBAND
      00000097H   SFRSYM    DATA     BYTE      AUXR2
      000000EAH   SFRSYM    DATA     BYTE      CKCON
      000000EFH   SFRSYM    DATA     BYTE      AUXINTIF
      000000FDH   SFRSYM    DATA     BYTE      S4CON
      000000ACH   SFRSYM    DATA     BYTE      S3CON
      0000009AH   SFRSYM    DATA     BYTE      S2CON
      000000B7H   SFRSYM    DATA     BYTE      IPH
      000000CDH   SFRSYM    DATA     BYTE      SPSTAT
      000000DDH   SFRSYM    DATA     BYTE      T4T3M
      000000C1H   SFRSYM    DATA     BYTE      WDT_CONTR
      000000DFH   SFRSYM    DATA     BYTE      IP3
      000000F4H   SFRSYM    DATA     BYTE      USBCON
      000000B5H   SFRSYM    DATA     BYTE      IP2
      000000FFH   SFRSYM    DATA     BYTE      RSTCFG
      000000E0H   SFRSYM    DATA     BYTE      ACC
      000000C7H   SFRSYM    DATA     BYTE      IAP_CONTR
      000000F9H   SFRSYM    DATA     BYTE      LINICR
      0000008EH   SFRSYM    DATA     BYTE      AUXR
      000000F0H   SFRSYM    DATA     BYTE      B
      000000AFH   SFRSYM    DATA     BYTE      IE2
      00000088H   SFRSYM    DATA     BYTE      TCON
      00000089H   SFRSYM    DATA     BYTE      TMOD
      00000098H   SFRSYM    DATA     BYTE      SCON
      00000087H   SFRSYM    DATA     BYTE      PCON
      000000BCH   SFRSYM    DATA     BYTE      ADC_CONTR
      000000D1H   SFRSYM    DATA     BYTE      PSW1
      000000E7H   SFRSYM    DATA     BYTE      CMPCR2
      000000E6H   SFRSYM    DATA     BYTE      CMPCR1
      000000DEH   SFRSYM    DATA     BYTE      ADCCFG
      000000B8H   SFRSYM    DATA     BYTE      IP
      0000008FH   SFRSYM    DATA     BYTE      INTCLKO
      000000EEH   SFRSYM    DATA     BYTE      IP3H
      000000B6H   SFRSYM    DATA     BYTE      IP2H
      000000BFH   SFRSYM    DATA     BYTE      P_SW4
      000000A8H   SFRSYM    DATA     BYTE      IE
      000000BBH   SFRSYM    DATA     BYTE      P_SW3
      000000BAH   SFRSYM    DATA     BYTE      P_SW2
      000000A2H   SFRSYM    DATA     BYTE      P_SW1
      000000CEH   SFRSYM    DATA     BYTE      SPCTL
      000000F8H   SFRSYM    DATA     BYTE      P7
      000000E8H   SFRSYM    DATA     BYTE      P6
      000000C8H   SFRSYM    DATA     BYTE      P5
      000000C0H   SFRSYM    DATA     BYTE      P4
L251 LINKER/LOCATER V4.66.93.0                                                        03/25/2026  13:05:55  PAGE 170


      000000ABH   SFRSYM    DATA     BYTE      WKTCH
      000000B0H   SFRSYM    DATA     BYTE      P3
      000000A0H   SFRSYM    DATA     BYTE      P2
      00000090H   SFRSYM    DATA     BYTE      P1
      00000080H   SFRSYM    DATA     BYTE      P0
      000113FEH   SYMBOL    XDATA    ---       ble6a20_buffer
      0001143EH   SYMBOL    XDATA    ---       ble6a20_fifo

      00FE036AH   BLOCK     ECODE    ---       LVL=0
      000129C1H   SYMBOL    XDATA    BYTE      dat
      00FE036EH   BLOCK     ECODE    NEAR LAB  LVL=1
      000129C2H   SYMBOL    XDATA    WORD      time_cnt
      ---         BLOCKEND  ---      ---       LVL=1
      00FE036AH   LINE      ECODE    ---       #71
      00FE036EH   LINE      ECODE    ---       #72
      00FE036EH   LINE      ECODE    ---       #73
      00FE0378H   LINE      ECODE    ---       #75
      00FE037AH   LINE      ECODE    ---       #77
      00FE0390H   LINE      ECODE    ---       #78
      00FE039FH   LINE      ECODE    ---       #79
      00FE03BBH   LINE      ECODE    ---       #81
      00FE03C7H   LINE      ECODE    ---       #83
      00FE03D3H   LINE      ECODE    ---       #84
      00FE03D3H   LINE      ECODE    ---       #86
      00FE03E7H   LINE      ECODE    ---       #87
      ---         BLOCKEND  ---      ---       LVL=0

      00FE03E8H   BLOCK     ECODE    ---       LVL=0
      00012421H   SYMBOL    XDATA    ---       buff
      00012425H   SYMBOL    XDATA    DWORD     len
      00FE03FCH   BLOCK     ECODE    NEAR LAB  LVL=1
      00012429H   SYMBOL    XDATA    WORD      time_cnt
      0001242BH   SYMBOL    XDATA    WORD      send_len
      ---         BLOCKEND  ---      ---       LVL=1
      00FE03E8H   LINE      ECODE    ---       #97
      00FE03FCH   LINE      ECODE    ---       #98
      00FE03FCH   LINE      ECODE    ---       #102
      00FE0404H   LINE      ECODE    ---       #103
      00FE040CH   LINE      ECODE    ---       #104
      00FE042FH   LINE      ECODE    ---       #106
      00FE0432H   LINE      ECODE    ---       #108
      00FE043FH   LINE      ECODE    ---       #110
      00FE0465H   LINE      ECODE    ---       #111
      00FE047DH   LINE      ECODE    ---       #112
      00FE0496H   LINE      ECODE    ---       #113
      00FE04B1H   LINE      ECODE    ---       #114
      00FE04B9H   LINE      ECODE    ---       #115
      00FE04BBH   LINE      ECODE    ---       #118
      00FE04D1H   LINE      ECODE    ---       #119
      00FE04E0H   LINE      ECODE    ---       #120
      00FE04E0H   LINE      ECODE    ---       #121
      00FE04FFH   LINE      ECODE    ---       #123
      00FE0509H   LINE      ECODE    ---       #124
      ---         BLOCKEND  ---      ---       LVL=0

      00FE050AH   BLOCK     ECODE    ---       LVL=0
      0001274CH   SYMBOL    XDATA    ---       str
      00FE0514H   BLOCK     ECODE    NEAR LAB  LVL=1
      00012750H   SYMBOL    XDATA    DWORD     len
      ---         BLOCKEND  ---      ---       LVL=1
      00FE050AH   LINE      ECODE    ---       #133
      00FE0514H   LINE      ECODE    ---       #134
      00FE0514H   LINE      ECODE    ---       #135
      00FE052EH   LINE      ECODE    ---       #136
      00FE0551H   LINE      ECODE    ---       #138
L251 LINKER/LOCATER V4.66.93.0                                                        03/25/2026  13:05:55  PAGE 171


      00FE0569H   LINE      ECODE    ---       #139
      ---         BLOCKEND  ---      ---       LVL=0

      00FE056AH   BLOCK     ECODE    ---       LVL=0
      0001242DH   SYMBOL    XDATA    ---       buff
      00012431H   SYMBOL    XDATA    DWORD     len
      00FE057EH   BLOCK     ECODE    NEAR LAB  LVL=1
      00012435H   SYMBOL    XDATA    DWORD     data_len
      ---         BLOCKEND  ---      ---       LVL=1
      00FE056AH   LINE      ECODE    ---       #150
      00FE057EH   LINE      ECODE    ---       #151
      00FE057EH   LINE      ECODE    ---       #152
      00FE0592H   LINE      ECODE    ---       #153
      00FE05B5H   LINE      ECODE    ---       #154
      00FE05E5H   LINE      ECODE    ---       #155
      00FE05EFH   LINE      ECODE    ---       #156
      ---         BLOCKEND  ---      ---       LVL=0

      00FE05F0H   BLOCK     ECODE    ---       LVL=0
      00012A0AH   SYMBOL    XDATA    BYTE      uart_dat
      00FE05F0H   LINE      ECODE    ---       #167
      00FE05F4H   LINE      ECODE    ---       #170
      00FE0616H   LINE      ECODE    ---       #171
      ---         BLOCKEND  ---      ---       LVL=0

      00FE0617H   BLOCK     ECODE    ---       LVL=0
      00012A0BH   SYMBOL    XDATA    BYTE      return_state
      00FE0617H   LINE      ECODE    ---       #180
      00FE0617H   LINE      ECODE    ---       #181
      00FE0617H   LINE      ECODE    ---       #182
      00FE061CH   LINE      ECODE    ---       #185
      00FE063AH   LINE      ECODE    ---       #189
      00FE0668H   LINE      ECODE    ---       #190
      00FE0678H   LINE      ECODE    ---       #193
      00FE0696H   LINE      ECODE    ---       #194
      00FE06A8H   LINE      ECODE    ---       #196
      00FE06ACH   LINE      ECODE    ---       #197
      ---         BLOCKEND  ---      ---       LVL=0

      ---         MODULE    ---      ---       zf_device_wifi_spi
      00FD5D58H   PUBLIC    ECODE    ---       wifi_spi_get_time?
      00FD5FD9H   PUBLIC    ECODE    ---       wifi_spi_socket_connect?
      00FD6388H   PUBLIC    ECODE    ---       wifi_spi_read_buffer?
      00FD5F16H   PUBLIC    ECODE    ---       wifi_spi_wifi_connect?
      00FD61C5H   PUBLIC    ECODE    ---       wifi_spi_send_buffer?
      00FD60F0H   PUBLIC    ECODE    ---       wifi_spi_udp_send_now?
      00FD6086H   PUBLIC    ECODE    ---       wifi_spi_socket_disconnect?
      00FD60A4H   PUBLIC    ECODE    ---       wifi_spi_reset?
      00FD635FH   PUBLIC    ECODE    ---       wifi_spi_send_string?
      00FD6693H   PUBLIC    ECODE    ---       wifi_spi_init?
      00FD5E7BH   PUBLIC    ECODE    ---       wifi_spi_wifi_scan?
      00010400H   PUBLIC    XDATA    ---       wifi_spi_ip_addr_port
      00010419H   PUBLIC    XDATA    ---       wifi_spi_version
      0001043CH   PUBLIC    XDATA    ---       wifi_spi_mac_addr
      00011849H   PUBLIC    XDATA    BYTE      ?wifi_spi_socket_connect??BYTE
      000000D0H   SFRSYM    DATA     BYTE      PSW
      0000009DH   SFRSYM    DATA     BYTE      IRCBAND
      00000097H   SFRSYM    DATA     BYTE      AUXR2
      000000EAH   SFRSYM    DATA     BYTE      CKCON
      000000EFH   SFRSYM    DATA     BYTE      AUXINTIF
      000000FDH   SFRSYM    DATA     BYTE      S4CON
      000000ACH   SFRSYM    DATA     BYTE      S3CON
      0000009AH   SFRSYM    DATA     BYTE      S2CON
      000000B7H   SFRSYM    DATA     BYTE      IPH
      000000CDH   SFRSYM    DATA     BYTE      SPSTAT
L251 LINKER/LOCATER V4.66.93.0                                                        03/25/2026  13:05:55  PAGE 172


      000000DDH   SFRSYM    DATA     BYTE      T4T3M
      000000C1H   SFRSYM    DATA     BYTE      WDT_CONTR
      000000DFH   SFRSYM    DATA     BYTE      IP3
      000000F4H   SFRSYM    DATA     BYTE      USBCON
      000000B5H   SFRSYM    DATA     BYTE      IP2
      000000FFH   SFRSYM    DATA     BYTE      RSTCFG
      000000E0H   SFRSYM    DATA     BYTE      ACC
      000000C7H   SFRSYM    DATA     BYTE      IAP_CONTR
      000000F9H   SFRSYM    DATA     BYTE      LINICR
      0000008EH   SFRSYM    DATA     BYTE      AUXR
      000000F0H   SFRSYM    DATA     BYTE      B
      000000AFH   SFRSYM    DATA     BYTE      IE2
      000000E8H.4 SFRSYM    DATA     BIT       P64
      00000088H   SFRSYM    DATA     BYTE      TCON
      00000089H   SFRSYM    DATA     BYTE      TMOD
      00000098H   SFRSYM    DATA     BYTE      SCON
      00000087H   SFRSYM    DATA     BYTE      PCON
      000000BCH   SFRSYM    DATA     BYTE      ADC_CONTR
      000000D1H   SFRSYM    DATA     BYTE      PSW1
      000000E7H   SFRSYM    DATA     BYTE      CMPCR2
      000000E6H   SFRSYM    DATA     BYTE      CMPCR1
      000000DEH   SFRSYM    DATA     BYTE      ADCCFG
      000000B8H   SFRSYM    DATA     BYTE      IP
      0000008FH   SFRSYM    DATA     BYTE      INTCLKO
      000000EEH   SFRSYM    DATA     BYTE      IP3H
      000000B6H   SFRSYM    DATA     BYTE      IP2H
      000000BFH   SFRSYM    DATA     BYTE      P_SW4
      000000A8H   SFRSYM    DATA     BYTE      IE
      000000BBH   SFRSYM    DATA     BYTE      P_SW3
      000000BAH   SFRSYM    DATA     BYTE      P_SW2
      000000A2H   SFRSYM    DATA     BYTE      P_SW1
      000000CEH   SFRSYM    DATA     BYTE      SPCTL
      000000F8H   SFRSYM    DATA     BYTE      P7
      000000E8H   SFRSYM    DATA     BYTE      P6
      000000C8H   SFRSYM    DATA     BYTE      P5
      000000C0H   SFRSYM    DATA     BYTE      P4
      000000ABH   SFRSYM    DATA     BYTE      WKTCH
      000000B0H   SFRSYM    DATA     BYTE      P3
      000000A0H   SFRSYM    DATA     BYTE      P2
      00000090H   SFRSYM    DATA     BYTE      P1
      00000080H   SFRSYM    DATA     BYTE      P0
      00FE505DH   SYMBOL    HCONST   ---       ?tpl?0001
      00FD57CAH   SYMBOL    ECODE    ---       wifi_spi_dma_write
      00FD584BH   SYMBOL    ECODE    ---       wifi_spi_dma_transfer_command
      00FD5CACH   SYMBOL    ECODE    ---       wifi_spi_get_mac_addr
      00FD5B99H   SYMBOL    ECODE    ---       wifi_spi_get_parameter
      00FD5AC3H   SYMBOL    ECODE    ---       wifi_spi_set_parameter
      00FD5921H   SYMBOL    ECODE    ---       wifi_spi_dma_transfer_data
      00FD5D02H   SYMBOL    ECODE    ---       wifi_spi_get_ip_addr_port
      00FD5C40H   SYMBOL    ECODE    ---       wifi_spi_get_version
      00FD571DH   SYMBOL    ECODE    ---       wifi_spi_wait_idle
      00010000H   SYMBOL    XDATA    ---       wifi_spi_buffer
      00010425H   SYMBOL    XDATA    ---       wifi_spi_fifo
      00010450H   SYMBOL    XDATA    INT       wifi_spi_mutex

      00FD571DH   BLOCK     ECODE    ---       LVL=0
      00012754H   SYMBOL    XDATA    DWORD     wait_time
      00FD5727H   BLOCK     ECODE    NEAR LAB  LVL=1
      00012758H   SYMBOL    XDATA    DWORD     time
      ---         BLOCKEND  ---      ---       LVL=1
      00FD571DH   LINE      ECODE    ---       #95
      00FD5727H   LINE      ECODE    ---       #96
      00FD5727H   LINE      ECODE    ---       #97
      00FD5733H   LINE      ECODE    ---       #99
      00FD574CH   LINE      ECODE    ---       #100
L251 LINKER/LOCATER V4.66.93.0                                                        03/25/2026  13:05:55  PAGE 173


      00FD574EH   LINE      ECODE    ---       #102
      00FD5770H   LINE      ECODE    ---       #103
      00FD5787H   LINE      ECODE    ---       #104
      00FD579FH   LINE      ECODE    ---       #106
      00FD579FH   LINE      ECODE    ---       #107
      00FD57ACH   LINE      ECODE    ---       #109
      00FD57C9H   LINE      ECODE    ---       #110
      ---         BLOCKEND  ---      ---       LVL=0

      00FD57CAH   BLOCK     ECODE    ---       LVL=0
      00012439H   SYMBOL    XDATA    ---       buffer1
      0001243DH   SYMBOL    XDATA    WORD      length1
      0001243FH   SYMBOL    XDATA    ---       buffer2
      00012443H   SYMBOL    XDATA    WORD      length2
      00FD57CAH   LINE      ECODE    ---       #122
      00FD57E0H   LINE      ECODE    ---       #124
      00FD57E3H   LINE      ECODE    ---       #125
      00FD57F1H   LINE      ECODE    ---       #127
      00FD5815H   LINE      ECODE    ---       #128
      00FD5815H   LINE      ECODE    ---       #129
      00FD5823H   LINE      ECODE    ---       #131
      00FD5847H   LINE      ECODE    ---       #132
      00FD5847H   LINE      ECODE    ---       #133
      00FD584AH   LINE      ECODE    ---       #134
      ---         BLOCKEND  ---      ---       LVL=0

      00FD584BH   BLOCK     ECODE    ---       LVL=0
      0001284CH   SYMBOL    XDATA    ---       packets
      00012850H   SYMBOL    XDATA    WORD      length
      00FD584BH   LINE      ECODE    ---       #144
      00FD585BH   LINE      ECODE    ---       #146
      00FD585EH   LINE      ECODE    ---       #148
      00FD5892H   LINE      ECODE    ---       #150
      00FD589EH   LINE      ECODE    ---       #152
      00FD58DAH   LINE      ECODE    ---       #153
      00FD58DAH   LINE      ECODE    ---       #155
      00FD591DH   LINE      ECODE    ---       #157
      00FD5920H   LINE      ECODE    ---       #158
      ---         BLOCKEND  ---      ---       LVL=0

      00FD5921H   BLOCK     ECODE    ---       LVL=0
      0001259BH   SYMBOL    XDATA    ---       write_data
      0001259FH   SYMBOL    XDATA    ---       read_data
      000125A3H   SYMBOL    XDATA    WORD      length
      00FD5921H   LINE      ECODE    ---       #169
      00FD5935H   LINE      ECODE    ---       #171
      00FD5938H   LINE      ECODE    ---       #173
      00FD5947H   LINE      ECODE    ---       #175
      00FD5978H   LINE      ECODE    ---       #177
      00FD59ACH   LINE      ECODE    ---       #179
      00FD59BAH   LINE      ECODE    ---       #181
      00FD59F0H   LINE      ECODE    ---       #182
      00FD5A1EH   LINE      ECODE    ---       #183
      00FD5A20H   LINE      ECODE    ---       #187
      00FD5A44H   LINE      ECODE    ---       #188
      00FD5A7CH   LINE      ECODE    ---       #189
      00FD5A7CH   LINE      ECODE    ---       #192
      00FD5ABFH   LINE      ECODE    ---       #194
      00FD5AC2H   LINE      ECODE    ---       #195
      ---         BLOCKEND  ---      ---       LVL=0

      00FD5AC3H   BLOCK     ECODE    ---       LVL=0
      0001212DH   SYMBOL    XDATA    INT       command
      0001212FH   SYMBOL    XDATA    ---       buffer
      00012133H   SYMBOL    XDATA    WORD      length
L251 LINKER/LOCATER V4.66.93.0                                                        03/25/2026  13:05:55  PAGE 174


      00012135H   SYMBOL    XDATA    DWORD     wait_time
      00FD5AD9H   BLOCK     ECODE    NEAR LAB  LVL=1
      00012139H   SYMBOL    XDATA    BYTE      return_state
      0001213AH   SYMBOL    XDATA    ---       head
      ---         BLOCKEND  ---      ---       LVL=1
      00FD5AC3H   LINE      ECODE    ---       #207
      00FD5AD9H   LINE      ECODE    ---       #208
      00FD5AD9H   LINE      ECODE    ---       #211
      00FD5ADFH   LINE      ECODE    ---       #212
      00FD5ADFH   LINE      ECODE    ---       #214
      00FD5AE9H   LINE      ECODE    ---       #215
      00FD5AF5H   LINE      ECODE    ---       #218
      00FD5B0AH   LINE      ECODE    ---       #220
      00FD5B0AH   LINE      ECODE    ---       #221
      00FD5B0AH   LINE      ECODE    ---       #223
      00FD5B33H   LINE      ECODE    ---       #224
      00FD5B45H   LINE      ECODE    ---       #226
      00FD5B45H   LINE      ECODE    ---       #227
      00FD5B45H   LINE      ECODE    ---       #230
      00FD5B4BH   LINE      ECODE    ---       #231
      00FD5B53H   LINE      ECODE    ---       #232
      00FD5B64H   LINE      ECODE    ---       #233
      00FD5B86H   LINE      ECODE    ---       #234
      00FD5B8FH   LINE      ECODE    ---       #236
      00FD5B94H   LINE      ECODE    ---       #237
      00FD5B94H   LINE      ECODE    ---       #240
      00FD5B98H   LINE      ECODE    ---       #241
      ---         BLOCKEND  ---      ---       LVL=0

      00FD5B99H   BLOCK     ECODE    ---       LVL=0
      000124DAH   SYMBOL    XDATA    INT       command
      000124DCH   SYMBOL    XDATA    ---       read_data
      000124E0H   SYMBOL    XDATA    DWORD     wait_time
      00FD5BA9H   BLOCK     ECODE    NEAR LAB  LVL=1
      000124E4H   SYMBOL    XDATA    BYTE      return_state
      ---         BLOCKEND  ---      ---       LVL=1
      00FD5B99H   LINE      ECODE    ---       #252
      00FD5BA9H   LINE      ECODE    ---       #253
      00FD5BA9H   LINE      ECODE    ---       #256
      00FD5BAFH   LINE      ECODE    ---       #257
      00FD5BAFH   LINE      ECODE    ---       #260
      00FD5BC1H   LINE      ECODE    ---       #262
      00FD5BC1H   LINE      ECODE    ---       #263
      00FD5BC1H   LINE      ECODE    ---       #264
      00FD5BD4H   LINE      ECODE    ---       #265
      00FD5BF3H   LINE      ECODE    ---       #267
      00FD5C05H   LINE      ECODE    ---       #269
      00FD5C05H   LINE      ECODE    ---       #270
      00FD5C05H   LINE      ECODE    ---       #271
      00FD5C14H   LINE      ECODE    ---       #272
      00FD5C25H   LINE      ECODE    ---       #273
      00FD5C36H   LINE      ECODE    ---       #274
      00FD5C3BH   LINE      ECODE    ---       #275
      00FD5C3BH   LINE      ECODE    ---       #276
      00FD5C3FH   LINE      ECODE    ---       #277
      ---         BLOCKEND  ---      ---       LVL=0

      00FD5C40H   BLOCK     ECODE    ---       LVL=0
      00011C00H   SYMBOL    XDATA    BYTE      return_state
      00011C01H   SYMBOL    XDATA    ---       temp_packets
      00FD5C40H   LINE      ECODE    ---       #286
      00FD5C40H   LINE      ECODE    ---       #287
      00FD5C40H   LINE      ECODE    ---       #289
      00FD5C56H   LINE      ECODE    ---       #291
      00FD5C77H   LINE      ECODE    ---       #292
L251 LINKER/LOCATER V4.66.93.0                                                        03/25/2026  13:05:55  PAGE 175


      00FD5C89H   LINE      ECODE    ---       #294
      00FD5CA7H   LINE      ECODE    ---       #295
      00FD5CA7H   LINE      ECODE    ---       #296
      00FD5CABH   LINE      ECODE    ---       #297
      ---         BLOCKEND  ---      ---       LVL=0

      00FD5CACH   BLOCK     ECODE    ---       LVL=0
      00011C25H   SYMBOL    XDATA    BYTE      return_state
      00011C26H   SYMBOL    XDATA    ---       temp_packets
      00FD5CACH   LINE      ECODE    ---       #306
      00FD5CACH   LINE      ECODE    ---       #307
      00FD5CACH   LINE      ECODE    ---       #311
      00FD5CCDH   LINE      ECODE    ---       #312
      00FD5CDFH   LINE      ECODE    ---       #314
      00FD5CFDH   LINE      ECODE    ---       #315
      00FD5CFDH   LINE      ECODE    ---       #316
      00FD5D01H   LINE      ECODE    ---       #317
      ---         BLOCKEND  ---      ---       LVL=0

      00FD5D02H   BLOCK     ECODE    ---       LVL=0
      00011C4AH   SYMBOL    XDATA    BYTE      return_state
      00011C4BH   SYMBOL    XDATA    ---       temp_packets
      00FD5D02H   LINE      ECODE    ---       #327
      00FD5D02H   LINE      ECODE    ---       #328
      00FD5D02H   LINE      ECODE    ---       #332
      00FD5D23H   LINE      ECODE    ---       #333
      00FD5D35H   LINE      ECODE    ---       #335
      00FD5D53H   LINE      ECODE    ---       #336
      00FD5D53H   LINE      ECODE    ---       #337
      00FD5D57H   LINE      ECODE    ---       #338
      ---         BLOCKEND  ---      ---       LVL=0

      00FD5D58H   BLOCK     ECODE    ---       LVL=0
      000119BCH   SYMBOL    XDATA    INT       time_format
      000119BEH   SYMBOL    XDATA    ---       buffer
      000119C2H   SYMBOL    XDATA    BYTE      buffer_size
      00FD5D6CH   BLOCK     ECODE    NEAR LAB  LVL=1
      000119C3H   SYMBOL    XDATA    BYTE      return_state
      000119C4H   SYMBOL    XDATA    ---       temp_packets
      000119E8H   SYMBOL    XDATA    BYTE      send_cmd
      000119E9H   SYMBOL    XDATA    BYTE      receive_cmd
      ---         BLOCKEND  ---      ---       LVL=1
      00FD5D58H   LINE      ECODE    ---       #351
      00FD5D6CH   LINE      ECODE    ---       #352
      00FD5D6CH   LINE      ECODE    ---       #353
      00FD5D72H   LINE      ECODE    ---       #359
      00FD5DA5H   LINE      ECODE    ---       #361
      00FD5DBBH   LINE      ECODE    ---       #362
      00FD5DD1H   LINE      ECODE    ---       #364
      00FD5DF4H   LINE      ECODE    ---       #365
      00FD5E0BH   LINE      ECODE    ---       #367
      00FD5E2BH   LINE      ECODE    ---       #368
      00FD5E34H   LINE      ECODE    ---       #370
      00FD5E5AH   LINE      ECODE    ---       #371
      00FD5E76H   LINE      ECODE    ---       #372
      00FD5E76H   LINE      ECODE    ---       #374
      00FD5E76H   LINE      ECODE    ---       #375
      00FD5E7AH   LINE      ECODE    ---       #376
      ---         BLOCKEND  ---      ---       LVL=0

      00FD5E7BH   BLOCK     ECODE    ---       LVL=0
      00012797H   SYMBOL    XDATA    ---       buffer
      0001279BH   SYMBOL    XDATA    WORD      buffer_size
      00FD5E8BH   BLOCK     ECODE    NEAR LAB  LVL=1
      0001279DH   SYMBOL    XDATA    BYTE      return_state
L251 LINKER/LOCATER V4.66.93.0                                                        03/25/2026  13:05:55  PAGE 176


      ---         BLOCKEND  ---      ---       LVL=1
      00FD5E7BH   LINE      ECODE    ---       #388
      00FD5E8BH   LINE      ECODE    ---       #389
      00FD5E8BH   LINE      ECODE    ---       #390
      00FD5E90H   LINE      ECODE    ---       #394
      00FD5EB1H   LINE      ECODE    ---       #396
      00FD5ECEH   LINE      ECODE    ---       #398
      00FD5ED7H   LINE      ECODE    ---       #403
      00FD5ED9H   LINE      ECODE    ---       #405
      00FD5EF7H   LINE      ECODE    ---       #406
      00FD5F11H   LINE      ECODE    ---       #407
      00FD5F11H   LINE      ECODE    ---       #410
      00FD5F15H   LINE      ECODE    ---       #411
      ---         BLOCKEND  ---      ---       LVL=0

      00FD5F16H   BLOCK     ECODE    ---       LVL=0
      00011636H   SYMBOL    XDATA    ---       wifi_ssid
      0001163AH   SYMBOL    XDATA    ---       pass_word
      00FD5F2AH   BLOCK     ECODE    NEAR LAB  LVL=1
      0001163EH   SYMBOL    XDATA    BYTE      return_state
      0001163FH   SYMBOL    XDATA    ---       temp_buffer
      0001167FH   SYMBOL    XDATA    WORD      length
      ---         BLOCKEND  ---      ---       LVL=1
      00FD5F16H   LINE      ECODE    ---       #421
      00FD5F2AH   LINE      ECODE    ---       #422
      00FD5F2AH   LINE      ECODE    ---       #427
      00FD5F38H   LINE      ECODE    ---       #430
      00FD5F7AH   LINE      ECODE    ---       #431
      00FD5F7CH   LINE      ECODE    ---       #435
      00FD5FAAH   LINE      ECODE    ---       #436
      00FD5FAAH   LINE      ECODE    ---       #438
      00FD5FD1H   LINE      ECODE    ---       #441
      00FD5FD4H   LINE      ECODE    ---       #443
      00FD5FD8H   LINE      ECODE    ---       #444
      ---         BLOCKEND  ---      ---       LVL=0

      00FD5FD9H   BLOCK     ECODE    ---       LVL=0
      00011849H   SYMBOL    XDATA    ---       transport_type
      0001184DH   SYMBOL    XDATA    ---       ip_addr
      00011851H   SYMBOL    XDATA    ---       port
      00011855H   SYMBOL    XDATA    ---       local_port
      00FD5FEDH   BLOCK     ECODE    NEAR LAB  LVL=1
      00011859H   SYMBOL    XDATA    BYTE      return_state
      0001185AH   SYMBOL    XDATA    ---       temp_buffer
      00011883H   SYMBOL    XDATA    WORD      length
      ---         BLOCKEND  ---      ---       LVL=1
      00FD5FD9H   LINE      ECODE    ---       #456
      00FD5FEDH   LINE      ECODE    ---       #457
      00FD5FEDH   LINE      ECODE    ---       #462
      00FD6057H   LINE      ECODE    ---       #464
      00FD607EH   LINE      ECODE    ---       #467
      00FD6081H   LINE      ECODE    ---       #469
      00FD6085H   LINE      ECODE    ---       #470
      ---         BLOCKEND  ---      ---       LVL=0

      00FD6086H   BLOCK     ECODE    ---       LVL=0
      00011C94H   SYMBOL    XDATA    ---       temp_packets
      00FD6086H   LINE      ECODE    ---       #479
      00FD6086H   LINE      ECODE    ---       #480
      00FD6086H   LINE      ECODE    ---       #483
      00FD60A3H   LINE      ECODE    ---       #484
      ---         BLOCKEND  ---      ---       LVL=0

      00FD60A4H   BLOCK     ECODE    ---       LVL=0
      000128C5H   SYMBOL    XDATA    BYTE      return_state
L251 LINKER/LOCATER V4.66.93.0                                                        03/25/2026  13:05:55  PAGE 177


      000128C6H   SYMBOL    XDATA    ---       head
      00FD60A4H   LINE      ECODE    ---       #493
      00FD60A4H   LINE      ECODE    ---       #494
      00FD60A4H   LINE      ECODE    ---       #497
      00FD60AAH   LINE      ECODE    ---       #498
      00FD60AAH   LINE      ECODE    ---       #500
      00FD60B0H   LINE      ECODE    ---       #501
      00FD60BAH   LINE      ECODE    ---       #502
      00FD60C5H   LINE      ECODE    ---       #503
      00FD60CEH   LINE      ECODE    ---       #505
      00FD60CEH   LINE      ECODE    ---       #506
      00FD60CEH   LINE      ECODE    ---       #507
      00FD60EBH   LINE      ECODE    ---       #508
      00FD60EBH   LINE      ECODE    ---       #510
      00FD60EFH   LINE      ECODE    ---       #511
      ---         BLOCKEND  ---      ---       LVL=0

      00FD60F0H   BLOCK     ECODE    ---       LVL=0
      00011C6FH   SYMBOL    XDATA    BYTE      return_state
      00011C70H   SYMBOL    XDATA    ---       temp_packets
      00FD60F0H   LINE      ECODE    ---       #520
      00FD60F0H   LINE      ECODE    ---       #521
      00FD60F0H   LINE      ECODE    ---       #522
      00FD60F6H   LINE      ECODE    ---       #525
      00FD6105H   LINE      ECODE    ---       #528
      00FD610FH   LINE      ECODE    ---       #529
      00FD610FH   LINE      ECODE    ---       #531
      00FD611EH   LINE      ECODE    ---       #533
      00FD611EH   LINE      ECODE    ---       #534
      00FD611EH   LINE      ECODE    ---       #537
      00FD6124H   LINE      ECODE    ---       #538
      00FD612CH   LINE      ECODE    ---       #539
      00FD613BH   LINE      ECODE    ---       #542
      00FD614DH   LINE      ECODE    ---       #545
      00FD6159H   LINE      ECODE    ---       #547
      00FD617FH   LINE      ECODE    ---       #548
      00FD617FH   LINE      ECODE    ---       #552
      00FD618BH   LINE      ECODE    ---       #554
      00FD618BH   LINE      ECODE    ---       #555
      00FD618BH   LINE      ECODE    ---       #558
      00FD6191H   LINE      ECODE    ---       #559
      00FD6199H   LINE      ECODE    ---       #560
      00FD61AAH   LINE      ECODE    ---       #562
      00FD61B3H   LINE      ECODE    ---       #564
      00FD61B8H   LINE      ECODE    ---       #565
      00FD61B8H   LINE      ECODE    ---       #570
      00FD61C0H   LINE      ECODE    ---       #571
      00FD61C0H   LINE      ECODE    ---       #573
      00FD61C4H   LINE      ECODE    ---       #574
      ---         BLOCKEND  ---      ---       LVL=0

      00FD61C5H   BLOCK     ECODE    ---       LVL=0
      000119EAH   SYMBOL    XDATA    ---       buffer
      000119EEH   SYMBOL    XDATA    DWORD     length
      00FD61D9H   BLOCK     ECODE    NEAR LAB  LVL=1
      000119F2H   SYMBOL    XDATA    WORD      send_length
      000119F4H   SYMBOL    XDATA    ---       temp_packets
      ---         BLOCKEND  ---      ---       LVL=1
      00FD61C5H   LINE      ECODE    ---       #584
      00FD61D9H   LINE      ECODE    ---       #585
      00FD61D9H   LINE      ECODE    ---       #590
      00FD61E8H   LINE      ECODE    ---       #593
      00FD61F2H   LINE      ECODE    ---       #595
      00FD61F5H   LINE      ECODE    ---       #597
      00FD621BH   LINE      ECODE    ---       #599
L251 LINKER/LOCATER V4.66.93.0                                                        03/25/2026  13:05:55  PAGE 178


      00FD622AH   LINE      ECODE    ---       #601
      00FD622AH   LINE      ECODE    ---       #602
      00FD622AH   LINE      ECODE    ---       #604
      00FD624BH   LINE      ECODE    ---       #607
      00FD625DH   LINE      ECODE    ---       #610
      00FD6269H   LINE      ECODE    ---       #612
      00FD628FH   LINE      ECODE    ---       #613
      00FD628FH   LINE      ECODE    ---       #616
      00FD62AAH   LINE      ECODE    ---       #617
      00FD62C3H   LINE      ECODE    ---       #618
      00FD62D4H   LINE      ECODE    ---       #621
      00FD62D6H   LINE      ECODE    ---       #623
      00FD62E2H   LINE      ECODE    ---       #625
      00FD62E2H   LINE      ECODE    ---       #626
      00FD62E2H   LINE      ECODE    ---       #629
      00FD62E8H   LINE      ECODE    ---       #630
      00FD62F0H   LINE      ECODE    ---       #631
      00FD62FFH   LINE      ECODE    ---       #633
      00FD6311H   LINE      ECODE    ---       #636
      00FD631DH   LINE      ECODE    ---       #638
      00FD6343H   LINE      ECODE    ---       #639
      00FD6343H   LINE      ECODE    ---       #641
      00FD634CH   LINE      ECODE    ---       #642
      00FD6354H   LINE      ECODE    ---       #643
      00FD6354H   LINE      ECODE    ---       #644
      00FD635EH   LINE      ECODE    ---       #645
      ---         BLOCKEND  ---      ---       LVL=0

      00FD635FH   BLOCK     ECODE    ---       LVL=0
      00012961H   SYMBOL    XDATA    ---       string
      00FD635FH   LINE      ECODE    ---       #654
      00FD6369H   LINE      ECODE    ---       #656
      00FD6387H   LINE      ECODE    ---       #657
      ---         BLOCKEND  ---      ---       LVL=0

      00FD6388H   BLOCK     ECODE    ---       LVL=0
      00011959H   SYMBOL    XDATA    ---       buffer
      0001195DH   SYMBOL    XDATA    DWORD     length
      00FD639CH   BLOCK     ECODE    NEAR LAB  LVL=1
      00011961H   SYMBOL    XDATA    DWORD     fifo_read_length
      00011965H   SYMBOL    XDATA    DWORD     write_length
      00011969H   SYMBOL    XDATA    ---       temp_packets
      ---         BLOCKEND  ---      ---       LVL=1
      00FD6388H   LINE      ECODE    ---       #667
      00FD639CH   LINE      ECODE    ---       #668
      00FD639CH   LINE      ECODE    ---       #670
      00FD63A8H   LINE      ECODE    ---       #673
      00FD63CBH   LINE      ECODE    ---       #676
      00FD63DEH   LINE      ECODE    ---       #678
      00FD63F4H   LINE      ECODE    ---       #679
      00FD642CH   LINE      ECODE    ---       #680
      00FD645CH   LINE      ECODE    ---       #682
      00FD647BH   LINE      ECODE    ---       #683
      00FD6498H   LINE      ECODE    ---       #684
      00FD64B5H   LINE      ECODE    ---       #685
      00FD64B5H   LINE      ECODE    ---       #688
      00FD64C4H   LINE      ECODE    ---       #690
      00FD64CEH   LINE      ECODE    ---       #692
      00FD64CEH   LINE      ECODE    ---       #694
      00FD64F3H   LINE      ECODE    ---       #698
      00FD64F3H   LINE      ECODE    ---       #699
      00FD64F3H   LINE      ECODE    ---       #701
      00FD64F9H   LINE      ECODE    ---       #702
      00FD6501H   LINE      ECODE    ---       #703
      00FD6510H   LINE      ECODE    ---       #705
L251 LINKER/LOCATER V4.66.93.0                                                        03/25/2026  13:05:55  PAGE 179


      00FD6534H   LINE      ECODE    ---       #709
      00FD6545H   LINE      ECODE    ---       #711
      00FD6579H   LINE      ECODE    ---       #712
      00FD659DH   LINE      ECODE    ---       #713
      00FD65BCH   LINE      ECODE    ---       #714
      00FD65D9H   LINE      ECODE    ---       #715
      00FD65F6H   LINE      ECODE    ---       #716
      00FD660CH   LINE      ECODE    ---       #718
      00FD664CH   LINE      ECODE    ---       #719
      00FD664EH   LINE      ECODE    ---       #723
      00FD6674H   LINE      ECODE    ---       #724
      00FD6674H   LINE      ECODE    ---       #725
      00FD6680H   LINE      ECODE    ---       #727
      00FD6688H   LINE      ECODE    ---       #728
      00FD6688H   LINE      ECODE    ---       #731
      00FD6692H   LINE      ECODE    ---       #732
      ---         BLOCKEND  ---      ---       LVL=0

      00FD6693H   BLOCK     ECODE    ---       LVL=0
      00012665H   SYMBOL    XDATA    ---       wifi_ssid
      00012669H   SYMBOL    XDATA    ---       pass_word
      00FD66A7H   BLOCK     ECODE    NEAR LAB  LVL=1
      0001266DH   SYMBOL    XDATA    BYTE      return_state
      ---         BLOCKEND  ---      ---       LVL=1
      00FD6693H   LINE      ECODE    ---       #742
      00FD66A7H   LINE      ECODE    ---       #743
      00FD66A7H   LINE      ECODE    ---       #744
      00FD66ACH   LINE      ECODE    ---       #747
      00FD66DAH   LINE      ECODE    ---       #748
      00FD6716H   LINE      ECODE    ---       #750
      00FD6728H   LINE      ECODE    ---       #751
      00FD673AH   LINE      ECODE    ---       #752
      00FD6749H   LINE      ECODE    ---       #755
      00FD6752H   LINE      ECODE    ---       #756
      00FD6770H   LINE      ECODE    ---       #757
      00FD677AH   LINE      ECODE    ---       #760
      00FD6798H   LINE      ECODE    ---       #761
      00FD67A0H   LINE      ECODE    ---       #763
      00FD67A0H   LINE      ECODE    ---       #766
      00FD67A7H   LINE      ECODE    ---       #767
      00FD67B0H   LINE      ECODE    ---       #769
      00FD67B0H   LINE      ECODE    ---       #770
      00FD67B0H   LINE      ECODE    ---       #773
      00FD67B3H   LINE      ECODE    ---       #775
      00FD67C1H   LINE      ECODE    ---       #778
      00FD67C1H   LINE      ECODE    ---       #779
      00FD67C1H   LINE      ECODE    ---       #780
      00FD67DDH   LINE      ECODE    ---       #781
      00FD67DDH   LINE      ECODE    ---       #783
      00FD67DDH   LINE      ECODE    ---       #784
      00FD67DDH   LINE      ECODE    ---       #803
      00FD67E1H   LINE      ECODE    ---       #804
      ---         BLOCKEND  ---      ---       LVL=0

      ---         MODULE    ---      ---       zf_device_wireless_uart
      00FE072BH   PUBLIC    ECODE    ---       wireless_uart_send_buffer?
      00FE084DH   PUBLIC    ECODE    ---       wireless_uart_send_string?
      00FE0933H   PUBLIC    ECODE    ---       wireless_uart_callback?
      00FE095AH   PUBLIC    ECODE    ---       wireless_uart_init?
      00FE06ADH   PUBLIC    ECODE    ---       wireless_uart_send_byte?
      00FE08ADH   PUBLIC    ECODE    ---       wireless_uart_read_buffer?
      000000D0H   SFRSYM    DATA     BYTE      PSW
      0000009DH   SFRSYM    DATA     BYTE      IRCBAND
      00000097H   SFRSYM    DATA     BYTE      AUXR2
      000000EAH   SFRSYM    DATA     BYTE      CKCON
L251 LINKER/LOCATER V4.66.93.0                                                        03/25/2026  13:05:55  PAGE 180


      000000EFH   SFRSYM    DATA     BYTE      AUXINTIF
      000000FDH   SFRSYM    DATA     BYTE      S4CON
      000000ACH   SFRSYM    DATA     BYTE      S3CON
      0000009AH   SFRSYM    DATA     BYTE      S2CON
      000000B7H   SFRSYM    DATA     BYTE      IPH
      000000CDH   SFRSYM    DATA     BYTE      SPSTAT
      000000DDH   SFRSYM    DATA     BYTE      T4T3M
      000000C1H   SFRSYM    DATA     BYTE      WDT_CONTR
      000000DFH   SFRSYM    DATA     BYTE      IP3
      000000F4H   SFRSYM    DATA     BYTE      USBCON
      000000B5H   SFRSYM    DATA     BYTE      IP2
      000000FFH   SFRSYM    DATA     BYTE      RSTCFG
      000000E0H   SFRSYM    DATA     BYTE      ACC
      000000C7H   SFRSYM    DATA     BYTE      IAP_CONTR
      000000F9H   SFRSYM    DATA     BYTE      LINICR
      0000008EH   SFRSYM    DATA     BYTE      AUXR
      000000F0H   SFRSYM    DATA     BYTE      B
      000000AFH   SFRSYM    DATA     BYTE      IE2
      00000088H   SFRSYM    DATA     BYTE      TCON
      00000089H   SFRSYM    DATA     BYTE      TMOD
      00000098H   SFRSYM    DATA     BYTE      SCON
      00000087H   SFRSYM    DATA     BYTE      PCON
      000000BCH   SFRSYM    DATA     BYTE      ADC_CONTR
      000000D1H   SFRSYM    DATA     BYTE      PSW1
      000000E7H   SFRSYM    DATA     BYTE      CMPCR2
      000000E6H   SFRSYM    DATA     BYTE      CMPCR1
      000000DEH   SFRSYM    DATA     BYTE      ADCCFG
      000000B8H   SFRSYM    DATA     BYTE      IP
      0000008FH   SFRSYM    DATA     BYTE      INTCLKO
      000000EEH   SFRSYM    DATA     BYTE      IP3H
      000000B6H   SFRSYM    DATA     BYTE      IP2H
      000000BFH   SFRSYM    DATA     BYTE      P_SW4
      000000A8H   SFRSYM    DATA     BYTE      IE
      000000BBH   SFRSYM    DATA     BYTE      P_SW3
      000000BAH   SFRSYM    DATA     BYTE      P_SW2
      000000A2H   SFRSYM    DATA     BYTE      P_SW1
      000000CEH   SFRSYM    DATA     BYTE      SPCTL
      000000F8H   SFRSYM    DATA     BYTE      P7
      000000E8H   SFRSYM    DATA     BYTE      P6
      000000C8H   SFRSYM    DATA     BYTE      P5
      000000C0H   SFRSYM    DATA     BYTE      P4
      000000ABH   SFRSYM    DATA     BYTE      WKTCH
      000000B0H   SFRSYM    DATA     BYTE      P3
      000000A0H   SFRSYM    DATA     BYTE      P2
      00000090H   SFRSYM    DATA     BYTE      P1
      00000080H   SFRSYM    DATA     BYTE      P0
      00011455H   SYMBOL    XDATA    ---       wireless_uart_fifo
      0001146CH   SYMBOL    XDATA    ---       wireless_uart_buffer

      00FE06ADH   BLOCK     ECODE    ---       LVL=0
      000129C4H   SYMBOL    XDATA    BYTE      dat
      00FE06B1H   BLOCK     ECODE    NEAR LAB  LVL=1
      000129C5H   SYMBOL    XDATA    WORD      time_cnt
      ---         BLOCKEND  ---      ---       LVL=1
      00FE06ADH   LINE      ECODE    ---       #77
      00FE06B1H   LINE      ECODE    ---       #78
      00FE06B1H   LINE      ECODE    ---       #79
      00FE06BBH   LINE      ECODE    ---       #81
      00FE06BDH   LINE      ECODE    ---       #83
      00FE06D3H   LINE      ECODE    ---       #84
      00FE06E2H   LINE      ECODE    ---       #85
      00FE06FEH   LINE      ECODE    ---       #87
      00FE070AH   LINE      ECODE    ---       #89
      00FE0716H   LINE      ECODE    ---       #90
      00FE0716H   LINE      ECODE    ---       #92
L251 LINKER/LOCATER V4.66.93.0                                                        03/25/2026  13:05:55  PAGE 181


      00FE072AH   LINE      ECODE    ---       #93
      ---         BLOCKEND  ---      ---       LVL=0

      00FE072BH   BLOCK     ECODE    ---       LVL=0
      00012445H   SYMBOL    XDATA    ---       buff
      00012449H   SYMBOL    XDATA    DWORD     len
      00FE073FH   BLOCK     ECODE    NEAR LAB  LVL=1
      0001244DH   SYMBOL    XDATA    WORD      time_cnt
      0001244FH   SYMBOL    XDATA    WORD      send_len
      ---         BLOCKEND  ---      ---       LVL=1
      00FE072BH   LINE      ECODE    ---       #103
      00FE073FH   LINE      ECODE    ---       #104
      00FE073FH   LINE      ECODE    ---       #108
      00FE0747H   LINE      ECODE    ---       #109
      00FE074FH   LINE      ECODE    ---       #110
      00FE0772H   LINE      ECODE    ---       #112
      00FE0775H   LINE      ECODE    ---       #114
      00FE0782H   LINE      ECODE    ---       #116
      00FE07A8H   LINE      ECODE    ---       #117
      00FE07C0H   LINE      ECODE    ---       #118
      00FE07D9H   LINE      ECODE    ---       #119
      00FE07F4H   LINE      ECODE    ---       #120
      00FE07FCH   LINE      ECODE    ---       #121
      00FE07FEH   LINE      ECODE    ---       #124
      00FE0814H   LINE      ECODE    ---       #125
      00FE0823H   LINE      ECODE    ---       #126
      00FE0823H   LINE      ECODE    ---       #127
      00FE0842H   LINE      ECODE    ---       #129
      00FE084CH   LINE      ECODE    ---       #130
      ---         BLOCKEND  ---      ---       LVL=0

      00FE084DH   BLOCK     ECODE    ---       LVL=0
      0001275CH   SYMBOL    XDATA    ---       str
      00FE0857H   BLOCK     ECODE    NEAR LAB  LVL=1
      00012760H   SYMBOL    XDATA    DWORD     len
      ---         BLOCKEND  ---      ---       LVL=1
      00FE084DH   LINE      ECODE    ---       #139
      00FE0857H   LINE      ECODE    ---       #140
      00FE0857H   LINE      ECODE    ---       #141
      00FE0871H   LINE      ECODE    ---       #142
      00FE0894H   LINE      ECODE    ---       #144
      00FE08ACH   LINE      ECODE    ---       #145
      ---         BLOCKEND  ---      ---       LVL=0

      00FE08ADH   BLOCK     ECODE    ---       LVL=0
      00012451H   SYMBOL    XDATA    ---       buff
      00012455H   SYMBOL    XDATA    DWORD     len
      00FE08C1H   BLOCK     ECODE    NEAR LAB  LVL=1
      00012459H   SYMBOL    XDATA    DWORD     data_len
      ---         BLOCKEND  ---      ---       LVL=1
      00FE08ADH   LINE      ECODE    ---       #156
      00FE08C1H   LINE      ECODE    ---       #157
      00FE08C1H   LINE      ECODE    ---       #158
      00FE08D5H   LINE      ECODE    ---       #159
      00FE08F8H   LINE      ECODE    ---       #160
      00FE0928H   LINE      ECODE    ---       #161
      00FE0932H   LINE      ECODE    ---       #162
      ---         BLOCKEND  ---      ---       LVL=0

      00FE0933H   BLOCK     ECODE    ---       LVL=0
      00012A0CH   SYMBOL    XDATA    BYTE      uart_dat
      00FE0933H   LINE      ECODE    ---       #173
      00FE0937H   LINE      ECODE    ---       #176
      00FE0959H   LINE      ECODE    ---       #187
      ---         BLOCKEND  ---      ---       LVL=0
L251 LINKER/LOCATER V4.66.93.0                                                        03/25/2026  13:05:55  PAGE 182



      00FE095AH   BLOCK     ECODE    ---       LVL=0
      00012A0DH   SYMBOL    XDATA    BYTE      return_state
      00FE095AH   LINE      ECODE    ---       #196
      00FE095AH   LINE      ECODE    ---       #197
      00FE095AH   LINE      ECODE    ---       #198
      00FE095FH   LINE      ECODE    ---       #201
      00FE098DH   LINE      ECODE    ---       #202
      00FE099DH   LINE      ECODE    ---       #205
      00FE09BBH   LINE      ECODE    ---       #206
      00FE09CDH   LINE      ECODE    ---       #259
      00FE09D1H   LINE      ECODE    ---       #260
      ---         BLOCKEND  ---      ---       LVL=0

      ---         MODULE    ---      ---       zf_device_dl1a
      00FD501CH   PUBLIC    ECODE    ---       dl1a_get_distance?
      00FD50F4H   PUBLIC    ECODE    ---       dl1a_int_handler?
      00FD50F5H   PUBLIC    ECODE    ---       dl1a_init?
      00012338H   PUBLIC    XDATA    WORD      dl1a_distance_mm
      0001233AH   PUBLIC    XDATA    BYTE      dl1a_finsh_flag
      000000D0H   SFRSYM    DATA     BYTE      PSW
      0000009DH   SFRSYM    DATA     BYTE      IRCBAND
      00000097H   SFRSYM    DATA     BYTE      AUXR2
      000000EAH   SFRSYM    DATA     BYTE      CKCON
      000000EFH   SFRSYM    DATA     BYTE      AUXINTIF
      000000FDH   SFRSYM    DATA     BYTE      S4CON
      000000ACH   SFRSYM    DATA     BYTE      S3CON
      0000009AH   SFRSYM    DATA     BYTE      S2CON
      000000B7H   SFRSYM    DATA     BYTE      IPH
      000000CDH   SFRSYM    DATA     BYTE      SPSTAT
      000000DDH   SFRSYM    DATA     BYTE      T4T3M
      000000C1H   SFRSYM    DATA     BYTE      WDT_CONTR
      000000DFH   SFRSYM    DATA     BYTE      IP3
      000000F4H   SFRSYM    DATA     BYTE      USBCON
      000000B5H   SFRSYM    DATA     BYTE      IP2
      000000FFH   SFRSYM    DATA     BYTE      RSTCFG
      000000E0H   SFRSYM    DATA     BYTE      ACC
      000000C7H   SFRSYM    DATA     BYTE      IAP_CONTR
      000000F9H   SFRSYM    DATA     BYTE      LINICR
      0000008EH   SFRSYM    DATA     BYTE      AUXR
      000000F0H   SFRSYM    DATA     BYTE      B
      000000AFH   SFRSYM    DATA     BYTE      IE2
      00000088H   SFRSYM    DATA     BYTE      TCON
      00000089H   SFRSYM    DATA     BYTE      TMOD
      00000098H   SFRSYM    DATA     BYTE      SCON
      00000087H   SFRSYM    DATA     BYTE      PCON
      000000BCH   SFRSYM    DATA     BYTE      ADC_CONTR
      000000D1H   SFRSYM    DATA     BYTE      PSW1
      000000E7H   SFRSYM    DATA     BYTE      CMPCR2
      000000E6H   SFRSYM    DATA     BYTE      CMPCR1
      000000DEH   SFRSYM    DATA     BYTE      ADCCFG
      000000B8H   SFRSYM    DATA     BYTE      IP
      0000008FH   SFRSYM    DATA     BYTE      INTCLKO
      000000EEH   SFRSYM    DATA     BYTE      IP3H
      000000B6H   SFRSYM    DATA     BYTE      IP2H
      000000BFH   SFRSYM    DATA     BYTE      P_SW4
      000000A8H   SFRSYM    DATA     BYTE      IE
      000000BBH   SFRSYM    DATA     BYTE      P_SW3
      000000BAH   SFRSYM    DATA     BYTE      P_SW2
      000000A2H   SFRSYM    DATA     BYTE      P_SW1
      000000CEH   SFRSYM    DATA     BYTE      SPCTL
      000000F8H   SFRSYM    DATA     BYTE      P7
      000000E8H   SFRSYM    DATA     BYTE      P6
      000000C8H   SFRSYM    DATA     BYTE      P5
      000000C0H   SFRSYM    DATA     BYTE      P4
L251 LINKER/LOCATER V4.66.93.0                                                        03/25/2026  13:05:55  PAGE 183


      000000ABH   SFRSYM    DATA     BYTE      WKTCH
      000000B0H   SFRSYM    DATA     BYTE      P3
      000000A0H   SFRSYM    DATA     BYTE      P2
      00000090H   SFRSYM    DATA     BYTE      P1
      00000080H   SFRSYM    DATA     BYTE      P0
      00FD469EH   SYMBOL    ECODE    ---       dl1a_timeout_microseconds_to_mclks
      00FD4630H   SYMBOL    ECODE    ---       dl1a_timeout_mclks_to_microseconds
      00FD4F64H   SYMBOL    ECODE    ---       dl1a_set_signal_rate_limit
      00FD4712H   SYMBOL    ECODE    ---       dl1a_decode_timeout
      00FD43B2H   SYMBOL    ECODE    ---       dl1a_get_spad_info
      00FD4742H   SYMBOL    ECODE    ---       dl1a_encode_timeout
      00FD47C7H   SYMBOL    ECODE    ---       dl1a_get_sequence_step_enables
      00FD4B50H   SYMBOL    ECODE    ---       dl1a_perform_single_ref_calibration
      00FD4933H   SYMBOL    ECODE    ---       dl1a_get_sequence_step_timeouts
      00FD4E4BH   SYMBOL    ECODE    ---       dl1a_get_measurement_timing_budget
      00FD4C3AH   SYMBOL    ECODE    ---       dl1a_set_measurement_timing_budget
      00FD4893H   SYMBOL    ECODE    ---       dl1a_get_vcsel_pulse_period
      0001232FH   SYMBOL    XDATA    ---       dl1a_iic_struct
      0001233BH   SYMBOL    XDATA    BYTE      dl1a_init_flag

      00FD43B2H   BLOCK     ECODE    ---       LVL=0
      0001245DH   SYMBOL    XDATA    ---       index
      00012461H   SYMBOL    XDATA    ---       type_is_aperture
      00FD43C6H   BLOCK     ECODE    NEAR LAB  LVL=1
      00012465H   SYMBOL    XDATA    BYTE      tmp
      00012466H   SYMBOL    XDATA    BYTE      return_state
      00012467H   SYMBOL    XDATA    WORD      loop_count
      ---         BLOCKEND  ---      ---       LVL=1
      00FD43B2H   LINE      ECODE    ---       #96
      00FD43C6H   LINE      ECODE    ---       #97
      00FD43C6H   LINE      ECODE    ---       #98
      00FD43CBH   LINE      ECODE    ---       #99
      00FD43D0H   LINE      ECODE    ---       #100
      00FD43D8H   LINE      ECODE    ---       #102
      00FD43D8H   LINE      ECODE    ---       #104
      00FD43E9H   LINE      ECODE    ---       #105
      00FD43FAH   LINE      ECODE    ---       #106
      00FD4409H   LINE      ECODE    ---       #108
      00FD441AH   LINE      ECODE    ---       #109
      00FD443EH   LINE      ECODE    ---       #110
      00FD4457H   LINE      ECODE    ---       #111
      00FD4468H   LINE      ECODE    ---       #112
      00FD4479H   LINE      ECODE    ---       #114
      00FD448AH   LINE      ECODE    ---       #116
      00FD449BH   LINE      ECODE    ---       #117
      00FD44ABH   LINE      ECODE    ---       #119
      00FD44B0H   LINE      ECODE    ---       #121
      00FD44B2H   LINE      ECODE    ---       #123
      00FD44C8H   LINE      ECODE    ---       #124
      00FD44ECH   LINE      ECODE    ---       #126
      00FD4503H   LINE      ECODE    ---       #128
      00FD4509H   LINE      ECODE    ---       #129
      00FD450BH   LINE      ECODE    ---       #130
      00FD451DH   LINE      ECODE    ---       #134
      00FD4529H   LINE      ECODE    ---       #136
      00FD4529H   LINE      ECODE    ---       #137
      00FD4529H   LINE      ECODE    ---       #139
      00FD453AH   LINE      ECODE    ---       #140
      00FD455EH   LINE      ECODE    ---       #142
      00FD4575H   LINE      ECODE    ---       #143
      00FD4591H   LINE      ECODE    ---       #145
      00FD45A1H   LINE      ECODE    ---       #146
      00FD45B2H   LINE      ECODE    ---       #147
      00FD45D6H   LINE      ECODE    ---       #148
      00FD45EAH   LINE      ECODE    ---       #149
L251 LINKER/LOCATER V4.66.93.0                                                        03/25/2026  13:05:55  PAGE 184


      00FD45FBH   LINE      ECODE    ---       #150
      00FD460BH   LINE      ECODE    ---       #152
      00FD461BH   LINE      ECODE    ---       #153
      00FD462BH   LINE      ECODE    ---       #154
      00FD462BH   LINE      ECODE    ---       #157
      00FD462FH   LINE      ECODE    ---       #158
      ---         BLOCKEND  ---      ---       LVL=0

      00FD4630H   BLOCK     ECODE    ---       LVL=0
      0001279EH   SYMBOL    XDATA    WORD      timeout_period_mclks
      000127A0H   SYMBOL    XDATA    BYTE      vcsel_period_pclks
      00FD463AH   BLOCK     ECODE    NEAR LAB  LVL=1
      000127A1H   SYMBOL    XDATA    DWORD     macro_period_ns
      ---         BLOCKEND  ---      ---       LVL=1
      00FD4630H   LINE      ECODE    ---       #168
      00FD463AH   LINE      ECODE    ---       #169
      00FD463AH   LINE      ECODE    ---       #170
      00FD466AH   LINE      ECODE    ---       #172
      00FD469DH   LINE      ECODE    ---       #173
      ---         BLOCKEND  ---      ---       LVL=0

      00FD469EH   BLOCK     ECODE    ---       LVL=0
      0001266EH   SYMBOL    XDATA    DWORD     timeout_period_us
      00012672H   SYMBOL    XDATA    BYTE      vcsel_period_pclks
      00FD46ACH   BLOCK     ECODE    NEAR LAB  LVL=1
      00012673H   SYMBOL    XDATA    DWORD     macro_period_ns
      ---         BLOCKEND  ---      ---       LVL=1
      00FD469EH   LINE      ECODE    ---       #183
      00FD46ACH   LINE      ECODE    ---       #184
      00FD46ACH   LINE      ECODE    ---       #185
      00FD46DCH   LINE      ECODE    ---       #187
      00FD4711H   LINE      ECODE    ---       #188
      ---         BLOCKEND  ---      ---       LVL=0

      00FD4712H   BLOCK     ECODE    ---       LVL=0
      000129E8H   SYMBOL    XDATA    WORD      reg_val
      00FD4712H   LINE      ECODE    ---       #197
      00FD4718H   LINE      ECODE    ---       #200
      00FD4741H   LINE      ECODE    ---       #202
      ---         BLOCKEND  ---      ---       LVL=0

      00FD4742H   BLOCK     ECODE    ---       LVL=0
      000129EAH   SYMBOL    XDATA    WORD      timeout_mclks
      00FD4748H   BLOCK     ECODE    NEAR LAB  LVL=1
      00000008H   SYMBOL    EDATA    DWORD     ls_byte
      0000000CH   SYMBOL    EDATA    WORD      ms_byte
      0000000EH   SYMBOL    EDATA    WORD      return_data
      ---         BLOCKEND  ---      ---       LVL=1
      00FD4742H   LINE      ECODE    ---       #211
      00FD4748H   LINE      ECODE    ---       #212
      00FD4748H   LINE      ECODE    ---       #213
      00FD474EH   LINE      ECODE    ---       #214
      00FD4754H   LINE      ECODE    ---       #215
      00FD475AH   LINE      ECODE    ---       #217
      00FD4766H   LINE      ECODE    ---       #220
      00FD4778H   LINE      ECODE    ---       #222
      00FD477AH   LINE      ECODE    ---       #224
      00FD478BH   LINE      ECODE    ---       #225
      00FD4799H   LINE      ECODE    ---       #226
      00FD47AAH   LINE      ECODE    ---       #228
      00FD47C2H   LINE      ECODE    ---       #229
      00FD47C2H   LINE      ECODE    ---       #231
      00FD47C6H   LINE      ECODE    ---       #232
      ---         BLOCKEND  ---      ---       LVL=0

L251 LINKER/LOCATER V4.66.93.0                                                        03/25/2026  13:05:55  PAGE 185


      00FD47C7H   BLOCK     ECODE    ---       LVL=0
      000128CAH   SYMBOL    XDATA    ---       enables
      00FD47D1H   BLOCK     ECODE    NEAR LAB  LVL=1
      000128CEH   SYMBOL    XDATA    BYTE      sequence_config
      ---         BLOCKEND  ---      ---       LVL=1
      00FD47C7H   LINE      ECODE    ---       #241
      00FD47D1H   LINE      ECODE    ---       #242
      00FD47D1H   LINE      ECODE    ---       #243
      00FD47D6H   LINE      ECODE    ---       #244
      00FD47FAH   LINE      ECODE    ---       #246
      00FD4816H   LINE      ECODE    ---       #247
      00FD4835H   LINE      ECODE    ---       #248
      00FD4853H   LINE      ECODE    ---       #249
      00FD4874H   LINE      ECODE    ---       #250
      00FD4892H   LINE      ECODE    ---       #251
      ---         BLOCKEND  ---      ---       LVL=0

      00FD4893H   BLOCK     ECODE    ---       LVL=0
      000129C7H   SYMBOL    XDATA    INT       type
      00FD4899H   BLOCK     ECODE    NEAR LAB  LVL=1
      000129C9H   SYMBOL    XDATA    BYTE      data_buffer
      ---         BLOCKEND  ---      ---       LVL=1
      00FD4893H   LINE      ECODE    ---       #260
      00FD4899H   LINE      ECODE    ---       #261
      00FD4899H   LINE      ECODE    ---       #262
      00FD489EH   LINE      ECODE    ---       #264
      00FD48AAH   LINE      ECODE    ---       #266
      00FD48CEH   LINE      ECODE    ---       #267
      00FD48E0H   LINE      ECODE    ---       #268
      00FD48E2H   LINE      ECODE    ---       #269
      00FD48F0H   LINE      ECODE    ---       #271
      00FD4914H   LINE      ECODE    ---       #272
      00FD4926H   LINE      ECODE    ---       #273
      00FD4928H   LINE      ECODE    ---       #276
      00FD492EH   LINE      ECODE    ---       #277
      00FD492EH   LINE      ECODE    ---       #279
      00FD4932H   LINE      ECODE    ---       #280
      ---         BLOCKEND  ---      ---       LVL=0

      00FD4933H   BLOCK     ECODE    ---       LVL=0
      00012469H   SYMBOL    XDATA    ---       enables
      0001246DH   SYMBOL    XDATA    ---       timeouts
      00FD4947H   BLOCK     ECODE    NEAR LAB  LVL=1
      00012471H   SYMBOL    XDATA    ---       reg_buffer
      00012473H   SYMBOL    XDATA    WORD      reg16_buffer
      ---         BLOCKEND  ---      ---       LVL=1
      00FD4933H   LINE      ECODE    ---       #290
      00FD4947H   LINE      ECODE    ---       #291
      00FD4947H   LINE      ECODE    ---       #293
      00FD494FH   LINE      ECODE    ---       #295
      00FD4963H   LINE      ECODE    ---       #297
      00FD4987H   LINE      ECODE    ---       #298
      00FD49A2H   LINE      ECODE    ---       #299
      00FD49D8H   LINE      ECODE    ---       #301
      00FD49FCH   LINE      ECODE    ---       #302
      00FD4A14H   LINE      ECODE    ---       #303
      00FD4A30H   LINE      ECODE    ---       #304
      00FD4A68H   LINE      ECODE    ---       #306
      00FD4A80H   LINE      ECODE    ---       #308
      00FD4AA4H   LINE      ECODE    ---       #309
      00FD4ABCH   LINE      ECODE    ---       #310
      00FD4AD8H   LINE      ECODE    ---       #312
      00FD4AEEH   LINE      ECODE    ---       #314
      00FD4B15H   LINE      ECODE    ---       #315
      00FD4B15H   LINE      ECODE    ---       #317
L251 LINKER/LOCATER V4.66.93.0                                                        03/25/2026  13:05:55  PAGE 186


      00FD4B4FH   LINE      ECODE    ---       #318
      ---         BLOCKEND  ---      ---       LVL=0

      00FD4B50H   BLOCK     ECODE    ---       LVL=0
      000128CFH   SYMBOL    XDATA    BYTE      vhv_init_byte
      00FD4B54H   BLOCK     ECODE    NEAR LAB  LVL=1
      000128D0H   SYMBOL    XDATA    BYTE      return_state
      000128D1H   SYMBOL    XDATA    BYTE      data_buffer
      000128D2H   SYMBOL    XDATA    WORD      loop_count
      ---         BLOCKEND  ---      ---       LVL=1
      00FD4B50H   LINE      ECODE    ---       #327
      00FD4B54H   LINE      ECODE    ---       #328
      00FD4B54H   LINE      ECODE    ---       #329
      00FD4B59H   LINE      ECODE    ---       #330
      00FD4B5EH   LINE      ECODE    ---       #331
      00FD4B66H   LINE      ECODE    ---       #333
      00FD4B66H   LINE      ECODE    ---       #335
      00FD4B7EH   LINE      ECODE    ---       #336
      00FD4BA2H   LINE      ECODE    ---       #338
      00FD4BA4H   LINE      ECODE    ---       #340
      00FD4BBAH   LINE      ECODE    ---       #341
      00FD4BDEH   LINE      ECODE    ---       #343
      00FD4BF5H   LINE      ECODE    ---       #345
      00FD4BFBH   LINE      ECODE    ---       #346
      00FD4BFDH   LINE      ECODE    ---       #347
      00FD4C0CH   LINE      ECODE    ---       #350
      00FD4C15H   LINE      ECODE    ---       #352
      00FD4C15H   LINE      ECODE    ---       #353
      00FD4C15H   LINE      ECODE    ---       #355
      00FD4C26H   LINE      ECODE    ---       #356
      00FD4C35H   LINE      ECODE    ---       #357
      00FD4C35H   LINE      ECODE    ---       #360
      00FD4C39H   LINE      ECODE    ---       #361
      ---         BLOCKEND  ---      ---       LVL=0

      00FD4C3AH   BLOCK     ECODE    ---       LVL=0
      0001198DH   SYMBOL    XDATA    DWORD     budget_us
      00FD4C44H   BLOCK     ECODE    NEAR LAB  LVL=1
      00011991H   SYMBOL    XDATA    BYTE      return_state
      00011992H   SYMBOL    XDATA    ---       data_buffer
      00011995H   SYMBOL    XDATA    WORD      dat
      00011997H   SYMBOL    XDATA    DWORD     final_range_timeout_us
      0001199BH   SYMBOL    XDATA    WORD      final_range_timeout_mclks
      0001199DH   SYMBOL    XDATA    ---       enables
      000119A2H   SYMBOL    XDATA    ---       timeouts
      00FD4C65H   BLOCK     ECODE    NEAR LAB  LVL=2
      000119B8H   SYMBOL    XDATA    DWORD     used_budget_us
      ---         BLOCKEND  ---      ---       LVL=2
      ---         BLOCKEND  ---      ---       LVL=1
      00FD4C3AH   LINE      ECODE    ---       #374
      00FD4C44H   LINE      ECODE    ---       #375
      00FD4C44H   LINE      ECODE    ---       #376
      00FD4C49H   LINE      ECODE    ---       #378
      00FD4C51H   LINE      ECODE    ---       #380
      00FD4C5DH   LINE      ECODE    ---       #381
      00FD4C65H   LINE      ECODE    ---       #386
      00FD4C65H   LINE      ECODE    ---       #387
      00FD4C65H   LINE      ECODE    ---       #388
      00FD4C73H   LINE      ECODE    ---       #390
      00FD4C83H   LINE      ECODE    ---       #392
      00FD4C89H   LINE      ECODE    ---       #393
      00FD4C8CH   LINE      ECODE    ---       #394
      00FD4C8CH   LINE      ECODE    ---       #396
      00FD4C97H   LINE      ECODE    ---       #397
      00FD4CAAH   LINE      ECODE    ---       #399
L251 LINKER/LOCATER V4.66.93.0                                                        03/25/2026  13:05:55  PAGE 187


      00FD4CB3H   LINE      ECODE    ---       #401
      00FD4CD6H   LINE      ECODE    ---       #402
      00FD4CD6H   LINE      ECODE    ---       #404
      00FD4CDFH   LINE      ECODE    ---       #406
      00FD4D06H   LINE      ECODE    ---       #407
      00FD4D08H   LINE      ECODE    ---       #408
      00FD4D11H   LINE      ECODE    ---       #410
      00FD4D34H   LINE      ECODE    ---       #411
      00FD4D34H   LINE      ECODE    ---       #413
      00FD4D3DH   LINE      ECODE    ---       #415
      00FD4D60H   LINE      ECODE    ---       #416
      00FD4D60H   LINE      ECODE    ---       #418
      00FD4D6CH   LINE      ECODE    ---       #423
      00FD4D83H   LINE      ECODE    ---       #425
      00FD4D9BH   LINE      ECODE    ---       #428
      00FD4DA1H   LINE      ECODE    ---       #429
      00FD4DA4H   LINE      ECODE    ---       #430
      00FD4DA4H   LINE      ECODE    ---       #435
      00FD4DC4H   LINE      ECODE    ---       #436
      00FD4DDDH   LINE      ECODE    ---       #440
      00FD4DE6H   LINE      ECODE    ---       #442
      00FD4DF7H   LINE      ECODE    ---       #443
      00FD4DF7H   LINE      ECODE    ---       #445
      00FD4E06H   LINE      ECODE    ---       #446
      00FD4E0CH   LINE      ECODE    ---       #447
      00FD4E1AH   LINE      ECODE    ---       #448
      00FD4E24H   LINE      ECODE    ---       #449
      00FD4E46H   LINE      ECODE    ---       #450
      00FD4E46H   LINE      ECODE    ---       #454
      00FD4E4AH   LINE      ECODE    ---       #455
      ---         BLOCKEND  ---      ---       LVL=0

      00FD4E4BH   BLOCK     ECODE    ---       LVL=0
      00011D59H   SYMBOL    XDATA    ---       enables
      00011D5EH   SYMBOL    XDATA    ---       timeouts
      00011D74H   SYMBOL    XDATA    DWORD     budget_us
      00FD4E4BH   LINE      ECODE    ---       #464
      00FD4E4BH   LINE      ECODE    ---       #465
      00FD4E4BH   LINE      ECODE    ---       #470
      00FD4E59H   LINE      ECODE    ---       #472
      00FD4E64H   LINE      ECODE    ---       #473
      00FD4E77H   LINE      ECODE    ---       #475
      00FD4E80H   LINE      ECODE    ---       #477
      00FD4EA3H   LINE      ECODE    ---       #478
      00FD4EA3H   LINE      ECODE    ---       #480
      00FD4EACH   LINE      ECODE    ---       #482
      00FD4ED3H   LINE      ECODE    ---       #483
      00FD4ED5H   LINE      ECODE    ---       #484
      00FD4EDEH   LINE      ECODE    ---       #486
      00FD4F01H   LINE      ECODE    ---       #487
      00FD4F01H   LINE      ECODE    ---       #489
      00FD4F0AH   LINE      ECODE    ---       #491
      00FD4F2DH   LINE      ECODE    ---       #492
      00FD4F2DH   LINE      ECODE    ---       #494
      00FD4F36H   LINE      ECODE    ---       #496
      00FD4F59H   LINE      ECODE    ---       #497
      00FD4F59H   LINE      ECODE    ---       #499
      00FD4F63H   LINE      ECODE    ---       #500
      ---         BLOCKEND  ---      ---       LVL=0

      00FD4F64H   BLOCK     ECODE    ---       LVL=0
      00012677H   SYMBOL    XDATA    FLOAT     limit_mcps
      00FD4F6EH   BLOCK     ECODE    NEAR LAB  LVL=1
      0001267BH   SYMBOL    XDATA    ---       data_buffer
      0001267EH   SYMBOL    XDATA    WORD      limit_mcps_16bit
L251 LINKER/LOCATER V4.66.93.0                                                        03/25/2026  13:05:55  PAGE 188


      ---         BLOCKEND  ---      ---       LVL=1
      00FD4F64H   LINE      ECODE    ---       #513
      00FD4F6EH   LINE      ECODE    ---       #514
      00FD4F6EH   LINE      ECODE    ---       #516
      00FD4F8CH   LINE      ECODE    ---       #518
      00FD4FDBH   LINE      ECODE    ---       #520
      00FD4FE1H   LINE      ECODE    ---       #521
      00FD4FEFH   LINE      ECODE    ---       #522
      00FD4FF9H   LINE      ECODE    ---       #524
      00FD501BH   LINE      ECODE    ---       #525
      ---         BLOCKEND  ---      ---       LVL=0

      00FD501CH   BLOCK     ECODE    ---       LVL=0
      00FD5028H   BLOCK     ECODE    NEAR LAB  LVL=1
      000129CAH   SYMBOL    XDATA    ---       reg_databuffer
      ---         BLOCKEND  ---      ---       LVL=1
      00FD501CH   LINE      ECODE    ---       #534
      00FD501CH   LINE      ECODE    ---       #536
      00FD5028H   LINE      ECODE    ---       #537
      00FD5028H   LINE      ECODE    ---       #540
      00FD504CH   LINE      ECODE    ---       #542
      00FD505BH   LINE      ECODE    ---       #545
      00FD507FH   LINE      ECODE    ---       #546
      00FD508FH   LINE      ECODE    ---       #547
      00FD50A0H   LINE      ECODE    ---       #549
      00FD50B1H   LINE      ECODE    ---       #550
      00FD50B7H   LINE      ECODE    ---       #551
      00FD50B7H   LINE      ECODE    ---       #553
      00FD50BEH   LINE      ECODE    ---       #555
      00FD50E2H   LINE      ECODE    ---       #556
      00FD50F3H   LINE      ECODE    ---       #557
      00FD50F3H   LINE      ECODE    ---       #559
      ---         BLOCKEND  ---      ---       LVL=0

      00FD50F4H   BLOCK     ECODE    ---       LVL=0
      00FD50F4H   LINE      ECODE    ---       #568
      00FD50F4H   LINE      ECODE    ---       #573
      ---         BLOCKEND  ---      ---       LVL=0

      00FD50F5H   BLOCK     ECODE    ---       LVL=0
      00011EFAH   SYMBOL    XDATA    DWORD     measurement_timing_budget_us
      00011EFEH   SYMBOL    XDATA    BYTE      stop_variable
      00011EFFH   SYMBOL    XDATA    BYTE      return_state
      00011F00H   SYMBOL    XDATA    BYTE      reg_data_buffer
      00011F01H   SYMBOL    XDATA    ---       ref_spad_map
      00011F07H   SYMBOL    XDATA    ---       data_buffer
      00011F0EH   SYMBOL    XDATA    WORD      i
      00FF00CFH   SYMBOL    CODE     ---       temp_buff1
      00FF00D7H   SYMBOL    CODE     ---       temp_buff2
      00FF00DDH   SYMBOL    CODE     ---       temp_buff3
      00FF00E7H   SYMBOL    CODE     ---       temp_buff4
      00FD50F5H   LINE      ECODE    ---       #580
      00FD50F5H   LINE      ECODE    ---       #581
      00FD50F5H   LINE      ECODE    ---       #583
      00FD50FAH   LINE      ECODE    ---       #584
      00FD50FFH   LINE      ECODE    ---       #585
      00FD5104H   LINE      ECODE    ---       #588
      00FD510CH   LINE      ECODE    ---       #698
      00FD511DH   LINE      ECODE    ---       #699
      00FD512EH   LINE      ECODE    ---       #702
      00FD5154H   LINE      ECODE    ---       #708
      00FD5166H   LINE      ECODE    ---       #711
      00FD5166H   LINE      ECODE    ---       #715
      00FD5184H   LINE      ECODE    ---       #716
      00FD518DH   LINE      ECODE    ---       #717
L251 LINKER/LOCATER V4.66.93.0                                                        03/25/2026  13:05:55  PAGE 189


      00FD51ABH   LINE      ECODE    ---       #718
      00FD51B5H   LINE      ECODE    ---       #719
      00FD51D3H   LINE      ECODE    ---       #723
      00FD51E5H   LINE      ECODE    ---       #724
      00FD51FEH   LINE      ECODE    ---       #726
      00FD5208H   LINE      ECODE    ---       #728
      00FD523EH   LINE      ECODE    ---       #729
      00FD525BH   LINE      ECODE    ---       #736
      00FD527FH   LINE      ECODE    ---       #738
      00FD5289H   LINE      ECODE    ---       #740
      00FD52BFH   LINE      ECODE    ---       #741
      00FD52DCH   LINE      ECODE    ---       #748
      00FD52EEH   LINE      ECODE    ---       #749
      00FD5307H   LINE      ECODE    ---       #751
      00FD5310H   LINE      ECODE    ---       #752
      00FD5321H   LINE      ECODE    ---       #756
      00FD5339H   LINE      ECODE    ---       #758
      00FD533FH   LINE      ECODE    ---       #759
      00FD534BH   LINE      ECODE    ---       #760
      00FD534EH   LINE      ECODE    ---       #761
      00FD534EH   LINE      ECODE    ---       #764
      00FD5372H   LINE      ECODE    ---       #766
      00FD537CH   LINE      ECODE    ---       #768
      00FD53B2H   LINE      ECODE    ---       #769
      00FD53CFH   LINE      ECODE    ---       #777
      00FD53E1H   LINE      ECODE    ---       #779
      00FD53ECH   LINE      ECODE    ---       #781
      00FD540AH   LINE      ECODE    ---       #786
      00FD544AH   LINE      ECODE    ---       #787
      00FD544CH   LINE      ECODE    ---       #788
      00FD5481H   LINE      ECODE    ---       #790
      00FD548CH   LINE      ECODE    ---       #791
      00FD54ACH   LINE      ECODE    ---       #794
      00FD54B2H   LINE      ECODE    ---       #796
      00FD54BEH   LINE      ECODE    ---       #798
      00FD54DBH   LINE      ECODE    ---       #799
      00FD54F8H   LINE      ECODE    ---       #801
      00FD551AH   LINE      ECODE    ---       #803
      00FD5524H   LINE      ECODE    ---       #805
      00FD555AH   LINE      ECODE    ---       #806
      00FD5577H   LINE      ECODE    ---       #891
      00FD5588H   LINE      ECODE    ---       #892
      00FD559AH   LINE      ECODE    ---       #893
      00FD55B3H   LINE      ECODE    ---       #894
      00FD55C4H   LINE      ECODE    ---       #896
      00FD55D1H   LINE      ECODE    ---       #901
      00FD55E2H   LINE      ECODE    ---       #902
      00FD55EFH   LINE      ECODE    ---       #905
      00FD5600H   LINE      ECODE    ---       #907
      00FD560AH   LINE      ECODE    ---       #909
      00FD5610H   LINE      ECODE    ---       #910
      00FD561CH   LINE      ECODE    ---       #911
      00FD561FH   LINE      ECODE    ---       #912
      00FD561FH   LINE      ECODE    ---       #914
      00FD5630H   LINE      ECODE    ---       #916
      00FD5639H   LINE      ECODE    ---       #918
      00FD563FH   LINE      ECODE    ---       #919
      00FD564BH   LINE      ECODE    ---       #920
      00FD564EH   LINE      ECODE    ---       #921
      00FD564EH   LINE      ECODE    ---       #923
      00FD565FH   LINE      ECODE    ---       #925
      00FD567DH   LINE      ECODE    ---       #927
      00FD568EH   LINE      ECODE    ---       #928
      00FD569FH   LINE      ECODE    ---       #929
      00FD56AEH   LINE      ECODE    ---       #930
L251 LINKER/LOCATER V4.66.93.0                                                        03/25/2026  13:05:55  PAGE 190


      00FD56C2H   LINE      ECODE    ---       #931
      00FD56D2H   LINE      ECODE    ---       #932
      00FD56E2H   LINE      ECODE    ---       #933
      00FD56F2H   LINE      ECODE    ---       #935
      00FD5702H   LINE      ECODE    ---       #936
      00FD5708H   LINE      ECODE    ---       #943
      00FD5718H   LINE      ECODE    ---       #944
      00FD5718H   LINE      ECODE    ---       #947
      00FD571CH   LINE      ECODE    ---       #948
      ---         BLOCKEND  ---      ---       LVL=0

      ---         MODULE    ---      ---       zf_device_dl1b
      00FDF698H   PUBLIC    ECODE    ---       dl1b_get_distance?
      00FDF880H   PUBLIC    ECODE    ---       dl1b_int_handler?
      00FDF881H   PUBLIC    ECODE    ---       dl1b_init?
      00012345H   PUBLIC    XDATA    WORD      dl1b_distance_mm
      00012347H   PUBLIC    XDATA    BYTE      dl1b_finsh_flag
      000000D0H   SFRSYM    DATA     BYTE      PSW
      0000009DH   SFRSYM    DATA     BYTE      IRCBAND
      00000097H   SFRSYM    DATA     BYTE      AUXR2
      000000EAH   SFRSYM    DATA     BYTE      CKCON
      000000EFH   SFRSYM    DATA     BYTE      AUXINTIF
      000000FDH   SFRSYM    DATA     BYTE      S4CON
      000000ACH   SFRSYM    DATA     BYTE      S3CON
      0000009AH   SFRSYM    DATA     BYTE      S2CON
      000000B7H   SFRSYM    DATA     BYTE      IPH
      000000CDH   SFRSYM    DATA     BYTE      SPSTAT
      000000DDH   SFRSYM    DATA     BYTE      T4T3M
      000000C1H   SFRSYM    DATA     BYTE      WDT_CONTR
      000000DFH   SFRSYM    DATA     BYTE      IP3
      000000F4H   SFRSYM    DATA     BYTE      USBCON
      000000B5H   SFRSYM    DATA     BYTE      IP2
      000000FFH   SFRSYM    DATA     BYTE      RSTCFG
      000000E0H   SFRSYM    DATA     BYTE      ACC
      000000C7H   SFRSYM    DATA     BYTE      IAP_CONTR
      000000F9H   SFRSYM    DATA     BYTE      LINICR
      0000008EH   SFRSYM    DATA     BYTE      AUXR
      000000F0H   SFRSYM    DATA     BYTE      B
      000000AFH   SFRSYM    DATA     BYTE      IE2
      00000088H   SFRSYM    DATA     BYTE      TCON
      00000089H   SFRSYM    DATA     BYTE      TMOD
      00000098H   SFRSYM    DATA     BYTE      SCON
      00000087H   SFRSYM    DATA     BYTE      PCON
      000000BCH   SFRSYM    DATA     BYTE      ADC_CONTR
      000000D1H   SFRSYM    DATA     BYTE      PSW1
      000000E7H   SFRSYM    DATA     BYTE      CMPCR2
      000000E6H   SFRSYM    DATA     BYTE      CMPCR1
      000000DEH   SFRSYM    DATA     BYTE      ADCCFG
      000000B8H   SFRSYM    DATA     BYTE      IP
      0000008FH   SFRSYM    DATA     BYTE      INTCLKO
      000000EEH   SFRSYM    DATA     BYTE      IP3H
      000000B6H   SFRSYM    DATA     BYTE      IP2H
      000000BFH   SFRSYM    DATA     BYTE      P_SW4
      000000A8H   SFRSYM    DATA     BYTE      IE
      000000BBH   SFRSYM    DATA     BYTE      P_SW3
      000000BAH   SFRSYM    DATA     BYTE      P_SW2
      000000A2H   SFRSYM    DATA     BYTE      P_SW1
      000000CEH   SFRSYM    DATA     BYTE      SPCTL
      000000F8H   SFRSYM    DATA     BYTE      P7
      000000E8H   SFRSYM    DATA     BYTE      P6
      000000C8H   SFRSYM    DATA     BYTE      P5
      000000C0H   SFRSYM    DATA     BYTE      P4
      000000ABH   SFRSYM    DATA     BYTE      WKTCH
      000000B0H   SFRSYM    DATA     BYTE      P3
      000000A0H   SFRSYM    DATA     BYTE      P2
L251 LINKER/LOCATER V4.66.93.0                                                        03/25/2026  13:05:55  PAGE 191


      00000090H   SFRSYM    DATA     BYTE      P1
      00000080H   SFRSYM    DATA     BYTE      P0
      0001233CH   SYMBOL    XDATA    ---       dl1b_iic_struct
      00012348H   SYMBOL    XDATA    BYTE      dl1b_init_flag

      00FDF698H   BLOCK     ECODE    ---       LVL=0
      00FDF6A4H   BLOCK     ECODE    NEAR LAB  LVL=1
      000128D4H   SYMBOL    XDATA    ---       data_buffer
      000128D7H   SYMBOL    XDATA    INT       dl1b_distance_temp
      ---         BLOCKEND  ---      ---       LVL=1
      00FDF698H   LINE      ECODE    ---       #78
      00FDF698H   LINE      ECODE    ---       #80
      00FDF6A4H   LINE      ECODE    ---       #81
      00FDF6A4H   LINE      ECODE    ---       #83
      00FDF6ACH   LINE      ECODE    ---       #85
      00FDF6B1H   LINE      ECODE    ---       #86
      00FDF6B7H   LINE      ECODE    ---       #87
      00FDF6F9H   LINE      ECODE    ---       #89
      00FDF705H   LINE      ECODE    ---       #92
      00FDF70AH   LINE      ECODE    ---       #93
      00FDF710H   LINE      ECODE    ---       #94
      00FDF716H   LINE      ECODE    ---       #95
      00FDF756H   LINE      ECODE    ---       #97
      00FDF75BH   LINE      ECODE    ---       #98
      00FDF761H   LINE      ECODE    ---       #99
      00FDF7A3H   LINE      ECODE    ---       #101
      00FDF7AFH   LINE      ECODE    ---       #103
      00FDF7B4H   LINE      ECODE    ---       #104
      00FDF7BAH   LINE      ECODE    ---       #105
      00FDF7FCH   LINE      ECODE    ---       #106
      00FDF808H   LINE      ECODE    ---       #107
      00FDF820H   LINE      ECODE    ---       #109
      00FDF83AH   LINE      ECODE    ---       #111
      00FDF844H   LINE      ECODE    ---       #112
      00FDF849H   LINE      ECODE    ---       #113
      00FDF84BH   LINE      ECODE    ---       #116
      00FDF857H   LINE      ECODE    ---       #117
      00FDF85DH   LINE      ECODE    ---       #118
      00FDF85DH   LINE      ECODE    ---       #119
      00FDF85FH   LINE      ECODE    ---       #122
      00FDF869H   LINE      ECODE    ---       #123
      00FDF86EH   LINE      ECODE    ---       #124
      00FDF86EH   LINE      ECODE    ---       #125
      00FDF870H   LINE      ECODE    ---       #128
      00FDF87AH   LINE      ECODE    ---       #129
      00FDF87FH   LINE      ECODE    ---       #130
      00FDF87FH   LINE      ECODE    ---       #131
      ---         BLOCKEND  ---      ---       LVL=0

      00FDF880H   BLOCK     ECODE    ---       LVL=0
      00FDF880H   LINE      ECODE    ---       #141
      00FDF880H   LINE      ECODE    ---       #146
      ---         BLOCKEND  ---      ---       LVL=0

      00FDF881H   BLOCK     ECODE    ---       LVL=0
      0001130FH   SYMBOL    XDATA    BYTE      return_state
      00011310H   SYMBOL    XDATA    ---       data_buffer
      00011399H   SYMBOL    XDATA    WORD      time_out_count
      00FDF881H   LINE      ECODE    ---       #155
      00FDF881H   LINE      ECODE    ---       #156
      00FDF881H   LINE      ECODE    ---       #157
      00FDF886H   LINE      ECODE    ---       #159
      00FDF88EH   LINE      ECODE    ---       #162
      00FDF8B2H   LINE      ECODE    ---       #168
      00FDF8C4H   LINE      ECODE    ---       #171
L251 LINKER/LOCATER V4.66.93.0                                                        03/25/2026  13:05:55  PAGE 192


      00FDF8C4H   LINE      ECODE    ---       #175
      00FDF8E2H   LINE      ECODE    ---       #176
      00FDF8EBH   LINE      ECODE    ---       #177
      00FDF909H   LINE      ECODE    ---       #178
      00FDF913H   LINE      ECODE    ---       #179
      00FDF931H   LINE      ECODE    ---       #182
      00FDF936H   LINE      ECODE    ---       #183
      00FDF93CH   LINE      ECODE    ---       #184
      00FDF97EH   LINE      ECODE    ---       #185
      00FDF996H   LINE      ECODE    ---       #187
      00FDF9A2H   LINE      ECODE    ---       #189
      00FDF9A2H   LINE      ECODE    ---       #190
      00FDF9A2H   LINE      ECODE    ---       #192
      00FDF9A7H   LINE      ECODE    ---       #193
      00FDF9ADH   LINE      ECODE    ---       #195
      00FDF9C9H   LINE      ECODE    ---       #196
      00FDFA09H   LINE      ECODE    ---       #198
      00FDFA09H   LINE      ECODE    ---       #200
      00FDFA0EH   LINE      ECODE    ---       #201
      00FDFA14H   LINE      ECODE    ---       #202
      00FDFA56H   LINE      ECODE    ---       #204
      00FDFA5DH   LINE      ECODE    ---       #206
      00FDFA65H   LINE      ECODE    ---       #207
      00FDFA67H   LINE      ECODE    ---       #208
      00FDFA67H   LINE      ECODE    ---       #210
      00FDFA7EH   LINE      ECODE    ---       #212
      00FDFA84H   LINE      ECODE    ---       #213
      00FDFA86H   LINE      ECODE    ---       #214
      00FDFA86H   LINE      ECODE    ---       #216
      00FDFA9CH   LINE      ECODE    ---       #217
      00FDFA9FH   LINE      ECODE    ---       #219
      00FDFAA5H   LINE      ECODE    ---       #226
      00FDFAB5H   LINE      ECODE    ---       #227
      00FDFAB5H   LINE      ECODE    ---       #230
      00FDFAB9H   LINE      ECODE    ---       #231
      ---         BLOCKEND  ---      ---       LVL=0

      ---         MODULE    ---      ---       zf_device_imu660ra
      00FDEB09H   PUBLIC    ECODE    ---       imu660ra_get_gyro?
      00FDEB63H   PUBLIC    ECODE    ---       imu660ra_init?
      00FDEAAFH   PUBLIC    ECODE    ---       imu660ra_get_acc?
      00011FC5H   PUBLIC    XDATA    INT       imu660ra_acc_x
      00011FC7H   PUBLIC    XDATA    INT       imu660ra_acc_y
      00011FC9H   PUBLIC    XDATA    INT       imu660ra_acc_z
      00011FCBH   PUBLIC    XDATA    INT       imu660ra_gyro_x
      00011FCDH   PUBLIC    XDATA    INT       imu660ra_gyro_y
      00011FCFH   PUBLIC    XDATA    INT       imu660ra_gyro_z
      00011FD1H   PUBLIC    XDATA    ---       imu660ra_transition_factor
      000000D0H   SFRSYM    DATA     BYTE      PSW
      0000009DH   SFRSYM    DATA     BYTE      IRCBAND
      00000097H   SFRSYM    DATA     BYTE      AUXR2
      000000EAH   SFRSYM    DATA     BYTE      CKCON
      000000EFH   SFRSYM    DATA     BYTE      AUXINTIF
      000000FDH   SFRSYM    DATA     BYTE      S4CON
      000000ACH   SFRSYM    DATA     BYTE      S3CON
      0000009AH   SFRSYM    DATA     BYTE      S2CON
      000000B7H   SFRSYM    DATA     BYTE      IPH
      000000CDH   SFRSYM    DATA     BYTE      SPSTAT
      000000DDH   SFRSYM    DATA     BYTE      T4T3M
      000000C1H   SFRSYM    DATA     BYTE      WDT_CONTR
      000000DFH   SFRSYM    DATA     BYTE      IP3
      000000F4H   SFRSYM    DATA     BYTE      USBCON
      000000B5H   SFRSYM    DATA     BYTE      IP2
      000000FFH   SFRSYM    DATA     BYTE      RSTCFG
      000000E0H   SFRSYM    DATA     BYTE      ACC
L251 LINKER/LOCATER V4.66.93.0                                                        03/25/2026  13:05:55  PAGE 193


      000000C7H   SFRSYM    DATA     BYTE      IAP_CONTR
      000000F9H   SFRSYM    DATA     BYTE      LINICR
      0000008EH   SFRSYM    DATA     BYTE      AUXR
      000000F0H   SFRSYM    DATA     BYTE      B
      000000AFH   SFRSYM    DATA     BYTE      IE2
      000000B0H.4 SFRSYM    DATA     BIT       P34
      00000088H   SFRSYM    DATA     BYTE      TCON
      00000089H   SFRSYM    DATA     BYTE      TMOD
      00000098H   SFRSYM    DATA     BYTE      SCON
      00000087H   SFRSYM    DATA     BYTE      PCON
      000000BCH   SFRSYM    DATA     BYTE      ADC_CONTR
      000000D1H   SFRSYM    DATA     BYTE      PSW1
      000000E7H   SFRSYM    DATA     BYTE      CMPCR2
      000000E6H   SFRSYM    DATA     BYTE      CMPCR1
      000000DEH   SFRSYM    DATA     BYTE      ADCCFG
      000000B8H   SFRSYM    DATA     BYTE      IP
      0000008FH   SFRSYM    DATA     BYTE      INTCLKO
      000000EEH   SFRSYM    DATA     BYTE      IP3H
      000000B6H   SFRSYM    DATA     BYTE      IP2H
      000000BFH   SFRSYM    DATA     BYTE      P_SW4
      000000A8H   SFRSYM    DATA     BYTE      IE
      000000BBH   SFRSYM    DATA     BYTE      P_SW3
      000000BAH   SFRSYM    DATA     BYTE      P_SW2
      000000A2H   SFRSYM    DATA     BYTE      P_SW1
      000000CEH   SFRSYM    DATA     BYTE      SPCTL
      000000F8H   SFRSYM    DATA     BYTE      P7
      000000E8H   SFRSYM    DATA     BYTE      P6
      000000C8H   SFRSYM    DATA     BYTE      P5
      000000C0H   SFRSYM    DATA     BYTE      P4
      000000ABH   SFRSYM    DATA     BYTE      WKTCH
      000000B0H   SFRSYM    DATA     BYTE      P3
      000000A0H   SFRSYM    DATA     BYTE      P2
      00000090H   SFRSYM    DATA     BYTE      P1
      00000080H   SFRSYM    DATA     BYTE      P0
      00FDE95BH   SYMBOL    ECODE    ---       imu660ra_read_register
      00FDE912H   SYMBOL    ECODE    ---       imu660ra_write_registers
      00FDE8EFH   SYMBOL    ECODE    ---       imu660ra_write_register
      00FDEA52H   SYMBOL    ECODE    ---       imu660ra_self_check
      00FDE992H   SYMBOL    ECODE    ---       imu660ra_read_registers

      00FDE8EFH   BLOCK     ECODE    ---       LVL=0
      000129ECH   SYMBOL    XDATA    BYTE      reg
      000129EDH   SYMBOL    XDATA    BYTE      dat
      00FDE8EFH   LINE      ECODE    ---       #84
      00FDE8F9H   LINE      ECODE    ---       #86
      00FDE8FCH   LINE      ECODE    ---       #87
      00FDE90EH   LINE      ECODE    ---       #88
      00FDE911H   LINE      ECODE    ---       #89
      ---         BLOCKEND  ---      ---       LVL=0

      00FDE912H   BLOCK     ECODE    ---       LVL=0
      00012680H   SYMBOL    XDATA    BYTE      reg
      00012681H   SYMBOL    XDATA    ---       dat
      00012685H   SYMBOL    XDATA    DWORD     len
      00FDE912H   LINE      ECODE    ---       #99
      00FDE92AH   LINE      ECODE    ---       #101
      00FDE92DH   LINE      ECODE    ---       #102
      00FDE957H   LINE      ECODE    ---       #103
      00FDE95AH   LINE      ECODE    ---       #104
      ---         BLOCKEND  ---      ---       LVL=0

      00FDE95BH   BLOCK     ECODE    ---       LVL=0
      000129CDH   SYMBOL    XDATA    BYTE      reg
      00FDE95FH   BLOCK     ECODE    NEAR LAB  LVL=1
      000129CEH   SYMBOL    XDATA    ---       dat
L251 LINKER/LOCATER V4.66.93.0                                                        03/25/2026  13:05:55  PAGE 194


      ---         BLOCKEND  ---      ---       LVL=1
      00FDE95BH   LINE      ECODE    ---       #113
      00FDE95FH   LINE      ECODE    ---       #114
      00FDE95FH   LINE      ECODE    ---       #116
      00FDE962H   LINE      ECODE    ---       #117
      00FDE98AH   LINE      ECODE    ---       #118
      00FDE98DH   LINE      ECODE    ---       #119
      00FDE991H   LINE      ECODE    ---       #120
      ---         BLOCKEND  ---      ---       LVL=0

      00FDE992H   BLOCK     ECODE    ---       LVL=0
      00012038H   SYMBOL    XDATA    BYTE      reg
      00012039H   SYMBOL    XDATA    ---       dat
      0001203DH   SYMBOL    XDATA    DWORD     len
      00FDE9AAH   BLOCK     ECODE    NEAR LAB  LVL=1
      00012041H   SYMBOL    XDATA    WORD      i
      00012043H   SYMBOL    XDATA    ---       temp_data
      ---         BLOCKEND  ---      ---       LVL=1
      00FDE992H   LINE      ECODE    ---       #131
      00FDE9AAH   LINE      ECODE    ---       #132
      00FDE9AAH   LINE      ECODE    ---       #133
      00FDE9B2H   LINE      ECODE    ---       #135
      00FDE9B5H   LINE      ECODE    ---       #136
      00FDE9E9H   LINE      ECODE    ---       #137
      00FDE9ECH   LINE      ECODE    ---       #139
      00FDE9F6H   LINE      ECODE    ---       #141
      00FDEA2CH   LINE      ECODE    ---       #142
      00FDEA51H   LINE      ECODE    ---       #143
      ---         BLOCKEND  ---      ---       LVL=0

      00FDEA52H   BLOCK     ECODE    ---       LVL=0
      00012965H   SYMBOL    XDATA    BYTE      dat
      00012966H   SYMBOL    XDATA    BYTE      return_state
      00012967H   SYMBOL    XDATA    WORD      timeout_count
      00FDEA52H   LINE      ECODE    ---       #312
      00FDEA52H   LINE      ECODE    ---       #313
      00FDEA52H   LINE      ECODE    ---       #314
      00FDEA5CH   LINE      ECODE    ---       #315
      00FDEA64H   LINE      ECODE    ---       #317
      00FDEA64H   LINE      ECODE    ---       #319
      00FDEA7BH   LINE      ECODE    ---       #321
      00FDEA81H   LINE      ECODE    ---       #322
      00FDEA83H   LINE      ECODE    ---       #323
      00FDEA83H   LINE      ECODE    ---       #325
      00FDEA8BH   LINE      ECODE    ---       #326
      00FDEAA1H   LINE      ECODE    ---       #327
      00FDEAAAH   LINE      ECODE    ---       #330
      00FDEAAEH   LINE      ECODE    ---       #331
      ---         BLOCKEND  ---      ---       LVL=0

      00FDEAAFH   BLOCK     ECODE    ---       LVL=0
      00012852H   SYMBOL    XDATA    ---       dat
      00FDEAAFH   LINE      ECODE    ---       #341
      00FDEAAFH   LINE      ECODE    ---       #342
      00FDEAAFH   LINE      ECODE    ---       #345
      00FDEAC0H   LINE      ECODE    ---       #346
      00FDEAD8H   LINE      ECODE    ---       #347
      00FDEAF0H   LINE      ECODE    ---       #348
      00FDEB08H   LINE      ECODE    ---       #349
      ---         BLOCKEND  ---      ---       LVL=0

      00FDEB09H   BLOCK     ECODE    ---       LVL=0
      00012858H   SYMBOL    XDATA    ---       dat
      00FDEB09H   LINE      ECODE    ---       #358
      00FDEB09H   LINE      ECODE    ---       #359
L251 LINKER/LOCATER V4.66.93.0                                                        03/25/2026  13:05:55  PAGE 195


      00FDEB09H   LINE      ECODE    ---       #362
      00FDEB1AH   LINE      ECODE    ---       #363
      00FDEB32H   LINE      ECODE    ---       #364
      00FDEB4AH   LINE      ECODE    ---       #365
      00FDEB62H   LINE      ECODE    ---       #366
      ---         BLOCKEND  ---      ---       LVL=0

      00FDEB63H   BLOCK     ECODE    ---       LVL=0
      00012A0EH   SYMBOL    XDATA    BYTE      return_state
      00FDEB63H   LINE      ECODE    ---       #375
      00FDEB63H   LINE      ECODE    ---       #376
      00FDEB63H   LINE      ECODE    ---       #377
      00FDEB68H   LINE      ECODE    ---       #378
      00FDEB86H   LINE      ECODE    ---       #382
      00FDEBC0H   LINE      ECODE    ---       #383
      00FDEBD2H   LINE      ECODE    ---       #384
      00FDEBD6H   LINE      ECODE    ---       #394
      00FDEBD6H   LINE      ECODE    ---       #396
      00FDEBDEH   LINE      ECODE    ---       #401
      00FDEBEAH   LINE      ECODE    ---       #402
      00FDEBF0H   LINE      ECODE    ---       #403
      00FDEBF3H   LINE      ECODE    ---       #404
      00FDEBF3H   LINE      ECODE    ---       #406
      00FDEBFAH   LINE      ECODE    ---       #407
      00FDEC10H   LINE      ECODE    ---       #408
      00FDEC17H   LINE      ECODE    ---       #409
      00FDEC28H   LINE      ECODE    ---       #410
      00FDEC30H   LINE      ECODE    ---       #411
      00FDEC4EH   LINE      ECODE    ---       #413
      00FDEC58H   LINE      ECODE    ---       #418
      00FDEC64H   LINE      ECODE    ---       #419
      00FDEC6AH   LINE      ECODE    ---       #420
      00FDEC6DH   LINE      ECODE    ---       #421
      00FDEC6DH   LINE      ECODE    ---       #423
      00FDEC75H   LINE      ECODE    ---       #424
      00FDEC7DH   LINE      ECODE    ---       #425
      00FDEC85H   LINE      ECODE    ---       #432
      00FDEC9DH   LINE      ECODE    ---       #434
      00FDEC9DH   LINE      ECODE    ---       #436
      00FDECA9H   LINE      ECODE    ---       #437
      00FDECAFH   LINE      ECODE    ---       #439
      00FDECB1H   LINE      ECODE    ---       #441
      00FDECB1H   LINE      ECODE    ---       #443
      00FDECB8H   LINE      ECODE    ---       #444
      00FDECC8H   LINE      ECODE    ---       #446
      00FDECCAH   LINE      ECODE    ---       #448
      00FDECCAH   LINE      ECODE    ---       #450
      00FDECD2H   LINE      ECODE    ---       #451
      00FDECE2H   LINE      ECODE    ---       #453
      00FDECE4H   LINE      ECODE    ---       #455
      00FDECE4H   LINE      ECODE    ---       #457
      00FDECECH   LINE      ECODE    ---       #458
      00FDECFCH   LINE      ECODE    ---       #460
      00FDECFEH   LINE      ECODE    ---       #462
      00FDECFEH   LINE      ECODE    ---       #464
      00FDED06H   LINE      ECODE    ---       #465
      00FDED16H   LINE      ECODE    ---       #467
      00FDED16H   LINE      ECODE    ---       #468
      00FDED16H   LINE      ECODE    ---       #470
      00FDED22H   LINE      ECODE    ---       #472
      00FDED22H   LINE      ECODE    ---       #473
      00FDED22H   LINE      ECODE    ---       #481
      00FDED41H   LINE      ECODE    ---       #483
      00FDED41H   LINE      ECODE    ---       #485
      00FDED4DH   LINE      ECODE    ---       #486
L251 LINKER/LOCATER V4.66.93.0                                                        03/25/2026  13:05:55  PAGE 196


      00FDED53H   LINE      ECODE    ---       #488
      00FDED56H   LINE      ECODE    ---       #490
      00FDED56H   LINE      ECODE    ---       #492
      00FDED5EH   LINE      ECODE    ---       #493
      00FDED70H   LINE      ECODE    ---       #495
      00FDED72H   LINE      ECODE    ---       #497
      00FDED72H   LINE      ECODE    ---       #499
      00FDED7AH   LINE      ECODE    ---       #500
      00FDED8CH   LINE      ECODE    ---       #502
      00FDED8EH   LINE      ECODE    ---       #504
      00FDED8EH   LINE      ECODE    ---       #506
      00FDED96H   LINE      ECODE    ---       #507
      00FDEDA8H   LINE      ECODE    ---       #509
      00FDEDAAH   LINE      ECODE    ---       #511
      00FDEDAAH   LINE      ECODE    ---       #513
      00FDEDB2H   LINE      ECODE    ---       #514
      00FDEDC4H   LINE      ECODE    ---       #516
      00FDEDC6H   LINE      ECODE    ---       #518
      00FDEDC6H   LINE      ECODE    ---       #520
      00FDEDCDH   LINE      ECODE    ---       #521
      00FDEDDFH   LINE      ECODE    ---       #523
      00FDEDDFH   LINE      ECODE    ---       #524
      00FDEDDFH   LINE      ECODE    ---       #526
      00FDEDDFH   LINE      ECODE    ---       #528
      00FDEDDFH   LINE      ECODE    ---       #529
      00FDEDDFH   LINE      ECODE    ---       #533
      00FDEDE3H   LINE      ECODE    ---       #534
      ---         BLOCKEND  ---      ---       LVL=0

      ---         MODULE    ---      ---       zf_device_imu660rb
      00FDEF33H   PUBLIC    ECODE    ---       imu660rb_get_gyro?
      00FDF056H   PUBLIC    ECODE    ---       imu660rb_gyro_transition?
      00FDF179H   PUBLIC    ECODE    ---       imu660rb_init?
      00FDEED9H   PUBLIC    ECODE    ---       imu660rb_get_acc?
      00FDEF8DH   PUBLIC    ECODE    ---       imu660rb_acc_transition?
      00012475H   PUBLIC    XDATA    INT       imu660rb_acc_x
      00012477H   PUBLIC    XDATA    INT       imu660rb_acc_y
      00012479H   PUBLIC    XDATA    INT       imu660rb_acc_z
      0001247BH   PUBLIC    XDATA    INT       imu660rb_gyro_x
      0001247DH   PUBLIC    XDATA    INT       imu660rb_gyro_y
      0001247FH   PUBLIC    XDATA    INT       imu660rb_gyro_z
      000000D0H   SFRSYM    DATA     BYTE      PSW
      0000009DH   SFRSYM    DATA     BYTE      IRCBAND
      00000097H   SFRSYM    DATA     BYTE      AUXR2
      000000EAH   SFRSYM    DATA     BYTE      CKCON
      000000EFH   SFRSYM    DATA     BYTE      AUXINTIF
      000000FDH   SFRSYM    DATA     BYTE      S4CON
      000000ACH   SFRSYM    DATA     BYTE      S3CON
      0000009AH   SFRSYM    DATA     BYTE      S2CON
      000000B7H   SFRSYM    DATA     BYTE      IPH
      000000CDH   SFRSYM    DATA     BYTE      SPSTAT
      000000DDH   SFRSYM    DATA     BYTE      T4T3M
      000000C1H   SFRSYM    DATA     BYTE      WDT_CONTR
      000000DFH   SFRSYM    DATA     BYTE      IP3
      000000F4H   SFRSYM    DATA     BYTE      USBCON
      000000B5H   SFRSYM    DATA     BYTE      IP2
      000000FFH   SFRSYM    DATA     BYTE      RSTCFG
      000000E0H   SFRSYM    DATA     BYTE      ACC
      000000C7H   SFRSYM    DATA     BYTE      IAP_CONTR
      000000F9H   SFRSYM    DATA     BYTE      LINICR
      0000008EH   SFRSYM    DATA     BYTE      AUXR
      000000F0H   SFRSYM    DATA     BYTE      B
      000000AFH   SFRSYM    DATA     BYTE      IE2
      000000B0H.4 SFRSYM    DATA     BIT       P34
      00000088H   SFRSYM    DATA     BYTE      TCON
L251 LINKER/LOCATER V4.66.93.0                                                        03/25/2026  13:05:55  PAGE 197


      00000089H   SFRSYM    DATA     BYTE      TMOD
      00000098H   SFRSYM    DATA     BYTE      SCON
      00000087H   SFRSYM    DATA     BYTE      PCON
      000000BCH   SFRSYM    DATA     BYTE      ADC_CONTR
      000000D1H   SFRSYM    DATA     BYTE      PSW1
      000000E7H   SFRSYM    DATA     BYTE      CMPCR2
      000000E6H   SFRSYM    DATA     BYTE      CMPCR1
      000000DEH   SFRSYM    DATA     BYTE      ADCCFG
      000000B8H   SFRSYM    DATA     BYTE      IP
      0000008FH   SFRSYM    DATA     BYTE      INTCLKO
      000000EEH   SFRSYM    DATA     BYTE      IP3H
      000000B6H   SFRSYM    DATA     BYTE      IP2H
      000000BFH   SFRSYM    DATA     BYTE      P_SW4
      000000A8H   SFRSYM    DATA     BYTE      IE
      000000BBH   SFRSYM    DATA     BYTE      P_SW3
      000000BAH   SFRSYM    DATA     BYTE      P_SW2
      000000A2H   SFRSYM    DATA     BYTE      P_SW1
      000000CEH   SFRSYM    DATA     BYTE      SPCTL
      000000F8H   SFRSYM    DATA     BYTE      P7
      000000E8H   SFRSYM    DATA     BYTE      P6
      000000C8H   SFRSYM    DATA     BYTE      P5
      000000C0H   SFRSYM    DATA     BYTE      P4
      000000ABH   SFRSYM    DATA     BYTE      WKTCH
      000000B0H   SFRSYM    DATA     BYTE      P3
      000000A0H   SFRSYM    DATA     BYTE      P2
      00000090H   SFRSYM    DATA     BYTE      P1
      00000080H   SFRSYM    DATA     BYTE      P0
      00FDEE07H   SYMBOL    ECODE    ---       imu660rb_read_register
      00FDEDE4H   SYMBOL    ECODE    ---       imu660rb_write_register
      00FDEE7BH   SYMBOL    ECODE    ---       imu660rb_self_check
      00FDEE2CH   SYMBOL    ECODE    ---       imu660rb_read_registers

      00FDEDE4H   BLOCK     ECODE    ---       LVL=0
      000129EEH   SYMBOL    XDATA    BYTE      reg
      000129EFH   SYMBOL    XDATA    BYTE      dat
      00FDEDE4H   LINE      ECODE    ---       #82
      00FDEDEEH   LINE      ECODE    ---       #84
      00FDEDF1H   LINE      ECODE    ---       #85
      00FDEE03H   LINE      ECODE    ---       #86
      00FDEE06H   LINE      ECODE    ---       #87
      ---         BLOCKEND  ---      ---       LVL=0

      00FDEE07H   BLOCK     ECODE    ---       LVL=0
      000129F0H   SYMBOL    XDATA    BYTE      reg
      00FDEE0BH   BLOCK     ECODE    NEAR LAB  LVL=1
      000129F1H   SYMBOL    XDATA    BYTE      dat
      ---         BLOCKEND  ---      ---       LVL=1
      00FDEE07H   LINE      ECODE    ---       #111
      00FDEE0BH   LINE      ECODE    ---       #112
      00FDEE0BH   LINE      ECODE    ---       #114
      00FDEE0EH   LINE      ECODE    ---       #115
      00FDEE24H   LINE      ECODE    ---       #116
      00FDEE27H   LINE      ECODE    ---       #117
      00FDEE2BH   LINE      ECODE    ---       #118
      ---         BLOCKEND  ---      ---       LVL=0

      00FDEE2CH   BLOCK     ECODE    ---       LVL=0
      00012689H   SYMBOL    XDATA    BYTE      reg
      0001268AH   SYMBOL    XDATA    ---       dat
      0001268EH   SYMBOL    XDATA    DWORD     len
      00FDEE2CH   LINE      ECODE    ---       #129
      00FDEE44H   LINE      ECODE    ---       #131
      00FDEE47H   LINE      ECODE    ---       #132
      00FDEE77H   LINE      ECODE    ---       #133
      00FDEE7AH   LINE      ECODE    ---       #135
L251 LINKER/LOCATER V4.66.93.0                                                        03/25/2026  13:05:55  PAGE 198


      ---         BLOCKEND  ---      ---       LVL=0

      00FDEE7BH   BLOCK     ECODE    ---       LVL=0
      00012969H   SYMBOL    XDATA    BYTE      dat
      0001296AH   SYMBOL    XDATA    BYTE      return_state
      0001296BH   SYMBOL    XDATA    WORD      timeout_count
      00FDEE7BH   LINE      ECODE    ---       #300
      00FDEE7BH   LINE      ECODE    ---       #301
      00FDEE7BH   LINE      ECODE    ---       #302
      00FDEE85H   LINE      ECODE    ---       #303
      00FDEE8DH   LINE      ECODE    ---       #304
      00FDEE8DH   LINE      ECODE    ---       #306
      00FDEEA4H   LINE      ECODE    ---       #308
      00FDEEAAH   LINE      ECODE    ---       #309
      00FDEEACH   LINE      ECODE    ---       #310
      00FDEEACH   LINE      ECODE    ---       #311
      00FDEEB5H   LINE      ECODE    ---       #312
      00FDEECBH   LINE      ECODE    ---       #314
      00FDEED4H   LINE      ECODE    ---       #316
      00FDEED8H   LINE      ECODE    ---       #317
      ---         BLOCKEND  ---      ---       LVL=0

      00FDEED9H   BLOCK     ECODE    ---       LVL=0
      0001285EH   SYMBOL    XDATA    ---       dat
      00FDEED9H   LINE      ECODE    ---       #327
      00FDEED9H   LINE      ECODE    ---       #328
      00FDEED9H   LINE      ECODE    ---       #331
      00FDEEEAH   LINE      ECODE    ---       #332
      00FDEF02H   LINE      ECODE    ---       #333
      00FDEF1AH   LINE      ECODE    ---       #334
      00FDEF32H   LINE      ECODE    ---       #335
      ---         BLOCKEND  ---      ---       LVL=0

      00FDEF33H   BLOCK     ECODE    ---       LVL=0
      00012864H   SYMBOL    XDATA    ---       dat
      00FDEF33H   LINE      ECODE    ---       #344
      00FDEF33H   LINE      ECODE    ---       #345
      00FDEF33H   LINE      ECODE    ---       #348
      00FDEF44H   LINE      ECODE    ---       #349
      00FDEF5CH   LINE      ECODE    ---       #350
      00FDEF74H   LINE      ECODE    ---       #351
      00FDEF8CH   LINE      ECODE    ---       #352
      ---         BLOCKEND  ---      ---       LVL=0

      00FDEF8DH   BLOCK     ECODE    ---       LVL=0
      0001286AH   SYMBOL    XDATA    INT       acc_value
      00FDEF93H   BLOCK     ECODE    NEAR LAB  LVL=1
      0001286CH   SYMBOL    XDATA    FLOAT     acc_data
      ---         BLOCKEND  ---      ---       LVL=1
      00FDEF8DH   LINE      ECODE    ---       #361
      00FDEF93H   LINE      ECODE    ---       #362
      00FDEF93H   LINE      ECODE    ---       #363
      00FDEF9FH   LINE      ECODE    ---       #364
      00FDEFBDH   LINE      ECODE    ---       #366
      00FDEFE1H   LINE      ECODE    ---       #367
      00FDF005H   LINE      ECODE    ---       #368
      00FDF029H   LINE      ECODE    ---       #369
      00FDF04BH   LINE      ECODE    ---       #370
      00FDF04BH   LINE      ECODE    ---       #371
      00FDF04BH   LINE      ECODE    ---       #372
      00FDF055H   LINE      ECODE    ---       #373
      ---         BLOCKEND  ---      ---       LVL=0

      00FDF056H   BLOCK     ECODE    ---       LVL=0
      00012870H   SYMBOL    XDATA    INT       gyro_value
L251 LINKER/LOCATER V4.66.93.0                                                        03/25/2026  13:05:55  PAGE 199


      00FDF05CH   BLOCK     ECODE    NEAR LAB  LVL=1
      00012872H   SYMBOL    XDATA    FLOAT     gyro_data
      ---         BLOCKEND  ---      ---       LVL=1
      00FDF056H   LINE      ECODE    ---       #382
      00FDF05CH   LINE      ECODE    ---       #383
      00FDF05CH   LINE      ECODE    ---       #384
      00FDF068H   LINE      ECODE    ---       #385
      00FDF096H   LINE      ECODE    ---       #387
      00FDF0BBH   LINE      ECODE    ---       #388
      00FDF0E0H   LINE      ECODE    ---       #389
      00FDF104H   LINE      ECODE    ---       #390
      00FDF128H   LINE      ECODE    ---       #391
      00FDF14CH   LINE      ECODE    ---       #392
      00FDF16EH   LINE      ECODE    ---       #393
      00FDF16EH   LINE      ECODE    ---       #394
      00FDF16EH   LINE      ECODE    ---       #395
      00FDF178H   LINE      ECODE    ---       #396
      ---         BLOCKEND  ---      ---       LVL=0

      00FDF179H   BLOCK     ECODE    ---       LVL=0
      00012A0FH   SYMBOL    XDATA    BYTE      return_state
      00FDF179H   LINE      ECODE    ---       #405
      00FDF179H   LINE      ECODE    ---       #406
      00FDF179H   LINE      ECODE    ---       #407
      00FDF17EH   LINE      ECODE    ---       #408
      00FDF19CH   LINE      ECODE    ---       #412
      00FDF1D6H   LINE      ECODE    ---       #413
      00FDF1E8H   LINE      ECODE    ---       #428
      00FDF1E8H   LINE      ECODE    ---       #429
      00FDF1F0H   LINE      ECODE    ---       #434
      00FDF1FCH   LINE      ECODE    ---       #435
      00FDF202H   LINE      ECODE    ---       #436
      00FDF204H   LINE      ECODE    ---       #437
      00FDF204H   LINE      ECODE    ---       #439
      00FDF20CH   LINE      ECODE    ---       #440
      00FDF214H   LINE      ECODE    ---       #447
      00FDF21CH   LINE      ECODE    ---       #456
      00FDF224H   LINE      ECODE    ---       #457
      00FDF22CH   LINE      ECODE    ---       #458
      00FDF233H   LINE      ECODE    ---       #459
      00FDF23AH   LINE      ECODE    ---       #460
      00FDF241H   LINE      ECODE    ---       #461
      00FDF249H   LINE      ECODE    ---       #463
      00FDF249H   LINE      ECODE    ---       #464
      00FDF24DH   LINE      ECODE    ---       #465
      ---         BLOCKEND  ---      ---       LVL=0

      ---         MODULE    ---      ---       zf_device_imu963ra
      00FDD036H   PUBLIC    ECODE    ---       imu963ra_get_gyro?
      00FDD109H   PUBLIC    ECODE    ---       imu963ra_init?
      00FDCFDCH   PUBLIC    ECODE    ---       imu963ra_get_acc?
      00FDD090H   PUBLIC    ECODE    ---       imu963ra_get_mag?
      00011DD4H   PUBLIC    XDATA    INT       imu963ra_acc_x
      00011DD6H   PUBLIC    XDATA    INT       imu963ra_acc_y
      00011DD8H   PUBLIC    XDATA    INT       imu963ra_acc_z
      00011DDAH   PUBLIC    XDATA    INT       imu963ra_mag_x
      00011DDCH   PUBLIC    XDATA    INT       imu963ra_mag_y
      00011DDEH   PUBLIC    XDATA    INT       imu963ra_mag_z
      00011DE0H   PUBLIC    XDATA    INT       imu963ra_gyro_x
      00011DE2H   PUBLIC    XDATA    INT       imu963ra_gyro_y
      00011DE4H   PUBLIC    XDATA    INT       imu963ra_gyro_z
      00011DE6H   PUBLIC    XDATA    ---       imu963ra_transition_factor
      000000D0H   SFRSYM    DATA     BYTE      PSW
      0000009DH   SFRSYM    DATA     BYTE      IRCBAND
      00000097H   SFRSYM    DATA     BYTE      AUXR2
L251 LINKER/LOCATER V4.66.93.0                                                        03/25/2026  13:05:55  PAGE 200


      000000EAH   SFRSYM    DATA     BYTE      CKCON
      000000EFH   SFRSYM    DATA     BYTE      AUXINTIF
      000000FDH   SFRSYM    DATA     BYTE      S4CON
      000000ACH   SFRSYM    DATA     BYTE      S3CON
      0000009AH   SFRSYM    DATA     BYTE      S2CON
      000000B7H   SFRSYM    DATA     BYTE      IPH
      000000CDH   SFRSYM    DATA     BYTE      SPSTAT
      000000DDH   SFRSYM    DATA     BYTE      T4T3M
      000000C1H   SFRSYM    DATA     BYTE      WDT_CONTR
      000000DFH   SFRSYM    DATA     BYTE      IP3
      000000F4H   SFRSYM    DATA     BYTE      USBCON
      000000B5H   SFRSYM    DATA     BYTE      IP2
      000000FFH   SFRSYM    DATA     BYTE      RSTCFG
      000000E0H   SFRSYM    DATA     BYTE      ACC
      000000C7H   SFRSYM    DATA     BYTE      IAP_CONTR
      000000F9H   SFRSYM    DATA     BYTE      LINICR
      0000008EH   SFRSYM    DATA     BYTE      AUXR
      000000F0H   SFRSYM    DATA     BYTE      B
      000000AFH   SFRSYM    DATA     BYTE      IE2
      000000B0H.4 SFRSYM    DATA     BIT       P34
      00000088H   SFRSYM    DATA     BYTE      TCON
      00000089H   SFRSYM    DATA     BYTE      TMOD
      00000098H   SFRSYM    DATA     BYTE      SCON
      00000087H   SFRSYM    DATA     BYTE      PCON
      000000BCH   SFRSYM    DATA     BYTE      ADC_CONTR
      000000D1H   SFRSYM    DATA     BYTE      PSW1
      000000E7H   SFRSYM    DATA     BYTE      CMPCR2
      000000E6H   SFRSYM    DATA     BYTE      CMPCR1
      000000DEH   SFRSYM    DATA     BYTE      ADCCFG
      000000B8H   SFRSYM    DATA     BYTE      IP
      0000008FH   SFRSYM    DATA     BYTE      INTCLKO
      000000EEH   SFRSYM    DATA     BYTE      IP3H
      000000B6H   SFRSYM    DATA     BYTE      IP2H
      000000BFH   SFRSYM    DATA     BYTE      P_SW4
      000000A8H   SFRSYM    DATA     BYTE      IE
      000000BBH   SFRSYM    DATA     BYTE      P_SW3
      000000BAH   SFRSYM    DATA     BYTE      P_SW2
      000000A2H   SFRSYM    DATA     BYTE      P_SW1
      000000CEH   SFRSYM    DATA     BYTE      SPCTL
      000000F8H   SFRSYM    DATA     BYTE      P7
      000000E8H   SFRSYM    DATA     BYTE      P6
      000000C8H   SFRSYM    DATA     BYTE      P5
      000000C0H   SFRSYM    DATA     BYTE      P4
      000000ABH   SFRSYM    DATA     BYTE      WKTCH
      000000B0H   SFRSYM    DATA     BYTE      P3
      000000A0H   SFRSYM    DATA     BYTE      P2
      00000090H   SFRSYM    DATA     BYTE      P1
      00000080H   SFRSYM    DATA     BYTE      P0
      00FDCE31H   SYMBOL    ECODE    ---       imu963ra_read_mag_register
      00FDCEB4H   SYMBOL    ECODE    ---       imu963ra_connect_mag
      00FDCD48H   SYMBOL    ECODE    ---       imu963ra_read_acc_gyro_registers
      00FDCD97H   SYMBOL    ECODE    ---       imu963ra_write_mag_register
      00FDCD1EH   SYMBOL    ECODE    ---       imu963ra_read_acc_gyro_register
      00FDCF71H   SYMBOL    ECODE    ---       imu963ra_mag_self_check
      00FDCCFBH   SYMBOL    ECODE    ---       imu963ra_write_acc_gyro_register
      00FDCEF1H   SYMBOL    ECODE    ---       imu963ra_acc_gyro_self_check

      00FDCCFBH   BLOCK     ECODE    ---       LVL=0
      000129F2H   SYMBOL    XDATA    BYTE      reg
      000129F3H   SYMBOL    XDATA    BYTE      dat
      00FDCCFBH   LINE      ECODE    ---       #84
      00FDCD05H   LINE      ECODE    ---       #86
      00FDCD08H   LINE      ECODE    ---       #87
      00FDCD1AH   LINE      ECODE    ---       #88
      00FDCD1DH   LINE      ECODE    ---       #89
L251 LINKER/LOCATER V4.66.93.0                                                        03/25/2026  13:05:55  PAGE 201


      ---         BLOCKEND  ---      ---       LVL=0

      00FDCD1EH   BLOCK     ECODE    ---       LVL=0
      000129F4H   SYMBOL    XDATA    BYTE      reg
      00FDCD22H   BLOCK     ECODE    NEAR LAB  LVL=1
      000129F5H   SYMBOL    XDATA    BYTE      dat
      ---         BLOCKEND  ---      ---       LVL=1
      00FDCD1EH   LINE      ECODE    ---       #98
      00FDCD22H   LINE      ECODE    ---       #99
      00FDCD22H   LINE      ECODE    ---       #100
      00FDCD27H   LINE      ECODE    ---       #101
      00FDCD2AH   LINE      ECODE    ---       #102
      00FDCD40H   LINE      ECODE    ---       #103
      00FDCD43H   LINE      ECODE    ---       #104
      00FDCD47H   LINE      ECODE    ---       #105
      ---         BLOCKEND  ---      ---       LVL=0

      00FDCD48H   BLOCK     ECODE    ---       LVL=0
      00012692H   SYMBOL    XDATA    BYTE      reg
      00012693H   SYMBOL    XDATA    ---       dat
      00012697H   SYMBOL    XDATA    DWORD     len
      00FDCD48H   LINE      ECODE    ---       #116
      00FDCD60H   LINE      ECODE    ---       #118
      00FDCD63H   LINE      ECODE    ---       #119
      00FDCD93H   LINE      ECODE    ---       #120
      00FDCD96H   LINE      ECODE    ---       #121
      ---         BLOCKEND  ---      ---       LVL=0

      00FDCD97H   BLOCK     ECODE    ---       LVL=0
      00012876H   SYMBOL    XDATA    BYTE      addr
      00012877H   SYMBOL    XDATA    BYTE      reg
      00012878H   SYMBOL    XDATA    BYTE      dat
      00FDCDA7H   BLOCK     ECODE    NEAR LAB  LVL=1
      00012879H   SYMBOL    XDATA    BYTE      return_state
      0001287AH   SYMBOL    XDATA    WORD      timeout_count
      ---         BLOCKEND  ---      ---       LVL=1
      00FDCD97H   LINE      ECODE    ---       #293
      00FDCDA7H   LINE      ECODE    ---       #294
      00FDCDA7H   LINE      ECODE    ---       #295
      00FDCDACH   LINE      ECODE    ---       #296
      00FDCDB4H   LINE      ECODE    ---       #298
      00FDCDBBH   LINE      ECODE    ---       #299
      00FDCDC2H   LINE      ECODE    ---       #300
      00FDCDCDH   LINE      ECODE    ---       #301
      00FDCDD8H   LINE      ECODE    ---       #302
      00FDCDE3H   LINE      ECODE    ---       #303
      00FDCDEBH   LINE      ECODE    ---       #306
      00FDCDEDH   LINE      ECODE    ---       #308
      00FDCE04H   LINE      ECODE    ---       #310
      00FDCE0AH   LINE      ECODE    ---       #311
      00FDCE0CH   LINE      ECODE    ---       #312
      00FDCE0CH   LINE      ECODE    ---       #314
      00FDCE24H   LINE      ECODE    ---       #315
      00FDCE2CH   LINE      ECODE    ---       #317
      00FDCE30H   LINE      ECODE    ---       #318
      ---         BLOCKEND  ---      ---       LVL=0

      00FDCE31H   BLOCK     ECODE    ---       LVL=0
      0001296DH   SYMBOL    XDATA    BYTE      addr
      0001296EH   SYMBOL    XDATA    BYTE      reg
      00FDCE3BH   BLOCK     ECODE    NEAR LAB  LVL=1
      0001296FH   SYMBOL    XDATA    WORD      timeout_count
      ---         BLOCKEND  ---      ---       LVL=1
      00FDCE31H   LINE      ECODE    ---       #328
      00FDCE3BH   LINE      ECODE    ---       #329
L251 LINKER/LOCATER V4.66.93.0                                                        03/25/2026  13:05:55  PAGE 202


      00FDCE3BH   LINE      ECODE    ---       #330
      00FDCE43H   LINE      ECODE    ---       #332
      00FDCE4AH   LINE      ECODE    ---       #333
      00FDCE5AH   LINE      ECODE    ---       #334
      00FDCE65H   LINE      ECODE    ---       #335
      00FDCE6DH   LINE      ECODE    ---       #336
      00FDCE75H   LINE      ECODE    ---       #339
      00FDCE77H   LINE      ECODE    ---       #341
      00FDCE8EH   LINE      ECODE    ---       #343
      00FDCE8EH   LINE      ECODE    ---       #344
      00FDCE8EH   LINE      ECODE    ---       #346
      00FDCEA6H   LINE      ECODE    ---       #347
      00FDCEAEH   LINE      ECODE    ---       #349
      00FDCEB3H   LINE      ECODE    ---       #350
      ---         BLOCKEND  ---      ---       LVL=0

      00FDCEB4H   BLOCK     ECODE    ---       LVL=0
      000129F6H   SYMBOL    XDATA    BYTE      addr
      000129F7H   SYMBOL    XDATA    BYTE      reg
      00FDCEB4H   LINE      ECODE    ---       #360
      00FDCEBEH   LINE      ECODE    ---       #362
      00FDCEC5H   LINE      ECODE    ---       #364
      00FDCED5H   LINE      ECODE    ---       #365
      00FDCEE0H   LINE      ECODE    ---       #366
      00FDCEE8H   LINE      ECODE    ---       #367
      00FDCEF0H   LINE      ECODE    ---       #368
      ---         BLOCKEND  ---      ---       LVL=0

      00FDCEF1H   BLOCK     ECODE    ---       LVL=0
      00012971H   SYMBOL    XDATA    BYTE      return_state
      00012972H   SYMBOL    XDATA    BYTE      dat
      00012973H   SYMBOL    XDATA    WORD      timeout_count
      00FDCEF1H   LINE      ECODE    ---       #378
      00FDCEF1H   LINE      ECODE    ---       #379
      00FDCEF1H   LINE      ECODE    ---       #380
      00FDCEF6H   LINE      ECODE    ---       #381
      00FDCEFBH   LINE      ECODE    ---       #382
      00FDCF03H   LINE      ECODE    ---       #384
      00FDCF05H   LINE      ECODE    ---       #386
      00FDCF1CH   LINE      ECODE    ---       #388
      00FDCF22H   LINE      ECODE    ---       #389
      00FDCF24H   LINE      ECODE    ---       #390
      00FDCF24H   LINE      ECODE    ---       #392
      00FDCF2DH   LINE      ECODE    ---       #393
      00FDCF45H   LINE      ECODE    ---       #394
      00FDCF63H   LINE      ECODE    ---       #395
      00FDCF6CH   LINE      ECODE    ---       #397
      00FDCF70H   LINE      ECODE    ---       #398
      ---         BLOCKEND  ---      ---       LVL=0

      00FDCF71H   BLOCK     ECODE    ---       LVL=0
      00012975H   SYMBOL    XDATA    BYTE      return_state
      00012976H   SYMBOL    XDATA    BYTE      dat
      00012977H   SYMBOL    XDATA    WORD      timeout_count
      00FDCF71H   LINE      ECODE    ---       #407
      00FDCF71H   LINE      ECODE    ---       #408
      00FDCF71H   LINE      ECODE    ---       #409
      00FDCF76H   LINE      ECODE    ---       #410
      00FDCF7BH   LINE      ECODE    ---       #411
      00FDCF83H   LINE      ECODE    ---       #413
      00FDCF85H   LINE      ECODE    ---       #415
      00FDCF9CH   LINE      ECODE    ---       #417
      00FDCFA2H   LINE      ECODE    ---       #418
      00FDCFA4H   LINE      ECODE    ---       #419
      00FDCFA4H   LINE      ECODE    ---       #421
L251 LINKER/LOCATER V4.66.93.0                                                        03/25/2026  13:05:55  PAGE 203


      00FDCFB0H   LINE      ECODE    ---       #422
      00FDCFCEH   LINE      ECODE    ---       #423
      00FDCFD7H   LINE      ECODE    ---       #425
      00FDCFDBH   LINE      ECODE    ---       #426
      ---         BLOCKEND  ---      ---       LVL=0

      00FDCFDCH   BLOCK     ECODE    ---       LVL=0
      0001287CH   SYMBOL    XDATA    ---       dat
      00FDCFDCH   LINE      ECODE    ---       #435
      00FDCFDCH   LINE      ECODE    ---       #436
      00FDCFDCH   LINE      ECODE    ---       #439
      00FDCFEDH   LINE      ECODE    ---       #440
      00FDD005H   LINE      ECODE    ---       #441
      00FDD01DH   LINE      ECODE    ---       #442
      00FDD035H   LINE      ECODE    ---       #443
      ---         BLOCKEND  ---      ---       LVL=0

      00FDD036H   BLOCK     ECODE    ---       LVL=0
      00012882H   SYMBOL    XDATA    ---       dat
      00FDD036H   LINE      ECODE    ---       #453
      00FDD036H   LINE      ECODE    ---       #454
      00FDD036H   LINE      ECODE    ---       #457
      00FDD047H   LINE      ECODE    ---       #458
      00FDD05FH   LINE      ECODE    ---       #459
      00FDD077H   LINE      ECODE    ---       #460
      00FDD08FH   LINE      ECODE    ---       #461
      ---         BLOCKEND  ---      ---       LVL=0

      00FDD090H   BLOCK     ECODE    ---       LVL=0
      000127A5H   SYMBOL    XDATA    BYTE      temp_status
      000127A6H   SYMBOL    XDATA    ---       dat
      00FDD090H   LINE      ECODE    ---       #471
      00FDD090H   LINE      ECODE    ---       #472
      00FDD090H   LINE      ECODE    ---       #476
      00FDD098H   LINE      ECODE    ---       #477
      00FDD0A1H   LINE      ECODE    ---       #479
      00FDD0A8H   LINE      ECODE    ---       #481
      00FDD0B9H   LINE      ECODE    ---       #482
      00FDD0D1H   LINE      ECODE    ---       #483
      00FDD0E9H   LINE      ECODE    ---       #484
      00FDD101H   LINE      ECODE    ---       #485
      00FDD101H   LINE      ECODE    ---       #487
      00FDD108H   LINE      ECODE    ---       #488
      ---         BLOCKEND  ---      ---       LVL=0

      00FDD109H   BLOCK     ECODE    ---       LVL=0
      00012A10H   SYMBOL    XDATA    BYTE      return_state
      00FDD109H   LINE      ECODE    ---       #497
      00FDD109H   LINE      ECODE    ---       #498
      00FDD109H   LINE      ECODE    ---       #499
      00FDD10EH   LINE      ECODE    ---       #500
      00FDD12CH   LINE      ECODE    ---       #504
      00FDD166H   LINE      ECODE    ---       #505
      00FDD178H   LINE      ECODE    ---       #518
      00FDD178H   LINE      ECODE    ---       #520
      00FDD17FH   LINE      ECODE    ---       #521
      00FDD187H   LINE      ECODE    ---       #522
      00FDD19FH   LINE      ECODE    ---       #523
      00FDD1A6H   LINE      ECODE    ---       #525
      00FDD1AEH   LINE      ECODE    ---       #527
      00FDD1BAH   LINE      ECODE    ---       #528
      00FDD1C0H   LINE      ECODE    ---       #529
      00FDD1C3H   LINE      ECODE    ---       #530
      00FDD1C3H   LINE      ECODE    ---       #532
      00FDD1CBH   LINE      ECODE    ---       #539
L251 LINKER/LOCATER V4.66.93.0                                                        03/25/2026  13:05:55  PAGE 204


      00FDD1E3H   LINE      ECODE    ---       #541
      00FDD1E3H   LINE      ECODE    ---       #543
      00FDD1EFH   LINE      ECODE    ---       #544
      00FDD1F5H   LINE      ECODE    ---       #546
      00FDD1F7H   LINE      ECODE    ---       #548
      00FDD1F7H   LINE      ECODE    ---       #550
      00FDD1FFH   LINE      ECODE    ---       #551
      00FDD211H   LINE      ECODE    ---       #553
      00FDD213H   LINE      ECODE    ---       #555
      00FDD213H   LINE      ECODE    ---       #557
      00FDD21BH   LINE      ECODE    ---       #558
      00FDD22DH   LINE      ECODE    ---       #560
      00FDD22FH   LINE      ECODE    ---       #562
      00FDD22FH   LINE      ECODE    ---       #564
      00FDD237H   LINE      ECODE    ---       #565
      00FDD249H   LINE      ECODE    ---       #567
      00FDD24BH   LINE      ECODE    ---       #569
      00FDD24BH   LINE      ECODE    ---       #571
      00FDD253H   LINE      ECODE    ---       #572
      00FDD265H   LINE      ECODE    ---       #574
      00FDD265H   LINE      ECODE    ---       #575
      00FDD265H   LINE      ECODE    ---       #577
      00FDD271H   LINE      ECODE    ---       #579
      00FDD271H   LINE      ECODE    ---       #580
      00FDD271H   LINE      ECODE    ---       #589
      00FDD297H   LINE      ECODE    ---       #591
      00FDD297H   LINE      ECODE    ---       #593
      00FDD2A3H   LINE      ECODE    ---       #594
      00FDD2A9H   LINE      ECODE    ---       #596
      00FDD2ACH   LINE      ECODE    ---       #598
      00FDD2ACH   LINE      ECODE    ---       #600
      00FDD2B4H   LINE      ECODE    ---       #601
      00FDD2C6H   LINE      ECODE    ---       #603
      00FDD2C9H   LINE      ECODE    ---       #605
      00FDD2C9H   LINE      ECODE    ---       #607
      00FDD2D1H   LINE      ECODE    ---       #608
      00FDD2E3H   LINE      ECODE    ---       #610
      00FDD2E5H   LINE      ECODE    ---       #612
      00FDD2E5H   LINE      ECODE    ---       #614
      00FDD2EDH   LINE      ECODE    ---       #615
      00FDD2FFH   LINE      ECODE    ---       #617
      00FDD301H   LINE      ECODE    ---       #619
      00FDD301H   LINE      ECODE    ---       #621
      00FDD309H   LINE      ECODE    ---       #622
      00FDD31BH   LINE      ECODE    ---       #624
      00FDD31DH   LINE      ECODE    ---       #626
      00FDD31DH   LINE      ECODE    ---       #628
      00FDD325H   LINE      ECODE    ---       #629
      00FDD337H   LINE      ECODE    ---       #631
      00FDD339H   LINE      ECODE    ---       #633
      00FDD339H   LINE      ECODE    ---       #635
      00FDD341H   LINE      ECODE    ---       #636
      00FDD353H   LINE      ECODE    ---       #638
      00FDD353H   LINE      ECODE    ---       #639
      00FDD353H   LINE      ECODE    ---       #641
      00FDD35FH   LINE      ECODE    ---       #643
      00FDD35FH   LINE      ECODE    ---       #644
      00FDD35FH   LINE      ECODE    ---       #646
      00FDD367H   LINE      ECODE    ---       #647
      00FDD36FH   LINE      ECODE    ---       #648
      00FDD376H   LINE      ECODE    ---       #649
      00FDD37DH   LINE      ECODE    ---       #650
      00FDD384H   LINE      ECODE    ---       #651
      00FDD38CH   LINE      ECODE    ---       #653
      00FDD394H   LINE      ECODE    ---       #654
L251 LINKER/LOCATER V4.66.93.0                                                        03/25/2026  13:05:55  PAGE 205


      00FDD39CH   LINE      ECODE    ---       #655
      00FDD3B4H   LINE      ECODE    ---       #656
      00FDD3BBH   LINE      ECODE    ---       #657
      00FDD3D3H   LINE      ECODE    ---       #659
      00FDD3DEH   LINE      ECODE    ---       #660
      00FDD3F6H   LINE      ECODE    ---       #661
      00FDD400H   LINE      ECODE    ---       #662
      00FDD418H   LINE      ECODE    ---       #664
      00FDD420H   LINE      ECODE    ---       #666
      00FDD42CH   LINE      ECODE    ---       #667
      00FDD432H   LINE      ECODE    ---       #668
      00FDD435H   LINE      ECODE    ---       #669
      00FDD435H   LINE      ECODE    ---       #674
      00FDD445H   LINE      ECODE    ---       #676
      00FDD445H   LINE      ECODE    ---       #678
      00FDD451H   LINE      ECODE    ---       #679
      00FDD457H   LINE      ECODE    ---       #681
      00FDD459H   LINE      ECODE    ---       #683
      00FDD459H   LINE      ECODE    ---       #685
      00FDD464H   LINE      ECODE    ---       #686
      00FDD476H   LINE      ECODE    ---       #688
      00FDD478H   LINE      ECODE    ---       #690
      00FDD478H   LINE      ECODE    ---       #692
      00FDD483H   LINE      ECODE    ---       #693
      00FDD495H   LINE      ECODE    ---       #695
      00FDD495H   LINE      ECODE    ---       #696
      00FDD495H   LINE      ECODE    ---       #698
      00FDD49EH   LINE      ECODE    ---       #700
      00FDD49EH   LINE      ECODE    ---       #701
      00FDD49EH   LINE      ECODE    ---       #703
      00FDD4A9H   LINE      ECODE    ---       #704
      00FDD4B0H   LINE      ECODE    ---       #706
      00FDD4B7H   LINE      ECODE    ---       #708
      00FDD4D5H   LINE      ECODE    ---       #709
      00FDD4D5H   LINE      ECODE    ---       #712
      00FDD4D9H   LINE      ECODE    ---       #713
      ---         BLOCKEND  ---      ---       LVL=0

      ---         MODULE    ---      ---       usb
      00FDE692H   PUBLIC    ECODE    ---       usb_setup_in?
      00FDE6A6H   PUBLIC    ECODE    ---       usb_setup_out?
      00FDE6C5H   PUBLIC    ECODE    ---       usb_ctrl_in?
      00FDE763H   PUBLIC    ECODE    ---       usb_ctrl_out?
      00FDE5CDH   PUBLIC    ECODE    ---       usb_suspend?
      00FDE57BH   PUBLIC    ECODE    ---       usb_resume?
      00FDE432H   PUBLIC    ECODE    ---       usb_read_fifo?
      00FDE57CH   PUBLIC    ECODE    ---       usb_reset?
      00FDE5CEH   PUBLIC    ECODE    ---       usb_setup?
      00FDE493H   PUBLIC    ECODE    ---       usb_write_fifo?
      00FDE38BH   PUBLIC    ECODE    ---       usb_init?
      00FDE682H   PUBLIC    ECODE    ---       usb_setup_stall?
      00FDE6B6H   PUBLIC    ECODE    ---       usb_setup_status?
      00FDE3EBH   PUBLIC    ECODE    ---       usb_read_reg?
      00FDE7E4H   PUBLIC    ECODE    ---       usb_in_ep1?
      00FDE81AH   PUBLIC    ECODE    ---       usb_in_ep2?
      00FDE84DH   PUBLIC    ECODE    ---       usb_out_ep1?
      00FDE410H   PUBLIC    ECODE    ---       usb_write_reg?
      00FDE4DBH   PUBLIC    ECODE    ---       usb_isr?
      00000020H.0 PUBLIC    BIT      BIT       UsbInBusy
      00000020H.1 PUBLIC    BIT      BIT       UsbOutBusy
      00012093H   PUBLIC    XDATA    ---       Setup
      0001209BH   PUBLIC    XDATA    BYTE      DeviceState
      0001209CH   PUBLIC    XDATA    ---       Ep0State
      000120A3H   PUBLIC    XDATA    BYTE      InEpState
      000120A4H   PUBLIC    XDATA    BYTE      OutEpState
L251 LINKER/LOCATER V4.66.93.0                                                        03/25/2026  13:05:55  PAGE 206


      000000D0H   SFRSYM    DATA     BYTE      PSW
      0000009DH   SFRSYM    DATA     BYTE      IRCBAND
      00000097H   SFRSYM    DATA     BYTE      AUXR2
      000000EAH   SFRSYM    DATA     BYTE      CKCON
      000000EFH   SFRSYM    DATA     BYTE      AUXINTIF
      000000FDH   SFRSYM    DATA     BYTE      S4CON
      000000ACH   SFRSYM    DATA     BYTE      S3CON
      0000009AH   SFRSYM    DATA     BYTE      S2CON
      000000B7H   SFRSYM    DATA     BYTE      IPH
      000000CDH   SFRSYM    DATA     BYTE      SPSTAT
      000000DDH   SFRSYM    DATA     BYTE      T4T3M
      000000C1H   SFRSYM    DATA     BYTE      WDT_CONTR
      000000DFH   SFRSYM    DATA     BYTE      IP3
      000000F4H   SFRSYM    DATA     BYTE      USBCON
      000000B5H   SFRSYM    DATA     BYTE      IP2
      000000FFH   SFRSYM    DATA     BYTE      RSTCFG
      000000E0H   SFRSYM    DATA     BYTE      ACC
      000000DCH   SFRSYM    DATA     BYTE      USBCLK
      000000ECH   SFRSYM    DATA     BYTE      USBDAT
      000000C7H   SFRSYM    DATA     BYTE      IAP_CONTR
      000000F9H   SFRSYM    DATA     BYTE      LINICR
      000000FCH   SFRSYM    DATA     BYTE      USBADR
      0000008EH   SFRSYM    DATA     BYTE      AUXR
      000000F0H   SFRSYM    DATA     BYTE      B
      000000AFH   SFRSYM    DATA     BYTE      IE2
      00000088H   SFRSYM    DATA     BYTE      TCON
      00000089H   SFRSYM    DATA     BYTE      TMOD
      00000098H   SFRSYM    DATA     BYTE      SCON
      00000087H   SFRSYM    DATA     BYTE      PCON
      000000BCH   SFRSYM    DATA     BYTE      ADC_CONTR
      000000AFH.7 SFRSYM    DATA     BIT       EUSB
      000000D1H   SFRSYM    DATA     BYTE      PSW1
      000000E7H   SFRSYM    DATA     BYTE      CMPCR2
      000000E6H   SFRSYM    DATA     BYTE      CMPCR1
      000000DEH   SFRSYM    DATA     BYTE      ADCCFG
      000000B8H   SFRSYM    DATA     BYTE      IP
      0000008FH   SFRSYM    DATA     BYTE      INTCLKO
      000000EEH   SFRSYM    DATA     BYTE      IP3H
      000000B6H   SFRSYM    DATA     BYTE      IP2H
      000000BFH   SFRSYM    DATA     BYTE      P_SW4
      000000A8H   SFRSYM    DATA     BYTE      IE
      000000BBH   SFRSYM    DATA     BYTE      P_SW3
      000000BAH   SFRSYM    DATA     BYTE      P_SW2
      000000A2H   SFRSYM    DATA     BYTE      P_SW1
      000000CEH   SFRSYM    DATA     BYTE      SPCTL
      000000F8H   SFRSYM    DATA     BYTE      P7
      000000E8H   SFRSYM    DATA     BYTE      P6
      000000C8H   SFRSYM    DATA     BYTE      P5
      000000C0H   SFRSYM    DATA     BYTE      P4
      000000ABH   SFRSYM    DATA     BYTE      WKTCH
      000000B0H   SFRSYM    DATA     BYTE      P3
      000000A0H   SFRSYM    DATA     BYTE      P2
      00000090H   SFRSYM    DATA     BYTE      P1
      00000080H   SFRSYM    DATA     BYTE      P0

      00FDE38BH   BLOCK     ECODE    ---       LVL=0
      00FDE38BH   LINE      ECODE    ---       #36
      00FDE38BH   LINE      ECODE    ---       #44
      00FDE38EH   LINE      ECODE    ---       #45
      00FDE392H   LINE      ECODE    ---       #47
      00FDE399H   LINE      ECODE    ---       #48
      00FDE3A2H   LINE      ECODE    ---       #49
      00FDE3ABH   LINE      ECODE    ---       #50
      00FDE3B4H   LINE      ECODE    ---       #51
      00FDE3BDH   LINE      ECODE    ---       #52
L251 LINKER/LOCATER V4.66.93.0                                                        03/25/2026  13:05:55  PAGE 207


      00FDE3C5H   LINE      ECODE    ---       #54
      00FDE3CBH   LINE      ECODE    ---       #55
      00FDE3D0H   LINE      ECODE    ---       #56
      00FDE3D5H   LINE      ECODE    ---       #57
      00FDE3DAH   LINE      ECODE    ---       #59
      00FDE3DDH   LINE      ECODE    ---       #60
      00FDE3E0H   LINE      ECODE    ---       #65
      00FDE3E3H   LINE      ECODE    ---       #66
      00FDE3E6H   LINE      ECODE    ---       #68
      00FDE3EAH   LINE      ECODE    ---       #69
      ---         BLOCKEND  ---      ---       LVL=0

      00FDE3EBH   BLOCK     ECODE    ---       LVL=0
      000129F8H   SYMBOL    XDATA    BYTE      addr
      00FDE3EFH   BLOCK     ECODE    NEAR LAB  LVL=1
      000129F9H   SYMBOL    XDATA    BYTE      dat
      ---         BLOCKEND  ---      ---       LVL=1
      00FDE3EBH   LINE      ECODE    ---       #71
      00FDE3EFH   LINE      ECODE    ---       #72
      00FDE3EFH   LINE      ECODE    ---       #75
      00FDE3F4H   LINE      ECODE    ---       #76
      00FDE400H   LINE      ECODE    ---       #77
      00FDE405H   LINE      ECODE    ---       #78
      00FDE40BH   LINE      ECODE    ---       #80
      00FDE40FH   LINE      ECODE    ---       #81
      ---         BLOCKEND  ---      ---       LVL=0

      00FDE410H   BLOCK     ECODE    ---       LVL=0
      000129FAH   SYMBOL    XDATA    BYTE      addr
      000129FBH   SYMBOL    XDATA    BYTE      dat
      00FDE410H   LINE      ECODE    ---       #83
      00FDE41AH   LINE      ECODE    ---       #85
      00FDE41FH   LINE      ECODE    ---       #86
      00FDE42BH   LINE      ECODE    ---       #87
      00FDE431H   LINE      ECODE    ---       #88
      ---         BLOCKEND  ---      ---       LVL=0

      00FDE432H   BLOCK     ECODE    ---       LVL=0
      000127ACH   SYMBOL    XDATA    BYTE      fifo
      000127ADH   SYMBOL    XDATA    ---       pdat
      00FDE440H   BLOCK     ECODE    NEAR LAB  LVL=1
      000127B1H   SYMBOL    XDATA    BYTE      cnt
      000127B2H   SYMBOL    XDATA    BYTE      ret
      ---         BLOCKEND  ---      ---       LVL=1
      00FDE432H   LINE      ECODE    ---       #90
      00FDE440H   LINE      ECODE    ---       #91
      00FDE440H   LINE      ECODE    ---       #95
      00FDE44EH   LINE      ECODE    ---       #96
      00FDE450H   LINE      ECODE    ---       #98
      00FDE47BH   LINE      ECODE    ---       #99
      00FDE48EH   LINE      ECODE    ---       #101
      00FDE492H   LINE      ECODE    ---       #102
      ---         BLOCKEND  ---      ---       LVL=0

      00FDE493H   BLOCK     ECODE    ---       LVL=0
      00012888H   SYMBOL    XDATA    BYTE      fifo
      00012889H   SYMBOL    XDATA    ---       pdat
      0001288DH   SYMBOL    XDATA    BYTE      cnt
      00FDE493H   LINE      ECODE    ---       #104
      00FDE4A7H   LINE      ECODE    ---       #106
      00FDE4A9H   LINE      ECODE    ---       #108
      00FDE4C7H   LINE      ECODE    ---       #109
      00FDE4DAH   LINE      ECODE    ---       #110
      ---         BLOCKEND  ---      ---       LVL=0

L251 LINKER/LOCATER V4.66.93.0                                                        03/25/2026  13:05:55  PAGE 208


      00FDE4DBH   BLOCK     ECODE    ---       LVL=0
      00FDE4EFH   BLOCK     ECODE    NEAR LAB  LVL=1
      00012979H   SYMBOL    XDATA    BYTE      intrusb
      0001297AH   SYMBOL    XDATA    BYTE      intrin
      0001297BH   SYMBOL    XDATA    BYTE      introut
      0001297CH   SYMBOL    XDATA    BYTE      adrTemp
      ---         BLOCKEND  ---      ---       LVL=1
      00FDE4DBH   LINE      ECODE    ---       #112
      00FDE4EFH   LINE      ECODE    ---       #113
      00FDE4EFH   LINE      ECODE    ---       #119
      00FDE4F5H   LINE      ECODE    ---       #121
      00FDE4FFH   LINE      ECODE    ---       #122
      00FDE509H   LINE      ECODE    ---       #123
      00FDE513H   LINE      ECODE    ---       #125
      00FDE51EH   LINE      ECODE    ---       #126
      00FDE529H   LINE      ECODE    ---       #128
      00FDE534H   LINE      ECODE    ---       #131
      00FDE53FH   LINE      ECODE    ---       #134
      00FDE54AH   LINE      ECODE    ---       #147
      00FDE555H   LINE      ECODE    ---       #162
      00FDE560H   LINE      ECODE    ---       #164
      00FDE566H   LINE      ECODE    ---       #165
      ---         BLOCKEND  ---      ---       LVL=0

      00FDE57BH   BLOCK     ECODE    ---       LVL=0
      00FDE57BH   LINE      ECODE    ---       #167
      00FDE57BH   LINE      ECODE    ---       #169
      ---         BLOCKEND  ---      ---       LVL=0

      00FDE57CH   BLOCK     ECODE    ---       LVL=0
      00FDE57CH   LINE      ECODE    ---       #171
      00FDE57CH   LINE      ECODE    ---       #173
      00FDE583H   LINE      ECODE    ---       #174
      00FDE589H   LINE      ECODE    ---       #175
      00FDE58EH   LINE      ECODE    ---       #178
      00FDE597H   LINE      ECODE    ---       #179
      00FDE5A0H   LINE      ECODE    ---       #182
      00FDE5A9H   LINE      ECODE    ---       #183
      00FDE5B2H   LINE      ECODE    ---       #198
      00FDE5BBH   LINE      ECODE    ---       #199
      00FDE5C4H   LINE      ECODE    ---       #217
      00FDE5CCH   LINE      ECODE    ---       #218
      ---         BLOCKEND  ---      ---       LVL=0

      00FDE5CDH   BLOCK     ECODE    ---       LVL=0
      00FDE5CDH   LINE      ECODE    ---       #220
      00FDE5CDH   LINE      ECODE    ---       #222
      ---         BLOCKEND  ---      ---       LVL=0

      00FDE5CEH   BLOCK     ECODE    ---       LVL=0
      00012A11H   SYMBOL    XDATA    BYTE      csr
      00FDE5CEH   LINE      ECODE    ---       #224
      00FDE5CEH   LINE      ECODE    ---       #225
      00FDE5CEH   LINE      ECODE    ---       #228
      00FDE5D6H   LINE      ECODE    ---       #229
      00FDE5E0H   LINE      ECODE    ---       #231
      00FDE5E7H   LINE      ECODE    ---       #233
      00FDE5F8H   LINE      ECODE    ---       #234
      00FDE5FDH   LINE      ECODE    ---       #235
      00FDE5FDH   LINE      ECODE    ---       #236
      00FDE604H   LINE      ECODE    ---       #238
      00FDE615H   LINE      ECODE    ---       #239
      00FDE615H   LINE      ECODE    ---       #241
      00FDE624H   LINE      ECODE    ---       #243
      00FDE624H   LINE      ECODE    ---       #244
L251 LINKER/LOCATER V4.66.93.0                                                        03/25/2026  13:05:55  PAGE 209


      00FDE62BH   LINE      ECODE    ---       #246
      00FDE639H   LINE      ECODE    ---       #247
      00FDE649H   LINE      ECODE    ---       #248
      00FDE65FH   LINE      ECODE    ---       #250
      00FDE65FH   LINE      ECODE    ---       #251
      00FDE663H   LINE      ECODE    ---       #252
      00FDE665H   LINE      ECODE    ---       #253
      00FDE665H   LINE      ECODE    ---       #254
      00FDE669H   LINE      ECODE    ---       #255
      00FDE66BH   LINE      ECODE    ---       #256
      00FDE66BH   LINE      ECODE    ---       #257
      00FDE66FH   LINE      ECODE    ---       #258
      00FDE671H   LINE      ECODE    ---       #259
      00FDE671H   LINE      ECODE    ---       #260
      00FDE675H   LINE      ECODE    ---       #261
      00FDE677H   LINE      ECODE    ---       #262
      00FDE677H   LINE      ECODE    ---       #263
      00FDE677H   LINE      ECODE    ---       #264
      00FDE677H   LINE      ECODE    ---       #265
      00FDE677H   LINE      ECODE    ---       #266
      00FDE67BH   LINE      ECODE    ---       #267
      00FDE67DH   LINE      ECODE    ---       #268
      00FDE67DH   LINE      ECODE    ---       #269
      00FDE681H   LINE      ECODE    ---       #270
      00FDE681H   LINE      ECODE    ---       #271
      00FDE681H   LINE      ECODE    ---       #272
      ---         BLOCKEND  ---      ---       LVL=0

      00FDE682H   BLOCK     ECODE    ---       LVL=0
      00FDE682H   LINE      ECODE    ---       #274
      00FDE682H   LINE      ECODE    ---       #276
      00FDE688H   LINE      ECODE    ---       #277
      00FDE691H   LINE      ECODE    ---       #278
      ---         BLOCKEND  ---      ---       LVL=0

      00FDE692H   BLOCK     ECODE    ---       LVL=0
      00FDE692H   LINE      ECODE    ---       #280
      00FDE692H   LINE      ECODE    ---       #282
      00FDE698H   LINE      ECODE    ---       #283
      00FDE6A1H   LINE      ECODE    ---       #284
      00FDE6A5H   LINE      ECODE    ---       #285
      ---         BLOCKEND  ---      ---       LVL=0

      00FDE6A6H   BLOCK     ECODE    ---       LVL=0
      00FDE6A6H   LINE      ECODE    ---       #287
      00FDE6A6H   LINE      ECODE    ---       #289
      00FDE6ACH   LINE      ECODE    ---       #290
      00FDE6B5H   LINE      ECODE    ---       #291
      ---         BLOCKEND  ---      ---       LVL=0

      00FDE6B6H   BLOCK     ECODE    ---       LVL=0
      00FDE6B6H   LINE      ECODE    ---       #293
      00FDE6B6H   LINE      ECODE    ---       #295
      00FDE6BBH   LINE      ECODE    ---       #296
      00FDE6C4H   LINE      ECODE    ---       #297
      ---         BLOCKEND  ---      ---       LVL=0

      00FDE6C5H   BLOCK     ECODE    ---       LVL=0
      000129FCH   SYMBOL    XDATA    BYTE      csr
      000129FDH   SYMBOL    XDATA    BYTE      cnt
      00FDE6C5H   LINE      ECODE    ---       #299
      00FDE6C5H   LINE      ECODE    ---       #300
      00FDE6C5H   LINE      ECODE    ---       #304
      00FDE6CDH   LINE      ECODE    ---       #305
      00FDE6D7H   LINE      ECODE    ---       #306
L251 LINKER/LOCATER V4.66.93.0                                                        03/25/2026  13:05:55  PAGE 210


      00FDE6E1H   LINE      ECODE    ---       #308
      00FDE6FDH   LINE      ECODE    ---       #309
      00FDE713H   LINE      ECODE    ---       #310
      00FDE724H   LINE      ECODE    ---       #311
      00FDE73DH   LINE      ECODE    ---       #312
      00FDE749H   LINE      ECODE    ---       #314
      00FDE752H   LINE      ECODE    ---       #315
      00FDE757H   LINE      ECODE    ---       #316
      00FDE759H   LINE      ECODE    ---       #319
      00FDE762H   LINE      ECODE    ---       #320
      00FDE762H   LINE      ECODE    ---       #321
      ---         BLOCKEND  ---      ---       LVL=0

      00FDE763H   BLOCK     ECODE    ---       LVL=0
      000129FEH   SYMBOL    XDATA    BYTE      csr
      000129FFH   SYMBOL    XDATA    BYTE      cnt
      00FDE763H   LINE      ECODE    ---       #323
      00FDE763H   LINE      ECODE    ---       #324
      00FDE763H   LINE      ECODE    ---       #328
      00FDE76BH   LINE      ECODE    ---       #329
      00FDE775H   LINE      ECODE    ---       #330
      00FDE77CH   LINE      ECODE    ---       #332
      00FDE790H   LINE      ECODE    ---       #333
      00FDE7A1H   LINE      ECODE    ---       #334
      00FDE7BAH   LINE      ECODE    ---       #335
      00FDE7C6H   LINE      ECODE    ---       #337
      00FDE7CFH   LINE      ECODE    ---       #338
      00FDE7D4H   LINE      ECODE    ---       #339
      00FDE7D6H   LINE      ECODE    ---       #342
      00FDE7DFH   LINE      ECODE    ---       #343
      00FDE7DFH   LINE      ECODE    ---       #345
      00FDE7E3H   LINE      ECODE    ---       #346
      ---         BLOCKEND  ---      ---       LVL=0

      00FDE7E4H   BLOCK     ECODE    ---       LVL=0
      00012A12H   SYMBOL    XDATA    BYTE      csr
      00FDE7E4H   LINE      ECODE    ---       #349
      00FDE7E4H   LINE      ECODE    ---       #350
      00FDE7E4H   LINE      ECODE    ---       #353
      00FDE7EDH   LINE      ECODE    ---       #354
      00FDE7F7H   LINE      ECODE    ---       #355
      00FDE7FEH   LINE      ECODE    ---       #357
      00FDE807H   LINE      ECODE    ---       #358
      00FDE807H   LINE      ECODE    ---       #359
      00FDE80EH   LINE      ECODE    ---       #361
      00FDE816H   LINE      ECODE    ---       #362
      00FDE816H   LINE      ECODE    ---       #364
      00FDE819H   LINE      ECODE    ---       #365
      ---         BLOCKEND  ---      ---       LVL=0

      00FDE81AH   BLOCK     ECODE    ---       LVL=0
      00012A13H   SYMBOL    XDATA    BYTE      csr
      00FDE81AH   LINE      ECODE    ---       #369
      00FDE81AH   LINE      ECODE    ---       #370
      00FDE81AH   LINE      ECODE    ---       #373
      00FDE823H   LINE      ECODE    ---       #374
      00FDE82DH   LINE      ECODE    ---       #375
      00FDE834H   LINE      ECODE    ---       #377
      00FDE83DH   LINE      ECODE    ---       #378
      00FDE83DH   LINE      ECODE    ---       #379
      00FDE844H   LINE      ECODE    ---       #381
      00FDE84CH   LINE      ECODE    ---       #382
      ---         BLOCKEND  ---      ---       LVL=0

      00FDE84DH   BLOCK     ECODE    ---       LVL=0
L251 LINKER/LOCATER V4.66.93.0                                                        03/25/2026  13:05:55  PAGE 211


      00011710H   SYMBOL    XDATA    BYTE      csr
      00011711H   SYMBOL    XDATA    BYTE      cnt
      00011712H   SYMBOL    XDATA    BYTE      idx
      00011713H   SYMBOL    XDATA    ---       rx_buff
      00FDE84DH   LINE      ECODE    ---       #444
      00FDE84DH   LINE      ECODE    ---       #445
      00FDE84DH   LINE      ECODE    ---       #451
      00FDE856H   LINE      ECODE    ---       #452
      00FDE860H   LINE      ECODE    ---       #455
      00FDE867H   LINE      ECODE    ---       #457
      00FDE870H   LINE      ECODE    ---       #458
      00FDE870H   LINE      ECODE    ---       #460
      00FDE877H   LINE      ECODE    ---       #462
      00FDE881H   LINE      ECODE    ---       #463
      00FDE888H   LINE      ECODE    ---       #465
      00FDE8A5H   LINE      ECODE    ---       #466
      00FDE8BEH   LINE      ECODE    ---       #469
      00FDE8CCH   LINE      ECODE    ---       #471
      00FDE8E6H   LINE      ECODE    ---       #472
      00FDE8E6H   LINE      ECODE    ---       #474
      00FDE8EEH   LINE      ECODE    ---       #475
      ---         BLOCKEND  ---      ---       LVL=0

      ---         MODULE    ---      ---       usb_desc
      00FF090FH   PUBLIC    CODE     ---       PRODUCTDESC
      00FF092DH   PUBLIC    CODE     ---       LANGIDDESC
      00FF0931H   PUBLIC    CODE     ---       DEVICEDESC
      00FF0943H   PUBLIC    CODE     ---       CONFIGDESC
      00FF0986H   PUBLIC    CODE     ---       PACKET0
      00FF0988H   PUBLIC    CODE     ---       PACKET1
      00FF098AH   PUBLIC    CODE     ---       MANUFACTDESC
      000000D0H   SFRSYM    DATA     BYTE      PSW
      0000009DH   SFRSYM    DATA     BYTE      IRCBAND
      00000097H   SFRSYM    DATA     BYTE      AUXR2
      000000EAH   SFRSYM    DATA     BYTE      CKCON
      000000EFH   SFRSYM    DATA     BYTE      AUXINTIF
      000000FDH   SFRSYM    DATA     BYTE      S4CON
      000000ACH   SFRSYM    DATA     BYTE      S3CON
      0000009AH   SFRSYM    DATA     BYTE      S2CON
      000000B7H   SFRSYM    DATA     BYTE      IPH
      000000CDH   SFRSYM    DATA     BYTE      SPSTAT
      000000DDH   SFRSYM    DATA     BYTE      T4T3M
      000000C1H   SFRSYM    DATA     BYTE      WDT_CONTR
      000000DFH   SFRSYM    DATA     BYTE      IP3
      000000F4H   SFRSYM    DATA     BYTE      USBCON
      000000B5H   SFRSYM    DATA     BYTE      IP2
      000000FFH   SFRSYM    DATA     BYTE      RSTCFG
      000000E0H   SFRSYM    DATA     BYTE      ACC
      000000C7H   SFRSYM    DATA     BYTE      IAP_CONTR
      000000F9H   SFRSYM    DATA     BYTE      LINICR
      0000008EH   SFRSYM    DATA     BYTE      AUXR
      000000F0H   SFRSYM    DATA     BYTE      B
      000000AFH   SFRSYM    DATA     BYTE      IE2
      00000088H   SFRSYM    DATA     BYTE      TCON
      00000089H   SFRSYM    DATA     BYTE      TMOD
      00000098H   SFRSYM    DATA     BYTE      SCON
      00000087H   SFRSYM    DATA     BYTE      PCON
      000000BCH   SFRSYM    DATA     BYTE      ADC_CONTR
      000000D1H   SFRSYM    DATA     BYTE      PSW1
      000000E7H   SFRSYM    DATA     BYTE      CMPCR2
      000000E6H   SFRSYM    DATA     BYTE      CMPCR1
      000000DEH   SFRSYM    DATA     BYTE      ADCCFG
      000000B8H   SFRSYM    DATA     BYTE      IP
      0000008FH   SFRSYM    DATA     BYTE      INTCLKO
      000000EEH   SFRSYM    DATA     BYTE      IP3H
L251 LINKER/LOCATER V4.66.93.0                                                        03/25/2026  13:05:55  PAGE 212


      000000B6H   SFRSYM    DATA     BYTE      IP2H
      000000BFH   SFRSYM    DATA     BYTE      P_SW4
      000000A8H   SFRSYM    DATA     BYTE      IE
      000000BBH   SFRSYM    DATA     BYTE      P_SW3
      000000BAH   SFRSYM    DATA     BYTE      P_SW2
      000000A2H   SFRSYM    DATA     BYTE      P_SW1
      000000CEH   SFRSYM    DATA     BYTE      SPCTL
      000000F8H   SFRSYM    DATA     BYTE      P7
      000000E8H   SFRSYM    DATA     BYTE      P6
      000000C8H   SFRSYM    DATA     BYTE      P5
      000000C0H   SFRSYM    DATA     BYTE      P4
      000000ABH   SFRSYM    DATA     BYTE      WKTCH
      000000B0H   SFRSYM    DATA     BYTE      P3
      000000A0H   SFRSYM    DATA     BYTE      P2
      00000090H   SFRSYM    DATA     BYTE      P1
      00000080H   SFRSYM    DATA     BYTE      P0

      ---         MODULE    ---      ---       usb_req_class
      00FDFF6EH   PUBLIC    ECODE    ---       usb_set_ctrl_line_state?
      00FDFF8BH   PUBLIC    ECODE    ---       usb_uart_settings?
      00FDFF33H   PUBLIC    ECODE    ---       usb_get_line_coding?
      00FDFEF8H   PUBLIC    ECODE    ---       usb_set_line_coding?
      00FDFED2H   PUBLIC    ECODE    ---       usb_req_class?
      000127B3H   PUBLIC    XDATA    ---       LineCoding
      000000D0H   SFRSYM    DATA     BYTE      PSW
      0000009DH   SFRSYM    DATA     BYTE      IRCBAND
      00000097H   SFRSYM    DATA     BYTE      AUXR2
      000000EAH   SFRSYM    DATA     BYTE      CKCON
      000000EFH   SFRSYM    DATA     BYTE      AUXINTIF
      000000FDH   SFRSYM    DATA     BYTE      S4CON
      000000ACH   SFRSYM    DATA     BYTE      S3CON
      0000009AH   SFRSYM    DATA     BYTE      S2CON
      000000B7H   SFRSYM    DATA     BYTE      IPH
      000000CDH   SFRSYM    DATA     BYTE      SPSTAT
      000000DDH   SFRSYM    DATA     BYTE      T4T3M
      000000C1H   SFRSYM    DATA     BYTE      WDT_CONTR
      000000DFH   SFRSYM    DATA     BYTE      IP3
      000000F4H   SFRSYM    DATA     BYTE      USBCON
      000000B5H   SFRSYM    DATA     BYTE      IP2
      000000FFH   SFRSYM    DATA     BYTE      RSTCFG
      000000E0H   SFRSYM    DATA     BYTE      ACC
      000000C7H   SFRSYM    DATA     BYTE      IAP_CONTR
      000000F9H   SFRSYM    DATA     BYTE      LINICR
      0000008EH   SFRSYM    DATA     BYTE      AUXR
      000000F0H   SFRSYM    DATA     BYTE      B
      000000AFH   SFRSYM    DATA     BYTE      IE2
      00000088H   SFRSYM    DATA     BYTE      TCON
      00000089H   SFRSYM    DATA     BYTE      TMOD
      00000098H   SFRSYM    DATA     BYTE      SCON
      00000087H   SFRSYM    DATA     BYTE      PCON
      000000BCH   SFRSYM    DATA     BYTE      ADC_CONTR
      000000D1H   SFRSYM    DATA     BYTE      PSW1
      000000E7H   SFRSYM    DATA     BYTE      CMPCR2
      000000E6H   SFRSYM    DATA     BYTE      CMPCR1
      000000DEH   SFRSYM    DATA     BYTE      ADCCFG
      000000B8H   SFRSYM    DATA     BYTE      IP
      0000008FH   SFRSYM    DATA     BYTE      INTCLKO
      000000EEH   SFRSYM    DATA     BYTE      IP3H
      000000B6H   SFRSYM    DATA     BYTE      IP2H
      000000BFH   SFRSYM    DATA     BYTE      P_SW4
      000000A8H   SFRSYM    DATA     BYTE      IE
      000000BBH   SFRSYM    DATA     BYTE      P_SW3
      000000BAH   SFRSYM    DATA     BYTE      P_SW2
      000000A2H   SFRSYM    DATA     BYTE      P_SW1
      000000CEH   SFRSYM    DATA     BYTE      SPCTL
L251 LINKER/LOCATER V4.66.93.0                                                        03/25/2026  13:05:55  PAGE 213


      000000F8H   SFRSYM    DATA     BYTE      P7
      000000E8H   SFRSYM    DATA     BYTE      P6
      000000C8H   SFRSYM    DATA     BYTE      P5
      000000C0H   SFRSYM    DATA     BYTE      P4
      000000ABH   SFRSYM    DATA     BYTE      WKTCH
      000000B0H   SFRSYM    DATA     BYTE      P3
      000000A0H   SFRSYM    DATA     BYTE      P2
      00000090H   SFRSYM    DATA     BYTE      P1
      00000080H   SFRSYM    DATA     BYTE      P0

      00FDFED2H   BLOCK     ECODE    ---       LVL=0
      00FDFED2H   LINE      ECODE    ---       #21
      00FDFED2H   LINE      ECODE    ---       #23
      00FDFEE1H   LINE      ECODE    ---       #25
      00FDFEE1H   LINE      ECODE    ---       #26
      00FDFEE5H   LINE      ECODE    ---       #27
      00FDFEE7H   LINE      ECODE    ---       #28
      00FDFEE7H   LINE      ECODE    ---       #29
      00FDFEEBH   LINE      ECODE    ---       #30
      00FDFEEDH   LINE      ECODE    ---       #31
      00FDFEEDH   LINE      ECODE    ---       #32
      00FDFEF1H   LINE      ECODE    ---       #33
      00FDFEF3H   LINE      ECODE    ---       #34
      00FDFEF3H   LINE      ECODE    ---       #35
      00FDFEF7H   LINE      ECODE    ---       #36
      00FDFEF7H   LINE      ECODE    ---       #37
      00FDFEF7H   LINE      ECODE    ---       #38
      ---         BLOCKEND  ---      ---       LVL=0

      00FDFEF8H   BLOCK     ECODE    ---       LVL=0
      00FDFEF8H   LINE      ECODE    ---       #40
      00FDFEF8H   LINE      ECODE    ---       #42
      00FDFF0AH   LINE      ECODE    ---       #45
      00FDFF0EH   LINE      ECODE    ---       #46
      00FDFF10H   LINE      ECODE    ---       #47
      00FDFF10H   LINE      ECODE    ---       #49
      00FDFF22H   LINE      ECODE    ---       #50
      00FDFF2EH   LINE      ECODE    ---       #52
      00FDFF32H   LINE      ECODE    ---       #53
      ---         BLOCKEND  ---      ---       LVL=0

      00FDFF33H   BLOCK     ECODE    ---       LVL=0
      00FDFF33H   LINE      ECODE    ---       #55
      00FDFF33H   LINE      ECODE    ---       #57
      00FDFF45H   LINE      ECODE    ---       #60
      00FDFF49H   LINE      ECODE    ---       #61
      00FDFF4BH   LINE      ECODE    ---       #62
      00FDFF4BH   LINE      ECODE    ---       #64
      00FDFF5DH   LINE      ECODE    ---       #65
      00FDFF69H   LINE      ECODE    ---       #67
      00FDFF6DH   LINE      ECODE    ---       #68
      ---         BLOCKEND  ---      ---       LVL=0

      00FDFF6EH   BLOCK     ECODE    ---       LVL=0
      00FDFF6EH   LINE      ECODE    ---       #70
      00FDFF6EH   LINE      ECODE    ---       #72
      00FDFF80H   LINE      ECODE    ---       #75
      00FDFF84H   LINE      ECODE    ---       #76
      00FDFF86H   LINE      ECODE    ---       #77
      00FDFF86H   LINE      ECODE    ---       #79
      00FDFF8AH   LINE      ECODE    ---       #80
      ---         BLOCKEND  ---      ---       LVL=0

      00FDFF8BH   BLOCK     ECODE    ---       LVL=0
      00FDFF8BH   LINE      ECODE    ---       #82
L251 LINKER/LOCATER V4.66.93.0                                                        03/25/2026  13:05:55  PAGE 214


      00FDFF8BH   LINE      ECODE    ---       #84
      00FDFF94H   LINE      ECODE    ---       #86
      00FDFF99H   LINE      ECODE    ---       #87
      00FDFF9FH   LINE      ECODE    ---       #91
      ---         BLOCKEND  ---      ---       LVL=0

      ---         MODULE    ---      ---       usb_req_std
      00FDE2F2H   PUBLIC    ECODE    ---       usb_get_interface?
      00FDDE7BH   PUBLIC    ECODE    ---       usb_clear_feature?
      00FDE34BH   PUBLIC    ECODE    ---       usb_set_interface?
      00FDE0A0H   PUBLIC    ECODE    ---       usb_get_descriptor?
      00FDE19AH   PUBLIC    ECODE    ---       usb_set_descriptor?
      00FDDC37H   PUBLIC    ECODE    ---       usb_req_std?
      00FDE386H   PUBLIC    ECODE    ---       usb_synch_frame?
      00FDE02FH   PUBLIC    ECODE    ---       usb_set_address?
      00FDDF5AH   PUBLIC    ECODE    ---       usb_set_feature?
      00FDE19FH   PUBLIC    ECODE    ---       usb_get_configuration?
      00FDE228H   PUBLIC    ECODE    ---       usb_set_configuration?
      00FDDCB6H   PUBLIC    ECODE    ---       usb_get_status?
      000000D0H   SFRSYM    DATA     BYTE      PSW
      0000009DH   SFRSYM    DATA     BYTE      IRCBAND
      00000097H   SFRSYM    DATA     BYTE      AUXR2
      000000EAH   SFRSYM    DATA     BYTE      CKCON
      000000EFH   SFRSYM    DATA     BYTE      AUXINTIF
      000000FDH   SFRSYM    DATA     BYTE      S4CON
      000000ACH   SFRSYM    DATA     BYTE      S3CON
      0000009AH   SFRSYM    DATA     BYTE      S2CON
      000000B7H   SFRSYM    DATA     BYTE      IPH
      000000CDH   SFRSYM    DATA     BYTE      SPSTAT
      000000DDH   SFRSYM    DATA     BYTE      T4T3M
      000000C1H   SFRSYM    DATA     BYTE      WDT_CONTR
      000000DFH   SFRSYM    DATA     BYTE      IP3
      000000F4H   SFRSYM    DATA     BYTE      USBCON
      000000B5H   SFRSYM    DATA     BYTE      IP2
      000000FFH   SFRSYM    DATA     BYTE      RSTCFG
      000000E0H   SFRSYM    DATA     BYTE      ACC
      000000C7H   SFRSYM    DATA     BYTE      IAP_CONTR
      000000F9H   SFRSYM    DATA     BYTE      LINICR
      0000008EH   SFRSYM    DATA     BYTE      AUXR
      000000F0H   SFRSYM    DATA     BYTE      B
      000000AFH   SFRSYM    DATA     BYTE      IE2
      00000088H   SFRSYM    DATA     BYTE      TCON
      00000089H   SFRSYM    DATA     BYTE      TMOD
      00000098H   SFRSYM    DATA     BYTE      SCON
      00000087H   SFRSYM    DATA     BYTE      PCON
      000000BCH   SFRSYM    DATA     BYTE      ADC_CONTR
      000000D1H   SFRSYM    DATA     BYTE      PSW1
      000000E7H   SFRSYM    DATA     BYTE      CMPCR2
      000000E6H   SFRSYM    DATA     BYTE      CMPCR1
      000000DEH   SFRSYM    DATA     BYTE      ADCCFG
      000000B8H   SFRSYM    DATA     BYTE      IP
      0000008FH   SFRSYM    DATA     BYTE      INTCLKO
      000000EEH   SFRSYM    DATA     BYTE      IP3H
      000000B6H   SFRSYM    DATA     BYTE      IP2H
      000000BFH   SFRSYM    DATA     BYTE      P_SW4
      000000A8H   SFRSYM    DATA     BYTE      IE
      000000BBH   SFRSYM    DATA     BYTE      P_SW3
      000000BAH   SFRSYM    DATA     BYTE      P_SW2
      000000A2H   SFRSYM    DATA     BYTE      P_SW1
      000000CEH   SFRSYM    DATA     BYTE      SPCTL
      000000F8H   SFRSYM    DATA     BYTE      P7
      000000E8H   SFRSYM    DATA     BYTE      P6
      000000C8H   SFRSYM    DATA     BYTE      P5
      000000C0H   SFRSYM    DATA     BYTE      P4
      000000ABH   SFRSYM    DATA     BYTE      WKTCH
L251 LINKER/LOCATER V4.66.93.0                                                        03/25/2026  13:05:55  PAGE 215


      000000B0H   SFRSYM    DATA     BYTE      P3
      000000A0H   SFRSYM    DATA     BYTE      P2
      00000090H   SFRSYM    DATA     BYTE      P1
      00000080H   SFRSYM    DATA     BYTE      P0

      00FDDC37H   BLOCK     ECODE    ---       LVL=0
      00FDDC37H   LINE      ECODE    ---       #19
      00FDDC37H   LINE      ECODE    ---       #21
      00FDDC6FH   LINE      ECODE    ---       #23
      00FDDC6FH   LINE      ECODE    ---       #24
      00FDDC73H   LINE      ECODE    ---       #25
      00FDDC75H   LINE      ECODE    ---       #26
      00FDDC75H   LINE      ECODE    ---       #27
      00FDDC79H   LINE      ECODE    ---       #28
      00FDDC7BH   LINE      ECODE    ---       #29
      00FDDC7BH   LINE      ECODE    ---       #30
      00FDDC7FH   LINE      ECODE    ---       #31
      00FDDC81H   LINE      ECODE    ---       #32
      00FDDC81H   LINE      ECODE    ---       #33
      00FDDC85H   LINE      ECODE    ---       #34
      00FDDC87H   LINE      ECODE    ---       #35
      00FDDC87H   LINE      ECODE    ---       #36
      00FDDC8BH   LINE      ECODE    ---       #37
      00FDDC8DH   LINE      ECODE    ---       #38
      00FDDC8DH   LINE      ECODE    ---       #39
      00FDDC91H   LINE      ECODE    ---       #40
      00FDDC93H   LINE      ECODE    ---       #41
      00FDDC93H   LINE      ECODE    ---       #42
      00FDDC97H   LINE      ECODE    ---       #43
      00FDDC99H   LINE      ECODE    ---       #44
      00FDDC99H   LINE      ECODE    ---       #45
      00FDDC9DH   LINE      ECODE    ---       #46
      00FDDC9FH   LINE      ECODE    ---       #47
      00FDDC9FH   LINE      ECODE    ---       #48
      00FDDCA3H   LINE      ECODE    ---       #49
      00FDDCA5H   LINE      ECODE    ---       #50
      00FDDCA5H   LINE      ECODE    ---       #51
      00FDDCA9H   LINE      ECODE    ---       #52
      00FDDCABH   LINE      ECODE    ---       #53
      00FDDCABH   LINE      ECODE    ---       #54
      00FDDCAFH   LINE      ECODE    ---       #55
      00FDDCB1H   LINE      ECODE    ---       #56
      00FDDCB1H   LINE      ECODE    ---       #57
      00FDDCB5H   LINE      ECODE    ---       #58
      00FDDCB5H   LINE      ECODE    ---       #59
      00FDDCB5H   LINE      ECODE    ---       #60
      ---         BLOCKEND  ---      ---       LVL=0

      00FDDCB6H   BLOCK     ECODE    ---       LVL=0
      00012A14H   SYMBOL    XDATA    BYTE      ep
      00FDDCB6H   LINE      ECODE    ---       #62
      00FDDCB6H   LINE      ECODE    ---       #63
      00FDDCB6H   LINE      ECODE    ---       #66
      00FDDCE5H   LINE      ECODE    ---       #71
      00FDDCE9H   LINE      ECODE    ---       #72
      00FDDCECH   LINE      ECODE    ---       #73
      00FDDCECH   LINE      ECODE    ---       #75
      00FDDD06H   LINE      ECODE    ---       #77
      00FDDD06H   LINE      ECODE    ---       #78
      00FDDD18H   LINE      ECODE    ---       #81
      00FDDD1CH   LINE      ECODE    ---       #82
      00FDDD1FH   LINE      ECODE    ---       #83
      00FDDD1FH   LINE      ECODE    ---       #86
      00FDDD31H   LINE      ECODE    ---       #87
      00FDDD3BH   LINE      ECODE    ---       #88
L251 LINKER/LOCATER V4.66.93.0                                                        03/25/2026  13:05:55  PAGE 216


      00FDDD3BH   LINE      ECODE    ---       #89
      00FDDD3EH   LINE      ECODE    ---       #90
      00FDDD3EH   LINE      ECODE    ---       #91
      00FDDD59H   LINE      ECODE    ---       #95
      00FDDD5DH   LINE      ECODE    ---       #96
      00FDDD60H   LINE      ECODE    ---       #97
      00FDDD60H   LINE      ECODE    ---       #100
      00FDDD72H   LINE      ECODE    ---       #101
      00FDDD7CH   LINE      ECODE    ---       #102
      00FDDD7CH   LINE      ECODE    ---       #103
      00FDDD7FH   LINE      ECODE    ---       #104
      00FDDD7FH   LINE      ECODE    ---       #105
      00FDDD91H   LINE      ECODE    ---       #108
      00FDDD95H   LINE      ECODE    ---       #109
      00FDDD98H   LINE      ECODE    ---       #110
      00FDDD98H   LINE      ECODE    ---       #113
      00FDDDA6H   LINE      ECODE    ---       #114
      00FDDDB7H   LINE      ECODE    ---       #117
      00FDDDB7H   LINE      ECODE    ---       #120
      00FDDDB7H   LINE      ECODE    ---       #132
      00FDDDD4H   LINE      ECODE    ---       #134
      00FDDDE6H   LINE      ECODE    ---       #135
      00FDDDF0H   LINE      ECODE    ---       #136
      00FDDDF3H   LINE      ECODE    ---       #139
      00FDDE05H   LINE      ECODE    ---       #140
      00FDDE0FH   LINE      ECODE    ---       #141
      00FDDE0FH   LINE      ECODE    ---       #142
      00FDDE11H   LINE      ECODE    ---       #145
      00FDDE11H   LINE      ECODE    ---       #160
      00FDDE2EH   LINE      ECODE    ---       #162
      00FDDE40H   LINE      ECODE    ---       #163
      00FDDE4AH   LINE      ECODE    ---       #164
      00FDDE4CH   LINE      ECODE    ---       #167
      00FDDE5EH   LINE      ECODE    ---       #168
      00FDDE68H   LINE      ECODE    ---       #169
      00FDDE68H   LINE      ECODE    ---       #170
      00FDDE6AH   LINE      ECODE    ---       #172
      00FDDE6AH   LINE      ECODE    ---       #173
      00FDDE6EH   LINE      ECODE    ---       #174
      00FDDE70H   LINE      ECODE    ---       #175
      00FDDE70H   LINE      ECODE    ---       #176
      00FDDE70H   LINE      ECODE    ---       #177
      00FDDE70H   LINE      ECODE    ---       #178
      00FDDE70H   LINE      ECODE    ---       #179
      00FDDE74H   LINE      ECODE    ---       #180
      00FDDE76H   LINE      ECODE    ---       #181
      00FDDE76H   LINE      ECODE    ---       #183
      00FDDE7AH   LINE      ECODE    ---       #184
      ---         BLOCKEND  ---      ---       LVL=0

      00FDDE7BH   BLOCK     ECODE    ---       LVL=0
      00012A15H   SYMBOL    XDATA    BYTE      ep
      00FDDE7BH   LINE      ECODE    ---       #186
      00FDDE7BH   LINE      ECODE    ---       #187
      00FDDE7BH   LINE      ECODE    ---       #190
      00FDDEB4H   LINE      ECODE    ---       #197
      00FDDEB8H   LINE      ECODE    ---       #198
      00FDDEBBH   LINE      ECODE    ---       #199
      00FDDEBBH   LINE      ECODE    ---       #201
      00FDDEC9H   LINE      ECODE    ---       #202
      00FDDED7H   LINE      ECODE    ---       #205
      00FDDED7H   LINE      ECODE    ---       #208
      00FDDED7H   LINE      ECODE    ---       #220
      00FDDEF4H   LINE      ECODE    ---       #221
      00FDDF00H   LINE      ECODE    ---       #222
L251 LINKER/LOCATER V4.66.93.0                                                        03/25/2026  13:05:55  PAGE 217


      00FDDF09H   LINE      ECODE    ---       #223
      00FDDF11H   LINE      ECODE    ---       #224
      00FDDF13H   LINE      ECODE    ---       #227
      00FDDF13H   LINE      ECODE    ---       #242
      00FDDF30H   LINE      ECODE    ---       #243
      00FDDF3CH   LINE      ECODE    ---       #244
      00FDDF45H   LINE      ECODE    ---       #245
      00FDDF4DH   LINE      ECODE    ---       #246
      00FDDF4FH   LINE      ECODE    ---       #248
      00FDDF4FH   LINE      ECODE    ---       #249
      00FDDF53H   LINE      ECODE    ---       #250
      00FDDF55H   LINE      ECODE    ---       #251
      00FDDF55H   LINE      ECODE    ---       #253
      00FDDF59H   LINE      ECODE    ---       #254
      ---         BLOCKEND  ---      ---       LVL=0

      00FDDF5AH   BLOCK     ECODE    ---       LVL=0
      00012A16H   SYMBOL    XDATA    BYTE      ep
      00FDDF5AH   LINE      ECODE    ---       #256
      00FDDF5AH   LINE      ECODE    ---       #257
      00FDDF5AH   LINE      ECODE    ---       #260
      00FDDF93H   LINE      ECODE    ---       #267
      00FDDF97H   LINE      ECODE    ---       #268
      00FDDF9AH   LINE      ECODE    ---       #269
      00FDDF9AH   LINE      ECODE    ---       #271
      00FDDFA8H   LINE      ECODE    ---       #272
      00FDDFB6H   LINE      ECODE    ---       #275
      00FDDFB6H   LINE      ECODE    ---       #278
      00FDDFB6H   LINE      ECODE    ---       #290
      00FDDFCEH   LINE      ECODE    ---       #291
      00FDDFDAH   LINE      ECODE    ---       #292
      00FDDFE3H   LINE      ECODE    ---       #293
      00FDDFEBH   LINE      ECODE    ---       #294
      00FDDFEDH   LINE      ECODE    ---       #297
      00FDDFEDH   LINE      ECODE    ---       #312
      00FDE005H   LINE      ECODE    ---       #313
      00FDE011H   LINE      ECODE    ---       #314
      00FDE01AH   LINE      ECODE    ---       #315
      00FDE022H   LINE      ECODE    ---       #316
      00FDE024H   LINE      ECODE    ---       #318
      00FDE024H   LINE      ECODE    ---       #319
      00FDE028H   LINE      ECODE    ---       #320
      00FDE02AH   LINE      ECODE    ---       #321
      00FDE02AH   LINE      ECODE    ---       #323
      00FDE02EH   LINE      ECODE    ---       #324
      ---         BLOCKEND  ---      ---       LVL=0

      00FDE02FH   BLOCK     ECODE    ---       LVL=0
      00012A17H   SYMBOL    XDATA    BYTE      addr
      00FDE02FH   LINE      ECODE    ---       #326
      00FDE02FH   LINE      ECODE    ---       #327
      00FDE02FH   LINE      ECODE    ---       #330
      00FDE06BH   LINE      ECODE    ---       #337
      00FDE06FH   LINE      ECODE    ---       #338
      00FDE071H   LINE      ECODE    ---       #339
      00FDE071H   LINE      ECODE    ---       #341
      00FDE079H   LINE      ECODE    ---       #342
      00FDE084H   LINE      ECODE    ---       #343
      00FDE08DH   LINE      ECODE    ---       #345
      00FDE093H   LINE      ECODE    ---       #346
      00FDE095H   LINE      ECODE    ---       #349
      00FDE09BH   LINE      ECODE    ---       #350
      00FDE09BH   LINE      ECODE    ---       #352
      00FDE09FH   LINE      ECODE    ---       #353
      ---         BLOCKEND  ---      ---       LVL=0
L251 LINKER/LOCATER V4.66.93.0                                                        03/25/2026  13:05:55  PAGE 218



      00FDE0A0H   BLOCK     ECODE    ---       LVL=0
      00FDE0A0H   LINE      ECODE    ---       #355
      00FDE0A0H   LINE      ECODE    ---       #357
      00FDE0AFH   LINE      ECODE    ---       #359
      00FDE0B3H   LINE      ECODE    ---       #360
      00FDE0B6H   LINE      ECODE    ---       #361
      00FDE0B6H   LINE      ECODE    ---       #363
      00FDE0C8H   LINE      ECODE    ---       #365
      00FDE0C8H   LINE      ECODE    ---       #366
      00FDE0DAH   LINE      ECODE    ---       #367
      00FDE0E4H   LINE      ECODE    ---       #368
      00FDE0E7H   LINE      ECODE    ---       #369
      00FDE0E7H   LINE      ECODE    ---       #370
      00FDE0F9H   LINE      ECODE    ---       #371
      00FDE103H   LINE      ECODE    ---       #372
      00FDE105H   LINE      ECODE    ---       #373
      00FDE105H   LINE      ECODE    ---       #374
      00FDE113H   LINE      ECODE    ---       #376
      00FDE113H   LINE      ECODE    ---       #377
      00FDE125H   LINE      ECODE    ---       #378
      00FDE12FH   LINE      ECODE    ---       #379
      00FDE131H   LINE      ECODE    ---       #380
      00FDE131H   LINE      ECODE    ---       #381
      00FDE143H   LINE      ECODE    ---       #382
      00FDE14DH   LINE      ECODE    ---       #383
      00FDE14FH   LINE      ECODE    ---       #384
      00FDE14FH   LINE      ECODE    ---       #385
      00FDE161H   LINE      ECODE    ---       #386
      00FDE16BH   LINE      ECODE    ---       #387
      00FDE16DH   LINE      ECODE    ---       #388
      00FDE16DH   LINE      ECODE    ---       #389
      00FDE171H   LINE      ECODE    ---       #390
      00FDE173H   LINE      ECODE    ---       #391
      00FDE173H   LINE      ECODE    ---       #392
      00FDE173H   LINE      ECODE    ---       #393
      00FDE173H   LINE      ECODE    ---       #394
      00FDE177H   LINE      ECODE    ---       #395
      00FDE179H   LINE      ECODE    ---       #396
      00FDE179H   LINE      ECODE    ---       #398
      00FDE189H   LINE      ECODE    ---       #400
      00FDE195H   LINE      ECODE    ---       #401
      00FDE195H   LINE      ECODE    ---       #403
      00FDE199H   LINE      ECODE    ---       #404
      ---         BLOCKEND  ---      ---       LVL=0

      00FDE19AH   BLOCK     ECODE    ---       LVL=0
      00FDE19AH   LINE      ECODE    ---       #406
      00FDE19AH   LINE      ECODE    ---       #408
      00FDE19EH   LINE      ECODE    ---       #409
      ---         BLOCKEND  ---      ---       LVL=0

      00FDE19FH   BLOCK     ECODE    ---       LVL=0
      00FDE19FH   LINE      ECODE    ---       #411
      00FDE19FH   LINE      ECODE    ---       #413
      00FDE1DAH   LINE      ECODE    ---       #420
      00FDE1DEH   LINE      ECODE    ---       #421
      00FDE1E0H   LINE      ECODE    ---       #422
      00FDE1E0H   LINE      ECODE    ---       #424
      00FDE1E9H   LINE      ECODE    ---       #426
      00FDE1FBH   LINE      ECODE    ---       #427
      00FDE205H   LINE      ECODE    ---       #428
      00FDE207H   LINE      ECODE    ---       #431
      00FDE219H   LINE      ECODE    ---       #432
      00FDE223H   LINE      ECODE    ---       #433
L251 LINKER/LOCATER V4.66.93.0                                                        03/25/2026  13:05:55  PAGE 219


      00FDE223H   LINE      ECODE    ---       #435
      00FDE227H   LINE      ECODE    ---       #436
      ---         BLOCKEND  ---      ---       LVL=0

      00FDE228H   BLOCK     ECODE    ---       LVL=0
      00FDE228H   LINE      ECODE    ---       #438
      00FDE228H   LINE      ECODE    ---       #440
      00FDE261H   LINE      ECODE    ---       #447
      00FDE265H   LINE      ECODE    ---       #448
      00FDE268H   LINE      ECODE    ---       #449
      00FDE268H   LINE      ECODE    ---       #451
      00FDE271H   LINE      ECODE    ---       #453
      00FDE277H   LINE      ECODE    ---       #454
      00FDE27CH   LINE      ECODE    ---       #455
      00FDE281H   LINE      ECODE    ---       #457
      00FDE28AH   LINE      ECODE    ---       #458
      00FDE293H   LINE      ECODE    ---       #459
      00FDE29CH   LINE      ECODE    ---       #462
      00FDE2A5H   LINE      ECODE    ---       #463
      00FDE2AEH   LINE      ECODE    ---       #464
      00FDE2B7H   LINE      ECODE    ---       #482
      00FDE2C0H   LINE      ECODE    ---       #483
      00FDE2C8H   LINE      ECODE    ---       #484
      00FDE2D1H   LINE      ECODE    ---       #506
      00FDE2D9H   LINE      ECODE    ---       #507
      00FDE2DBH   LINE      ECODE    ---       #510
      00FDE2E1H   LINE      ECODE    ---       #511
      00FDE2E7H   LINE      ECODE    ---       #512
      00FDE2EDH   LINE      ECODE    ---       #513
      00FDE2EDH   LINE      ECODE    ---       #515
      00FDE2F1H   LINE      ECODE    ---       #516
      ---         BLOCKEND  ---      ---       LVL=0

      00FDE2F2H   BLOCK     ECODE    ---       LVL=0
      00FDE2F2H   LINE      ECODE    ---       #518
      00FDE2F2H   LINE      ECODE    ---       #520
      00FDE324H   LINE      ECODE    ---       #526
      00FDE328H   LINE      ECODE    ---       #527
      00FDE32AH   LINE      ECODE    ---       #528
      00FDE32AH   LINE      ECODE    ---       #530
      00FDE33CH   LINE      ECODE    ---       #531
      00FDE346H   LINE      ECODE    ---       #533
      00FDE34AH   LINE      ECODE    ---       #534
      ---         BLOCKEND  ---      ---       LVL=0

      00FDE34BH   BLOCK     ECODE    ---       LVL=0
      00FDE34BH   LINE      ECODE    ---       #536
      00FDE34BH   LINE      ECODE    ---       #538
      00FDE37BH   LINE      ECODE    ---       #544
      00FDE37FH   LINE      ECODE    ---       #545
      00FDE381H   LINE      ECODE    ---       #546
      00FDE381H   LINE      ECODE    ---       #548
      00FDE385H   LINE      ECODE    ---       #549
      ---         BLOCKEND  ---      ---       LVL=0

      00FDE386H   BLOCK     ECODE    ---       LVL=0
      00FDE386H   LINE      ECODE    ---       #551
      00FDE386H   LINE      ECODE    ---       #553
      00FDE38AH   LINE      ECODE    ---       #554
      ---         BLOCKEND  ---      ---       LVL=0

      ---         MODULE    ---      ---       usb_req_vendor
      00FE1E34H   PUBLIC    ECODE    ---       usb_req_vendor?
      000000D0H   SFRSYM    DATA     BYTE      PSW
      0000009DH   SFRSYM    DATA     BYTE      IRCBAND
L251 LINKER/LOCATER V4.66.93.0                                                        03/25/2026  13:05:55  PAGE 220


      00000097H   SFRSYM    DATA     BYTE      AUXR2
      000000EAH   SFRSYM    DATA     BYTE      CKCON
      000000EFH   SFRSYM    DATA     BYTE      AUXINTIF
      000000FDH   SFRSYM    DATA     BYTE      S4CON
      000000ACH   SFRSYM    DATA     BYTE      S3CON
      0000009AH   SFRSYM    DATA     BYTE      S2CON
      000000B7H   SFRSYM    DATA     BYTE      IPH
      000000CDH   SFRSYM    DATA     BYTE      SPSTAT
      000000DDH   SFRSYM    DATA     BYTE      T4T3M
      000000C1H   SFRSYM    DATA     BYTE      WDT_CONTR
      000000DFH   SFRSYM    DATA     BYTE      IP3
      000000F4H   SFRSYM    DATA     BYTE      USBCON
      000000B5H   SFRSYM    DATA     BYTE      IP2
      000000FFH   SFRSYM    DATA     BYTE      RSTCFG
      000000E0H   SFRSYM    DATA     BYTE      ACC
      000000C7H   SFRSYM    DATA     BYTE      IAP_CONTR
      000000F9H   SFRSYM    DATA     BYTE      LINICR
      0000008EH   SFRSYM    DATA     BYTE      AUXR
      000000F0H   SFRSYM    DATA     BYTE      B
      000000AFH   SFRSYM    DATA     BYTE      IE2
      00000088H   SFRSYM    DATA     BYTE      TCON
      00000089H   SFRSYM    DATA     BYTE      TMOD
      00000098H   SFRSYM    DATA     BYTE      SCON
      00000087H   SFRSYM    DATA     BYTE      PCON
      000000BCH   SFRSYM    DATA     BYTE      ADC_CONTR
      000000D1H   SFRSYM    DATA     BYTE      PSW1
      000000E7H   SFRSYM    DATA     BYTE      CMPCR2
      000000E6H   SFRSYM    DATA     BYTE      CMPCR1
      000000DEH   SFRSYM    DATA     BYTE      ADCCFG
      000000B8H   SFRSYM    DATA     BYTE      IP
      0000008FH   SFRSYM    DATA     BYTE      INTCLKO
      000000EEH   SFRSYM    DATA     BYTE      IP3H
      000000B6H   SFRSYM    DATA     BYTE      IP2H
      000000BFH   SFRSYM    DATA     BYTE      P_SW4
      000000A8H   SFRSYM    DATA     BYTE      IE
      000000BBH   SFRSYM    DATA     BYTE      P_SW3
      000000BAH   SFRSYM    DATA     BYTE      P_SW2
      000000A2H   SFRSYM    DATA     BYTE      P_SW1
      000000CEH   SFRSYM    DATA     BYTE      SPCTL
      000000F8H   SFRSYM    DATA     BYTE      P7
      000000E8H   SFRSYM    DATA     BYTE      P6
      000000C8H   SFRSYM    DATA     BYTE      P5
      000000C0H   SFRSYM    DATA     BYTE      P4
      000000ABH   SFRSYM    DATA     BYTE      WKTCH
      000000B0H   SFRSYM    DATA     BYTE      P3
      000000A0H   SFRSYM    DATA     BYTE      P2
      00000090H   SFRSYM    DATA     BYTE      P1
      00000080H   SFRSYM    DATA     BYTE      P0

      00FE1E34H   BLOCK     ECODE    ---       LVL=0
      00FE1E34H   LINE      ECODE    ---       #17
      00FE1E34H   LINE      ECODE    ---       #19
      00FE1E38H   LINE      ECODE    ---       #20
      ---         BLOCKEND  ---      ---       LVL=0

      ---         MODULE    ---      ---       util
      00FE1C96H   PUBLIC    ECODE    ---       reverse2?
      00FE1C29H   PUBLIC    ECODE    ---       reverse4?
      000000D0H   SFRSYM    DATA     BYTE      PSW
      0000009DH   SFRSYM    DATA     BYTE      IRCBAND
      00000097H   SFRSYM    DATA     BYTE      AUXR2
      000000EAH   SFRSYM    DATA     BYTE      CKCON
      000000EFH   SFRSYM    DATA     BYTE      AUXINTIF
      000000FDH   SFRSYM    DATA     BYTE      S4CON
      000000ACH   SFRSYM    DATA     BYTE      S3CON
L251 LINKER/LOCATER V4.66.93.0                                                        03/25/2026  13:05:55  PAGE 221


      0000009AH   SFRSYM    DATA     BYTE      S2CON
      000000B7H   SFRSYM    DATA     BYTE      IPH
      000000CDH   SFRSYM    DATA     BYTE      SPSTAT
      000000DDH   SFRSYM    DATA     BYTE      T4T3M
      000000C1H   SFRSYM    DATA     BYTE      WDT_CONTR
      000000DFH   SFRSYM    DATA     BYTE      IP3
      000000F4H   SFRSYM    DATA     BYTE      USBCON
      000000B5H   SFRSYM    DATA     BYTE      IP2
      000000FFH   SFRSYM    DATA     BYTE      RSTCFG
      000000E0H   SFRSYM    DATA     BYTE      ACC
      000000C7H   SFRSYM    DATA     BYTE      IAP_CONTR
      000000F9H   SFRSYM    DATA     BYTE      LINICR
      0000008EH   SFRSYM    DATA     BYTE      AUXR
      000000F0H   SFRSYM    DATA     BYTE      B
      000000AFH   SFRSYM    DATA     BYTE      IE2
      00000088H   SFRSYM    DATA     BYTE      TCON
      00000089H   SFRSYM    DATA     BYTE      TMOD
      00000098H   SFRSYM    DATA     BYTE      SCON
      00000087H   SFRSYM    DATA     BYTE      PCON
      000000BCH   SFRSYM    DATA     BYTE      ADC_CONTR
      000000D1H   SFRSYM    DATA     BYTE      PSW1
      000000E7H   SFRSYM    DATA     BYTE      CMPCR2
      000000E6H   SFRSYM    DATA     BYTE      CMPCR1
      000000DEH   SFRSYM    DATA     BYTE      ADCCFG
      000000B8H   SFRSYM    DATA     BYTE      IP
      0000008FH   SFRSYM    DATA     BYTE      INTCLKO
      000000EEH   SFRSYM    DATA     BYTE      IP3H
      000000B6H   SFRSYM    DATA     BYTE      IP2H
      000000BFH   SFRSYM    DATA     BYTE      P_SW4
      000000A8H   SFRSYM    DATA     BYTE      IE
      000000BBH   SFRSYM    DATA     BYTE      P_SW3
      000000BAH   SFRSYM    DATA     BYTE      P_SW2
      000000A2H   SFRSYM    DATA     BYTE      P_SW1
      000000CEH   SFRSYM    DATA     BYTE      SPCTL
      000000F8H   SFRSYM    DATA     BYTE      P7
      000000E8H   SFRSYM    DATA     BYTE      P6
      000000C8H   SFRSYM    DATA     BYTE      P5
      000000C0H   SFRSYM    DATA     BYTE      P4
      000000ABH   SFRSYM    DATA     BYTE      WKTCH
      000000B0H   SFRSYM    DATA     BYTE      P3
      000000A0H   SFRSYM    DATA     BYTE      P2
      00000090H   SFRSYM    DATA     BYTE      P1
      00000080H   SFRSYM    DATA     BYTE      P0

      00FE1C29H   BLOCK     ECODE    ---       LVL=0
      00012764H   SYMBOL    XDATA    DWORD     d
      00FE1C33H   BLOCK     ECODE    NEAR LAB  LVL=1
      00012768H   SYMBOL    XDATA    DWORD     ret
      ---         BLOCKEND  ---      ---       LVL=1
      00FE1C29H   LINE      ECODE    ---       #16
      00FE1C33H   LINE      ECODE    ---       #17
      00FE1C33H   LINE      ECODE    ---       #20
      00FE1C49H   LINE      ECODE    ---       #21
      00FE1C5FH   LINE      ECODE    ---       #22
      00FE1C75H   LINE      ECODE    ---       #23
      00FE1C8BH   LINE      ECODE    ---       #25
      00FE1C95H   LINE      ECODE    ---       #26
      ---         BLOCKEND  ---      ---       LVL=0

      00FE1C96H   BLOCK     ECODE    ---       LVL=0
      0001297DH   SYMBOL    XDATA    WORD      w
      00FE1C9CH   BLOCK     ECODE    NEAR LAB  LVL=1
      0001297FH   SYMBOL    XDATA    WORD      ret
      ---         BLOCKEND  ---      ---       LVL=1
      00FE1C96H   LINE      ECODE    ---       #28
L251 LINKER/LOCATER V4.66.93.0                                                        03/25/2026  13:05:55  PAGE 222


      00FE1C9CH   LINE      ECODE    ---       #29
      00FE1C9CH   LINE      ECODE    ---       #32
      00FE1CB2H   LINE      ECODE    ---       #33
      00FE1CC8H   LINE      ECODE    ---       #35
      00FE1CCEH   LINE      ECODE    ---       #36
      ---         BLOCKEND  ---      ---       LVL=0

      ---         MODULE    ---      ---       seekfree_assistant
      00FDA8C8H   PUBLIC    ECODE    ---       seekfree_assistant_camera_boundary_config?
      00FDA77AH   PUBLIC    ECODE    ---       seekfree_assistant_camera_dot_send?
      00FDA5D2H   PUBLIC    ECODE    ---       seekfree_assistant_oscilloscope_send?
      00FDB070H   PUBLIC    ECODE    ---       seekfree_assistant_init?
      00FDA571H   PUBLIC    ECODE    ---       seekfree_assistant_camera_information_config?
      00FDAD69H   PUBLIC    ECODE    ---       seekfree_assistant_data_analysis?
      00FDA40DH   PUBLIC    ECODE    ---       seekfree_assistant_camera_data_send?
      00FDB024H   PUBLIC    ECODE    ---       seekfree_assistant_camera_send?
      000110B2H   PUBLIC    XDATA    ---       seekfree_assistant_oscilloscope_data
      000110EDH   PUBLIC    XDATA    ---       seekfree_assistant_parameter_update_flag
      000110F5H   PUBLIC    XDATA    ---       seekfree_assistant_parameter
      000121D8H   PUBLIC    XDATA    BYTE      ?seekfree_assistant_camera_data_send??BYTE
      000125A5H   PUBLIC    XDATA    BYTE      ?seekfree_assistant_camera_information_config??BYTE
      00011D78H   PUBLIC    XDATA    BYTE      ?seekfree_assistant_camera_boundary_config??BYTE
      000000D0H   SFRSYM    DATA     BYTE      PSW
      0000009DH   SFRSYM    DATA     BYTE      IRCBAND
      00000097H   SFRSYM    DATA     BYTE      AUXR2
      000000EAH   SFRSYM    DATA     BYTE      CKCON
      000000EFH   SFRSYM    DATA     BYTE      AUXINTIF
      000000FDH   SFRSYM    DATA     BYTE      S4CON
      000000ACH   SFRSYM    DATA     BYTE      S3CON
      0000009AH   SFRSYM    DATA     BYTE      S2CON
      000000B7H   SFRSYM    DATA     BYTE      IPH
      000000CDH   SFRSYM    DATA     BYTE      SPSTAT
      000000DDH   SFRSYM    DATA     BYTE      T4T3M
      000000C1H   SFRSYM    DATA     BYTE      WDT_CONTR
      000000DFH   SFRSYM    DATA     BYTE      IP3
      000000F4H   SFRSYM    DATA     BYTE      USBCON
      000000B5H   SFRSYM    DATA     BYTE      IP2
      000000FFH   SFRSYM    DATA     BYTE      RSTCFG
      000000E0H   SFRSYM    DATA     BYTE      ACC
      000000C7H   SFRSYM    DATA     BYTE      IAP_CONTR
      000000F9H   SFRSYM    DATA     BYTE      LINICR
      0000008EH   SFRSYM    DATA     BYTE      AUXR
      000000F0H   SFRSYM    DATA     BYTE      B
      000000AFH   SFRSYM    DATA     BYTE      IE2
      00000088H   SFRSYM    DATA     BYTE      TCON
      00000089H   SFRSYM    DATA     BYTE      TMOD
      00000098H   SFRSYM    DATA     BYTE      SCON
      00000087H   SFRSYM    DATA     BYTE      PCON
      000000BCH   SFRSYM    DATA     BYTE      ADC_CONTR
      000000D1H   SFRSYM    DATA     BYTE      PSW1
      000000E7H   SFRSYM    DATA     BYTE      CMPCR2
      000000E6H   SFRSYM    DATA     BYTE      CMPCR1
      000000DEH   SFRSYM    DATA     BYTE      ADCCFG
      000000B8H   SFRSYM    DATA     BYTE      IP
      0000008FH   SFRSYM    DATA     BYTE      INTCLKO
      000000EEH   SFRSYM    DATA     BYTE      IP3H
      000000B6H   SFRSYM    DATA     BYTE      IP2H
      000000BFH   SFRSYM    DATA     BYTE      P_SW4
      000000A8H   SFRSYM    DATA     BYTE      IE
      000000BBH   SFRSYM    DATA     BYTE      P_SW3
      000000BAH   SFRSYM    DATA     BYTE      P_SW2
      000000A2H   SFRSYM    DATA     BYTE      P_SW1
      000000CEH   SFRSYM    DATA     BYTE      SPCTL
      000000F8H   SFRSYM    DATA     BYTE      P7
      000000A8H.7 SFRSYM    DATA     BIT       EA
L251 LINKER/LOCATER V4.66.93.0                                                        03/25/2026  13:05:55  PAGE 223


      000000E8H   SFRSYM    DATA     BYTE      P6
      000000C8H   SFRSYM    DATA     BYTE      P5
      000000C0H   SFRSYM    DATA     BYTE      P4
      000000ABH   SFRSYM    DATA     BYTE      WKTCH
      000000B0H   SFRSYM    DATA     BYTE      P3
      000000A0H   SFRSYM    DATA     BYTE      P2
      00000090H   SFRSYM    DATA     BYTE      P1
      00000080H   SFRSYM    DATA     BYTE      P0
      00FDA3B3H   SYMBOL    ECODE    ---       seekfree_assistant_sum
      000110AAH   SYMBOL    XDATA    ---       seekfree_assistant_camera_dot_data
      000110D6H   SYMBOL    XDATA    ---       seekfree_assistant_fifo
      00011115H   SYMBOL    XDATA    ---       seekfree_assistant_camera_buffer
      0001115FH   SYMBOL    XDATA    ---       seekfree_assistant_camera_data
      00011167H   SYMBOL    XDATA    ---       seekfree_assistant_buffer
      00FE4EDEH   SYMBOL    HCONST   ---       ?tpl?0001
      00FE4F02H   SYMBOL    HCONST   ---       ?tpl?0002

      00FDA3B3H   BLOCK     ECODE    ---       LVL=0
      0001269BH   SYMBOL    XDATA    ---       buffer
      0001269FH   SYMBOL    XDATA    DWORD     length
      00FDA3C7H   BLOCK     ECODE    NEAR LAB  LVL=1
      000126A3H   SYMBOL    XDATA    BYTE      temp_sum
      ---         BLOCKEND  ---      ---       LVL=1
      00FDA3B3H   LINE      ECODE    ---       #56
      00FDA3C7H   LINE      ECODE    ---       #57
      00FDA3C7H   LINE      ECODE    ---       #58
      00FDA3CCH   LINE      ECODE    ---       #60
      00FDA3CEH   LINE      ECODE    ---       #62
      00FDA3EBH   LINE      ECODE    ---       #63
      00FDA408H   LINE      ECODE    ---       #65
      00FDA40CH   LINE      ECODE    ---       #66
      ---         BLOCKEND  ---      ---       LVL=0

      00FDA40DH   BLOCK     ECODE    ---       LVL=0
      000121D8H   SYMBOL    XDATA    INT       camera_type
      000121DAH   SYMBOL    XDATA    ---       image_addr
      000121DEH   SYMBOL    XDATA    BYTE      boundary_num
      000121DFH   SYMBOL    XDATA    WORD      width
      000121E1H   SYMBOL    XDATA    WORD      height
      00FDA427H   BLOCK     ECODE    NEAR LAB  LVL=1
      000121E3H   SYMBOL    XDATA    DWORD     image_size
      ---         BLOCKEND  ---      ---       LVL=1
      00FDA40DH   LINE      ECODE    ---       #78
      00FDA427H   LINE      ECODE    ---       #79
      00FDA427H   LINE      ECODE    ---       #80
      00FDA433H   LINE      ECODE    ---       #82
      00FDA439H   LINE      ECODE    ---       #83
      00FDA43FH   LINE      ECODE    ---       #84
      00FDA478H   LINE      ECODE    ---       #86
      00FDA47EH   LINE      ECODE    ---       #87
      00FDA49EH   LINE      ECODE    ---       #88
      00FDA4BEH   LINE      ECODE    ---       #91
      00FDA4D6H   LINE      ECODE    ---       #94
      00FDA4E8H   LINE      ECODE    ---       #96
      00FDA4E8H   LINE      ECODE    ---       #98
      00FDA508H   LINE      ECODE    ---       #99
      00FDA50AH   LINE      ECODE    ---       #101
      00FDA50AH   LINE      ECODE    ---       #103
      00FDA524H   LINE      ECODE    ---       #104
      00FDA526H   LINE      ECODE    ---       #106
      00FDA526H   LINE      ECODE    ---       #108
      00FDA542H   LINE      ECODE    ---       #109
      00FDA542H   LINE      ECODE    ---       #110
      00FDA542H   LINE      ECODE    ---       #113
      00FDA550H   LINE      ECODE    ---       #115
L251 LINKER/LOCATER V4.66.93.0                                                        03/25/2026  13:05:55  PAGE 224


      00FDA570H   LINE      ECODE    ---       #116
      ---         BLOCKEND  ---      ---       LVL=0

      00FDA571H   BLOCK     ECODE    ---       LVL=0
      000125A5H   SYMBOL    XDATA    INT       camera_type
      000125A7H   SYMBOL    XDATA    ---       image_addr
      000125ABH   SYMBOL    XDATA    WORD      width
      000125ADH   SYMBOL    XDATA    WORD      height
      00FDA571H   LINE      ECODE    ---       #129
      00FDA587H   LINE      ECODE    ---       #131
      00FDA58DH   LINE      ECODE    ---       #132
      00FDA593H   LINE      ECODE    ---       #134
      00FDA599H   LINE      ECODE    ---       #136
      00FDA5A5H   LINE      ECODE    ---       #137
      00FDA5B9H   LINE      ECODE    ---       #138
      00FDA5C5H   LINE      ECODE    ---       #139
      00FDA5D1H   LINE      ECODE    ---       #140
      ---         BLOCKEND  ---      ---       LVL=0

      00FDA5D2H   BLOCK     ECODE    ---       LVL=0
      00011AC6H   SYMBOL    XDATA    ---       seekfree_assistant_oscilloscope
      00FDA5DCH   BLOCK     ECODE    NEAR LAB  LVL=1
      00011ACAH   SYMBOL    XDATA    BYTE      packet_size
      00011ACBH   SYMBOL    XDATA    BYTE      i
      00011ACCH   SYMBOL    XDATA    ---       temp_oscilloscope
      ---         BLOCKEND  ---      ---       LVL=1
      00FDA5D2H   LINE      ECODE    ---       #148
      00FDA5DCH   LINE      ECODE    ---       #149
      00FDA5DCH   LINE      ECODE    ---       #150
      00FDA5E1H   LINE      ECODE    ---       #151
      00FDA5E6H   LINE      ECODE    ---       #152
      00FDA5FCH   LINE      ECODE    ---       #154
      00FDA613H   LINE      ECODE    ---       #157
      00FDA61BH   LINE      ECODE    ---       #159
      00FDA651H   LINE      ECODE    ---       #160
      00FDA687H   LINE      ECODE    ---       #161
      00FDA6BDH   LINE      ECODE    ---       #162
      00FDA6F3H   LINE      ECODE    ---       #163
      00FDA70FH   LINE      ECODE    ---       #166
      00FDA715H   LINE      ECODE    ---       #169
      00FDA72FH   LINE      ECODE    ---       #170
      00FDA737H   LINE      ECODE    ---       #173
      00FDA741H   LINE      ECODE    ---       #176
      00FDA746H   LINE      ECODE    ---       #177
      00FDA75DH   LINE      ECODE    ---       #181
      00FDA779H   LINE      ECODE    ---       #182
      ---         BLOCKEND  ---      ---       LVL=0

      00FDA77AH   BLOCK     ECODE    ---       LVL=0
      000127BAH   SYMBOL    XDATA    ---       buffer
      00FDA784H   BLOCK     ECODE    NEAR LAB  LVL=1
      000127BEH   SYMBOL    XDATA    BYTE      i
      000127BFH   SYMBOL    XDATA    WORD      dot_bytes
      ---         BLOCKEND  ---      ---       LVL=1
      00FDA77AH   LINE      ECODE    ---       #184
      00FDA784H   LINE      ECODE    ---       #185
      00FDA784H   LINE      ECODE    ---       #187
      00FDA78CH   LINE      ECODE    ---       #189
      00FDA798H   LINE      ECODE    ---       #190
      00FDA7B8H   LINE      ECODE    ---       #191
      00FDA7CAH   LINE      ECODE    ---       #193
      00FDA7D9H   LINE      ECODE    ---       #194
      00FDA7D9H   LINE      ECODE    ---       #197
      00FDA7F1H   LINE      ECODE    ---       #199
      00FDA7F9H   LINE      ECODE    ---       #202
L251 LINKER/LOCATER V4.66.93.0                                                        03/25/2026  13:05:55  PAGE 225


      00FDA81EH   LINE      ECODE    ---       #204
      00FDA853H   LINE      ECODE    ---       #205
      00FDA853H   LINE      ECODE    ---       #208
      00FDA878H   LINE      ECODE    ---       #212
      00FDA8ADH   LINE      ECODE    ---       #213
      00FDA8C7H   LINE      ECODE    ---       #215
      ---         BLOCKEND  ---      ---       LVL=0

      00FDA8C8H   BLOCK     ECODE    ---       LVL=0
      00011D78H   SYMBOL    XDATA    INT       boundary_type
      00011D7AH   SYMBOL    XDATA    WORD      dot_num
      00011D7CH   SYMBOL    XDATA    ---       dot_x1
      00011D80H   SYMBOL    XDATA    ---       dot_x2
      00011D84H   SYMBOL    XDATA    ---       dot_x3
      00011D88H   SYMBOL    XDATA    ---       dot_y1
      00011D8CH   SYMBOL    XDATA    ---       dot_y2
      00011D90H   SYMBOL    XDATA    ---       dot_y3
      00FDA8DEH   BLOCK     ECODE    NEAR LAB  LVL=1
      00011D94H   SYMBOL    XDATA    BYTE      i
      00011D95H   SYMBOL    XDATA    BYTE      boundary_num
      00011D96H   SYMBOL    XDATA    BYTE      boundary_data_type
      ---         BLOCKEND  ---      ---       LVL=1
      00FDA8C8H   LINE      ECODE    ---       #233
      00FDA8DEH   LINE      ECODE    ---       #234
      00FDA8DEH   LINE      ECODE    ---       #235
      00FDA8E3H   LINE      ECODE    ---       #236
      00FDA8E8H   LINE      ECODE    ---       #237
      00FDA8EDH   LINE      ECODE    ---       #239
      00FDA90DH   LINE      ECODE    ---       #240
      00FDA912H   LINE      ECODE    ---       #241
      00FDA919H   LINE      ECODE    ---       #243
      00FDA938H   LINE      ECODE    ---       #244
      00FDA957H   LINE      ECODE    ---       #245
      00FDA96EH   LINE      ECODE    ---       #247
      00FDA989H   LINE      ECODE    ---       #249
      00FDA989H   LINE      ECODE    ---       #251
      00FDA997H   LINE      ECODE    ---       #253
      00FDA9A2H   LINE      ECODE    ---       #254
      00FDA9ACH   LINE      ECODE    ---       #255
      00FDA9D8H   LINE      ECODE    ---       #256
      00FDA9D8H   LINE      ECODE    ---       #257
      00FDA9E6H   LINE      ECODE    ---       #259
      00FDA9F1H   LINE      ECODE    ---       #260
      00FDA9FBH   LINE      ECODE    ---       #261
      00FDAA27H   LINE      ECODE    ---       #262
      00FDAA27H   LINE      ECODE    ---       #263
      00FDAA35H   LINE      ECODE    ---       #265
      00FDAA40H   LINE      ECODE    ---       #266
      00FDAA4AH   LINE      ECODE    ---       #267
      00FDAA76H   LINE      ECODE    ---       #268
      00FDAA76H   LINE      ECODE    ---       #270
      00FDAA87H   LINE      ECODE    ---       #272
      00FDAA8DH   LINE      ECODE    ---       #273
      00FDAA8DH   LINE      ECODE    ---       #274
      00FDAA90H   LINE      ECODE    ---       #276
      00FDAA90H   LINE      ECODE    ---       #278
      00FDAA9EH   LINE      ECODE    ---       #280
      00FDAAA9H   LINE      ECODE    ---       #281
      00FDAAB3H   LINE      ECODE    ---       #282
      00FDAADFH   LINE      ECODE    ---       #283
      00FDAADFH   LINE      ECODE    ---       #284
      00FDAAEDH   LINE      ECODE    ---       #286
      00FDAAF8H   LINE      ECODE    ---       #287
      00FDAB02H   LINE      ECODE    ---       #288
      00FDAB2EH   LINE      ECODE    ---       #289
L251 LINKER/LOCATER V4.66.93.0                                                        03/25/2026  13:05:55  PAGE 226


      00FDAB2EH   LINE      ECODE    ---       #290
      00FDAB3CH   LINE      ECODE    ---       #292
      00FDAB47H   LINE      ECODE    ---       #293
      00FDAB51H   LINE      ECODE    ---       #294
      00FDAB7DH   LINE      ECODE    ---       #295
      00FDAB7DH   LINE      ECODE    ---       #297
      00FDAB8EH   LINE      ECODE    ---       #299
      00FDAB94H   LINE      ECODE    ---       #300
      00FDAB94H   LINE      ECODE    ---       #301
      00FDAB97H   LINE      ECODE    ---       #303
      00FDAB97H   LINE      ECODE    ---       #305
      00FDABB3H   LINE      ECODE    ---       #307
      00FDABBEH   LINE      ECODE    ---       #308
      00FDABC8H   LINE      ECODE    ---       #309
      00FDABEFH   LINE      ECODE    ---       #310
      00FDAC1BH   LINE      ECODE    ---       #311
      00FDAC1BH   LINE      ECODE    ---       #312
      00FDAC37H   LINE      ECODE    ---       #314
      00FDAC42H   LINE      ECODE    ---       #315
      00FDAC4CH   LINE      ECODE    ---       #316
      00FDAC73H   LINE      ECODE    ---       #317
      00FDAC9FH   LINE      ECODE    ---       #318
      00FDAC9FH   LINE      ECODE    ---       #319
      00FDACBBH   LINE      ECODE    ---       #321
      00FDACC6H   LINE      ECODE    ---       #322
      00FDACD0H   LINE      ECODE    ---       #323
      00FDACF7H   LINE      ECODE    ---       #324
      00FDAD23H   LINE      ECODE    ---       #325
      00FDAD23H   LINE      ECODE    ---       #327
      00FDAD3FH   LINE      ECODE    ---       #329
      00FDAD45H   LINE      ECODE    ---       #330
      00FDAD45H   LINE      ECODE    ---       #331
      00FDAD45H   LINE      ECODE    ---       #333
      00FDAD45H   LINE      ECODE    ---       #334
      00FDAD45H   LINE      ECODE    ---       #336
      00FDAD68H   LINE      ECODE    ---       #337
      ---         BLOCKEND  ---      ---       LVL=0

      00FDAD69H   BLOCK     ECODE    ---       LVL=0
      00011280H   SYMBOL    XDATA    BYTE      temp_sum
      00011281H   SYMBOL    XDATA    DWORD     read_length
      00011285H   SYMBOL    XDATA    WORD      struct_len
      00011287H   SYMBOL    XDATA    ---       receive_packet
      0001128BH   SYMBOL    XDATA    ---       temp_buffer
      0001130BH   SYMBOL    XDATA    DWORD     i
      00000020H.5 SYMBOL    BIT      BIT       flag
      00FDAD69H   LINE      ECODE    ---       #344
      00FDAD69H   LINE      ECODE    ---       #345
      00FDAD69H   LINE      ECODE    ---       #347
      00FDAD6EH   LINE      ECODE    ---       #348
      00FDAD7AH   LINE      ECODE    ---       #349
      00FDAD84H   LINE      ECODE    ---       #353
      00FDAD9AH   LINE      ECODE    ---       #355
      00FDADA6H   LINE      ECODE    ---       #357
      00FDADA9H   LINE      ECODE    ---       #358
      00FDADADH   LINE      ECODE    ---       #360
      00FDADB0H   LINE      ECODE    ---       #363
      00FDADD2H   LINE      ECODE    ---       #365
      00FDADE0H   LINE      ECODE    ---       #368
      00FDAE08H   LINE      ECODE    ---       #369
      00FDAE08H   LINE      ECODE    ---       #371
      00FDAE0BH   LINE      ECODE    ---       #374
      00FDAE19H   LINE      ECODE    ---       #375
      00FDAE49H   LINE      ECODE    ---       #376
      00FDAE59H   LINE      ECODE    ---       #379
L251 LINKER/LOCATER V4.66.93.0                                                        03/25/2026  13:05:55  PAGE 227


      00FDAE67H   LINE      ECODE    ---       #380
      00FDAE6AH   LINE      ECODE    ---       #385
      00FDAE7CH   LINE      ECODE    ---       #386
      00FDAE91H   LINE      ECODE    ---       #387
      00FDAEA3H   LINE      ECODE    ---       #389
      00FDAEBFH   LINE      ECODE    ---       #394
      00FDAEFAH   LINE      ECODE    ---       #395
      00FDAF35H   LINE      ECODE    ---       #396
      00FDAF70H   LINE      ECODE    ---       #397
      00FDAFA4H   LINE      ECODE    ---       #398
      00FDAFC4H   LINE      ECODE    ---       #399
      00FDAFC6H   LINE      ECODE    ---       #402
      00FDAFD4H   LINE      ECODE    ---       #403
      00FDAFD4H   LINE      ECODE    ---       #404
      00FDAFD4H   LINE      ECODE    ---       #407
      00FDB002H   LINE      ECODE    ---       #408
      00FDB01FH   LINE      ECODE    ---       #409
      00FDB023H   LINE      ECODE    ---       #410
      ---         BLOCKEND  ---      ---       LVL=0

      00FDB024H   BLOCK     ECODE    ---       LVL=0
      00FDB024H   LINE      ECODE    ---       #418
      00FDB024H   LINE      ECODE    ---       #421
      00FDB054H   LINE      ECODE    ---       #423
      00FDB063H   LINE      ECODE    ---       #425
      00FDB06FH   LINE      ECODE    ---       #426
      ---         BLOCKEND  ---      ---       LVL=0

      00FDB070H   BLOCK     ECODE    ---       LVL=0
      00FDB070H   LINE      ECODE    ---       #435
      00FDB070H   LINE      ECODE    ---       #437
      00FDB09EH   LINE      ECODE    ---       #438
      ---         BLOCKEND  ---      ---       LVL=0

      ---         MODULE    ---      ---       seekfree_assistant_interface
      00FDFFA0H   PUBLIC    ECODE    ---       seekfree_assistant_interface_init?
      0001276CH   PUBLIC    XDATA    ---       seekfree_assistant_receive_callback
      00012770H   PUBLIC    XDATA    ---       seekfree_assistant_transfer_callback
      000000D0H   SFRSYM    DATA     BYTE      PSW
      0000009DH   SFRSYM    DATA     BYTE      IRCBAND
      00000097H   SFRSYM    DATA     BYTE      AUXR2
      000000EAH   SFRSYM    DATA     BYTE      CKCON
      000000EFH   SFRSYM    DATA     BYTE      AUXINTIF
      000000FDH   SFRSYM    DATA     BYTE      S4CON
      000000ACH   SFRSYM    DATA     BYTE      S3CON
      0000009AH   SFRSYM    DATA     BYTE      S2CON
      000000B7H   SFRSYM    DATA     BYTE      IPH
      000000CDH   SFRSYM    DATA     BYTE      SPSTAT
      000000DDH   SFRSYM    DATA     BYTE      T4T3M
      000000C1H   SFRSYM    DATA     BYTE      WDT_CONTR
      000000DFH   SFRSYM    DATA     BYTE      IP3
      000000F4H   SFRSYM    DATA     BYTE      USBCON
      000000B5H   SFRSYM    DATA     BYTE      IP2
      000000FFH   SFRSYM    DATA     BYTE      RSTCFG
      000000E0H   SFRSYM    DATA     BYTE      ACC
      000000C7H   SFRSYM    DATA     BYTE      IAP_CONTR
      000000F9H   SFRSYM    DATA     BYTE      LINICR
      0000008EH   SFRSYM    DATA     BYTE      AUXR
      000000F0H   SFRSYM    DATA     BYTE      B
      000000AFH   SFRSYM    DATA     BYTE      IE2
      00000088H   SFRSYM    DATA     BYTE      TCON
      00000089H   SFRSYM    DATA     BYTE      TMOD
      00000098H   SFRSYM    DATA     BYTE      SCON
      00000087H   SFRSYM    DATA     BYTE      PCON
      000000BCH   SFRSYM    DATA     BYTE      ADC_CONTR
L251 LINKER/LOCATER V4.66.93.0                                                        03/25/2026  13:05:55  PAGE 228


      000000D1H   SFRSYM    DATA     BYTE      PSW1
      000000E7H   SFRSYM    DATA     BYTE      CMPCR2
      000000E6H   SFRSYM    DATA     BYTE      CMPCR1
      000000DEH   SFRSYM    DATA     BYTE      ADCCFG
      000000B8H   SFRSYM    DATA     BYTE      IP
      0000008FH   SFRSYM    DATA     BYTE      INTCLKO
      000000EEH   SFRSYM    DATA     BYTE      IP3H
      000000B6H   SFRSYM    DATA     BYTE      IP2H
      000000BFH   SFRSYM    DATA     BYTE      P_SW4
      000000A8H   SFRSYM    DATA     BYTE      IE
      000000BBH   SFRSYM    DATA     BYTE      P_SW3
      000000BAH   SFRSYM    DATA     BYTE      P_SW2
      000000A2H   SFRSYM    DATA     BYTE      P_SW1
      000000CEH   SFRSYM    DATA     BYTE      SPCTL
      000000F8H   SFRSYM    DATA     BYTE      P7
      000000E8H   SFRSYM    DATA     BYTE      P6
      000000C8H   SFRSYM    DATA     BYTE      P5
      000000C0H   SFRSYM    DATA     BYTE      P4
      000000ABH   SFRSYM    DATA     BYTE      WKTCH
      000000B0H   SFRSYM    DATA     BYTE      P3
      000000A0H   SFRSYM    DATA     BYTE      P2
      00000090H   SFRSYM    DATA     BYTE      P1
      00000080H   SFRSYM    DATA     BYTE      P0

      00FDFFA0H   BLOCK     ECODE    ---       LVL=0
      00012A00H   SYMBOL    XDATA    INT       transfer_device
      00FDFFA0H   LINE      ECODE    ---       #65
      00FDFFA6H   LINE      ECODE    ---       #67
      00FDFFB4H   LINE      ECODE    ---       #69
      00FDFFB4H   LINE      ECODE    ---       #71
      00FDFFC6H   LINE      ECODE    ---       #72
      00FDFFD8H   LINE      ECODE    ---       #73
      00FDFFDAH   LINE      ECODE    ---       #75
      00FDFFDAH   LINE      ECODE    ---       #79
      00FDFFDAH   LINE      ECODE    ---       #82
      00FDFFDAH   LINE      ECODE    ---       #86
      00FDFFDAH   LINE      ECODE    ---       #89
      00FDFFDAH   LINE      ECODE    ---       #91
      00FDFFECH   LINE      ECODE    ---       #92
      00FDFFFEH   LINE      ECODE    ---       #93
      00FDFFFEH   LINE      ECODE    ---       #95
      00FDFFFEH   LINE      ECODE    ---       #99
      00FDFFFEH   LINE      ECODE    ---       #100
      00FDFFFEH   LINE      ECODE    ---       #101
      ---         BLOCKEND  ---      ---       LVL=0

      ---         MODULE    ---      ---       PD_ENC_SDI
      00FE0D09H   PUBLIC    ECODE    ---       ENC_handler?
      00FE0DF1H   PUBLIC    ECODE    ---       slidingAverage?
      00FE0D32H   PUBLIC    ECODE    ---       initSlidingAverage?
      00FE0CCAH   PUBLIC    ECODE    ---       ENC_Init?
      000115EAH   PUBLIC    XDATA    FLOAT     speed_avl
      000115EEH   PUBLIC    XDATA    FLOAT     speed_L
      000115F2H   PUBLIC    XDATA    FLOAT     speed_R
      000115F6H   PUBLIC    XDATA    FLOAT     speed_avl_next
      000115FAH   PUBLIC    XDATA    FLOAT     speed_L_next
      000115FEH   PUBLIC    XDATA    FLOAT     speed_R_next
      00011602H   PUBLIC    XDATA    ---       filter_Right
      00011618H   PUBLIC    XDATA    INT       lastspeed_L
      0001161AH   PUBLIC    XDATA    ---       filter_Left
      00011630H   PUBLIC    XDATA    LONG      distance_text
      00011634H   PUBLIC    XDATA    INT       lastspeed_R
      00012481H   PUBLIC    XDATA    BYTE      ?slidingAverage??BYTE
      000000D0H   SFRSYM    DATA     BYTE      PSW
      0000009DH   SFRSYM    DATA     BYTE      IRCBAND
L251 LINKER/LOCATER V4.66.93.0                                                        03/25/2026  13:05:55  PAGE 229


      00000097H   SFRSYM    DATA     BYTE      AUXR2
      000000EAH   SFRSYM    DATA     BYTE      CKCON
      000000EFH   SFRSYM    DATA     BYTE      AUXINTIF
      000000FDH   SFRSYM    DATA     BYTE      S4CON
      000000ACH   SFRSYM    DATA     BYTE      S3CON
      0000009AH   SFRSYM    DATA     BYTE      S2CON
      000000B7H   SFRSYM    DATA     BYTE      IPH
      000000CDH   SFRSYM    DATA     BYTE      SPSTAT
      000000DDH   SFRSYM    DATA     BYTE      T4T3M
      000000C1H   SFRSYM    DATA     BYTE      WDT_CONTR
      000000DFH   SFRSYM    DATA     BYTE      IP3
      000000F4H   SFRSYM    DATA     BYTE      USBCON
      000000B5H   SFRSYM    DATA     BYTE      IP2
      000000FFH   SFRSYM    DATA     BYTE      RSTCFG
      000000E0H   SFRSYM    DATA     BYTE      ACC
      000000C7H   SFRSYM    DATA     BYTE      IAP_CONTR
      000000F9H   SFRSYM    DATA     BYTE      LINICR
      0000008EH   SFRSYM    DATA     BYTE      AUXR
      000000F0H   SFRSYM    DATA     BYTE      B
      000000AFH   SFRSYM    DATA     BYTE      IE2
      00000088H   SFRSYM    DATA     BYTE      TCON
      00000089H   SFRSYM    DATA     BYTE      TMOD
      00000098H   SFRSYM    DATA     BYTE      SCON
      00000087H   SFRSYM    DATA     BYTE      PCON
      000000BCH   SFRSYM    DATA     BYTE      ADC_CONTR
      000000D1H   SFRSYM    DATA     BYTE      PSW1
      000000E7H   SFRSYM    DATA     BYTE      CMPCR2
      000000E6H   SFRSYM    DATA     BYTE      CMPCR1
      000000DEH   SFRSYM    DATA     BYTE      ADCCFG
      000000B8H   SFRSYM    DATA     BYTE      IP
      0000008FH   SFRSYM    DATA     BYTE      INTCLKO
      000000EEH   SFRSYM    DATA     BYTE      IP3H
      000000B6H   SFRSYM    DATA     BYTE      IP2H
      000000BFH   SFRSYM    DATA     BYTE      P_SW4
      000000A8H   SFRSYM    DATA     BYTE      IE
      000000BBH   SFRSYM    DATA     BYTE      P_SW3
      000000BAH   SFRSYM    DATA     BYTE      P_SW2
      000000A2H   SFRSYM    DATA     BYTE      P_SW1
      000000CEH   SFRSYM    DATA     BYTE      SPCTL
      000000F8H   SFRSYM    DATA     BYTE      P7
      000000E8H   SFRSYM    DATA     BYTE      P6
      000000C8H   SFRSYM    DATA     BYTE      P5
      000000C0H   SFRSYM    DATA     BYTE      P4
      000000ABH   SFRSYM    DATA     BYTE      WKTCH
      000000B0H   SFRSYM    DATA     BYTE      P3
      000000A0H   SFRSYM    DATA     BYTE      P2
      00000090H   SFRSYM    DATA     BYTE      P1
      00000080H   SFRSYM    DATA     BYTE      P0

      00FE0CCAH   BLOCK     ECODE    ---       LVL=0
      00FE0CCAH   LINE      ECODE    ---       #20
      00FE0CCAH   LINE      ECODE    ---       #22
      00FE0CD8H   LINE      ECODE    ---       #23
      00FE0CE8H   LINE      ECODE    ---       #25
      00FE0CF8H   LINE      ECODE    ---       #26
      00FE0D08H   LINE      ECODE    ---       #27
      ---         BLOCKEND  ---      ---       LVL=0

      00FE0D09H   BLOCK     ECODE    ---       LVL=0
      00FE0D09H   LINE      ECODE    ---       #29
      00FE0D09H   LINE      ECODE    ---       #31
      00FE0D15H   LINE      ECODE    ---       #32
      00FE0D23H   LINE      ECODE    ---       #34
      00FE0D29H   LINE      ECODE    ---       #35
      00FE0D31H   LINE      ECODE    ---       #36
L251 LINKER/LOCATER V4.66.93.0                                                        03/25/2026  13:05:55  PAGE 230


      ---         BLOCKEND  ---      ---       LVL=0

      00FE0D32H   BLOCK     ECODE    ---       LVL=0
      000127C1H   SYMBOL    XDATA    ---       filter
      000127C5H   SYMBOL    XDATA    INT       N
      00FE0D42H   BLOCK     ECODE    NEAR LAB  LVL=1
      000127C7H   SYMBOL    XDATA    BYTE      Win_i
      ---         BLOCKEND  ---      ---       LVL=1
      00FE0D32H   LINE      ECODE    ---       #85
      00FE0D42H   LINE      ECODE    ---       #86
      00FE0D47H   LINE      ECODE    ---       #87
      00FE0D55H   LINE      ECODE    ---       #88
      00FE0D5FH   LINE      ECODE    ---       #89
      00FE0D5FH   LINE      ECODE    ---       #91
      00FE0D66H   LINE      ECODE    ---       #92
      00FE0D85H   LINE      ECODE    ---       #93
      00FE0D9CH   LINE      ECODE    ---       #94
      00FE0DB3H   LINE      ECODE    ---       #95
      00FE0DC6H   LINE      ECODE    ---       #96
      00FE0DD9H   LINE      ECODE    ---       #97
      00FE0DF0H   LINE      ECODE    ---       #98
      ---         BLOCKEND  ---      ---       LVL=0

      00FE0DF1H   BLOCK     ECODE    ---       LVL=0
      00012481H   SYMBOL    XDATA    FLOAT     now_speed
      00012485H   SYMBOL    XDATA    ---       avg_speed
      00012489H   SYMBOL    XDATA    ---       filter
      00FE0DF1H   LINE      ECODE    ---       #100
      00FE0E05H   LINE      ECODE    ---       #102
      00FE0E4DH   LINE      ECODE    ---       #105
      00FE0E7FH   LINE      ECODE    ---       #108
      00FE0EA9H   LINE      ECODE    ---       #111
      00FE0EE8H   LINE      ECODE    ---       #114
      00FE0F0EH   LINE      ECODE    ---       #115
      00FE0F28H   LINE      ECODE    ---       #116
      00FE0F28H   LINE      ECODE    ---       #119
      00FE0F6DH   LINE      ECODE    ---       #120
      ---         BLOCKEND  ---      ---       LVL=0

      ---         MODULE    ---      ---       PID
      00FDFFFFH   PUBLIC    ECODE    ---       PID_Init?

      00FDFFFFH   BLOCK     ECODE    ---       LVL=0
      00FDFFFFH   LINE      ECODE    ---       #2
      00FDFFFFH   LINE      ECODE    ---       #7
      ---         BLOCKEND  ---      ---       LVL=0

      ---         MODULE    ---      ---       var
      00012981H   PUBLIC    XDATA    INT       encoder_data_dir_1
      00012983H   PUBLIC    XDATA    INT       encoder_data_dir_2
      000000D0H   SFRSYM    DATA     BYTE      PSW
      0000009DH   SFRSYM    DATA     BYTE      IRCBAND
      00000097H   SFRSYM    DATA     BYTE      AUXR2
      000000EAH   SFRSYM    DATA     BYTE      CKCON
      000000EFH   SFRSYM    DATA     BYTE      AUXINTIF
      000000FDH   SFRSYM    DATA     BYTE      S4CON
      000000ACH   SFRSYM    DATA     BYTE      S3CON
      0000009AH   SFRSYM    DATA     BYTE      S2CON
      000000B7H   SFRSYM    DATA     BYTE      IPH
      000000CDH   SFRSYM    DATA     BYTE      SPSTAT
      000000DDH   SFRSYM    DATA     BYTE      T4T3M
      000000C1H   SFRSYM    DATA     BYTE      WDT_CONTR
      000000DFH   SFRSYM    DATA     BYTE      IP3
      000000F4H   SFRSYM    DATA     BYTE      USBCON
      000000B5H   SFRSYM    DATA     BYTE      IP2
L251 LINKER/LOCATER V4.66.93.0                                                        03/25/2026  13:05:55  PAGE 231


      000000FFH   SFRSYM    DATA     BYTE      RSTCFG
      000000E0H   SFRSYM    DATA     BYTE      ACC
      000000C7H   SFRSYM    DATA     BYTE      IAP_CONTR
      000000F9H   SFRSYM    DATA     BYTE      LINICR
      0000008EH   SFRSYM    DATA     BYTE      AUXR
      000000F0H   SFRSYM    DATA     BYTE      B
      000000AFH   SFRSYM    DATA     BYTE      IE2
      00000088H   SFRSYM    DATA     BYTE      TCON
      00000089H   SFRSYM    DATA     BYTE      TMOD
      00000098H   SFRSYM    DATA     BYTE      SCON
      00000087H   SFRSYM    DATA     BYTE      PCON
      000000BCH   SFRSYM    DATA     BYTE      ADC_CONTR
      000000D1H   SFRSYM    DATA     BYTE      PSW1
      000000E7H   SFRSYM    DATA     BYTE      CMPCR2
      000000E6H   SFRSYM    DATA     BYTE      CMPCR1
      000000DEH   SFRSYM    DATA     BYTE      ADCCFG
      000000B8H   SFRSYM    DATA     BYTE      IP
      0000008FH   SFRSYM    DATA     BYTE      INTCLKO
      000000EEH   SFRSYM    DATA     BYTE      IP3H
      000000B6H   SFRSYM    DATA     BYTE      IP2H
      000000BFH   SFRSYM    DATA     BYTE      P_SW4
      000000A8H   SFRSYM    DATA     BYTE      IE
      000000BBH   SFRSYM    DATA     BYTE      P_SW3
      000000BAH   SFRSYM    DATA     BYTE      P_SW2
      000000A2H   SFRSYM    DATA     BYTE      P_SW1
      000000CEH   SFRSYM    DATA     BYTE      SPCTL
      000000F8H   SFRSYM    DATA     BYTE      P7
      000000E8H   SFRSYM    DATA     BYTE      P6
      000000C8H   SFRSYM    DATA     BYTE      P5
      000000C0H   SFRSYM    DATA     BYTE      P4
      000000ABH   SFRSYM    DATA     BYTE      WKTCH
      000000B0H   SFRSYM    DATA     BYTE      P3
      000000A0H   SFRSYM    DATA     BYTE      P2
      00000090H   SFRSYM    DATA     BYTE      P1
      00000080H   SFRSYM    DATA     BYTE      P0

      ---         MODULE    ---      ---       Motor
      00FE1AEAH   PUBLIC    ECODE    ---       Motor_Init?
      00FE1B69H   PUBLIC    ECODE    ---       Motor_Control?
      00012A02H   PUBLIC    XDATA    CHAR      dir
      00012A03H   PUBLIC    XDATA    CHAR      duty
      000000D0H   SFRSYM    DATA     BYTE      PSW
      0000009DH   SFRSYM    DATA     BYTE      IRCBAND
      00000097H   SFRSYM    DATA     BYTE      AUXR2
      000000EAH   SFRSYM    DATA     BYTE      CKCON
      000000EFH   SFRSYM    DATA     BYTE      AUXINTIF
      000000FDH   SFRSYM    DATA     BYTE      S4CON
      000000ACH   SFRSYM    DATA     BYTE      S3CON
      0000009AH   SFRSYM    DATA     BYTE      S2CON
      000000B7H   SFRSYM    DATA     BYTE      IPH
      000000CDH   SFRSYM    DATA     BYTE      SPSTAT
      000000DDH   SFRSYM    DATA     BYTE      T4T3M
      000000C1H   SFRSYM    DATA     BYTE      WDT_CONTR
      000000DFH   SFRSYM    DATA     BYTE      IP3
      000000F4H   SFRSYM    DATA     BYTE      USBCON
      000000B5H   SFRSYM    DATA     BYTE      IP2
      000000FFH   SFRSYM    DATA     BYTE      RSTCFG
      000000E0H   SFRSYM    DATA     BYTE      ACC
      000000C7H   SFRSYM    DATA     BYTE      IAP_CONTR
      000000F9H   SFRSYM    DATA     BYTE      LINICR
      0000008EH   SFRSYM    DATA     BYTE      AUXR
      000000F0H   SFRSYM    DATA     BYTE      B
      000000AFH   SFRSYM    DATA     BYTE      IE2
      00000088H   SFRSYM    DATA     BYTE      TCON
      00000089H   SFRSYM    DATA     BYTE      TMOD
L251 LINKER/LOCATER V4.66.93.0                                                        03/25/2026  13:05:55  PAGE 232


      00000098H   SFRSYM    DATA     BYTE      SCON
      00000087H   SFRSYM    DATA     BYTE      PCON
      000000BCH   SFRSYM    DATA     BYTE      ADC_CONTR
      000000D1H   SFRSYM    DATA     BYTE      PSW1
      000000E7H   SFRSYM    DATA     BYTE      CMPCR2
      000000E6H   SFRSYM    DATA     BYTE      CMPCR1
      000000DEH   SFRSYM    DATA     BYTE      ADCCFG
      000000B8H   SFRSYM    DATA     BYTE      IP
      0000008FH   SFRSYM    DATA     BYTE      INTCLKO
      000000EEH   SFRSYM    DATA     BYTE      IP3H
      000000B6H   SFRSYM    DATA     BYTE      IP2H
      000000BFH   SFRSYM    DATA     BYTE      P_SW4
      000000A8H   SFRSYM    DATA     BYTE      IE
      000000BBH   SFRSYM    DATA     BYTE      P_SW3
      000000BAH   SFRSYM    DATA     BYTE      P_SW2
      000000A2H   SFRSYM    DATA     BYTE      P_SW1
      000000CEH   SFRSYM    DATA     BYTE      SPCTL
      000000F8H   SFRSYM    DATA     BYTE      P7
      000000E8H   SFRSYM    DATA     BYTE      P6
      000000C8H   SFRSYM    DATA     BYTE      P5
      000000C0H   SFRSYM    DATA     BYTE      P4
      000000ABH   SFRSYM    DATA     BYTE      WKTCH
      000000B0H   SFRSYM    DATA     BYTE      P3
      000000A0H   SFRSYM    DATA     BYTE      P2
      00000090H   SFRSYM    DATA     BYTE      P1
      00000080H   SFRSYM    DATA     BYTE      P0

      00FE1AEAH   BLOCK     ECODE    ---       LVL=0
      00FE1AEAH   LINE      ECODE    ---       #23
      00FE1AEAH   LINE      ECODE    ---       #26
      00FE1AFCH   LINE      ECODE    ---       #27
      00FE1B14H   LINE      ECODE    ---       #29
      00FE1B26H   LINE      ECODE    ---       #30
      00FE1B3EH   LINE      ECODE    ---       #32
      00FE1B50H   LINE      ECODE    ---       #33
      00FE1B68H   LINE      ECODE    ---       #35
      ---         BLOCKEND  ---      ---       LVL=0

      00FE1B69H   BLOCK     ECODE    ---       LVL=0
      00FE1B69H   LINE      ECODE    ---       #36
      00FE1B69H   LINE      ECODE    ---       #39
      00FE1B73H   LINE      ECODE    ---       #41
      00FE1B7DH   LINE      ECODE    ---       #42
      00FE1B9BH   LINE      ECODE    ---       #44
      00FE1BA5H   LINE      ECODE    ---       #45
      00FE1BC3H   LINE      ECODE    ---       #50
      00FE1BC3H   LINE      ECODE    ---       #52
      00FE1BCCH   LINE      ECODE    ---       #54
      00FE1BD7H   LINE      ECODE    ---       #55
      00FE1BE3H   LINE      ECODE    ---       #56
      00FE1BE8H   LINE      ECODE    ---       #57
      00FE1BEAH   LINE      ECODE    ---       #60
      00FE1BF8H   LINE      ECODE    ---       #61
      00FE1C04H   LINE      ECODE    ---       #62
      00FE1C0AH   LINE      ECODE    ---       #63
      00FE1C0AH   LINE      ECODE    ---       #64
      00FE1C28H   LINE      ECODE    ---       #68
      ---         BLOCKEND  ---      ---       LVL=0

      ---         MODULE    ---      ---       ADC
      00FDC47CH   PUBLIC    ECODE    ---       my_ADC_Init?
      00FDC4A1H   PUBLIC    ECODE    ---       adc_sample?
      00FDCBFEH   PUBLIC    ECODE    ---       debug_adc?
      00FDC6D2H   PUBLIC    ECODE    ---       adc_mid_sample?
      00FDC78BH   PUBLIC    ECODE    ---       siai_adc_all_sample?
L251 LINKER/LOCATER V4.66.93.0                                                        03/25/2026  13:05:55  PAGE 233


      00FDC7D7H   PUBLIC    ECODE    ---       adc_normalizing?
      00FDC670H   PUBLIC    ECODE    ---       adc_sample_a?
      00FDC588H   PUBLIC    ECODE    ---       adc_sample_b?
      00FDC8C2H   PUBLIC    ECODE    ---       adc_v_sample?
      00FDC995H   PUBLIC    ECODE    ---       adc_v_sample_2?
      00FDCA58H   PUBLIC    ECODE    ---       adc_v_sample_3?
      00FDCB2BH   PUBLIC    ECODE    ---       adc_v_sample_4?
      00011792H   PUBLIC    XDATA    FLOAT     L
      00011796H   PUBLIC    XDATA    FLOAT     M
      0001179AH   PUBLIC    XDATA    FLOAT     R
      0001179EH   PUBLIC    XDATA    BYTE      channel_index
      0001179FH   PUBLIC    XDATA    ---       ADC_temp
      000117ABH   PUBLIC    XDATA    ---       channel_list
      000000D0H   SFRSYM    DATA     BYTE      PSW
      0000009DH   SFRSYM    DATA     BYTE      IRCBAND
      00000097H   SFRSYM    DATA     BYTE      AUXR2
      000000EAH   SFRSYM    DATA     BYTE      CKCON
      000000EFH   SFRSYM    DATA     BYTE      AUXINTIF
      000000FDH   SFRSYM    DATA     BYTE      S4CON
      000000ACH   SFRSYM    DATA     BYTE      S3CON
      0000009AH   SFRSYM    DATA     BYTE      S2CON
      000000B7H   SFRSYM    DATA     BYTE      IPH
      000000CDH   SFRSYM    DATA     BYTE      SPSTAT
      000000DDH   SFRSYM    DATA     BYTE      T4T3M
      000000C1H   SFRSYM    DATA     BYTE      WDT_CONTR
      000000DFH   SFRSYM    DATA     BYTE      IP3
      000000F4H   SFRSYM    DATA     BYTE      USBCON
      000000B5H   SFRSYM    DATA     BYTE      IP2
      000000FFH   SFRSYM    DATA     BYTE      RSTCFG
      000000E0H   SFRSYM    DATA     BYTE      ACC
      000000C7H   SFRSYM    DATA     BYTE      IAP_CONTR
      000000F9H   SFRSYM    DATA     BYTE      LINICR
      0000008EH   SFRSYM    DATA     BYTE      AUXR
      000000F0H   SFRSYM    DATA     BYTE      B
      000000AFH   SFRSYM    DATA     BYTE      IE2
      00000088H   SFRSYM    DATA     BYTE      TCON
      00000089H   SFRSYM    DATA     BYTE      TMOD
      00000098H   SFRSYM    DATA     BYTE      SCON
      00000087H   SFRSYM    DATA     BYTE      PCON
      000000BCH   SFRSYM    DATA     BYTE      ADC_CONTR
      000000D1H   SFRSYM    DATA     BYTE      PSW1
      000000E7H   SFRSYM    DATA     BYTE      CMPCR2
      000000E6H   SFRSYM    DATA     BYTE      CMPCR1
      000000DEH   SFRSYM    DATA     BYTE      ADCCFG
      000000B8H   SFRSYM    DATA     BYTE      IP
      0000008FH   SFRSYM    DATA     BYTE      INTCLKO
      000000EEH   SFRSYM    DATA     BYTE      IP3H
      000000B6H   SFRSYM    DATA     BYTE      IP2H
      000000BFH   SFRSYM    DATA     BYTE      P_SW4
      000000A8H   SFRSYM    DATA     BYTE      IE
      000000BBH   SFRSYM    DATA     BYTE      P_SW3
      000000BAH   SFRSYM    DATA     BYTE      P_SW2
      000000A2H   SFRSYM    DATA     BYTE      P_SW1
      000000CEH   SFRSYM    DATA     BYTE      SPCTL
      000000F8H   SFRSYM    DATA     BYTE      P7
      000000E8H   SFRSYM    DATA     BYTE      P6
      000000C8H   SFRSYM    DATA     BYTE      P5
      000000C0H   SFRSYM    DATA     BYTE      P4
      000000ABH   SFRSYM    DATA     BYTE      WKTCH
      000000B0H   SFRSYM    DATA     BYTE      P3
      000000A0H   SFRSYM    DATA     BYTE      P2
      00000090H   SFRSYM    DATA     BYTE      P1
      00000080H   SFRSYM    DATA     BYTE      P0

      00FDC47CH   BLOCK     ECODE    ---       LVL=0
L251 LINKER/LOCATER V4.66.93.0                                                        03/25/2026  13:05:55  PAGE 234


      00FDC47CH   LINE      ECODE    ---       #22
      00FDC47CH   LINE      ECODE    ---       #24
      00FDC488H   LINE      ECODE    ---       #25
      00FDC494H   LINE      ECODE    ---       #26
      00FDC4A0H   LINE      ECODE    ---       #27
      ---         BLOCKEND  ---      ---       LVL=0

      00FDC4A1H   BLOCK     ECODE    ---       LVL=0
      000124E5H   SYMBOL    XDATA    INT       ch
      00FDC4A7H   BLOCK     ECODE    NEAR LAB  LVL=1
      000124E7H   SYMBOL    XDATA    WORD      temp
      000124E9H   SYMBOL    XDATA    WORD      sum
      000124EBH   SYMBOL    XDATA    WORD      max
      000124EDH   SYMBOL    XDATA    WORD      min
      000124EFH   SYMBOL    XDATA    BYTE      i
      ---         BLOCKEND  ---      ---       LVL=1
      00FDC4A1H   LINE      ECODE    ---       #30
      00FDC4A7H   LINE      ECODE    ---       #31
      00FDC4A7H   LINE      ECODE    ---       #32
      00FDC4AFH   LINE      ECODE    ---       #36
      00FDC4BFH   LINE      ECODE    ---       #37
      00FDC4CBH   LINE      ECODE    ---       #38
      00FDC4D7H   LINE      ECODE    ---       #39
      00FDC4E8H   LINE      ECODE    ---       #41
      00FDC4EFH   LINE      ECODE    ---       #43
      00FDC4FFH   LINE      ECODE    ---       #44
      00FDC51BH   LINE      ECODE    ---       #45
      00FDC537H   LINE      ECODE    ---       #46
      00FDC548H   LINE      ECODE    ---       #47
      00FDC55FH   LINE      ECODE    ---       #49
      00FDC581H   LINE      ECODE    ---       #51
      00FDC587H   LINE      ECODE    ---       #52
      ---         BLOCKEND  ---      ---       LVL=0

      00FDC588H   BLOCK     ECODE    ---       LVL=0
      000124F0H   SYMBOL    XDATA    INT       ch
      00FDC58EH   BLOCK     ECODE    NEAR LAB  LVL=1
      000124F2H   SYMBOL    XDATA    WORD      temp
      000124F4H   SYMBOL    XDATA    WORD      sum
      000124F6H   SYMBOL    XDATA    WORD      max
      000124F8H   SYMBOL    XDATA    WORD      min
      000124FAH   SYMBOL    XDATA    BYTE      i
      ---         BLOCKEND  ---      ---       LVL=1
      00FDC588H   LINE      ECODE    ---       #54
      00FDC58EH   LINE      ECODE    ---       #55
      00FDC58EH   LINE      ECODE    ---       #56
      00FDC596H   LINE      ECODE    ---       #60
      00FDC5A6H   LINE      ECODE    ---       #61
      00FDC5B2H   LINE      ECODE    ---       #62
      00FDC5BEH   LINE      ECODE    ---       #63
      00FDC5CFH   LINE      ECODE    ---       #65
      00FDC5D7H   LINE      ECODE    ---       #67
      00FDC5E7H   LINE      ECODE    ---       #68
      00FDC603H   LINE      ECODE    ---       #69
      00FDC61FH   LINE      ECODE    ---       #70
      00FDC630H   LINE      ECODE    ---       #71
      00FDC647H   LINE      ECODE    ---       #73
      00FDC669H   LINE      ECODE    ---       #75
      00FDC66FH   LINE      ECODE    ---       #76
      ---         BLOCKEND  ---      ---       LVL=0

      00FDC670H   BLOCK     ECODE    ---       LVL=0
      0001213EH   SYMBOL    XDATA    INT       ch
      00FDC676H   BLOCK     ECODE    NEAR LAB  LVL=1
      00012140H   SYMBOL    XDATA    BYTE      i
L251 LINKER/LOCATER V4.66.93.0                                                        03/25/2026  13:05:55  PAGE 235


      00012141H   SYMBOL    XDATA    ---       arr
      ---         BLOCKEND  ---      ---       LVL=1
      00FDC670H   LINE      ECODE    ---       #79
      00FDC676H   LINE      ECODE    ---       #80
      00FDC676H   LINE      ECODE    ---       #84
      00FDC67DH   LINE      ECODE    ---       #86
      00FDC6A2H   LINE      ECODE    ---       #87
      00FDC6B9H   LINE      ECODE    ---       #89
      00FDC6CBH   LINE      ECODE    ---       #90
      00FDC6D1H   LINE      ECODE    ---       #91
      ---         BLOCKEND  ---      ---       LVL=0

      00FDC6D2H   BLOCK     ECODE    ---       LVL=0
      000125AFH   SYMBOL    XDATA    INT       ch
      00FDC6D8H   BLOCK     ECODE    NEAR LAB  LVL=1
      000125B1H   SYMBOL    XDATA    WORD      i
      000125B3H   SYMBOL    XDATA    WORD      j
      000125B5H   SYMBOL    XDATA    WORD      k
      000125B7H   SYMBOL    XDATA    WORD      tmp
      ---         BLOCKEND  ---      ---       LVL=1
      00FDC6D2H   LINE      ECODE    ---       #94
      00FDC6D8H   LINE      ECODE    ---       #95
      00FDC6D8H   LINE      ECODE    ---       #98
      00FDC6E8H   LINE      ECODE    ---       #99
      00FDC6F8H   LINE      ECODE    ---       #100
      00FDC708H   LINE      ECODE    ---       #102
      00FDC718H   LINE      ECODE    ---       #103
      00FDC724H   LINE      ECODE    ---       #104
      00FDC730H   LINE      ECODE    ---       #105
      00FDC73CH   LINE      ECODE    ---       #106
      00FDC73CH   LINE      ECODE    ---       #107
      00FDC74CH   LINE      ECODE    ---       #108
      00FDC758H   LINE      ECODE    ---       #109
      00FDC75AH   LINE      ECODE    ---       #110
      00FDC76AH   LINE      ECODE    ---       #111
      00FDC776H   LINE      ECODE    ---       #112
      00FDC778H   LINE      ECODE    ---       #114
      00FDC784H   LINE      ECODE    ---       #115
      00FDC784H   LINE      ECODE    ---       #116
      00FDC78AH   LINE      ECODE    ---       #117
      ---         BLOCKEND  ---      ---       LVL=0

      00FDC78BH   BLOCK     ECODE    ---       LVL=0
      00FDC78BH   LINE      ECODE    ---       #119
      00FDC78BH   LINE      ECODE    ---       #121
      00FDC7A4H   LINE      ECODE    ---       #122
      00FDC7BDH   LINE      ECODE    ---       #123
      00FDC7D6H   LINE      ECODE    ---       #126
      ---         BLOCKEND  ---      ---       LVL=0

      00FDC7D7H   BLOCK     ECODE    ---       LVL=0
      00FDC7D7H   LINE      ECODE    ---       #128
      00FDC7D7H   LINE      ECODE    ---       #139
      00FDC7FFH   LINE      ECODE    ---       #141
      00FDC827H   LINE      ECODE    ---       #143
      00FDC84FH   LINE      ECODE    ---       #149
      00FDC875H   LINE      ECODE    ---       #151
      00FDC89BH   LINE      ECODE    ---       #153
      ---         BLOCKEND  ---      ---       LVL=0

      00FDC8C2H   BLOCK     ECODE    ---       LVL=0
      00012985H   SYMBOL    XDATA    FLOAT     v_next
      00FDC8CCH   BLOCK     ECODE    NEAR LAB  LVL=1
      000117B1H   SYMBOL    XDATA    FLOAT     v
      000117B5H   SYMBOL    XDATA    FLOAT     last_v
L251 LINKER/LOCATER V4.66.93.0                                                        03/25/2026  13:05:55  PAGE 236


      ---         BLOCKEND  ---      ---       LVL=1
      00FDC8C2H   LINE      ECODE    ---       #157
      00FDC8CCH   LINE      ECODE    ---       #158
      00FDC8CCH   LINE      ECODE    ---       #160
      00FDC8E0H   LINE      ECODE    ---       #161
      00FDC910H   LINE      ECODE    ---       #164
      00FDC976H   LINE      ECODE    ---       #165
      00FDC98AH   LINE      ECODE    ---       #167
      00FDC994H   LINE      ECODE    ---       #168
      ---         BLOCKEND  ---      ---       LVL=0

      00FDC995H   BLOCK     ECODE    ---       LVL=0
      00012989H   SYMBOL    XDATA    FLOAT     v_next
      00FDC99FH   BLOCK     ECODE    NEAR LAB  LVL=1
      000117B9H   SYMBOL    XDATA    FLOAT     v
      000117BDH   SYMBOL    XDATA    FLOAT     last_v
      ---         BLOCKEND  ---      ---       LVL=1
      00FDC995H   LINE      ECODE    ---       #170
      00FDC99FH   LINE      ECODE    ---       #171
      00FDC99FH   LINE      ECODE    ---       #173
      00FDC9B3H   LINE      ECODE    ---       #174
      00FDC9E3H   LINE      ECODE    ---       #177
      00FDCA39H   LINE      ECODE    ---       #178
      00FDCA4DH   LINE      ECODE    ---       #180
      00FDCA57H   LINE      ECODE    ---       #181
      ---         BLOCKEND  ---      ---       LVL=0

      00FDCA58H   BLOCK     ECODE    ---       LVL=0
      0001298DH   SYMBOL    XDATA    FLOAT     v_next
      00FDCA62H   BLOCK     ECODE    NEAR LAB  LVL=1
      000117C1H   SYMBOL    XDATA    FLOAT     v
      000117C5H   SYMBOL    XDATA    FLOAT     last_v
      ---         BLOCKEND  ---      ---       LVL=1
      00FDCA58H   LINE      ECODE    ---       #183
      00FDCA62H   LINE      ECODE    ---       #184
      00FDCA62H   LINE      ECODE    ---       #186
      00FDCA76H   LINE      ECODE    ---       #187
      00FDCAA6H   LINE      ECODE    ---       #190
      00FDCB0CH   LINE      ECODE    ---       #191
      00FDCB20H   LINE      ECODE    ---       #193
      00FDCB2AH   LINE      ECODE    ---       #194
      ---         BLOCKEND  ---      ---       LVL=0

      00FDCB2BH   BLOCK     ECODE    ---       LVL=0
      00012991H   SYMBOL    XDATA    FLOAT     v_next
      00FDCB35H   BLOCK     ECODE    NEAR LAB  LVL=1
      000117C9H   SYMBOL    XDATA    FLOAT     v
      000117CDH   SYMBOL    XDATA    FLOAT     last_v
      ---         BLOCKEND  ---      ---       LVL=1
      00FDCB2BH   LINE      ECODE    ---       #196
      00FDCB35H   LINE      ECODE    ---       #197
      00FDCB35H   LINE      ECODE    ---       #200
      00FDCB49H   LINE      ECODE    ---       #202
      00FDCB79H   LINE      ECODE    ---       #205
      00FDCBDFH   LINE      ECODE    ---       #206
      00FDCBF3H   LINE      ECODE    ---       #208
      00FDCBFDH   LINE      ECODE    ---       #209
      ---         BLOCKEND  ---      ---       LVL=0

      00FDCBFEH   BLOCK     ECODE    ---       LVL=0
      00FDCBFEH   LINE      ECODE    ---       #210
      00FDCBFEH   LINE      ECODE    ---       #212
      00FDCC05H   LINE      ECODE    ---       #214
      00FDCC46H   LINE      ECODE    ---       #218
      00FDCC5DH   LINE      ECODE    ---       #219
L251 LINKER/LOCATER V4.66.93.0                                                        03/25/2026  13:05:55  PAGE 237


      00FDCC7BH   LINE      ECODE    ---       #221
      00FDCC82H   LINE      ECODE    ---       #223
      00FDCCC5H   LINE      ECODE    ---       #227
      00FDCCDCH   LINE      ECODE    ---       #228
      00FDCCFAH   LINE      ECODE    ---       #231
      ---         BLOCKEND  ---      ---       LVL=0

      ---         MODULE    ---      ---       IMU
      00FE154BH   PUBLIC    ECODE    ---       gyroscope_get_gyro?
      00FE1614H   PUBLIC    ECODE    ---       angle_get?
      00FE1546H   PUBLIC    ECODE    ---       tuoluo_init?
      00FE1663H   PUBLIC    ECODE    ---       null_drift_calculate?
      00FE1656H   PUBLIC    ECODE    ---       angle_clear?
      00011D97H   PUBLIC    XDATA    FLOAT     null_drift_z
      00011D9BH   PUBLIC    XDATA    ---       gyro_z
      00011DA3H   PUBLIC    XDATA    FLOAT     next_gyro_z
      00011DA7H   PUBLIC    XDATA    FLOAT     avl_gyro_z
      00011DABH   PUBLIC    XDATA    FLOAT     angle_ringR
      000000D0H   SFRSYM    DATA     BYTE      PSW
      0000009DH   SFRSYM    DATA     BYTE      IRCBAND
      00000097H   SFRSYM    DATA     BYTE      AUXR2
      000000EAH   SFRSYM    DATA     BYTE      CKCON
      000000EFH   SFRSYM    DATA     BYTE      AUXINTIF
      000000FDH   SFRSYM    DATA     BYTE      S4CON
      000000ACH   SFRSYM    DATA     BYTE      S3CON
      0000009AH   SFRSYM    DATA     BYTE      S2CON
      000000B7H   SFRSYM    DATA     BYTE      IPH
      000000CDH   SFRSYM    DATA     BYTE      SPSTAT
      000000DDH   SFRSYM    DATA     BYTE      T4T3M
      000000C1H   SFRSYM    DATA     BYTE      WDT_CONTR
      000000DFH   SFRSYM    DATA     BYTE      IP3
      000000F4H   SFRSYM    DATA     BYTE      USBCON
      000000B5H   SFRSYM    DATA     BYTE      IP2
      000000FFH   SFRSYM    DATA     BYTE      RSTCFG
      000000E0H   SFRSYM    DATA     BYTE      ACC
      000000C7H   SFRSYM    DATA     BYTE      IAP_CONTR
      000000F9H   SFRSYM    DATA     BYTE      LINICR
      0000008EH   SFRSYM    DATA     BYTE      AUXR
      000000F0H   SFRSYM    DATA     BYTE      B
      000000AFH   SFRSYM    DATA     BYTE      IE2
      00000088H   SFRSYM    DATA     BYTE      TCON
      00000089H   SFRSYM    DATA     BYTE      TMOD
      00000098H   SFRSYM    DATA     BYTE      SCON
      00000087H   SFRSYM    DATA     BYTE      PCON
      000000BCH   SFRSYM    DATA     BYTE      ADC_CONTR
      000000D1H   SFRSYM    DATA     BYTE      PSW1
      000000E7H   SFRSYM    DATA     BYTE      CMPCR2
      000000E6H   SFRSYM    DATA     BYTE      CMPCR1
      000000DEH   SFRSYM    DATA     BYTE      ADCCFG
      000000B8H   SFRSYM    DATA     BYTE      IP
      0000008FH   SFRSYM    DATA     BYTE      INTCLKO
      000000EEH   SFRSYM    DATA     BYTE      IP3H
      000000B6H   SFRSYM    DATA     BYTE      IP2H
      000000BFH   SFRSYM    DATA     BYTE      P_SW4
      000000A8H   SFRSYM    DATA     BYTE      IE
      000000BBH   SFRSYM    DATA     BYTE      P_SW3
      000000BAH   SFRSYM    DATA     BYTE      P_SW2
      000000A2H   SFRSYM    DATA     BYTE      P_SW1
      000000CEH   SFRSYM    DATA     BYTE      SPCTL
      000000F8H   SFRSYM    DATA     BYTE      P7
      000000E8H   SFRSYM    DATA     BYTE      P6
      000000C8H   SFRSYM    DATA     BYTE      P5
      000000C0H   SFRSYM    DATA     BYTE      P4
      000000ABH   SFRSYM    DATA     BYTE      WKTCH
      000000B0H   SFRSYM    DATA     BYTE      P3
L251 LINKER/LOCATER V4.66.93.0                                                        03/25/2026  13:05:55  PAGE 238


      000000A0H   SFRSYM    DATA     BYTE      P2
      00000090H   SFRSYM    DATA     BYTE      P1
      00000080H   SFRSYM    DATA     BYTE      P0

      00FE1546H   BLOCK     ECODE    ---       LVL=0
      00FE1546H   LINE      ECODE    ---       #15
      00FE1546H   LINE      ECODE    ---       #18
      00FE154AH   LINE      ECODE    ---       #22
      ---         BLOCKEND  ---      ---       LVL=0

      00FE154BH   BLOCK     ECODE    ---       LVL=0
      00FE154BH   LINE      ECODE    ---       #24
      00FE154BH   LINE      ECODE    ---       #36
      00FE154FH   LINE      ECODE    ---       #37
      00FE15B7H   LINE      ECODE    ---       #41
      00FE15CBH   LINE      ECODE    ---       #42
      00FE15EDH   LINE      ECODE    ---       #44
      00FE160FH   LINE      ECODE    ---       #47
      00FE1613H   LINE      ECODE    ---       #49
      ---         BLOCKEND  ---      ---       LVL=0

      00FE1614H   BLOCK     ECODE    ---       LVL=0
      00FE1614H   LINE      ECODE    ---       #51
      00FE1614H   LINE      ECODE    ---       #53
      00FE1655H   LINE      ECODE    ---       #54
      ---         BLOCKEND  ---      ---       LVL=0

      00FE1656H   BLOCK     ECODE    ---       LVL=0
      00FE1656H   LINE      ECODE    ---       #56
      00FE1656H   LINE      ECODE    ---       #58
      00FE1662H   LINE      ECODE    ---       #59
      ---         BLOCKEND  ---      ---       LVL=0

      00FE1663H   BLOCK     ECODE    ---       LVL=0
      00011DAFH   SYMBOL    XDATA    INT       cnt_null
      00011DB1H   SYMBOL    XDATA    FLOAT     temp
      00011DB5H   SYMBOL    XDATA    CHAR      ret
      00FE1663H   LINE      ECODE    ---       #62
      00FE1663H   LINE      ECODE    ---       #63
      00FE1663H   LINE      ECODE    ---       #71
      00FE1682H   LINE      ECODE    ---       #73
      00FE1691H   LINE      ECODE    ---       #74
      00FE169FH   LINE      ECODE    ---       #76
      00FE16BDH   LINE      ECODE    ---       #77
      00FE16C3H   LINE      ECODE    ---       #78
      00FE16C7H   LINE      ECODE    ---       #79
      00FE16C7H   LINE      ECODE    ---       #81
      00FE16CBH   LINE      ECODE    ---       #82
      ---         BLOCKEND  ---      ---       LVL=0

      ---         MODULE    ---      ---       Logic
      000000D0H   SFRSYM    DATA     BYTE      PSW
      0000009DH   SFRSYM    DATA     BYTE      IRCBAND
      00000097H   SFRSYM    DATA     BYTE      AUXR2
      000000EAH   SFRSYM    DATA     BYTE      CKCON
      000000EFH   SFRSYM    DATA     BYTE      AUXINTIF
      000000FDH   SFRSYM    DATA     BYTE      S4CON
      000000ACH   SFRSYM    DATA     BYTE      S3CON
      0000009AH   SFRSYM    DATA     BYTE      S2CON
      000000B7H   SFRSYM    DATA     BYTE      IPH
      000000CDH   SFRSYM    DATA     BYTE      SPSTAT
      000000DDH   SFRSYM    DATA     BYTE      T4T3M
      000000C1H   SFRSYM    DATA     BYTE      WDT_CONTR
      000000DFH   SFRSYM    DATA     BYTE      IP3
      000000F4H   SFRSYM    DATA     BYTE      USBCON
L251 LINKER/LOCATER V4.66.93.0                                                        03/25/2026  13:05:55  PAGE 239


      000000B5H   SFRSYM    DATA     BYTE      IP2
      000000FFH   SFRSYM    DATA     BYTE      RSTCFG
      000000E0H   SFRSYM    DATA     BYTE      ACC
      000000C7H   SFRSYM    DATA     BYTE      IAP_CONTR
      000000F9H   SFRSYM    DATA     BYTE      LINICR
      0000008EH   SFRSYM    DATA     BYTE      AUXR
      000000F0H   SFRSYM    DATA     BYTE      B
      000000AFH   SFRSYM    DATA     BYTE      IE2
      00000088H   SFRSYM    DATA     BYTE      TCON
      00000089H   SFRSYM    DATA     BYTE      TMOD
      00000098H   SFRSYM    DATA     BYTE      SCON
      00000087H   SFRSYM    DATA     BYTE      PCON
      000000BCH   SFRSYM    DATA     BYTE      ADC_CONTR
      000000D1H   SFRSYM    DATA     BYTE      PSW1
      000000E7H   SFRSYM    DATA     BYTE      CMPCR2
      000000E6H   SFRSYM    DATA     BYTE      CMPCR1
      000000DEH   SFRSYM    DATA     BYTE      ADCCFG
      000000B8H   SFRSYM    DATA     BYTE      IP
      0000008FH   SFRSYM    DATA     BYTE      INTCLKO
      000000EEH   SFRSYM    DATA     BYTE      IP3H
      000000B6H   SFRSYM    DATA     BYTE      IP2H
      000000BFH   SFRSYM    DATA     BYTE      P_SW4
      000000A8H   SFRSYM    DATA     BYTE      IE
      000000BBH   SFRSYM    DATA     BYTE      P_SW3
      000000BAH   SFRSYM    DATA     BYTE      P_SW2
      000000A2H   SFRSYM    DATA     BYTE      P_SW1
      000000CEH   SFRSYM    DATA     BYTE      SPCTL
      000000F8H   SFRSYM    DATA     BYTE      P7
      000000E8H   SFRSYM    DATA     BYTE      P6
      000000C8H   SFRSYM    DATA     BYTE      P5
      000000C0H   SFRSYM    DATA     BYTE      P4
      000000ABH   SFRSYM    DATA     BYTE      WKTCH
      000000B0H   SFRSYM    DATA     BYTE      P3
      000000A0H   SFRSYM    DATA     BYTE      P2
      00000090H   SFRSYM    DATA     BYTE      P1
      00000080H   SFRSYM    DATA     BYTE      P0

      ---         MODULE    ---      ---       aoi_function
      00FDFAFDH   PUBLIC    ECODE    ---       compare_swap?
      00FDFABAH   PUBLIC    ECODE    ---       abs_int32?
      00FDFB70H   PUBLIC    ECODE    ---       sort_seven?
      000000D0H   SFRSYM    DATA     BYTE      PSW
      0000009DH   SFRSYM    DATA     BYTE      IRCBAND
      00000097H   SFRSYM    DATA     BYTE      AUXR2
      000000EAH   SFRSYM    DATA     BYTE      CKCON
      000000EFH   SFRSYM    DATA     BYTE      AUXINTIF
      000000FDH   SFRSYM    DATA     BYTE      S4CON
      000000ACH   SFRSYM    DATA     BYTE      S3CON
      0000009AH   SFRSYM    DATA     BYTE      S2CON
      000000B7H   SFRSYM    DATA     BYTE      IPH
      000000CDH   SFRSYM    DATA     BYTE      SPSTAT
      000000DDH   SFRSYM    DATA     BYTE      T4T3M
      000000C1H   SFRSYM    DATA     BYTE      WDT_CONTR
      000000DFH   SFRSYM    DATA     BYTE      IP3
      000000F4H   SFRSYM    DATA     BYTE      USBCON
      000000B5H   SFRSYM    DATA     BYTE      IP2
      000000FFH   SFRSYM    DATA     BYTE      RSTCFG
      000000E0H   SFRSYM    DATA     BYTE      ACC
      000000C7H   SFRSYM    DATA     BYTE      IAP_CONTR
      000000F9H   SFRSYM    DATA     BYTE      LINICR
      0000008EH   SFRSYM    DATA     BYTE      AUXR
      000000F0H   SFRSYM    DATA     BYTE      B
      000000AFH   SFRSYM    DATA     BYTE      IE2
      00000088H   SFRSYM    DATA     BYTE      TCON
      00000089H   SFRSYM    DATA     BYTE      TMOD
L251 LINKER/LOCATER V4.66.93.0                                                        03/25/2026  13:05:55  PAGE 240


      00000098H   SFRSYM    DATA     BYTE      SCON
      00000087H   SFRSYM    DATA     BYTE      PCON
      000000BCH   SFRSYM    DATA     BYTE      ADC_CONTR
      000000D1H   SFRSYM    DATA     BYTE      PSW1
      000000E7H   SFRSYM    DATA     BYTE      CMPCR2
      000000E6H   SFRSYM    DATA     BYTE      CMPCR1
      000000DEH   SFRSYM    DATA     BYTE      ADCCFG
      000000B8H   SFRSYM    DATA     BYTE      IP
      0000008FH   SFRSYM    DATA     BYTE      INTCLKO
      000000EEH   SFRSYM    DATA     BYTE      IP3H
      000000B6H   SFRSYM    DATA     BYTE      IP2H
      000000BFH   SFRSYM    DATA     BYTE      P_SW4
      000000A8H   SFRSYM    DATA     BYTE      IE
      000000BBH   SFRSYM    DATA     BYTE      P_SW3
      000000BAH   SFRSYM    DATA     BYTE      P_SW2
      000000A2H   SFRSYM    DATA     BYTE      P_SW1
      000000CEH   SFRSYM    DATA     BYTE      SPCTL
      000000F8H   SFRSYM    DATA     BYTE      P7
      000000E8H   SFRSYM    DATA     BYTE      P6
      000000C8H   SFRSYM    DATA     BYTE      P5
      000000C0H   SFRSYM    DATA     BYTE      P4
      000000ABH   SFRSYM    DATA     BYTE      WKTCH
      000000B0H   SFRSYM    DATA     BYTE      P3
      000000A0H   SFRSYM    DATA     BYTE      P2
      00000090H   SFRSYM    DATA     BYTE      P1
      00000080H   SFRSYM    DATA     BYTE      P0

      00FDFABAH   BLOCK     ECODE    ---       LVL=0
      00012995H   SYMBOL    XDATA    LONG      num
      00FDFABAH   LINE      ECODE    ---       #5
      00FDFAC4H   LINE      ECODE    ---       #7
      00FDFAD4H   LINE      ECODE    ---       #9
      00FDFAF2H   LINE      ECODE    ---       #10
      00FDFAF2H   LINE      ECODE    ---       #12
      00FDFAFCH   LINE      ECODE    ---       #13
      ---         BLOCKEND  ---      ---       LVL=0

      00FDFAFDH   BLOCK     ECODE    ---       LVL=0
      000125B9H   SYMBOL    XDATA    ---       a
      000125BDH   SYMBOL    XDATA    ---       b
      00FDFB11H   BLOCK     ECODE    NEAR LAB  LVL=1
      000125C1H   SYMBOL    XDATA    WORD      t
      ---         BLOCKEND  ---      ---       LVL=1
      00FDFAFDH   LINE      ECODE    ---       #19
      00FDFB11H   LINE      ECODE    ---       #21
      00FDFB2FH   LINE      ECODE    ---       #22
      00FDFB42H   LINE      ECODE    ---       #23
      00FDFB5CH   LINE      ECODE    ---       #24
      00FDFB6FH   LINE      ECODE    ---       #25
      ---         BLOCKEND  ---      ---       LVL=0

      00FDFB70H   BLOCK     ECODE    ---       LVL=0
      00012999H   SYMBOL    XDATA    ---       arr
      00FDFB70H   LINE      ECODE    ---       #29
      00FDFB7AH   LINE      ECODE    ---       #30
      00FDFB94H   LINE      ECODE    ---       #31
      00FDFBB2H   LINE      ECODE    ---       #32
      00FDFBD2H   LINE      ECODE    ---       #33
      00FDFBECH   LINE      ECODE    ---       #34
      00FDFC0AH   LINE      ECODE    ---       #35
      00FDFC28H   LINE      ECODE    ---       #36
      00FDFC48H   LINE      ECODE    ---       #37
      00FDFC68H   LINE      ECODE    ---       #38
      00FDFC88H   LINE      ECODE    ---       #39
      00FDFCA6H   LINE      ECODE    ---       #40
L251 LINKER/LOCATER V4.66.93.0                                                        03/25/2026  13:05:55  PAGE 241


      00FDFCC0H   LINE      ECODE    ---       #41
      00FDFCDEH   LINE      ECODE    ---       #42
      00FDFCFEH   LINE      ECODE    ---       #43
      00FDFD1AH   LINE      ECODE    ---       #44
      00FDFD3AH   LINE      ECODE    ---       #45
      00FDFD58H   LINE      ECODE    ---       #46
      00FDFD78H   LINE      ECODE    ---       #47
      00FDFD98H   LINE      ECODE    ---       #48
      00FDFDB8H   LINE      ECODE    ---       #49
      00FDFDD6H   LINE      ECODE    ---       #50
      00FDFDF2H   LINE      ECODE    ---       #51
      00FDFE0CH   LINE      ECODE    ---       #52
      00FDFE26H   LINE      ECODE    ---       #53
      00FDFE42H   LINE      ECODE    ---       #54
      00FDFE60H   LINE      ECODE    ---       #55
      00FDFE80H   LINE      ECODE    ---       #56
      00FDFEA0H   LINE      ECODE    ---       #57
      00FDFEC0H   LINE      ECODE    ---       #60
      00FDFED1H   LINE      ECODE    ---       #61
      ---         BLOCKEND  ---      ---       LVL=0

      ---         MODULE    ---      ---       isr
      00FDC36FH   PUBLIC    ECODE    ---       TM17_TM18_IRQHandler?
      00FDC31AH   PUBLIC    ECODE    ---       TM11_IRQHandler?
      00FDC101H   PUBLIC    ECODE    ---       TM5_TM6_IRQHandler?
      00FDC44FH   PUBLIC    ECODE    ---       DMA_LCM_IRQHandler?
      00FDC422H   PUBLIC    ECODE    ---       INT1_IRQHandler?
      00FDBACAH   PUBLIC    ECODE    ---       DMA_UART1_IRQHandler?
      00FDBB82H   PUBLIC    ECODE    ---       DMA_UART2_IRQHandler?
      00FDBC19H   PUBLIC    ECODE    ---       DMA_UART3_IRQHandler?
      00FDBCB0H   PUBLIC    ECODE    ---       DMA_UART4_IRQHandler?
      00FDBD47H   PUBLIC    ECODE    ---       DMA_UART5_IRQHandler?
      00FDBDDEH   PUBLIC    ECODE    ---       DMA_UART6_IRQHandler?
      00FDBE75H   PUBLIC    ECODE    ---       DMA_UART7_IRQHandler?
      00FDBF0CH   PUBLIC    ECODE    ---       DMA_UART8_IRQHandler?
      00FDC267H   PUBLIC    ECODE    ---       TM9_TM10_IRQHandler?
      00FDBFA3H   PUBLIC    ECODE    ---       TM0_IRQHandler?
      00FDBFE9H   PUBLIC    ECODE    ---       TM1_IRQHandler?
      00FDC02FH   PUBLIC    ECODE    ---       TM2_IRQHandler?
      00FDC075H   PUBLIC    ECODE    ---       TM3_IRQHandler?
      00FDC0BBH   PUBLIC    ECODE    ---       TM4_IRQHandler?
      00FDC1B4H   PUBLIC    ECODE    ---       TM7_IRQHandler?
      000000D0H   SFRSYM    DATA     BYTE      PSW
      0000009DH   SFRSYM    DATA     BYTE      IRCBAND
      00000097H   SFRSYM    DATA     BYTE      AUXR2
      000000EAH   SFRSYM    DATA     BYTE      CKCON
      000000EFH   SFRSYM    DATA     BYTE      AUXINTIF
      000000FDH   SFRSYM    DATA     BYTE      S4CON
      000000ACH   SFRSYM    DATA     BYTE      S3CON
      0000009AH   SFRSYM    DATA     BYTE      S2CON
      000000B7H   SFRSYM    DATA     BYTE      IPH
      000000CDH   SFRSYM    DATA     BYTE      SPSTAT
      000000DDH   SFRSYM    DATA     BYTE      T4T3M
      000000C1H   SFRSYM    DATA     BYTE      WDT_CONTR
      000000DFH   SFRSYM    DATA     BYTE      IP3
      000000F4H   SFRSYM    DATA     BYTE      USBCON
      000000B5H   SFRSYM    DATA     BYTE      IP2
      000000FFH   SFRSYM    DATA     BYTE      RSTCFG
      000000E0H   SFRSYM    DATA     BYTE      ACC
      000000C7H   SFRSYM    DATA     BYTE      IAP_CONTR
      000000F9H   SFRSYM    DATA     BYTE      LINICR
      0000008EH   SFRSYM    DATA     BYTE      AUXR
      000000F0H   SFRSYM    DATA     BYTE      B
      000000AFH   SFRSYM    DATA     BYTE      IE2
      00000088H   SFRSYM    DATA     BYTE      TCON
L251 LINKER/LOCATER V4.66.93.0                                                        03/25/2026  13:05:55  PAGE 242


      00000089H   SFRSYM    DATA     BYTE      TMOD
      00000098H   SFRSYM    DATA     BYTE      SCON
      00000087H   SFRSYM    DATA     BYTE      PCON
      000000BCH   SFRSYM    DATA     BYTE      ADC_CONTR
      000000D1H   SFRSYM    DATA     BYTE      PSW1
      000000E7H   SFRSYM    DATA     BYTE      CMPCR2
      000000E6H   SFRSYM    DATA     BYTE      CMPCR1
      000000DEH   SFRSYM    DATA     BYTE      ADCCFG
      000000B8H   SFRSYM    DATA     BYTE      IP
      0000008FH   SFRSYM    DATA     BYTE      INTCLKO
      000000EEH   SFRSYM    DATA     BYTE      IP3H
      000000B6H   SFRSYM    DATA     BYTE      IP2H
      000000BFH   SFRSYM    DATA     BYTE      P_SW4
      000000A8H   SFRSYM    DATA     BYTE      IE
      000000BBH   SFRSYM    DATA     BYTE      P_SW3
      000000BAH   SFRSYM    DATA     BYTE      P_SW2
      000000A2H   SFRSYM    DATA     BYTE      P_SW1
      000000CEH   SFRSYM    DATA     BYTE      SPCTL
      000000F8H   SFRSYM    DATA     BYTE      P7
      000000E8H   SFRSYM    DATA     BYTE      P6
      000000C8H   SFRSYM    DATA     BYTE      P5
      000000C0H   SFRSYM    DATA     BYTE      P4
      000000ABH   SFRSYM    DATA     BYTE      WKTCH
      000000B0H   SFRSYM    DATA     BYTE      P3
      000000A0H   SFRSYM    DATA     BYTE      P2
      00000090H   SFRSYM    DATA     BYTE      P1
      00000080H   SFRSYM    DATA     BYTE      P0

      00FDBACAH   BLOCK     ECODE    ---       LVL=0
      00FDBADEH   BLOCK     ECODE    NEAR LAB  LVL=1
      00012A18H   SYMBOL    XDATA    BYTE      dwon_count
      ---         BLOCKEND  ---      ---       LVL=1
      00FDBACAH   LINE      ECODE    ---       #38
      00FDBADEH   LINE      ECODE    ---       #39
      00FDBADEH   LINE      ECODE    ---       #42
      00FDBAECH   LINE      ECODE    ---       #44
      00FDBAFEH   LINE      ECODE    ---       #45
      00FDBB04H   LINE      ECODE    ---       #48
      00FDBB0DH   LINE      ECODE    ---       #50
      00FDBB1EH   LINE      ECODE    ---       #52
      00FDBB22H   LINE      ECODE    ---       #53
      00FDBB24H   LINE      ECODE    ---       #57
      00FDBB29H   LINE      ECODE    ---       #58
      00FDBB29H   LINE      ECODE    ---       #60
      00FDBB37H   LINE      ECODE    ---       #62
      00FDBB47H   LINE      ECODE    ---       #63
      00FDBB47H   LINE      ECODE    ---       #66
      00FDBB55H   LINE      ECODE    ---       #68
      00FDBB67H   LINE      ECODE    ---       #69
      00FDBB6DH   LINE      ECODE    ---       #73
      ---         BLOCKEND  ---      ---       LVL=0

      00FDBB82H   BLOCK     ECODE    ---       LVL=0
      00FDBB82H   LINE      ECODE    ---       #76
      00FDBB96H   LINE      ECODE    ---       #78
      00FDBBA4H   LINE      ECODE    ---       #80
      00FDBBB6H   LINE      ECODE    ---       #81
      00FDBBBEH   LINE      ECODE    ---       #83
      00FDBBCCH   LINE      ECODE    ---       #85
      00FDBBDCH   LINE      ECODE    ---       #86
      00FDBBDCH   LINE      ECODE    ---       #89
      00FDBBEAH   LINE      ECODE    ---       #91
      00FDBBFCH   LINE      ECODE    ---       #92
      00FDBC04H   LINE      ECODE    ---       #96
      ---         BLOCKEND  ---      ---       LVL=0
L251 LINKER/LOCATER V4.66.93.0                                                        03/25/2026  13:05:55  PAGE 243



      00FDBC19H   BLOCK     ECODE    ---       LVL=0
      00FDBC19H   LINE      ECODE    ---       #99
      00FDBC2DH   LINE      ECODE    ---       #101
      00FDBC3BH   LINE      ECODE    ---       #103
      00FDBC4DH   LINE      ECODE    ---       #104
      00FDBC55H   LINE      ECODE    ---       #106
      00FDBC63H   LINE      ECODE    ---       #108
      00FDBC73H   LINE      ECODE    ---       #109
      00FDBC73H   LINE      ECODE    ---       #112
      00FDBC81H   LINE      ECODE    ---       #114
      00FDBC93H   LINE      ECODE    ---       #115
      00FDBC9BH   LINE      ECODE    ---       #119
      ---         BLOCKEND  ---      ---       LVL=0

      00FDBCB0H   BLOCK     ECODE    ---       LVL=0
      00FDBCB0H   LINE      ECODE    ---       #122
      00FDBCC4H   LINE      ECODE    ---       #124
      00FDBCD2H   LINE      ECODE    ---       #126
      00FDBCE4H   LINE      ECODE    ---       #127
      00FDBCECH   LINE      ECODE    ---       #129
      00FDBCFAH   LINE      ECODE    ---       #131
      00FDBD0AH   LINE      ECODE    ---       #132
      00FDBD0AH   LINE      ECODE    ---       #135
      00FDBD18H   LINE      ECODE    ---       #137
      00FDBD2AH   LINE      ECODE    ---       #138
      00FDBD32H   LINE      ECODE    ---       #142
      ---         BLOCKEND  ---      ---       LVL=0

      00FDBD47H   BLOCK     ECODE    ---       LVL=0
      00FDBD47H   LINE      ECODE    ---       #146
      00FDBD5BH   LINE      ECODE    ---       #148
      00FDBD69H   LINE      ECODE    ---       #150
      00FDBD7BH   LINE      ECODE    ---       #151
      00FDBD83H   LINE      ECODE    ---       #153
      00FDBD91H   LINE      ECODE    ---       #155
      00FDBDA1H   LINE      ECODE    ---       #156
      00FDBDA1H   LINE      ECODE    ---       #159
      00FDBDAFH   LINE      ECODE    ---       #161
      00FDBDC1H   LINE      ECODE    ---       #162
      00FDBDC9H   LINE      ECODE    ---       #166
      ---         BLOCKEND  ---      ---       LVL=0

      00FDBDDEH   BLOCK     ECODE    ---       LVL=0
      00FDBDDEH   LINE      ECODE    ---       #169
      00FDBDF2H   LINE      ECODE    ---       #171
      00FDBE00H   LINE      ECODE    ---       #173
      00FDBE12H   LINE      ECODE    ---       #174
      00FDBE1AH   LINE      ECODE    ---       #176
      00FDBE28H   LINE      ECODE    ---       #178
      00FDBE38H   LINE      ECODE    ---       #179
      00FDBE38H   LINE      ECODE    ---       #182
      00FDBE46H   LINE      ECODE    ---       #184
      00FDBE58H   LINE      ECODE    ---       #185
      00FDBE60H   LINE      ECODE    ---       #189
      ---         BLOCKEND  ---      ---       LVL=0

      00FDBE75H   BLOCK     ECODE    ---       LVL=0
      00FDBE75H   LINE      ECODE    ---       #192
      00FDBE89H   LINE      ECODE    ---       #194
      00FDBE97H   LINE      ECODE    ---       #196
      00FDBEA9H   LINE      ECODE    ---       #197
      00FDBEB1H   LINE      ECODE    ---       #199
      00FDBEBFH   LINE      ECODE    ---       #201
      00FDBECFH   LINE      ECODE    ---       #202
L251 LINKER/LOCATER V4.66.93.0                                                        03/25/2026  13:05:55  PAGE 244


      00FDBECFH   LINE      ECODE    ---       #205
      00FDBEDDH   LINE      ECODE    ---       #207
      00FDBEEFH   LINE      ECODE    ---       #208
      00FDBEF7H   LINE      ECODE    ---       #212
      ---         BLOCKEND  ---      ---       LVL=0

      00FDBF0CH   BLOCK     ECODE    ---       LVL=0
      00FDBF0CH   LINE      ECODE    ---       #215
      00FDBF20H   LINE      ECODE    ---       #217
      00FDBF2EH   LINE      ECODE    ---       #219
      00FDBF40H   LINE      ECODE    ---       #220
      00FDBF48H   LINE      ECODE    ---       #222
      00FDBF56H   LINE      ECODE    ---       #224
      00FDBF66H   LINE      ECODE    ---       #225
      00FDBF66H   LINE      ECODE    ---       #228
      00FDBF74H   LINE      ECODE    ---       #230
      00FDBF86H   LINE      ECODE    ---       #231
      00FDBF8EH   LINE      ECODE    ---       #235
      ---         BLOCKEND  ---      ---       LVL=0

      00FDBFA3H   BLOCK     ECODE    ---       LVL=0
      00FDBFA3H   LINE      ECODE    ---       #239
      00FDBFB7H   LINE      ECODE    ---       #241
      00FDBFBAH   LINE      ECODE    ---       #242
      00FDBFC8H   LINE      ECODE    ---       #244
      00FDBFD4H   LINE      ECODE    ---       #245
      ---         BLOCKEND  ---      ---       LVL=0

      00FDBFE9H   BLOCK     ECODE    ---       LVL=0
      00FDBFE9H   LINE      ECODE    ---       #248
      00FDBFFDH   LINE      ECODE    ---       #250
      00FDC000H   LINE      ECODE    ---       #251
      00FDC00EH   LINE      ECODE    ---       #253
      00FDC01AH   LINE      ECODE    ---       #254
      ---         BLOCKEND  ---      ---       LVL=0

      00FDC02FH   BLOCK     ECODE    ---       LVL=0
      00FDC02FH   LINE      ECODE    ---       #257
      00FDC043H   LINE      ECODE    ---       #259
      00FDC046H   LINE      ECODE    ---       #260
      00FDC054H   LINE      ECODE    ---       #262
      00FDC060H   LINE      ECODE    ---       #263
      ---         BLOCKEND  ---      ---       LVL=0

      00FDC075H   BLOCK     ECODE    ---       LVL=0
      00FDC075H   LINE      ECODE    ---       #266
      00FDC089H   LINE      ECODE    ---       #268
      00FDC08CH   LINE      ECODE    ---       #269
      00FDC09AH   LINE      ECODE    ---       #271
      00FDC0A6H   LINE      ECODE    ---       #272
      ---         BLOCKEND  ---      ---       LVL=0

      00FDC0BBH   BLOCK     ECODE    ---       LVL=0
      00FDC0BBH   LINE      ECODE    ---       #275
      00FDC0CFH   LINE      ECODE    ---       #277
      00FDC0D2H   LINE      ECODE    ---       #278
      00FDC0E0H   LINE      ECODE    ---       #280
      00FDC0ECH   LINE      ECODE    ---       #281
      ---         BLOCKEND  ---      ---       LVL=0

      00FDC101H   BLOCK     ECODE    ---       LVL=0
      00FDC101H   LINE      ECODE    ---       #284
      00FDC115H   LINE      ECODE    ---       #286
      00FDC12EH   LINE      ECODE    ---       #288
      00FDC140H   LINE      ECODE    ---       #289
L251 LINKER/LOCATER V4.66.93.0                                                        03/25/2026  13:05:55  PAGE 245


      00FDC14EH   LINE      ECODE    ---       #291
      00FDC15AH   LINE      ECODE    ---       #292
      00FDC15AH   LINE      ECODE    ---       #295
      00FDC173H   LINE      ECODE    ---       #297
      00FDC185H   LINE      ECODE    ---       #298
      00FDC193H   LINE      ECODE    ---       #300
      00FDC19FH   LINE      ECODE    ---       #301
      00FDC19FH   LINE      ECODE    ---       #303
      ---         BLOCKEND  ---      ---       LVL=0

      00FDC1B4H   BLOCK     ECODE    ---       LVL=0
      00FDC1B4H   LINE      ECODE    ---       #305
      00FDC1C8H   LINE      ECODE    ---       #307
      00FDC1E1H   LINE      ECODE    ---       #309
      00FDC1F3H   LINE      ECODE    ---       #310
      00FDC201H   LINE      ECODE    ---       #312
      00FDC20DH   LINE      ECODE    ---       #313
      00FDC20DH   LINE      ECODE    ---       #316
      00FDC226H   LINE      ECODE    ---       #318
      00FDC238H   LINE      ECODE    ---       #319
      00FDC246H   LINE      ECODE    ---       #321
      00FDC252H   LINE      ECODE    ---       #322
      00FDC252H   LINE      ECODE    ---       #324
      ---         BLOCKEND  ---      ---       LVL=0

      00FDC267H   BLOCK     ECODE    ---       LVL=0
      00FDC267H   LINE      ECODE    ---       #327
      00FDC27BH   LINE      ECODE    ---       #329
      00FDC294H   LINE      ECODE    ---       #331
      00FDC2A6H   LINE      ECODE    ---       #332
      00FDC2B4H   LINE      ECODE    ---       #334
      00FDC2C0H   LINE      ECODE    ---       #335
      00FDC2C0H   LINE      ECODE    ---       #338
      00FDC2D9H   LINE      ECODE    ---       #340
      00FDC2EBH   LINE      ECODE    ---       #341
      00FDC2F9H   LINE      ECODE    ---       #343
      00FDC305H   LINE      ECODE    ---       #344
      00FDC305H   LINE      ECODE    ---       #346
      ---         BLOCKEND  ---      ---       LVL=0

      00FDC31AH   BLOCK     ECODE    ---       LVL=0
      00FDC31AH   LINE      ECODE    ---       #350
      00FDC32EH   LINE      ECODE    ---       #352
      00FDC340H   LINE      ECODE    ---       #354
      00FDC34EH   LINE      ECODE    ---       #356
      00FDC35AH   LINE      ECODE    ---       #357
      ---         BLOCKEND  ---      ---       LVL=0

      00FDC36FH   BLOCK     ECODE    ---       LVL=0
      00FDC36FH   LINE      ECODE    ---       #360
      00FDC383H   LINE      ECODE    ---       #362
      00FDC39CH   LINE      ECODE    ---       #364
      00FDC3AEH   LINE      ECODE    ---       #365
      00FDC3BCH   LINE      ECODE    ---       #367
      00FDC3C8H   LINE      ECODE    ---       #368
      00FDC3C8H   LINE      ECODE    ---       #371
      00FDC3E1H   LINE      ECODE    ---       #373
      00FDC3F3H   LINE      ECODE    ---       #374
      00FDC401H   LINE      ECODE    ---       #376
      00FDC40DH   LINE      ECODE    ---       #377
      00FDC40DH   LINE      ECODE    ---       #379
      ---         BLOCKEND  ---      ---       LVL=0

      00FDC422H   BLOCK     ECODE    ---       LVL=0
      00FDC422H   LINE      ECODE    ---       #381
L251 LINKER/LOCATER V4.66.93.0                                                        03/25/2026  13:05:55  PAGE 246


      00FDC436H   LINE      ECODE    ---       #387
      00FDC43AH   LINE      ECODE    ---       #388
      ---         BLOCKEND  ---      ---       LVL=0

      00FDC44FH   BLOCK     ECODE    ---       LVL=0
      00FDC44FH   LINE      ECODE    ---       #391
      00FDC463H   LINE      ECODE    ---       #393
      00FDC467H   LINE      ECODE    ---       #394
      ---         BLOCKEND  ---      ---       LVL=0

      ---         MODULE    ---      ---       main
      00FE183CH   PUBLIC    ECODE    ---       main?
      00FE186AH   PUBLIC    ECODE    ---       _m?
      000000D0H   SFRSYM    DATA     BYTE      PSW
      0000009DH   SFRSYM    DATA     BYTE      IRCBAND
      00000097H   SFRSYM    DATA     BYTE      AUXR2
      000000EAH   SFRSYM    DATA     BYTE      CKCON
      000000EFH   SFRSYM    DATA     BYTE      AUXINTIF
      000000FDH   SFRSYM    DATA     BYTE      S4CON
      000000ACH   SFRSYM    DATA     BYTE      S3CON
      0000009AH   SFRSYM    DATA     BYTE      S2CON
      000000B7H   SFRSYM    DATA     BYTE      IPH
      000000CDH   SFRSYM    DATA     BYTE      SPSTAT
      000000DDH   SFRSYM    DATA     BYTE      T4T3M
      000000C1H   SFRSYM    DATA     BYTE      WDT_CONTR
      000000DFH   SFRSYM    DATA     BYTE      IP3
      000000F4H   SFRSYM    DATA     BYTE      USBCON
      000000B5H   SFRSYM    DATA     BYTE      IP2
      000000FFH   SFRSYM    DATA     BYTE      RSTCFG
      000000E0H   SFRSYM    DATA     BYTE      ACC
      000000C7H   SFRSYM    DATA     BYTE      IAP_CONTR
      000000F9H   SFRSYM    DATA     BYTE      LINICR
      0000008EH   SFRSYM    DATA     BYTE      AUXR
      000000F0H   SFRSYM    DATA     BYTE      B
      000000AFH   SFRSYM    DATA     BYTE      IE2
      00000088H   SFRSYM    DATA     BYTE      TCON
      00000089H   SFRSYM    DATA     BYTE      TMOD
      00000098H   SFRSYM    DATA     BYTE      SCON
      00000087H   SFRSYM    DATA     BYTE      PCON
      000000BCH   SFRSYM    DATA     BYTE      ADC_CONTR
      000000D1H   SFRSYM    DATA     BYTE      PSW1
      000000E7H   SFRSYM    DATA     BYTE      CMPCR2
      000000E6H   SFRSYM    DATA     BYTE      CMPCR1
      000000DEH   SFRSYM    DATA     BYTE      ADCCFG
      000000B8H   SFRSYM    DATA     BYTE      IP
      0000008FH   SFRSYM    DATA     BYTE      INTCLKO
      000000EEH   SFRSYM    DATA     BYTE      IP3H
      000000B6H   SFRSYM    DATA     BYTE      IP2H
      000000BFH   SFRSYM    DATA     BYTE      P_SW4
      000000A8H   SFRSYM    DATA     BYTE      IE
      000000BBH   SFRSYM    DATA     BYTE      P_SW3
      000000BAH   SFRSYM    DATA     BYTE      P_SW2
      000000A2H   SFRSYM    DATA     BYTE      P_SW1
      000000CEH   SFRSYM    DATA     BYTE      SPCTL
      000000F8H   SFRSYM    DATA     BYTE      P7
      000000E8H   SFRSYM    DATA     BYTE      P6
      000000C8H   SFRSYM    DATA     BYTE      P5
      000000C0H   SFRSYM    DATA     BYTE      P4
      000000ABH   SFRSYM    DATA     BYTE      WKTCH
      000000B0H   SFRSYM    DATA     BYTE      P3
      000000A0H   SFRSYM    DATA     BYTE      P2
      00000090H   SFRSYM    DATA     BYTE      P1
      00000080H   SFRSYM    DATA     BYTE      P0

      00FE183CH   BLOCK     ECODE    ---       LVL=0
L251 LINKER/LOCATER V4.66.93.0                                                        03/25/2026  13:05:55  PAGE 247


      00FE183CH   LINE      ECODE    ---       #46
      ---         BLOCKEND  ---      ---       LVL=0

      00FE186AH   BLOCK     ECODE    ---       LVL=0
      00FE186AH   LINE      ECODE    ---       #46
      00FE186AH   LINE      ECODE    ---       #49
      00FE1876H   LINE      ECODE    ---       #50
      00FE187AH   LINE      ECODE    ---       #51
      00FE188BH   LINE      ECODE    ---       #55
      00FE18C5H   LINE      ECODE    ---       #57
      00FE18C9H   LINE      ECODE    ---       #58
      00FE18CDH   LINE      ECODE    ---       #59
      00FE18D9H   LINE      ECODE    ---       #64
      00FE18D9H   LINE      ECODE    ---       #67
      00FE18DDH   LINE      ECODE    ---       #68
      00FE18E1H   LINE      ECODE    ---       #70
      00FE18FFH   LINE      ECODE    ---       #71
      00FE1917H   LINE      ECODE    ---       #73
      00FE1983H   LINE      ECODE    ---       #74
      00FE19A1H   LINE      ECODE    ---       #79
      00FE19A4H   LINE      ECODE    ---       #80
      ---         BLOCKEND  ---      ---       LVL=0

      ---         MODULE    ---      ---       zf_device_config
      00FE1E39H   PUBLIC    HCONST   ---       imu660ra_config_file
      00FE3E39H   PUBLIC    HCONST   ---       dl1b_config_file
      00FE3EC0H   PUBLIC    HCONST   ---       image_frame_header

      ---         MODULE    ---      ---       ?C?DPADD?
      00FD67E9H   PUBLIC    ECODE    ---       ?C?DPADD?
      00FD67E5H   PUBLIC    ECODE    ---       ?C?DPSUB?

      ---         MODULE    ---      ---       ?C?DPMUL?
      00FD68F8H   PUBLIC    ECODE    ---       ?C?DPMUL?

      ---         MODULE    ---      ---       ?C?DPDIV?
      00FD6A08H   PUBLIC    ECODE    ---       ?C?DPDIV?

      ---         MODULE    ---      ---       ?C?DPCMP?
      00FD6AA7H   PUBLIC    ECODE    ---       ?C?DPCMP3?
      00FD6AA9H   PUBLIC    ECODE    ---       ?C?DPCMP?

      ---         MODULE    ---      ---       ?C?DPNEG?
      00FD6B08H   PUBLIC    ECODE    ---       ?C?DPNEG?

      ---         MODULE    ---      ---       ?C?DCAST?
      00FD6B20H   PUBLIC    ECODE    FAR LAB   ?C?DCASTC?
      00FD6B1BH   PUBLIC    ECODE    FAR LAB   ?C?DCASTI?
      00FD6B16H   PUBLIC    ECODE    FAR LAB   ?C?DCASTL?

      ---         MODULE    ---      ---       ?C?CASTD?
      00FD6B63H   PUBLIC    ECODE    FAR LAB   ?C?CASTD?

      ---         MODULE    ---      ---       ?C?DCASTF?
      00FD6BC3H   PUBLIC    ECODE    FAR LAB   ?C?DCASTF?

      ---         MODULE    ---      ---       ?C?FCASTD?
      00FD6C05H   PUBLIC    ECODE    FAR LAB   ?C?FCASTD?

      ---         MODULE    ---      ---       PRINTF?
      00011B68H   PUBLIC    XDATA    ---       ?PRINTF??BYTE
      00FD6C3CH   PUBLIC    ECODE    FAR LAB   PRINTF?

      ---         MODULE    ---      ---       SPRINTF?
      00011B90H   PUBLIC    XDATA    ---       ?SPRINTF??BYTE
L251 LINKER/LOCATER V4.66.93.0                                                        03/25/2026  13:05:55  PAGE 248


      00FD6C69H   PUBLIC    ECODE    FAR LAB   SPRINTF?

      ---         MODULE    ---      ---       ?C?DPGETOPN?
      00FD6C89H   PUBLIC    ECODE    ---       ?C?DPGETOPN2?
      00FD6CD4H   PUBLIC    ECODE    ---       ?C?DPNANRESULT?
      00FD6CE0H   PUBLIC    ECODE    ---       ?C?DPOVERFLOW?
      00FD6CC5H   PUBLIC    ECODE    ---       ?C?DPRESULT2?
      00FD6CACH   PUBLIC    ECODE    ---       ?C?DPRESULT?
      00FD6CDBH   PUBLIC    ECODE    ---       ?C?DPUNDERFLOW?

      ---         MODULE    ---      ---       ?C?PRNFMT?
      00FD6D1BH   PUBLIC    ECODE    ---       ?C?PRNFMT?

      ---         MODULE    ---      ---       ?C?DPCONVERT?
      00FD7157H   PUBLIC    ECODE    ---       ?C?DPCONVERT?
      00FD7280H   PUBLIC    ECODE    ---       ?C?DPROUND?

      ---         MODULE    ---      ---       ?C?DTNPWR?
      00FD735BH   PUBLIC    ECODE    ---       ?C?DTNPWR?

      ---         MODULE    ---      ---       ?C?FPGETOPN?
      00FD73E4H   PUBLIC    ECODE    ---       ?C?FPGETOPN2?
      00FD7421H   PUBLIC    ECODE    ---       ?C?FPNANRESULT?
      00FD7429H   PUBLIC    ECODE    ---       ?C?FPOVERFLOW?
      00FD7413H   PUBLIC    ECODE    ---       ?C?FPRESULT2?
      00FD73FDH   PUBLIC    ECODE    ---       ?C?FPRESULT?
      00FD7426H   PUBLIC    ECODE    ---       ?C?FPUNDERFLOW?

      ---         MODULE    ---      ---       ?C?FPADD?
      00FD743BH   PUBLIC    ECODE    ---       ?C?FPADD?
      00FD7438H   PUBLIC    ECODE    ---       ?C?FPSUB?

      ---         MODULE    ---      ---       ?C?FPMUL?
      00FD74F3H   PUBLIC    ECODE    ---       ?C?FPMUL?

      ---         MODULE    ---      ---       ?C?FPDIV?
      00FD7593H   PUBLIC    ECODE    ---       ?C?FPDIV?

      ---         MODULE    ---      ---       ?C?FPCMP?
      00FD7614H   PUBLIC    ECODE    ---       ?C?FPCMP3?
      00FD7616H   PUBLIC    ECODE    ---       ?C?FPCMP?

      ---         MODULE    ---      ---       ?C?FPNEG?
      00FD765AH   PUBLIC    ECODE    ---       ?C?FPNEG?

      ---         MODULE    ---      ---       ?C?FCAST?
      00FD7672H   PUBLIC    ECODE    FAR LAB   ?C?FCASTC?
      00FD766DH   PUBLIC    ECODE    FAR LAB   ?C?FCASTI?
      00FD7668H   PUBLIC    ECODE    FAR LAB   ?C?FCASTL?

      ---         MODULE    ---      ---       ?C?CASTF?
      00FD76A5H   PUBLIC    ECODE    FAR LAB   ?C?CASTF?

      ---         MODULE    ---      ---       ?C?INITHDATA
      00FF0240H   PUBLIC    CODE     ---       ?C?INITHDATA

      ---         MODULE    ---      ---       ?C?SIDIV?
      00FD76E2H   PUBLIC    ECODE    ---       ?C?SIDIV?

      ---         MODULE    ---      ---       ?C?LMUL?
      00FD7714H   PUBLIC    ECODE    ---       ?C?LMUL?

      ---         MODULE    ---      ---       ?C?LIMUL?
      00FD7725H   PUBLIC    ECODE    ---       ?C?LIMUL?

L251 LINKER/LOCATER V4.66.93.0                                                        03/25/2026  13:05:55  PAGE 249


      ---         MODULE    ---      ---       ?C?ULDIV?
      00FD7730H   PUBLIC    ECODE    FAR LAB   ?C?ULDIV?
      00FD772EH   PUBLIC    ECODE    FAR LAB   ?C?ULIDIV?

      ---         MODULE    ---      ---       ?C?SLDIV?
      00FD7781H   PUBLIC    ECODE    FAR LAB   ?C?SLDIV?

      ---         MODULE    ---      ---       ?C?BMOVEPP?
      00FD77B7H   PUBLIC    ECODE    ---       ?C?BMOVEPP8?
      00FD77B9H   PUBLIC    ECODE    ---       ?C?BMOVEPP?

      ---         MODULE    ---      ---       STRNCMP?
      00FE1DCAH   PUBLIC    ECODE    ---       strncmp??

      ---         MODULE    ---      ---       STRLEN?
      00FE1E26H   PUBLIC    ECODE    ---       strlen??

      ---         MODULE    ---      ---       MEMCPY?
      00FE1E01H   PUBLIC    ECODE    ---       memcpy??

      ---         MODULE    ---      ---       MEMSET?
      00FCFFE6H   PUBLIC    ECODE    ---       memset??

      ---         MODULE    ---      ---       ?C?INITHDATA_END
      00FE48E0H   PUBLIC    HCONST   WORD      ?C?INITHDATA_END

Program Size: data=8.6 edata+hdata=30765 xdata=10777 const=14069 code=122385
L251 RUN COMPLETE.  0 WARNING(S),  0 ERROR(S)
