L251 LINKER/LOCATER V4.66.93.0                                                          05/01/2026  15:28:45  PAGE 1


L251 LINKER/LOCATER V4.66.93.0, INVOKED BY:
D:\SOFTWARE\KEIL5\C251\BIN\L251.EXE .\out_file\START251.obj, .\out_file\zf_common_typedef.obj, .\out_file\zf_common_cloc
>> k.obj, .\out_file\zf_common_interrupt.obj, .\out_file\zf_common_debug.obj, .\out_file\zf_common_fifo.obj, .\out_file\
>> zf_common_font.obj, .\out_file\zf_common_function.obj, .\out_file\zf_driver_adc.obj, .\out_file\zf_driver_delay.obj, 
>> .\out_file\zf_driver_eeprom.obj, .\out_file\zf_driver_encoder.obj, .\out_file\zf_driver_exti.obj, .\out_file\zf_drive
>> r_gpio.obj, .\out_file\zf_driver_pit.obj, .\out_file\zf_driver_pwm.obj, .\out_file\zf_driver_soft_iic.obj, .\out_file
>> \zf_driver_spi.obj, .\out_file\zf_driver_timer.obj, .\out_file\zf_driver_uart.obj, .\out_file\zf_driver_usb_cdc.obj, 
>> .\out_file\zf_device_type.obj, ..\..\libraries\zf_device\zf_device_config.LIB, .\out_file\zf_device_mt9v03x.obj, ..\.
>> .\libraries\zf_device\zf_device_mt9v03x_dma.LIB, .\out_file\zf_device_ips114.obj, .\out_file\zf_device_tft180.obj, .\
>> out_file\zf_device_ips200.obj, .\out_file\zf_device_ips200pro.obj, .\out_file\zf_device_ble6a20.obj, .\out_file\zf_de
>> vice_wifi_spi.obj, .\out_file\zf_device_wireless_uart.obj, .\out_file\zf_device_dl1a.obj, .\out_file\zf_device_dl1b.o
>> bj, .\out_file\zf_device_imu660ra.obj, .\out_file\zf_device_imu660rb.obj, .\out_file\zf_device_imu963ra.obj, .\out_fi
>> le\usb.obj, .\out_file\usb_desc.obj, .\out_file\usb_req_class.obj, .\out_file\usb_req_std.obj, .\out_file\usb_req_ven
>> dor.obj, .\out_file\util.obj, .\out_file\seekfree_assistant.obj, .\out_file\seekfree_assistant_interface.obj, .\out_f
>> ile\PD_ENC_SDI.obj, .\out_file\Motor.obj, .\out_file\ADC.obj, .\out_file\aoi_function.obj, .\out_file\IMU.obj, .\out_
>> file\Logic.obj, .\out_file\key.obj, .\out_file\PID.obj, .\out_file\Tracing.obj, .\out_file\TFT.obj, .\out_file\wifi.o
>> bj, .\out_file\isr.obj, .\out_file\main.obj TO .\out_file\SEEKFREE PRINT (.\out_file\SEEKFREE.map) CASE DISABLEWARNIN
>> G (57, 16, 7, 25) REMOVEUNUSED, NOOVERLAY CLASSES (EDATA (0X0-0X3FFF), HDATA (0X0-0X3FFF, 0X10000-0X2FFFF), HCONST (0
>> XFC4800-0XFFFFFF), ECODE (0XFC4800-0XFFFFFF))


CPU MODE:     251 SOURCE MODE
INTR FRAME:   4 BYTES SAVED ON INTERRUPT
MEMORY MODEL: LARGE WITH DOUBLE PRECISION FLOATING POINT ARITHMETIC


INPUT MODULES INCLUDED:
  .\out_file\START251.obj (?C_START?)
         COMMENT TYPE 0: A251 V4.69.13.0
  .\out_file\zf_common_typedef.obj (zf_common_typedef)
         COMMENT TYPE 0: C251 V5.60.0
  .\out_file\zf_common_clock.obj (zf_common_clock)
         COMMENT TYPE 0: C251 V5.60.0
  .\out_file\zf_common_interrupt.obj (zf_common_interrupt)
         COMMENT TYPE 0: C251 V5.60.0
  .\out_file\zf_common_debug.obj (zf_common_debug)
         COMMENT TYPE 0: C251 V5.60.0
  .\out_file\zf_common_fifo.obj (zf_common_fifo)
         COMMENT TYPE 0: C251 V5.60.0
  .\out_file\zf_common_font.obj (zf_common_font)
         COMMENT TYPE 0: C251 V5.60.0
  .\out_file\zf_common_function.obj (zf_common_function)
         COMMENT TYPE 0: C251 V5.60.0
  .\out_file\zf_driver_adc.obj (zf_driver_adc)
         COMMENT TYPE 0: C251 V5.60.0
  .\out_file\zf_driver_delay.obj (zf_driver_delay)
         COMMENT TYPE 0: C251 V5.60.0
  .\out_file\zf_driver_eeprom.obj (zf_driver_eeprom)
         COMMENT TYPE 0: C251 V5.60.0
  .\out_file\zf_driver_encoder.obj (zf_driver_encoder)
         COMMENT TYPE 0: C251 V5.60.0
  .\out_file\zf_driver_exti.obj (zf_driver_exti)
         COMMENT TYPE 0: C251 V5.60.0
  .\out_file\zf_driver_gpio.obj (zf_driver_gpio)
         COMMENT TYPE 0: C251 V5.60.0
  .\out_file\zf_driver_pit.obj (zf_driver_pit)
         COMMENT TYPE 0: C251 V5.60.0
  .\out_file\zf_driver_pwm.obj (zf_driver_pwm)
         COMMENT TYPE 0: C251 V5.60.0
  .\out_file\zf_driver_soft_iic.obj (zf_driver_soft_iic)
         COMMENT TYPE 0: C251 V5.60.0
  .\out_file\zf_driver_spi.obj (zf_driver_spi)
         COMMENT TYPE 0: C251 V5.60.0
  .\out_file\zf_driver_timer.obj (zf_driver_timer)
         COMMENT TYPE 0: C251 V5.60.0
  .\out_file\zf_driver_uart.obj (zf_driver_uart)
L251 LINKER/LOCATER V4.66.93.0                                                        05/01/2026  15:28:45  PAGE 2


         COMMENT TYPE 0: C251 V5.60.0
  .\out_file\zf_driver_usb_cdc.obj (zf_driver_usb_cdc)
         COMMENT TYPE 0: C251 V5.60.0
  .\out_file\zf_device_type.obj (zf_device_type)
         COMMENT TYPE 0: C251 V5.60.0
  .\out_file\zf_device_mt9v03x.obj (zf_device_mt9v03x)
         COMMENT TYPE 0: C251 V5.60.0
  ..\..\libraries\zf_device\zf_device_mt9v03x_dma.LIB (zf_device_mt9v03x_dma)
         COMMENT TYPE 0: C251 V5.60.0
  .\out_file\zf_device_ips114.obj (zf_device_ips114)
         COMMENT TYPE 0: C251 V5.60.0
  .\out_file\zf_device_tft180.obj (zf_device_tft180)
         COMMENT TYPE 0: C251 V5.60.0
  .\out_file\zf_device_ips200.obj (zf_device_ips200)
         COMMENT TYPE 0: C251 V5.60.0
  .\out_file\zf_device_ips200pro.obj (zf_device_ips200pro)
         COMMENT TYPE 0: C251 V5.60.0
  .\out_file\zf_device_ble6a20.obj (zf_device_ble6a20)
         COMMENT TYPE 0: C251 V5.60.0
  .\out_file\zf_device_wifi_spi.obj (zf_device_wifi_spi)
         COMMENT TYPE 0: C251 V5.60.0
  .\out_file\zf_device_wireless_uart.obj (zf_device_wireless_uart)
         COMMENT TYPE 0: C251 V5.60.0
  .\out_file\zf_device_dl1a.obj (zf_device_dl1a)
         COMMENT TYPE 0: C251 V5.60.0
  .\out_file\zf_device_dl1b.obj (zf_device_dl1b)
         COMMENT TYPE 0: C251 V5.60.0
  .\out_file\zf_device_imu660ra.obj (zf_device_imu660ra)
         COMMENT TYPE 0: C251 V5.60.0
  .\out_file\zf_device_imu660rb.obj (zf_device_imu660rb)
         COMMENT TYPE 0: C251 V5.60.0
  .\out_file\zf_device_imu963ra.obj (zf_device_imu963ra)
         COMMENT TYPE 0: C251 V5.60.0
  .\out_file\usb.obj (usb)
         COMMENT TYPE 0: C251 V5.60.0
  .\out_file\usb_desc.obj (usb_desc)
         COMMENT TYPE 0: C251 V5.60.0
  .\out_file\usb_req_class.obj (usb_req_class)
         COMMENT TYPE 0: C251 V5.60.0
  .\out_file\usb_req_std.obj (usb_req_std)
         COMMENT TYPE 0: C251 V5.60.0
  .\out_file\usb_req_vendor.obj (usb_req_vendor)
         COMMENT TYPE 0: C251 V5.60.0
  .\out_file\util.obj (util)
         COMMENT TYPE 0: C251 V5.60.0
  .\out_file\seekfree_assistant.obj (seekfree_assistant)
         COMMENT TYPE 0: C251 V5.60.0
  .\out_file\seekfree_assistant_interface.obj (seekfree_assistant_interface)
         COMMENT TYPE 0: C251 V5.60.0
  .\out_file\PD_ENC_SDI.obj (PD_ENC_SDI)
         COMMENT TYPE 0: C251 V5.60.0
  .\out_file\Motor.obj (Motor)
         COMMENT TYPE 0: C251 V5.60.0
  .\out_file\ADC.obj (ADC)
         COMMENT TYPE 0: C251 V5.60.0
  .\out_file\aoi_function.obj (aoi_function)
         COMMENT TYPE 0: C251 V5.60.0
  .\out_file\IMU.obj (IMU)
         COMMENT TYPE 0: C251 V5.60.0
  .\out_file\Logic.obj (Logic)
         COMMENT TYPE 0: C251 V5.60.0
  .\out_file\key.obj (key)
         COMMENT TYPE 0: C251 V5.60.0
  .\out_file\PID.obj (PID)
         COMMENT TYPE 0: C251 V5.60.0
L251 LINKER/LOCATER V4.66.93.0                                                        05/01/2026  15:28:45  PAGE 3


  .\out_file\Tracing.obj (Tracing)
         COMMENT TYPE 0: C251 V5.60.0
  .\out_file\TFT.obj (TFT)
         COMMENT TYPE 0: C251 V5.60.0
  .\out_file\wifi.obj (wifi)
         COMMENT TYPE 0: C251 V5.60.0
  .\out_file\isr.obj (isr)
         COMMENT TYPE 0: C251 V5.60.0
  .\out_file\main.obj (main)
         COMMENT TYPE 0: C251 V5.60.0
  ..\..\libraries\zf_device\zf_device_config.LIB (zf_device_config)
         COMMENT TYPE 0: C251 V5.60.0
  D:\SOFTWARE\KEIL5\C251\LIB\C2SDPL.LIB (?C?DPADD?)
         COMMENT TYPE 0: A251 V4.69.6.0
  D:\SOFTWARE\KEIL5\C251\LIB\C2SDPL.LIB (?C?DPMUL?)
         COMMENT TYPE 0: A251 V4.69.6.0
  D:\SOFTWARE\KEIL5\C251\LIB\C2SDPL.LIB (?C?DPDIV?)
         COMMENT TYPE 0: A251 V4.69.6.0
  D:\SOFTWARE\KEIL5\C251\LIB\C2SDPL.LIB (?C?DPCMP?)
         COMMENT TYPE 0: A251 V4.69.6.0
  D:\SOFTWARE\KEIL5\C251\LIB\C2SDPL.LIB (?C?DPNEG?)
         COMMENT TYPE 0: A251 V4.69.6.0
  D:\SOFTWARE\KEIL5\C251\LIB\C2SDPL.LIB (?C?DCAST?)
         COMMENT TYPE 0: A251 V4.69.6.0
  D:\SOFTWARE\KEIL5\C251\LIB\C2SDPL.LIB (?C?CASTD?)
         COMMENT TYPE 0: A251 V4.69.6.0
  D:\SOFTWARE\KEIL5\C251\LIB\C2SDPL.LIB (?C?DCASTF?)
         COMMENT TYPE 0: A251 V4.69.6.0
  D:\SOFTWARE\KEIL5\C251\LIB\C2SDPL.LIB (?C?FCASTD?)
         COMMENT TYPE 0: A251 V4.69.6.0
  D:\SOFTWARE\KEIL5\C251\LIB\C2SDPL.LIB (PRINTF?)
         COMMENT TYPE 0: A251 V4.69.6.0
  D:\SOFTWARE\KEIL5\C251\LIB\C2SDPL.LIB (SPRINTF?)
         COMMENT TYPE 0: A251 V4.69.6.0
  D:\SOFTWARE\KEIL5\C251\LIB\C2SDPL.LIB (FABS?)
         COMMENT TYPE 0: A251 V4.69.6.0
  D:\SOFTWARE\KEIL5\C251\LIB\C2SDPL.LIB (?C?DPGETOPN?)
         COMMENT TYPE 0: A251 V4.69.6.0
  D:\SOFTWARE\KEIL5\C251\LIB\C2SDPL.LIB (?C?PRNFMT?)
         COMMENT TYPE 0: A251 V4.69.6.0
  D:\SOFTWARE\KEIL5\C251\LIB\C2SDPL.LIB (?C?DPCONVERT?)
         COMMENT TYPE 0: A251 V4.69.6.0
  D:\SOFTWARE\KEIL5\C251\LIB\C2SDPL.LIB (?C?DTNPWR?)
         COMMENT TYPE 0: A251 V4.69.6.0
  D:\SOFTWARE\KEIL5\C251\LIB\C2SFPL.LIB (?C?FPGETOPN?)
         COMMENT TYPE 0: A251 V4.69.6.0
  D:\SOFTWARE\KEIL5\C251\LIB\C2SFPL.LIB (?C?FPADD?)
         COMMENT TYPE 0: A251 V4.69.6.0
  D:\SOFTWARE\KEIL5\C251\LIB\C2SFPL.LIB (?C?FPMUL?)
         COMMENT TYPE 0: A251 V4.69.6.0
  D:\SOFTWARE\KEIL5\C251\LIB\C2SFPL.LIB (?C?FPDIV?)
         COMMENT TYPE 0: A251 V4.69.6.0
  D:\SOFTWARE\KEIL5\C251\LIB\C2SFPL.LIB (?C?FPCMP?)
         COMMENT TYPE 0: A251 V4.69.6.0
  D:\SOFTWARE\KEIL5\C251\LIB\C2SFPL.LIB (?C?FPNEG?)
         COMMENT TYPE 0: A251 V4.69.6.0
  D:\SOFTWARE\KEIL5\C251\LIB\C2SFPL.LIB (?C?FCAST?)
         COMMENT TYPE 0: A251 V4.69.6.0
  D:\SOFTWARE\KEIL5\C251\LIB\C2SFPL.LIB (?C?CASTF?)
         COMMENT TYPE 0: A251 V4.69.6.0
  D:\SOFTWARE\KEIL5\C251\LIB\C2SL.LIB (?C?INITHDATA)
         COMMENT TYPE 0: A251 V4.69.6.0
  D:\SOFTWARE\KEIL5\C251\LIB\C2SL.LIB (?C?SIDIV?)
         COMMENT TYPE 0: A251 V4.69.6.0
  D:\SOFTWARE\KEIL5\C251\LIB\C2SL.LIB (?C?LMUL?)
L251 LINKER/LOCATER V4.66.93.0                                                        05/01/2026  15:28:45  PAGE 4


         COMMENT TYPE 0: A251 V4.69.6.0
  D:\SOFTWARE\KEIL5\C251\LIB\C2SL.LIB (?C?LIMUL?)
         COMMENT TYPE 0: A251 V4.69.6.0
  D:\SOFTWARE\KEIL5\C251\LIB\C2SL.LIB (?C?ULDIV?)
         COMMENT TYPE 0: A251 V4.69.6.0
  D:\SOFTWARE\KEIL5\C251\LIB\C2SL.LIB (?C?SLDIV?)
         COMMENT TYPE 0: A251 V4.69.6.0
  D:\SOFTWARE\KEIL5\C251\LIB\C2SL.LIB (?C?BMOVEPP?)
         COMMENT TYPE 0: A251 V4.69.6.0
  D:\SOFTWARE\KEIL5\C251\LIB\C2SL.LIB (STRNCMP?)
         COMMENT TYPE 0: C251 V5.58.7
  D:\SOFTWARE\KEIL5\C251\LIB\C2SL.LIB (STRLEN?)
         COMMENT TYPE 0: C251 V5.58.7
  D:\SOFTWARE\KEIL5\C251\LIB\C2SL.LIB (MEMCPY?)
         COMMENT TYPE 0: C251 V5.58.7
  D:\SOFTWARE\KEIL5\C251\LIB\C2SL.LIB (MEMSET?)
         COMMENT TYPE 0: C251 V5.58.7
  D:\SOFTWARE\KEIL5\C251\LIB\C2SL.LIB (?C?INITHDATA_END)
         COMMENT TYPE 0: A251 V4.69.6.0


ACTIVE MEMORY CLASSES OF MODULE:  .\out_file\SEEKFREE (?C_START?)

BASE        START       END         USED      MEMORY CLASS
==========================================================
000000H     000000H     003FFFH     00200CH   EDATA
000000H     000000H     003FFFH     005821H   HDATA
            010000H     02FFFFH                 
000000H     FC4800H     FFFFFFH     00395FH   HCONST
000000H     FC4800H     FFFFFFH     01EA55H   ECODE
FF0000H     FF0000H     FFFFFFH     0007D8H   CODE
010000H     010000H     01FFFFH     002B11H   XDATA
000020H.0   000020H.0   00002FH.7   000000H.6 BIT
000000H     000000H     00007FH     000008H   DATA


MEMORY MAP OF MODULE:  .\out_file\SEEKFREE (?C_START?)


START     STOP      LENGTH    ALIGN  RELOC    MEMORY CLASS   SEGMENT NAME
=========================================================================
000000H   000007H   000008H   ---    AT..     DATA           "REG BANK 0"
000008H   00000FH   000008H   BYTE   UNIT     EDATA          ?ED?DL1A_ENCODE_TIMEOUT?ZF_DEVICE_DL1A
000010H   000013H   000004H   BYTE   UNIT     EDATA          ?ED?SOFT_DELAY??ZF_DRIVER_DELAY
000014H.0 00001FH.7 00000CH.0 ---    ---      **GAP**
000020H.0 000020H.1 000000H.2 BIT    UNIT     BIT            ?BI?USB
000020H.2 000020H.2 000000H.1 BIT    UNIT     BIT            ?BI?IAP_READ_BYTE??ZF_DRIVER_EEPROM
000020H.3 000020H.3 000000H.1 BIT    UNIT     BIT            ?BI?IAP_WRITE_BYTE??ZF_DRIVER_EEPROM
000020H.4 000020H.4 000000H.1 BIT    UNIT     BIT            ?BI?IAP_ERASE_PAGE??ZF_DRIVER_EEPROM
000020H.5 000020H.5 000000H.1 BIT    UNIT     BIT            ?BI?SEEKFREE_ASSISTANT_DATA_ANALYSIS??SEEKFREE_ASSISTANT
000020H.6 000020H   000000H.2 ---    ---      **GAP**
000021H   002020H   002000H   BYTE   UNIT     EDATA          ?STACK
002021H   00FFFFH   00DFDFH   ---    ---      **GAP**
010000H   010451H   000452H   BYTE   INSEG    XDATA          ?XD?ZF_DEVICE_WIFI_SPI
010452H   0106F2H   0002A1H   BYTE   UNIT     XDATA          ?XD?IPS200_SHOW_GRAY_IMAGE??ZF_DEVICE_IPS200
0106F3H   0108FCH   00020AH   BYTE   UNIT     XDATA          ?XD?EXTERN_IAP_WRITE_BUFF??ZF_DRIVER_EEPROM
0108FDH   010AFDH   000201H   BYTE   UNIT     XDATA          ?XD?IPS114_SHOW_GRAY_IMAGE??ZF_DEVICE_IPS114
010AFEH   010CE1H   0001E4H   BYTE   UNIT     XDATA          ?XD?IPS114_CLEAR??ZF_DEVICE_IPS114
010CE2H   010EC5H   0001E4H   BYTE   UNIT     XDATA          ?XD?TFT180_CLEAR??ZF_DEVICE_TFT180
010EC6H   0110A9H   0001E4H   BYTE   UNIT     XDATA          ?XD?IPS200_CLEAR??ZF_DEVICE_IPS200
0110AAH   0111E6H   00013DH   BYTE   INSEG    XDATA          ?XD?SEEKFREE_ASSISTANT
0111E7H   01127FH   000099H   BYTE   INSEG    XDATA          ?XD?ZF_COMMON_DEBUG
011280H   01130EH   00008FH   BYTE   UNIT     XDATA          ?XD?SEEKFREE_ASSISTANT_DATA_ANALYSIS??SEEKFREE_ASSISTANT
01130FH   01139AH   00008CH   BYTE   UNIT     XDATA          ?XD?DL1B_INIT??ZF_DEVICE_DL1B
01139BH   011414H   00007AH   BYTE   INSEG    XDATA          ?XD?PID
L251 LINKER/LOCATER V4.66.93.0                                                        05/01/2026  15:28:45  PAGE 5


011415H   011477H   000063H   BYTE   UNIT     XDATA          ?XD?ZF_SPRINTF??ZF_COMMON_FUNCTION
011478H   0114CEH   000057H   BYTE   INSEG    XDATA          ?XD?ZF_DEVICE_BLE6A20
0114CFH   011525H   000057H   BYTE   INSEG    XDATA          ?XD?ZF_DEVICE_WIRELESS_UART
011526H   011578H   000053H   BYTE   UNIT     XDATA          ?XD?VSNPRINTF??ZF_COMMON_FUNCTION
011579H   0115CAH   000052H   BYTE   UNIT     XDATA          ?XD?SPI_DMA_TRANSFER??ZF_DRIVER_SPI
0115CBH   011617H   00004DH   BYTE   INSEG    XDATA          ?XD?ZF_DEVICE_IPS200PRO
011618H   011663H   00004CH   BYTE   UNIT     XDATA          ?XD?SPI_DMA_WRITE??ZF_DRIVER_SPI
011664H   0116AEH   00004BH   BYTE   UNIT     XDATA          ?XD?WIFI_SPI_WIFI_CONNECT??ZF_DEVICE_WIFI_SPI
0116AFH   0116F8H   00004AH   BYTE   UNIT     XDATA          ?XD?UART_WRITE_BUFFER??ZF_DRIVER_UART
0116F9H   011741H   000049H   BYTE   INSEG    XDATA          ?XD?ADC
011742H   011786H   000045H   BYTE   UNIT     XDATA          ?XD?IPS200PRO_TABLE_CELL_PRINTF??ZF_DEVICE_IPS200PRO
011787H   0117C9H   000043H   BYTE   UNIT     XDATA          ?XD?USB_OUT_EP1??USB
0117CAH   011808H   00003FH   BYTE   UNIT     XDATA          ?XD?IPS200PRO_LABEL_PRINTF??ZF_DEVICE_IPS200PRO
011809H   011844H   00003CH   BYTE   INSEG    XDATA          ?XD?ZF_COMMON_TYPEDEF
011845H   011880H   00003CH   BYTE   UNIT     XDATA          ?XD?FUNC_DOUBLE_TO_STR??ZF_COMMON_FUNCTION
011881H   0118BCH   00003CH   BYTE   UNIT     XDATA          ?XD?WIFI_SPI_SOCKET_CONNECT??ZF_DEVICE_WIFI_SPI
0118BDH   0118F4H   000038H   BYTE   INSEG    XDATA          ?XD?ZF_DRIVER_PIT
0118F5H   01192AH   000036H   BYTE   INSEG    XDATA          ?XD?TRACING
01192BH   01195EH   000034H   BYTE   UNIT     XDATA          ?XD?IPS114_SHOW_FLOAT??ZF_DEVICE_IPS114
01195FH   011992H   000034H   BYTE   UNIT     XDATA          ?XD?TFT180_SHOW_FLOAT??ZF_DEVICE_TFT180
011993H   0119C6H   000034H   BYTE   UNIT     XDATA          ?XD?IPS200_SHOW_FLOAT??ZF_DEVICE_IPS200
0119C7H   0119FAH   000034H   BYTE   UNIT     XDATA          ?XD?WIFI_SPI_READ_BUFFER??ZF_DEVICE_WIFI_SPI
0119FBH   011A29H   00002FH   BYTE   UNIT     XDATA          ?XD?DL1A_SET_MEASUREMENT_TIMING_BUDGET?ZF_DEVICE_DL1A
011A2AH   011A57H   00002EH   BYTE   UNIT     XDATA          ?XD?WIFI_SPI_GET_TIME??ZF_DEVICE_WIFI_SPI
011A58H   011A85H   00002EH   BYTE   UNIT     XDATA          ?XD?WIFI_SPI_SEND_BUFFER??ZF_DEVICE_WIFI_SPI
011A86H   011AB1H   00002CH   BYTE   UNIT     XDATA          ?XD?IPS114_SHOW_INT32??ZF_DEVICE_IPS114
011AB2H   011ADDH   00002CH   BYTE   UNIT     XDATA          ?XD?TFT180_SHOW_INT32??ZF_DEVICE_TFT180
011ADEH   011B09H   00002CH   BYTE   UNIT     XDATA          ?XD?IPS200_SHOW_INT32??ZF_DEVICE_IPS200
011B0AH   011B33H   00002AH   BYTE   UNIT     XDATA          ?XD?FUNC_FLOAT_TO_STR??ZF_COMMON_FUNCTION
011B34H   011B5DH   00002AH   BYTE   UNIT     XDATA          ?XD?SEEKFREE_ASSISTANT_OSCILLOSCOPE_SEND??SEEKFREE_ASSISTA
                                                             -NT
011B5EH   011B85H   000028H   BYTE   INSEG    XDATA          ?XD?ZF_DRIVER_UART
011B86H   011BADH   000028H   BYTE   UNIT     XDATA          ?XD?IPS200PRO_IMAGE_DISPLAY??ZF_DEVICE_IPS200PRO
011BAEH   011BD5H   000028H   BYTE   UNIT     XDATA          ?XT?PRINTF?
011BD6H   011BFDH   000028H   BYTE   UNIT     XDATA          ?XT?SPRINTF?
011BFEH   011C23H   000026H   BYTE   UNIT     XDATA          ?XD?MT9V03X_SCCB_SET_CONFIG??ZF_DEVICE_MT9V03X_DMA
011C24H   011C48H   000025H   BYTE   UNIT     XDATA          ?XD?FUNC_HEX_TO_STR??ZF_COMMON_FUNCTION
011C49H   011C6DH   000025H   BYTE   UNIT     XDATA          ?XD?TFT180_SHOW_GRAY_IMAGE??ZF_DEVICE_TFT180
011C6EH   011C92H   000025H   BYTE   UNIT     XDATA          ?XD?WIFI_SPI_GET_VERSION?ZF_DEVICE_WIFI_SPI
011C93H   011CB7H   000025H   BYTE   UNIT     XDATA          ?XD?WIFI_SPI_GET_MAC_ADDR?ZF_DEVICE_WIFI_SPI
011CB8H   011CDCH   000025H   BYTE   UNIT     XDATA          ?XD?WIFI_SPI_GET_IP_ADDR_PORT?ZF_DEVICE_WIFI_SPI
011CDDH   011D01H   000025H   BYTE   UNIT     XDATA          ?XD?WIFI_SPI_UDP_SEND_NOW??ZF_DEVICE_WIFI_SPI
011D02H   011D25H   000024H   BYTE   UNIT     XDATA          ?XD?WIFI_SPI_SOCKET_DISCONNECT??ZF_DEVICE_WIFI_SPI
011D26H   011D49H   000024H   BYTE   INSEG    XDATA          ?XD?PD_ENC_SDI
011D4AH   011D6BH   000022H   BYTE   UNIT     XDATA          ?XD?IPS200PRO_IMAGE_DRAW_RECTANGLE??ZF_DEVICE_IPS200PRO
011D6CH   011D8CH   000021H   BYTE   INSEG    XDATA          ?XD?LOGIC
011D8DH   011DACH   000020H   BYTE   UNIT     XDATA          ?XD?IPS114_SHOW_WAVE??ZF_DEVICE_IPS114
011DADH   011DCCH   000020H   BYTE   UNIT     XDATA          ?XD?TFT180_SHOW_WAVE??ZF_DEVICE_TFT180
011DCDH   011DECH   000020H   BYTE   UNIT     XDATA          ?XD?IPS200_SHOW_WAVE??ZF_DEVICE_IPS200
011DEDH   011E0BH   00001FH   BYTE   UNIT     XDATA          ?XD?IPS200PRO_WRITE_PACKET??ZF_DEVICE_IPS200PRO
011E0CH   011E2AH   00001FH   BYTE   UNIT     XDATA          ?XD?DL1A_GET_MEASUREMENT_TIMING_BUDGET?ZF_DEVICE_DL1A
011E2BH   011E49H   00001FH   BYTE   UNIT     XDATA          ?XD?SEEKFREE_ASSISTANT_CAMERA_BOUNDARY_CONFIG??SEEKFREE_AS
                                                             -SISTANT
011E4AH   011E68H   00001FH   BYTE   INSEG    XDATA          ?XD?IMU
011E69H   011E86H   00001EH   BYTE   INSEG    XDATA          ?XD?ZF_DEVICE_TYPE
011E87H   011EA4H   00001EH   BYTE   INSEG    XDATA          ?XD?ZF_DEVICE_IMU963RA
011EA5H   011EC1H   00001DH   BYTE   UNIT     XDATA          ?XD?FUNC_INT_TO_STR??ZF_COMMON_FUNCTION
011EC2H   011EDEH   00001DH   BYTE   UNIT     XDATA          ?XD?FUNC_STR_TO_DOUBLE??ZF_COMMON_FUNCTION
011EDFH   011EFAH   00001CH   BYTE   INSEG    XDATA          ?XD?ZF_DRIVER_TIMER
011EFBH   011F15H   00001BH   BYTE   UNIT     XDATA          ?XD?IPS200PRO_CREATE_WIDGETS??ZF_DEVICE_IPS200PRO
011F16H   011F2FH   00001AH   BYTE   UNIT     XDATA          ?XD?IPS200PRO_WAVEFORM_ADD_VALUE??ZF_DEVICE_IPS200PRO
011F30H   011F49H   00001AH   BYTE   UNIT     XDATA          ?XD?IPS200PRO_IMAGE_DRAW_LINE??ZF_DEVICE_IPS200PRO
011F4AH   011F63H   00001AH   BYTE   UNIT     XDATA          ?XD?ADC_NORMALIZE??LOGIC
011F64H   011F7CH   000019H   BYTE   UNIT     XDATA          ?XD?FUNC_UINT_TO_STR??ZF_COMMON_FUNCTION
011F7DH   011F95H   000019H   BYTE   UNIT     XDATA          ?XD?IPS114_SHOW_CHINESE??ZF_DEVICE_IPS114
L251 LINKER/LOCATER V4.66.93.0                                                        05/01/2026  15:28:45  PAGE 6


011F96H   011FAEH   000019H   BYTE   UNIT     XDATA          ?XD?IPS200_SHOW_CHINESE??ZF_DEVICE_IPS200
011FAFH   011FC6H   000018H   BYTE   UNIT     XDATA          ?XD?FIFO_READ_BUFFER??ZF_COMMON_FIFO
011FC7H   011FDEH   000018H   BYTE   UNIT     XDATA          ?XD?RANGE_PROTECT??LOGIC
011FDFH   011FF4H   000016H   BYTE   UNIT     XDATA          ?XD?DL1A_INIT??ZF_DEVICE_DL1A
011FF5H   012009H   000015H   BYTE   UNIT     XDATA          ?XD?IPS200PRO_GET_INFORMATION??ZF_DEVICE_IPS200PRO
01200AH   01201DH   000014H   BYTE   UNIT     XDATA          ?XD?DEBUG_ASSERT_HANDLER??ZF_COMMON_DEBUG
01201EH   012031H   000014H   BYTE   UNIT     XDATA          ?XD?NUMBER_CONVERSION_ASCII?ZF_COMMON_FUNCTION
012032H   012045H   000014H   BYTE   INSEG    XDATA          ?XD?ZF_DRIVER_ENCODER
012046H   012059H   000014H   BYTE   UNIT     XDATA          ?XD?PWM_SET_FREQ??ZF_DRIVER_PWM
01205AH   01206DH   000014H   BYTE   UNIT     XDATA          ?XD?SOFT_IIC_TRANSFER_8BIT_ARRAY??ZF_DRIVER_SOFT_IIC
01206EH   012081H   000014H   BYTE   UNIT     XDATA          ?XD?SOFT_IIC_TRANSFER_16BIT_ARRAY??ZF_DRIVER_SOFT_IIC
012082H   012095H   000014H   BYTE   UNIT     XDATA          ?XD?SPI_DMA_INIT??ZF_DRIVER_SPI
012096H   0120A9H   000014H   BYTE   UNIT     XDATA          ?XD?SPI_INIT??ZF_DRIVER_SPI
0120AAH   0120BDH   000014H   BYTE   INSEG    XDATA          ?XD?ZF_DEVICE_MT9V03X_DMA
0120BEH   0120D1H   000014H   BYTE   INSEG    XDATA          ?XD?ZF_DEVICE_IMU660RA
0120D2H   0120E4H   000013H   BYTE   UNIT     XDATA          ?XD?UART_INIT??ZF_DRIVER_UART
0120E5H   0120F7H   000013H   BYTE   UNIT     XDATA          ?XD?IPS200PRO_SET_COLOR??ZF_DEVICE_IPS200PRO
0120F8H   01210AH   000013H   BYTE   UNIT     XDATA          ?XD?IPS200PRO_SET_POSITION??ZF_DEVICE_IPS200PRO
01210BH   01211DH   000013H   BYTE   UNIT     XDATA          ?XD?IPS200PRO_WAVEFORM_LINE_STATE??ZF_DEVICE_IPS200PRO
01211EH   012130H   000013H   BYTE   UNIT     XDATA          ?XD?IPS200PRO_CONTAINER_RADIUS??ZF_DEVICE_IPS200PRO
012131H   012143H   000013H   BYTE   UNIT     XDATA          ?XD?IMU660RA_READ_REGISTERS?ZF_DEVICE_IMU660RA
012144H   012155H   000012H   BYTE   UNIT     XDATA          ?XD?FIFO_WRITE_BUFFER??ZF_COMMON_FIFO
012156H   012167H   000012H   BYTE   UNIT     XDATA          ?XD?PWM_INIT??ZF_DRIVER_PWM
012168H   012179H   000012H   BYTE   UNIT     XDATA          ?XD?IPS200PRO_TABLE_SET_COL_WIDTH??ZF_DEVICE_IPS200PRO
01217AH   01218BH   000012H   BYTE   UNIT     XDATA          ?XD?IPS200PRO_CALENDAR_DISPLAY??ZF_DEVICE_IPS200PRO
01218CH   01219DH   000012H   BYTE   INSEG    XDATA          ?XD?USB
01219EH   0121AEH   000011H   BYTE   UNIT     XDATA          ?XD?FUNC_STR_TO_FLOAT??ZF_COMMON_FUNCTION
0121AFH   0121BFH   000011H   BYTE   UNIT     XDATA          ?XD?IPS200PRO_SET_DATE??ZF_DEVICE_IPS200PRO
0121C0H   0121D0H   000011H   BYTE   UNIT     XDATA          ?XD?IPS200PRO_SET_PARENT??ZF_DEVICE_IPS200PRO
0121D1H   0121E1H   000011H   BYTE   UNIT     XDATA          ?XD?IPS200PRO_GET_DATE??ZF_DEVICE_IPS200PRO
0121E2H   0121F2H   000011H   BYTE   UNIT     XDATA          ?XD?IPS200PRO_GET_TIME??ZF_DEVICE_IPS200PRO
0121F3H   012203H   000011H   BYTE   UNIT     XDATA          ?XD?IPS200PRO_GET_FREE_STACK_SIZE??ZF_DEVICE_IPS200PRO
012204H   012214H   000011H   BYTE   UNIT     XDATA          ?XD?IPS200PRO_TABLE_SELECT??ZF_DEVICE_IPS200PRO
012215H   012225H   000011H   BYTE   UNIT     XDATA          ?XD?IPS200PRO_PROGRESS_BAR_SET_VALUE??ZF_DEVICE_IPS200PRO
012226H   012236H   000011H   BYTE   UNIT     XDATA          ?XD?WIFI_SPI_SET_PARAMETER?ZF_DEVICE_WIFI_SPI
012237H   012247H   000011H   BYTE   UNIT     XDATA          ?XD?ADC_SAMPLE_A??ADC
012248H   012257H   000010H   BYTE   UNIT     XDATA          ?XD?IPS200PRO_SET_TIME??ZF_DEVICE_IPS200PRO
012258H   012267H   000010H   BYTE   UNIT     XDATA          ?XD?IPS200PRO_PAGE_SET_TITLE_POSITION_WIDTH??ZF_DEVICE_IPS
                                                             -200PRO
012268H   012276H   00000FH   BYTE   UNIT     XDATA          ?XD?PIT_INIT??ZF_DRIVER_PIT
012277H   012285H   00000FH   BYTE   UNIT     XDATA          ?XD?IPS200PRO_SET_FONT??ZF_DEVICE_IPS200PRO
012286H   012294H   00000FH   BYTE   UNIT     XDATA          ?XD?IPS200PRO_PAGE_SWITCH??ZF_DEVICE_IPS200PRO
012295H   0122A3H   00000FH   BYTE   UNIT     XDATA          ?XD?IPS200PRO_PAGE_SET_TITLE_NAME??ZF_DEVICE_IPS200PRO
0122A4H   0122B2H   00000FH   BYTE   UNIT     XDATA          ?XD?IPS200PRO_LABEL_SHOW_STRING??ZF_DEVICE_IPS200PRO
0122B3H   0122C1H   00000FH   BYTE   UNIT     XDATA          ?XD?IPS200PRO_LABEL_MODE??ZF_DEVICE_IPS200PRO
0122C2H   0122D0H   00000FH   BYTE   UNIT     XDATA          ?XD?IPS200PRO_METER_SET_VALUE??ZF_DEVICE_IPS200PRO
0122D1H   0122DFH   00000FH   BYTE   UNIT     XDATA          ?XD?SEEKFREE_ASSISTANT_CAMERA_DATA_SEND??SEEKFREE_ASSISTAN
                                                             -T
0122E0H   0122EDH   00000EH   BYTE   UNIT     XDATA          ?XD?DEBUG_INTERRUPR_HANDLER??ZF_COMMON_DEBUG
0122EEH   0122FBH   00000EH   BYTE   UNIT     XDATA          ?XD?FIFO_INIT??ZF_COMMON_FIFO
0122FCH   012309H   00000EH   BYTE   UNIT     XDATA          ?XD?FUNC_STR_TO_HEX??ZF_COMMON_FUNCTION
01230AH   012317H   00000EH   BYTE   UNIT     XDATA          ?XD?PWM_SET_DUTY??ZF_DRIVER_PWM
012318H   012325H   00000EH   BYTE   UNIT     XDATA          ?XD?SOFT_IIC_WRITE_16BIT_REGISTERS??ZF_DRIVER_SOFT_IIC
012326H   012333H   00000EH   BYTE   UNIT     XDATA          ?XD?SOFT_IIC_READ_16BIT_REGISTERS??ZF_DRIVER_SOFT_IIC
012334H   012341H   00000EH   BYTE   UNIT     XDATA          ?XD?SPI_DMA_TRANSFER_8BIT??ZF_DRIVER_SPI
012342H   01234FH   00000EH   BYTE   UNIT     XDATA          ?XD?SPI_DMA_TRANSFER_16BIT??ZF_DRIVER_SPI
012350H   01235DH   00000EH   BYTE   UNIT     XDATA          ?XD?SPI_TRANSFER_8BIT??ZF_DRIVER_SPI
01235EH   01236BH   00000EH   BYTE   UNIT     XDATA          ?XD?SPI_TRANSFER_16BIT??ZF_DRIVER_SPI
01236CH   012379H   00000EH   BYTE   UNIT     XDATA          ?XD?UART_TIM_INIT??ZF_DRIVER_UART
01237AH   012387H   00000EH   BYTE   UNIT     XDATA          ?XD?SET_CAMERA_TYPE??ZF_DEVICE_TYPE
012388H   012395H   00000EH   BYTE   UNIT     XDATA          ?XD?IPS200PRO_SEND_BUFFER??ZF_DEVICE_IPS200PRO
012396H   0123A3H   00000EH   BYTE   UNIT     XDATA          ?XD?IPS200PRO_SET_HIDDEN??ZF_DEVICE_IPS200PRO
0123A4H   0123B1H   00000EH   BYTE   UNIT     XDATA          ?XD?IPS200PRO_WAVEFORM_LINE_TYPE??ZF_DEVICE_IPS200PRO
0123B2H   0123BEH   00000DH   BYTE   UNIT     XDATA          ?XD?PRINTF_REVERSE_ORDER?ZF_COMMON_FUNCTION
0123BFH   0123CBH   00000DH   BYTE   UNIT     XDATA          ?XD?SOFT_IIC_WRITE_8BIT_REGISTERS??ZF_DRIVER_SOFT_IIC
L251 LINKER/LOCATER V4.66.93.0                                                        05/01/2026  15:28:45  PAGE 7


0123CCH   0123D8H   00000DH   BYTE   UNIT     XDATA          ?XD?SOFT_IIC_READ_8BIT_REGISTERS??ZF_DRIVER_SOFT_IIC
0123D9H   0123E5H   00000DH   BYTE   UNIT     XDATA          ?XD?SOFT_IIC_INIT??ZF_DRIVER_SOFT_IIC
0123E6H   0123F2H   00000DH   BYTE   UNIT     XDATA          ?XD?IPS200PRO_RECEIVE_BUFFER??ZF_DEVICE_IPS200PRO
0123F3H   0123FFH   00000DH   BYTE   UNIT     XDATA          ?XD?IPS200PRO_SET_FORMAT??ZF_DEVICE_IPS200PRO
012400H   01240CH   00000DH   BYTE   UNIT     XDATA          ?XD?IPS200PRO_SET_DIRECTION??ZF_DEVICE_IPS200PRO
01240DH   012419H   00000DH   BYTE   UNIT     XDATA          ?XD?IPS200PRO_SET_DEFAULT_FONT??ZF_DEVICE_IPS200PRO
01241AH   012426H   00000DH   BYTE   INSEG    XDATA          ?XD?ZF_DEVICE_DL1A
012427H   012433H   00000DH   BYTE   INSEG    XDATA          ?XD?ZF_DEVICE_DL1B
012434H   012440H   00000DH   BYTE   INSEG    XDATA          ?XD?KEY
012441H   01244CH   00000CH   BYTE   UNIT     XDATA          ?XD?SOFT_IIC_WRITE_8BIT_ARRAY??ZF_DRIVER_SOFT_IIC
01244DH   012458H   00000CH   BYTE   UNIT     XDATA          ?XD?SOFT_IIC_WRITE_16BIT_ARRAY??ZF_DRIVER_SOFT_IIC
012459H   012464H   00000CH   BYTE   UNIT     XDATA          ?XD?SOFT_IIC_READ_8BIT_ARRAY??ZF_DRIVER_SOFT_IIC
012465H   012470H   00000CH   BYTE   UNIT     XDATA          ?XD?SOFT_IIC_READ_16BIT_ARRAY??ZF_DRIVER_SOFT_IIC
012471H   01247CH   00000CH   BYTE   UNIT     XDATA          ?XD?SPI_DMA_WRITE_16BIT_REGISTERS??ZF_DRIVER_SPI
01247DH   012488H   00000CH   BYTE   UNIT     XDATA          ?XD?SPI_DMA_READ_16BIT_REGISTERS??ZF_DRIVER_SPI
012489H   012494H   00000CH   BYTE   UNIT     XDATA          ?XD?SPI_WRITE_16BIT_REGISTERS??ZF_DRIVER_SPI
012495H   0124A0H   00000CH   BYTE   UNIT     XDATA          ?XD?SPI_READ_16BIT_REGISTERS??ZF_DRIVER_SPI
0124A1H   0124ACH   00000CH   BYTE   UNIT     XDATA          ?XD?USB_CDC_WRITE_BUFFER??ZF_DRIVER_USB_CDC
0124ADH   0124B8H   00000CH   BYTE   UNIT     XDATA          ?XD?IPS114_SHOW_INT16??ZF_DEVICE_IPS114
0124B9H   0124C4H   00000CH   BYTE   UNIT     XDATA          ?XD?IPS114_SHOW_UINT16??ZF_DEVICE_IPS114
0124C5H   0124D0H   00000CH   BYTE   UNIT     XDATA          ?XD?TFT180_SHOW_INT16??ZF_DEVICE_TFT180
0124D1H   0124DCH   00000CH   BYTE   UNIT     XDATA          ?XD?TFT180_SHOW_UINT16??ZF_DEVICE_TFT180
0124DDH   0124E8H   00000CH   BYTE   UNIT     XDATA          ?XD?IPS200_SHOW_INT16??ZF_DEVICE_IPS200
0124E9H   0124F4H   00000CH   BYTE   UNIT     XDATA          ?XD?IPS200_SHOW_UINT16??ZF_DEVICE_IPS200
0124F5H   012500H   00000CH   BYTE   UNIT     XDATA          ?XD?IPS200PRO_SET_BACKLIGHT??ZF_DEVICE_IPS200PRO
012501H   01250CH   00000CH   BYTE   UNIT     XDATA          ?XD?IPS200PRO_SET_CRC_STATE??ZF_DEVICE_IPS200PRO
01250DH   012518H   00000CH   BYTE   UNIT     XDATA          ?XD?IPS200PRO_SET_OPTIMIZE??ZF_DEVICE_IPS200PRO
012519H   012524H   00000CH   BYTE   UNIT     XDATA          ?XD?BLE6A20_SEND_BUFFER??ZF_DEVICE_BLE6A20
012525H   012530H   00000CH   BYTE   UNIT     XDATA          ?XD?BLE6A20_READ_BUFFER??ZF_DEVICE_BLE6A20
012531H   01253CH   00000CH   BYTE   UNIT     XDATA          ?XD?WIFI_SPI_DMA_WRITE?ZF_DEVICE_WIFI_SPI
01253DH   012548H   00000CH   BYTE   UNIT     XDATA          ?XD?WIRELESS_UART_SEND_BUFFER??ZF_DEVICE_WIRELESS_UART
012549H   012554H   00000CH   BYTE   UNIT     XDATA          ?XD?WIRELESS_UART_READ_BUFFER??ZF_DEVICE_WIRELESS_UART
012555H   012560H   00000CH   BYTE   UNIT     XDATA          ?XD?DL1A_GET_SPAD_INFO?ZF_DEVICE_DL1A
012561H   01256CH   00000CH   BYTE   UNIT     XDATA          ?XD?DL1A_GET_SEQUENCE_STEP_TIMEOUTS?ZF_DEVICE_DL1A
01256DH   012578H   00000CH   BYTE   INSEG    XDATA          ?XD?ZF_DEVICE_IMU660RB
012579H   012583H   00000BH   BYTE   UNIT     XDATA          ?XD?SPI_DMA_WRITE_8BIT_REGISTERS??ZF_DRIVER_SPI
012584H   01258EH   00000BH   BYTE   UNIT     XDATA          ?XD?SPI_DMA_READ_8BIT_REGISTERS??ZF_DRIVER_SPI
01258FH   012599H   00000BH   BYTE   UNIT     XDATA          ?XD?SPI_WRITE_8BIT_REGISTERS??ZF_DRIVER_SPI
01259AH   0125A4H   00000BH   BYTE   UNIT     XDATA          ?XD?SPI_READ_8BIT_REGISTERS??ZF_DRIVER_SPI
0125A5H   0125AFH   00000BH   BYTE   UNIT     XDATA          ?XD?MT9V03X_DMA_INIT??ZF_DEVICE_MT9V03X_DMA
0125B0H   0125BAH   00000BH   BYTE   UNIT     XDATA          ?XD?IPS200PRO_DELETE_WIDGETS??ZF_DEVICE_IPS200PRO
0125BBH   0125C5H   00000BH   BYTE   UNIT     XDATA          ?XD?IPS200PRO_WAVEFORM_CLEAR??ZF_DEVICE_IPS200PRO
0125C6H   0125D0H   00000BH   BYTE   UNIT     XDATA          ?XD?WIFI_SPI_GET_PARAMETER?ZF_DEVICE_WIFI_SPI
0125D1H   0125DBH   00000BH   BYTE   UNIT     XDATA          ?XD?ADC_SAMPLE??ADC
0125DCH   0125E6H   00000BH   BYTE   UNIT     XDATA          ?XD?ADC_SAMPLE_B??ADC
0125E7H   0125F0H   00000AH   BYTE   UNIT     XDATA          ?XD?IAP_READ_BUFF??ZF_DRIVER_EEPROM
0125F1H   0125FAH   00000AH   BYTE   UNIT     XDATA          ?XD?IAP_WRITE_BUFF??ZF_DRIVER_EEPROM
0125FBH   012604H   00000AH   BYTE   UNIT     XDATA          ?XD?SPI_DMA_READ??ZF_DRIVER_SPI
012605H   01260EH   00000AH   BYTE   UNIT     XDATA          ?XD?SPI_DMA_WRITE_8BIT_ARRAY??ZF_DRIVER_SPI
01260FH   012618H   00000AH   BYTE   UNIT     XDATA          ?XD?SPI_DMA_WRITE_16BIT_ARRAY??ZF_DRIVER_SPI
012619H   012622H   00000AH   BYTE   UNIT     XDATA          ?XD?SPI_DMA_READ_8BIT_ARRAY??ZF_DRIVER_SPI
012623H   01262CH   00000AH   BYTE   UNIT     XDATA          ?XD?SPI_DMA_READ_16BIT_ARRAY??ZF_DRIVER_SPI
01262DH   012636H   00000AH   BYTE   UNIT     XDATA          ?XD?SPI_WRITE_8BIT_ARRAY??ZF_DRIVER_SPI
012637H   012640H   00000AH   BYTE   UNIT     XDATA          ?XD?SPI_WRITE_16BIT_ARRAY??ZF_DRIVER_SPI
012641H   01264AH   00000AH   BYTE   UNIT     XDATA          ?XD?SPI_READ_8BIT_ARRAY??ZF_DRIVER_SPI
01264BH   012654H   00000AH   BYTE   UNIT     XDATA          ?XD?SPI_READ_16BIT_ARRAY??ZF_DRIVER_SPI
012655H   01265EH   00000AH   BYTE   UNIT     XDATA          ?XD?MT9V03X_SCCB_INIT??ZF_DEVICE_MT9V03X
01265FH   012668H   00000AH   BYTE   UNIT     XDATA          ?XD?IPS114_SHOW_STRING??ZF_DEVICE_IPS114
012669H   012672H   00000AH   BYTE   UNIT     XDATA          ?XD?TFT180_SHOW_STRING??ZF_DEVICE_TFT180
012673H   01267CH   00000AH   BYTE   INSEG    XDATA          ?XD?ZF_DEVICE_IPS200
01267DH   012686H   00000AH   BYTE   UNIT     XDATA          ?XD?IPS200_SHOW_STRING??ZF_DEVICE_IPS200
012687H   012690H   00000AH   BYTE   UNIT     XDATA          ?XD?WIFI_SPI_DMA_TRANSFER_DATA?ZF_DEVICE_WIFI_SPI
012691H   01269AH   00000AH   BYTE   UNIT     XDATA          ?XD?SEEKFREE_ASSISTANT_CAMERA_INFORMATION_CONFIG??SEEKFREE
                                                             -_ASSISTANT
01269BH   0126A4H   00000AH   BYTE   UNIT     XDATA          ?XD?ADC_MID_SAMPLE??ADC
L251 LINKER/LOCATER V4.66.93.0                                                        05/01/2026  15:28:45  PAGE 8


0126A5H   0126AEH   00000AH   BYTE   UNIT     XDATA          ?XD?COMPARE_SWAP??AOI_FUNCTION
0126AFH   0126B7H   000009H   BYTE   UNIT     XDATA          ?XD?FUNC_STR_TO_INT??ZF_COMMON_FUNCTION
0126B8H   0126C0H   000009H   BYTE   UNIT     XDATA          ?XD?SYSTEM_DELAY??ZF_DRIVER_DELAY
0126C1H   0126C9H   000009H   BYTE   UNIT     XDATA          ?XD?IPS114_SHOW_INT8??ZF_DEVICE_IPS114
0126CAH   0126D2H   000009H   BYTE   UNIT     XDATA          ?XD?IPS114_SHOW_UINT8??ZF_DEVICE_IPS114
0126D3H   0126DBH   000009H   BYTE   UNIT     XDATA          ?XD?TFT180_SHOW_INT8??ZF_DEVICE_TFT180
0126DCH   0126E4H   000009H   BYTE   UNIT     XDATA          ?XD?TFT180_SHOW_UINT8??ZF_DEVICE_TFT180
0126E5H   0126EDH   000009H   BYTE   UNIT     XDATA          ?XD?IPS200_SHOW_INT8??ZF_DEVICE_IPS200
0126EEH   0126F6H   000009H   BYTE   UNIT     XDATA          ?XD?IPS200_SHOW_UINT8??ZF_DEVICE_IPS200
0126F7H   0126FFH   000009H   BYTE   UNIT     XDATA          ?XD?IPS200PRO_LABEL_CREATE??ZF_DEVICE_IPS200PRO
012700H   012708H   000009H   BYTE   UNIT     XDATA          ?XD?IPS200PRO_TABLE_CREATE??ZF_DEVICE_IPS200PRO
012709H   012711H   000009H   BYTE   UNIT     XDATA          ?XD?IPS200PRO_METER_CREATE??ZF_DEVICE_IPS200PRO
012712H   01271AH   000009H   BYTE   UNIT     XDATA          ?XD?IPS200PRO_CLOCK_CREATE??ZF_DEVICE_IPS200PRO
01271BH   012723H   000009H   BYTE   UNIT     XDATA          ?XD?IPS200PRO_PROGRESS_BAR_CREATE??ZF_DEVICE_IPS200PRO
012724H   01272CH   000009H   BYTE   UNIT     XDATA          ?XD?IPS200PRO_CALENDAR_CREATE??ZF_DEVICE_IPS200PRO
01272DH   012735H   000009H   BYTE   UNIT     XDATA          ?XD?IPS200PRO_WAVEFORM_CREATE??ZF_DEVICE_IPS200PRO
012736H   01273EH   000009H   BYTE   UNIT     XDATA          ?XD?IPS200PRO_IMAGE_CREATE??ZF_DEVICE_IPS200PRO
01273FH   012747H   000009H   BYTE   UNIT     XDATA          ?XD?IPS200PRO_CONTAINER_CREATE??ZF_DEVICE_IPS200PRO
012748H   012750H   000009H   BYTE   UNIT     XDATA          ?XD?IPS200PRO_INIT??ZF_DEVICE_IPS200PRO
012751H   012759H   000009H   BYTE   UNIT     XDATA          ?XD?WIFI_SPI_INIT??ZF_DEVICE_WIFI_SPI
01275AH   012762H   000009H   BYTE   UNIT     XDATA          ?XD?DL1A_TIMEOUT_MICROSECONDS_TO_MCLKS?ZF_DEVICE_DL1A
012763H   01276BH   000009H   BYTE   UNIT     XDATA          ?XD?DL1A_SET_SIGNAL_RATE_LIMIT?ZF_DEVICE_DL1A
01276CH   012774H   000009H   BYTE   UNIT     XDATA          ?XD?IMU660RA_WRITE_REGISTERS?ZF_DEVICE_IMU660RA
012775H   01277DH   000009H   BYTE   UNIT     XDATA          ?XD?IMU660RB_READ_REGISTERS?ZF_DEVICE_IMU660RB
01277EH   012786H   000009H   BYTE   UNIT     XDATA          ?XD?IMU963RA_READ_ACC_GYRO_REGISTERS?ZF_DEVICE_IMU963RA
012787H   01278FH   000009H   BYTE   UNIT     XDATA          ?XD?SEEKFREE_ASSISTANT_SUM?SEEKFREE_ASSISTANT
012790H   012797H   000008H   BYTE   UNIT     XDATA          ?XD?DEBUG_SEND_BUFFER??ZF_COMMON_DEBUG
012798H   01279FH   000008H   BYTE   UNIT     XDATA          ?XD?DEBUG_READ_BUFFER??ZF_COMMON_DEBUG
0127A0H   0127A7H   000008H   BYTE   UNIT     XDATA          ?XD?FIFO_HEAD_OFFSET?ZF_COMMON_FIFO
0127A8H   0127AFH   000008H   BYTE   UNIT     XDATA          ?XD?FIFO_END_OFFSET?ZF_COMMON_FIFO
0127B0H   0127B7H   000008H   BYTE   UNIT     XDATA          ?XD?FUNC_GET_GREATEST_COMMON_DIVISOR??ZF_COMMON_FUNCTION
0127B8H   0127BFH   000008H   BYTE   UNIT     XDATA          ?XD?FUNC_STR_TO_UINT??ZF_COMMON_FUNCTION
0127C0H   0127C7H   000008H   BYTE   UNIT     XDATA          ?XD?ADC_MEAN_FILTER_CONVERT??ZF_DRIVER_ADC
0127C8H   0127CFH   000008H   BYTE   UNIT     XDATA          ?XD?SOFT_IIC_DELAY??ZF_DRIVER_SOFT_IIC
0127D0H   0127D7H   000008H   BYTE   UNIT     XDATA          ?XD?SOFT_IIC_WRITE_16BIT_REGISTER??ZF_DRIVER_SOFT_IIC
0127D8H   0127DFH   000008H   BYTE   UNIT     XDATA          ?XD?SOFT_IIC_READ_16BIT_REGISTER??ZF_DRIVER_SOFT_IIC
0127E0H   0127E7H   000008H   BYTE   UNIT     XDATA          ?XD?UART_WRITE_STRING??ZF_DRIVER_UART
0127E8H   0127EFH   000008H   BYTE   UNIT     XDATA          ?XD?MT9V03X_SCCB_CHECK_ID??ZF_DEVICE_MT9V03X_DMA
0127F0H   0127F7H   000008H   BYTE   INSEG    XDATA          ?XD?ZF_DEVICE_IPS114
0127F8H   0127FFH   000008H   BYTE   UNIT     XDATA          ?XD?IPS114_SET_REGION?ZF_DEVICE_IPS114
012800H   012807H   000008H   BYTE   UNIT     XDATA          ?XD?IPS114_SHOW_CHAR??ZF_DEVICE_IPS114
012808H   01280FH   000008H   BYTE   INSEG    XDATA          ?XD?ZF_DEVICE_TFT180
012810H   012817H   000008H   BYTE   UNIT     XDATA          ?XD?TFT180_SET_REGION?ZF_DEVICE_TFT180
012818H   01281FH   000008H   BYTE   UNIT     XDATA          ?XD?TFT180_SHOW_CHAR??ZF_DEVICE_TFT180
012820H   012827H   000008H   BYTE   UNIT     XDATA          ?XD?IPS200_SET_REGION?ZF_DEVICE_IPS200
012828H   01282FH   000008H   BYTE   UNIT     XDATA          ?XD?IPS200_SHOW_CHAR??ZF_DEVICE_IPS200
012830H   012837H   000008H   BYTE   UNIT     XDATA          ?XD?IPS200PRO_READ_PARAMETER??ZF_DEVICE_IPS200PRO
012838H   01283FH   000008H   BYTE   UNIT     XDATA          ?XD?BLE6A20_SEND_STRING??ZF_DEVICE_BLE6A20
012840H   012847H   000008H   BYTE   UNIT     XDATA          ?XD?WIFI_SPI_WAIT_IDLE?ZF_DEVICE_WIFI_SPI
012848H   01284FH   000008H   BYTE   UNIT     XDATA          ?XD?WIRELESS_UART_SEND_STRING??ZF_DEVICE_WIRELESS_UART
012850H   012857H   000008H   BYTE   UNIT     XDATA          ?XD?REVERSE4??UTIL
012858H   01285FH   000008H   BYTE   INSEG    XDATA          ?XD?SEEKFREE_ASSISTANT_INTERFACE
012860H   012867H   000008H   BYTE   UNIT     XDATA          ?XD?PLACE_PID??PID
012868H   01286EH   000007H   BYTE   UNIT     XDATA          ?XD?GPIO_INIT??ZF_DRIVER_GPIO
01286FH   012875H   000007H   BYTE   UNIT     XDATA          ?XD?SOFT_IIC_READ_DATA??ZF_DRIVER_SOFT_IIC
012876H   01287CH   000007H   BYTE   UNIT     XDATA          ?XD?UART_RX_INTERRUPT??ZF_DRIVER_UART
01287DH   012883H   000007H   BYTE   UNIT     XDATA          ?XD?UART_QUERY_BYTE??ZF_DRIVER_UART
012884H   01288AH   000007H   BYTE   UNIT     XDATA          ?XD?MT9V03X_WRITE_AND_CHECK_WORD_SCCB?ZF_DEVICE_MT9V03X_DM
                                                             -A
01288BH   012891H   000007H   BYTE   UNIT     XDATA          ?XD?WIFI_SPI_WIFI_SCAN??ZF_DEVICE_WIFI_SPI
012892H   012898H   000007H   BYTE   UNIT     XDATA          ?XD?DL1A_TIMEOUT_MCLKS_TO_MICROSECONDS?ZF_DEVICE_DL1A
012899H   01289FH   000007H   BYTE   UNIT     XDATA          ?XD?IMU963RA_GET_MAG??ZF_DEVICE_IMU963RA
0128A0H   0128A6H   000007H   BYTE   UNIT     XDATA          ?XD?USB_READ_FIFO??USB
0128A7H   0128ADH   000007H   BYTE   INSEG    XDATA          ?XD?USB_REQ_CLASS
0128AEH   0128B4H   000007H   BYTE   UNIT     XDATA          ?XD?SEEKFREE_ASSISTANT_CAMERA_DOT_SEND??SEEKFREE_ASSISTANT
L251 LINKER/LOCATER V4.66.93.0                                                        05/01/2026  15:28:45  PAGE 9


0128B5H   0128BAH   000006H   BYTE   UNIT     XDATA          ?XD?FIFO_CLEAR??ZF_COMMON_FIFO
0128BBH   0128C0H   000006H   BYTE   UNIT     XDATA          ?XD?TIM_ENCODER_DIR_INIT?ZF_DRIVER_ENCODER
0128C1H   0128C6H   000006H   BYTE   UNIT     XDATA          ?XD?PWM_ENCODER_DIR_INIT?ZF_DRIVER_ENCODER
0128C7H   0128CCH   000006H   BYTE   UNIT     XDATA          ?XD?ENCODER_QUAD_INIT??ZF_DRIVER_ENCODER
0128CDH   0128D2H   000006H   BYTE   UNIT     XDATA          ?XD?ENCODER_DIR_INIT??ZF_DRIVER_ENCODER
0128D3H   0128D8H   000006H   BYTE   UNIT     XDATA          ?XD?SOFT_IIC_SEND_DATA??ZF_DRIVER_SOFT_IIC
0128D9H   0128DEH   000006H   BYTE   UNIT     XDATA          ?XD?SOFT_IIC_WRITE_16BIT??ZF_DRIVER_SOFT_IIC
0128DFH   0128E4H   000006H   BYTE   UNIT     XDATA          ?XD?SOFT_IIC_WRITE_8BIT_REGISTER??ZF_DRIVER_SOFT_IIC
0128E5H   0128EAH   000006H   BYTE   UNIT     XDATA          ?XD?SOFT_IIC_READ_16BIT??ZF_DRIVER_SOFT_IIC
0128EBH   0128F0H   000006H   BYTE   UNIT     XDATA          ?XD?SOFT_IIC_READ_8BIT_REGISTER??ZF_DRIVER_SOFT_IIC
0128F1H   0128F6H   000006H   BYTE   UNIT     XDATA          ?XD?SOFT_IIC_SCCB_WRITE_REGISTER??ZF_DRIVER_SOFT_IIC
0128F7H   0128FCH   000006H   BYTE   UNIT     XDATA          ?XD?SOFT_IIC_SCCB_READ_REGISTER??ZF_DRIVER_SOFT_IIC
0128FDH   012902H   000006H   BYTE   UNIT     XDATA          ?XD?SPI_DMA_WRITE_16BIT_REGISTER??ZF_DRIVER_SPI
012903H   012908H   000006H   BYTE   UNIT     XDATA          ?XD?SPI_DMA_READ_16BIT_REGISTER??ZF_DRIVER_SPI
012909H   01290EH   000006H   BYTE   UNIT     XDATA          ?XD?SPI_WRITE_16BIT_REGISTER??ZF_DRIVER_SPI
01290FH   012914H   000006H   BYTE   UNIT     XDATA          ?XD?SPI_READ_16BIT_REGISTER??ZF_DRIVER_SPI
012915H   01291AH   000006H   BYTE   UNIT     XDATA          ?XD?USB_CDC_WRITE_STRING??ZF_DRIVER_USB_CDC
01291BH   012920H   000006H   BYTE   UNIT     XDATA          ?XD?SET_WIRELESS_TYPE??ZF_DEVICE_TYPE
012921H   012926H   000006H   BYTE   UNIT     XDATA          ?XD?SET_TOF_TYPE??ZF_DEVICE_TYPE
012927H   01292CH   000006H   BYTE   UNIT     XDATA          ?XD?IPS114_DRAW_POINT??ZF_DEVICE_IPS114
01292DH   012932H   000006H   BYTE   UNIT     XDATA          ?XD?TFT180_DRAW_POINT??ZF_DEVICE_TFT180
012933H   012938H   000006H   BYTE   UNIT     XDATA          ?XD?IPS200_DRAW_POINT??ZF_DEVICE_IPS200
012939H   01293EH   000006H   BYTE   UNIT     XDATA          ?XD?WIFI_SPI_DMA_TRANSFER_COMMAND?ZF_DEVICE_WIFI_SPI
01293FH   012944H   000006H   BYTE   UNIT     XDATA          ?XD?IMU660RA_GET_ACC??ZF_DEVICE_IMU660RA
012945H   01294AH   000006H   BYTE   UNIT     XDATA          ?XD?IMU660RA_GET_GYRO??ZF_DEVICE_IMU660RA
01294BH   012950H   000006H   BYTE   UNIT     XDATA          ?XD?IMU660RB_GET_ACC??ZF_DEVICE_IMU660RB
012951H   012956H   000006H   BYTE   UNIT     XDATA          ?XD?IMU660RB_GET_GYRO??ZF_DEVICE_IMU660RB
012957H   01295CH   000006H   BYTE   UNIT     XDATA          ?XD?IMU660RB_ACC_TRANSITION??ZF_DEVICE_IMU660RB
01295DH   012962H   000006H   BYTE   UNIT     XDATA          ?XD?IMU660RB_GYRO_TRANSITION??ZF_DEVICE_IMU660RB
012963H   012968H   000006H   BYTE   UNIT     XDATA          ?XD?IMU963RA_WRITE_MAG_REGISTER?ZF_DEVICE_IMU963RA
012969H   01296EH   000006H   BYTE   UNIT     XDATA          ?XD?IMU963RA_GET_ACC??ZF_DEVICE_IMU963RA
01296FH   012974H   000006H   BYTE   UNIT     XDATA          ?XD?IMU963RA_GET_GYRO??ZF_DEVICE_IMU963RA
012975H   01297AH   000006H   BYTE   UNIT     XDATA          ?XD?USB_WRITE_FIFO??USB
01297BH   01297FH   000005H   BYTE   UNIT     XDATA          ?XD?CLOCK_INIT??ZF_COMMON_CLOCK
012980H   012984H   000005H   BYTE   UNIT     XDATA          ?XD?IAP_READ_BYTE??ZF_DRIVER_EEPROM
012985H   012989H   000005H   BYTE   UNIT     XDATA          ?XD?IAP_WRITE_BYTE??ZF_DRIVER_EEPROM
01298AH   01298EH   000005H   BYTE   UNIT     XDATA          ?XD?GPIO_GET_LEVEL??ZF_DRIVER_GPIO
01298FH   012993H   000005H   BYTE   UNIT     XDATA          ?XD?GPIO_SET_LEVEL??ZF_DRIVER_GPIO
012994H   012998H   000005H   BYTE   UNIT     XDATA          ?XD?SOFT_IIC_SEND_ACK??ZF_DRIVER_SOFT_IIC
012999H   01299DH   000005H   BYTE   UNIT     XDATA          ?XD?SOFT_IIC_WAIT_ACK??ZF_DRIVER_SOFT_IIC
01299EH   0129A2H   000005H   BYTE   UNIT     XDATA          ?XD?SOFT_IIC_WRITE_8BIT??ZF_DRIVER_SOFT_IIC
0129A3H   0129A7H   000005H   BYTE   UNIT     XDATA          ?XD?SOFT_IIC_READ_8BIT??ZF_DRIVER_SOFT_IIC
0129A8H   0129ACH   000005H   BYTE   UNIT     XDATA          ?XD?TIMER_FUNCITON_CHECK??ZF_DRIVER_TIMER
0129ADH   0129B1H   000005H   BYTE   UNIT     XDATA          ?XD?IPS200PRO_PAGE_CREATE??ZF_DEVICE_IPS200PRO
0129B2H   0129B6H   000005H   BYTE   UNIT     XDATA          ?XD?WIFI_SPI_RESET??ZF_DEVICE_WIFI_SPI
0129B7H   0129BBH   000005H   BYTE   UNIT     XDATA          ?XD?DL1A_GET_SEQUENCE_STEP_ENABLES?ZF_DEVICE_DL1A
0129BCH   0129C0H   000005H   BYTE   UNIT     XDATA          ?XD?DL1A_PERFORM_SINGLE_REF_CALIBRATION?ZF_DEVICE_DL1A
0129C1H   0129C5H   000005H   BYTE   UNIT     XDATA          ?XD?DL1B_GET_DISTANCE??ZF_DEVICE_DL1B
0129C6H   0129CAH   000005H   BYTE   INSEG    XDATA          ?XD?MOTOR
0129CBH   0129CEH   000004H   BYTE   INSEG    XDATA          ?XD?ZF_COMMON_CLOCK
0129CFH   0129D2H   000004H   BYTE   UNIT     XDATA          ?XD?FIFO_USED??ZF_COMMON_FIFO
0129D3H   0129D6H   000004H   BYTE   UNIT     XDATA          ?XD?FUNC_SOFT_DELAY??ZF_COMMON_FUNCTION
0129D7H   0129DAH   000004H   BYTE   UNIT     XDATA          ?XD?ADC_CONVERT??ZF_DRIVER_ADC
0129DBH   0129DEH   000004H   BYTE   UNIT     XDATA          ?XD?ADC_INIT??ZF_DRIVER_ADC
0129DFH   0129E2H   000004H   BYTE   UNIT     XDATA          ?XD?SOFT_DELAY??ZF_DRIVER_DELAY
0129E3H   0129E6H   000004H   BYTE   UNIT     XDATA          ?XD?IAP_ERASE_PAGE??ZF_DRIVER_EEPROM
0129E7H   0129EAH   000004H   BYTE   UNIT     XDATA          ?XD?ENCODER_GET_COUNT??ZF_DRIVER_ENCODER
0129EBH   0129EEH   000004H   BYTE   UNIT     XDATA          ?XD?EXIT_INIT??ZF_DRIVER_EXTI
0129EFH   0129F2H   000004H   BYTE   UNIT     XDATA          ?XD?GPIO_SET_PUSH_PULL?ZF_DRIVER_GPIO
0129F3H   0129F6H   000004H   BYTE   UNIT     XDATA          ?XD?GPIO_SET_OPEN_DTAIN?ZF_DRIVER_GPIO
0129F7H   0129FAH   000004H   BYTE   UNIT     XDATA          ?XD?GPIO_SET_IMPEDANCE??ZF_DRIVER_GPIO
0129FBH   0129FEH   000004H   BYTE   UNIT     XDATA          ?XD?GPIO_SET_DR?ZF_DRIVER_GPIO
0129FFH   012A02H   000004H   BYTE   UNIT     XDATA          ?XD?GPIO_SET_IE?ZF_DRIVER_GPIO
012A03H   012A06H   000004H   BYTE   UNIT     XDATA          ?XD?GPIO_SET_LEVEL_SPEED??ZF_DRIVER_GPIO
012A07H   012A0AH   000004H   BYTE   UNIT     XDATA          ?XD?SOFT_IIC_START??ZF_DRIVER_SOFT_IIC
L251 LINKER/LOCATER V4.66.93.0                                                        05/01/2026  15:28:45  PAGE 10


012A0BH   012A0EH   000004H   BYTE   UNIT     XDATA          ?XD?SOFT_IIC_STOP??ZF_DRIVER_SOFT_IIC
012A0FH   012A12H   000004H   BYTE   UNIT     XDATA          ?XD?SPI_DMA_WRITE_16BIT??ZF_DRIVER_SPI
012A13H   012A16H   000004H   BYTE   UNIT     XDATA          ?XD?SPI_DMA_WRITE_8BIT_REGISTER??ZF_DRIVER_SPI
012A17H   012A1AH   000004H   BYTE   UNIT     XDATA          ?XD?SPI_DMA_READ_16BIT??ZF_DRIVER_SPI
012A1BH   012A1EH   000004H   BYTE   UNIT     XDATA          ?XD?SPI_DMA_READ_8BIT_REGISTER??ZF_DRIVER_SPI
012A1FH   012A22H   000004H   BYTE   UNIT     XDATA          ?XD?SPI_READ_DAT??ZF_DRIVER_SPI
012A23H   012A26H   000004H   BYTE   UNIT     XDATA          ?XD?SPI_WRITE_16BIT??ZF_DRIVER_SPI
012A27H   012A2AH   000004H   BYTE   UNIT     XDATA          ?XD?SPI_WRITE_8BIT_REGISTER??ZF_DRIVER_SPI
012A2BH   012A2EH   000004H   BYTE   UNIT     XDATA          ?XD?SPI_READ_16BIT??ZF_DRIVER_SPI
012A2FH   012A32H   000004H   BYTE   INSEG    XDATA          ?XD?ZF_DRIVER_USB_CDC
012A33H   012A36H   000004H   BYTE   UNIT     XDATA          ?XD?USB_CDC_RX_INTERRUPT??ZF_DRIVER_USB_CDC
012A37H   012A3AH   000004H   BYTE   UNIT     XDATA          ?XD?MT9V03X_SET_REG??ZF_DEVICE_MT9V03X
012A3BH   012A3EH   000004H   BYTE   UNIT     XDATA          ?XD?MT9V03X_SCCB_SET_REG??ZF_DEVICE_MT9V03X_DMA
012A3FH   012A42H   000004H   BYTE   UNIT     XDATA          ?XD?IPS114_SET_COLOR??ZF_DEVICE_IPS114
012A43H   012A46H   000004H   BYTE   UNIT     XDATA          ?XD?TFT180_SET_COLOR??ZF_DEVICE_TFT180
012A47H   012A4AH   000004H   BYTE   UNIT     XDATA          ?XD?IPS200_SET_COLOR??ZF_DEVICE_IPS200
012A4BH   012A4EH   000004H   BYTE   UNIT     XDATA          ?XD?IPS200PRO_WAIT_IDLE?ZF_DEVICE_IPS200PRO
012A4FH   012A52H   000004H   BYTE   UNIT     XDATA          ?XD?IPS200PRO_PAGE_HIDDEN??ZF_DEVICE_IPS200PRO
012A53H   012A56H   000004H   BYTE   UNIT     XDATA          ?XD?WIFI_SPI_SEND_STRING??ZF_DEVICE_WIFI_SPI
012A57H   012A5AH   000004H   BYTE   UNIT     XDATA          ?XD?IMU660RA_SELF_CHECK?ZF_DEVICE_IMU660RA
012A5BH   012A5EH   000004H   BYTE   UNIT     XDATA          ?XD?IMU660RB_SELF_CHECK?ZF_DEVICE_IMU660RB
012A5FH   012A62H   000004H   BYTE   UNIT     XDATA          ?XD?IMU963RA_READ_MAG_REGISTER?ZF_DEVICE_IMU963RA
012A63H   012A66H   000004H   BYTE   UNIT     XDATA          ?XD?IMU963RA_ACC_GYRO_SELF_CHECK?ZF_DEVICE_IMU963RA
012A67H   012A6AH   000004H   BYTE   UNIT     XDATA          ?XD?IMU963RA_MAG_SELF_CHECK?ZF_DEVICE_IMU963RA
012A6BH   012A6EH   000004H   BYTE   UNIT     XDATA          ?XD?USB_ISR??USB
012A6FH   012A72H   000004H   BYTE   UNIT     XDATA          ?XD?REVERSE2??UTIL
012A73H   012A76H   000004H   BYTE   UNIT     XDATA          ?XD?ADC_V_SAMPLE??ADC
012A77H   012A7AH   000004H   BYTE   UNIT     XDATA          ?XD?ADC_V_SAMPLE_2??ADC
012A7BH   012A7EH   000004H   BYTE   UNIT     XDATA          ?XD?ADC_V_SAMPLE_3??ADC
012A7FH   012A82H   000004H   BYTE   UNIT     XDATA          ?XD?ADC_V_SAMPLE_4??ADC
012A83H   012A86H   000004H   BYTE   UNIT     XDATA          ?XD?ABS_INT32??AOI_FUNCTION
012A87H   012A8AH   000004H   BYTE   UNIT     XDATA          ?XD?SORT_SEVEN??AOI_FUNCTION
012A8BH   012A8EH   000004H   BYTE   UNIT     XDATA          ?XD?LOOP_SPEED_LR??PID
012A8FH   012A92H   000004H   BYTE   UNIT     XDATA          ?XD?DIRECTION_RETURN??PID
012A93H   012A95H   000003H   BYTE   UNIT     XDATA          ?XD?INTERRUPT_SET_PRIORITY??ZF_COMMON_INTERRUPT
012A96H   012A98H   000003H   BYTE   UNIT     XDATA          ?XD?SPI_DMA_WRITE_8BIT??ZF_DRIVER_SPI
012A99H   012A9BH   000003H   BYTE   UNIT     XDATA          ?XD?SPI_DMA_READ_8BIT??ZF_DRIVER_SPI
012A9CH   012A9EH   000003H   BYTE   UNIT     XDATA          ?XD?SPI_WRITE_DAT??ZF_DRIVER_SPI
012A9FH   012AA1H   000003H   BYTE   UNIT     XDATA          ?XD?SPI_WRITE_8BIT??ZF_DRIVER_SPI
012AA2H   012AA4H   000003H   BYTE   UNIT     XDATA          ?XD?SPI_READ_8BIT_REGISTER??ZF_DRIVER_SPI
012AA5H   012AA7H   000003H   BYTE   UNIT     XDATA          ?XD?UART_WRITE_BYTE??ZF_DRIVER_UART
012AA8H   012AAAH   000003H   BYTE   UNIT     XDATA          ?XD?UART_READ_BYTE??ZF_DRIVER_UART
012AABH   012AADH   000003H   BYTE   UNIT     XDATA          ?XD?MT9V03X_SET_EXPOSURE_TIME??ZF_DEVICE_MT9V03X
012AAEH   012AB0H   000003H   BYTE   UNIT     XDATA          ?XD?MT9V03X_WRITE_WORD_SCCB?ZF_DEVICE_MT9V03X_DMA
012AB1H   012AB3H   000003H   BYTE   UNIT     XDATA          ?XD?MT9V03X_READ_WORD_SCCB?ZF_DEVICE_MT9V03X_DMA
012AB4H   012AB6H   000003H   BYTE   UNIT     XDATA          ?XD?MT9V03X_SCCB_SET_EXPOSURE_TIME??ZF_DEVICE_MT9V03X_DMA
012AB7H   012AB9H   000003H   BYTE   UNIT     XDATA          ?XD?BLE6A20_SEND_BYTE??ZF_DEVICE_BLE6A20
012ABAH   012ABCH   000003H   BYTE   UNIT     XDATA          ?XD?WIRELESS_UART_SEND_BYTE??ZF_DEVICE_WIRELESS_UART
012ABDH   012ABFH   000003H   BYTE   UNIT     XDATA          ?XD?DL1A_GET_VCSEL_PULSE_PERIOD?ZF_DEVICE_DL1A
012AC0H   012AC2H   000003H   BYTE   UNIT     XDATA          ?XD?DL1A_GET_DISTANCE??ZF_DEVICE_DL1A
012AC3H   012AC5H   000003H   BYTE   UNIT     XDATA          ?XD?IMU660RA_READ_REGISTER?ZF_DEVICE_IMU660RA
012AC6H   012AC7H   000002H   BYTE   INSEG    XDATA          ?XD?ZF_DRIVER_ADC
012AC8H   012AC9H   000002H   BYTE   UNIT     XDATA          ?XD?ENCODER_CLEAR_COUNT??ZF_DRIVER_ENCODER
012ACAH   012ACBH   000002H   BYTE   UNIT     XDATA          ?XD?GPIO_SET_UP?ZF_DRIVER_GPIO
012ACCH   012ACDH   000002H   BYTE   UNIT     XDATA          ?XD?GPIO_SET_PD?ZF_DRIVER_GPIO
012ACEH   012ACFH   000002H   BYTE   UNIT     XDATA          ?XD?GPIO_TOGGLE_LEVEL??ZF_DRIVER_GPIO
012AD0H   012AD1H   000002H   BYTE   UNIT     XDATA          ?XD?SPI_READ_8BIT??ZF_DRIVER_SPI
012AD2H   012AD3H   000002H   BYTE   UNIT     XDATA          ?XD?UART_RX_START_BUFF??ZF_DRIVER_UART
012AD4H   012AD5H   000002H   BYTE   UNIT     XDATA          ?XD?UART_DMA_INIT??ZF_DRIVER_UART
012AD6H   012AD7H   000002H   BYTE   UNIT     XDATA          ?XD?MT9V03X_INIT??ZF_DEVICE_MT9V03X
012AD8H   012AD9H   000002H   BYTE   UNIT     XDATA          ?XD?IPS114_SET_DIR??ZF_DEVICE_IPS114
012ADAH   012ADBH   000002H   BYTE   UNIT     XDATA          ?XD?TFT180_SET_DIR??ZF_DEVICE_TFT180
012ADCH   012ADDH   000002H   BYTE   UNIT     XDATA          ?XD?IPS200_SET_DIR??ZF_DEVICE_IPS200
012ADEH   012ADFH   000002H   BYTE   UNIT     XDATA          ?XD?DL1A_DECODE_TIMEOUT?ZF_DEVICE_DL1A
012AE0H   012AE1H   000002H   BYTE   UNIT     XDATA          ?XD?DL1A_ENCODE_TIMEOUT?ZF_DEVICE_DL1A
L251 LINKER/LOCATER V4.66.93.0                                                        05/01/2026  15:28:45  PAGE 11


012AE2H   012AE3H   000002H   BYTE   UNIT     XDATA          ?XD?IMU660RA_WRITE_REGISTER?ZF_DEVICE_IMU660RA
012AE4H   012AE5H   000002H   BYTE   UNIT     XDATA          ?XD?IMU660RB_WRITE_REGISTER?ZF_DEVICE_IMU660RB
012AE6H   012AE7H   000002H   BYTE   UNIT     XDATA          ?XD?IMU660RB_READ_REGISTER?ZF_DEVICE_IMU660RB
012AE8H   012AE9H   000002H   BYTE   UNIT     XDATA          ?XD?IMU963RA_WRITE_ACC_GYRO_REGISTER?ZF_DEVICE_IMU963RA
012AEAH   012AEBH   000002H   BYTE   UNIT     XDATA          ?XD?IMU963RA_READ_ACC_GYRO_REGISTER?ZF_DEVICE_IMU963RA
012AECH   012AEDH   000002H   BYTE   UNIT     XDATA          ?XD?IMU963RA_CONNECT_MAG?ZF_DEVICE_IMU963RA
012AEEH   012AEFH   000002H   BYTE   UNIT     XDATA          ?XD?USB_READ_REG??USB
012AF0H   012AF1H   000002H   BYTE   UNIT     XDATA          ?XD?USB_WRITE_REG??USB
012AF2H   012AF3H   000002H   BYTE   UNIT     XDATA          ?XD?USB_CTRL_IN??USB
012AF4H   012AF5H   000002H   BYTE   UNIT     XDATA          ?XD?USB_CTRL_OUT??USB
012AF6H   012AF7H   000002H   BYTE   UNIT     XDATA          ?XD?SEEKFREE_ASSISTANT_INTERFACE_INIT??SEEKFREE_ASSISTANT_
                                                             -INTERFACE
012AF8H   012AF9H   000002H   BYTE   UNIT     XDATA          ?XD?MOTOR_R??MOTOR
012AFAH   012AFBH   000002H   BYTE   UNIT     XDATA          ?XD?MOTOR_L??MOTOR
012AFCH   012AFCH   000001H   BYTE   UNIT     XDATA          ?XD?PUTCHAR??ZF_COMMON_DEBUG
012AFDH   012AFDH   000001H   BYTE   UNIT     XDATA          ?XD?IAP_SET_TPS??ZF_DRIVER_EEPROM
012AFEH   012AFEH   000001H   BYTE   UNIT     XDATA          ?XD?USB_CDC_WRITE_BYTE??ZF_DRIVER_USB_CDC
012AFFH   012AFFH   000001H   BYTE   UNIT     XDATA          ?XD?IPS114_WRITE_INDEX?ZF_DEVICE_IPS114
012B00H   012B00H   000001H   BYTE   UNIT     XDATA          ?XD?TFT180_WRITE_INDEX?ZF_DEVICE_TFT180
012B01H   012B01H   000001H   BYTE   UNIT     XDATA          ?XD?IPS200_WRITE_INDEX?ZF_DEVICE_IPS200
012B02H   012B02H   000001H   BYTE   UNIT     XDATA          ?XD?BLE6A20_CALLBACK??ZF_DEVICE_BLE6A20
012B03H   012B03H   000001H   BYTE   UNIT     XDATA          ?XD?BLE6A20_INIT??ZF_DEVICE_BLE6A20
012B04H   012B04H   000001H   BYTE   UNIT     XDATA          ?XD?WIRELESS_UART_CALLBACK??ZF_DEVICE_WIRELESS_UART
012B05H   012B05H   000001H   BYTE   UNIT     XDATA          ?XD?WIRELESS_UART_INIT??ZF_DEVICE_WIRELESS_UART
012B06H   012B06H   000001H   BYTE   UNIT     XDATA          ?XD?IMU660RA_INIT??ZF_DEVICE_IMU660RA
012B07H   012B07H   000001H   BYTE   UNIT     XDATA          ?XD?IMU660RB_INIT??ZF_DEVICE_IMU660RB
012B08H   012B08H   000001H   BYTE   UNIT     XDATA          ?XD?IMU963RA_INIT??ZF_DEVICE_IMU963RA
012B09H   012B09H   000001H   BYTE   UNIT     XDATA          ?XD?USB_SETUP??USB
012B0AH   012B0AH   000001H   BYTE   UNIT     XDATA          ?XD?USB_IN_EP1??USB
012B0BH   012B0BH   000001H   BYTE   UNIT     XDATA          ?XD?USB_IN_EP2??USB
012B0CH   012B0CH   000001H   BYTE   UNIT     XDATA          ?XD?USB_GET_STATUS??USB_REQ_STD
012B0DH   012B0DH   000001H   BYTE   UNIT     XDATA          ?XD?USB_CLEAR_FEATURE??USB_REQ_STD
012B0EH   012B0EH   000001H   BYTE   UNIT     XDATA          ?XD?USB_SET_FEATURE??USB_REQ_STD
012B0FH   012B0FH   000001H   BYTE   UNIT     XDATA          ?XD?USB_SET_ADDRESS??USB_REQ_STD
012B10H   012B10H   000001H   BYTE   INSEG    XDATA          ?XD?ISR
012B11H   012B13H   000003H   ---    ---      **GAP**
012B14H   018334H   005821H   ALN 2  INSEG    HDATA          ?FD?ZF_DEVICE_MT9V03X_DMA
018335H   FC47FFH   FAC4CBH   ---    ---      **GAP**
FC4800H   FC71A3H   0029A4H   BYTE   INSEG    ECODE          ?PR?ZF_COMMON_FUNCTION
FC71A4H   FC9307H   002164H   BYTE   INSEG    ECODE          ?PR?ZF_DRIVER_SPI
FC9308H   FCB2D9H   001FD2H   BYTE   INSEG    ECODE          ?PR?ZF_DEVICE_IPS200PRO
FCB2DAH   FCCD6BH   001A92H   BYTE   INSEG    ECODE          ?PR?ZF_DRIVER_SOFT_IIC
FCCD6CH   FCE750H   0019E5H   BYTE   INSEG    ECODE          ?PR?ZF_DRIVER_UART
FCE751H   FCFE5EH   00170EH   BYTE   INSEG    ECODE          ?PR?ZF_DEVICE_IPS200
FCFE5FH   FCFFE5H   000187H   BYTE   INSEG    ECODE          ?PR?ZF_DRIVER_USB_CDC
FCFFE6H   FCFFFFH   00001AH   BYTE   INSEG    ECODE          ?PR?MEMSET_
FD0000H   FD18BDH   0018BEH   BYTE   INSEG    ECODE          ?PR?ZF_DEVICE_IPS114
FD18BEH   FD2F02H   001645H   BYTE   INSEG    ECODE          ?PR?ZF_DEVICE_TFT180
FD2F03H   FD43B1H   0014AFH   BYTE   INSEG    ECODE          ?PR?ZF_DRIVER_GPIO
FD43B2H   FD571CH   00136BH   BYTE   INSEG    ECODE          ?PR?ZF_DEVICE_DL1A
FD571DH   FD68FCH   0011E0H   BYTE   INSEG    ECODE          ?PR?ZF_DRIVER_ENCODER
FD68FDH   FD79C1H   0010C5H   BYTE   INSEG    ECODE          ?PR?ZF_DEVICE_WIFI_SPI
FD79C2H   FD89CEH   00100DH   BYTE   INSEG    ECODE          ?C?LIB_CODE?
FD89CFH   FD9945H   000F77H   BYTE   INSEG    ECODE          ?PR?ZF_COMMON_FIFO
FD9946H   FDA784H   000E3FH   BYTE   INSEG    ECODE          ?PR?ZF_DEVICE_MT9V03X_DMA
FDA785H   FDB470H   000CECH   BYTE   INSEG    ECODE          ?PR?SEEKFREE_ASSISTANT
FDB471H   FDBE9BH   000A2BH   BYTE   INSEG    ECODE          ?PR?ZF_DRIVER_PWM
FDBE9CH   FDC84DH   0009B2H   BYTE   INSEG    ECODE          ?PR?ISR
FDC84EH   FDD15FH   000912H   BYTE   INSEG    ECODE          ?PR?ADC
FDD160H   FDD93EH   0007DFH   BYTE   INSEG    ECODE          ?PR?ZF_DEVICE_IMU963RA
FDD93FH   FDE09BH   00075DH   BYTE   INSEG    ECODE          ?PR?ZF_DRIVER_PIT
FDE09CH   FDE7EFH   000754H   BYTE   INSEG    ECODE          ?PR?USB_REQ_STD
FDE7F0H   FDEE5AH   00066BH   BYTE   INSEG    ECODE          ?PR?PID
FDEE5BH   FDF3BEH   000564H   BYTE   INSEG    ECODE          ?PR?USB
FDF3BFH   FDF8B3H   0004F5H   BYTE   INSEG    ECODE          ?PR?ZF_DEVICE_IMU660RA
L251 LINKER/LOCATER V4.66.93.0                                                        05/01/2026  15:28:45  PAGE 12


FDF8B4H   FDFD4EH   00049BH   BYTE   INSEG    ECODE          ?PR?LOGIC
FDFD4FH   FDFFACH   00025EH   BYTE   INSEG    ECODE          ?PR?ZF_COMMON_DEBUG
FDFFADH   FDFFE3H   000037H   BYTE   INSEG    ECODE          ?PR?STRNCMP_
FDFFE4H   FDFFF1H   00000EH   BYTE   INSEG    ECODE          ?PR?STRLEN_
FDFFF2H   FDFFF6H   000005H   BYTE   INSEG    ECODE          ?PR?USB_REQ_VENDOR
FDFFF7H   FDFFFAH   000004H   BYTE   INSEG    HCONST         ?HC?PRINTF
FDFFFBH   FDFFFFH   000005H   ---    ---      **GAP**
FE0000H   FE0469H   00046AH   BYTE   INSEG    ECODE          ?PR?ZF_DEVICE_IMU660RB
FE046AH   FE08B3H   00044AH   BYTE   INSEG    ECODE          ?PR?ZF_COMMON_INTERRUPT
FE08B4H   FE0CD5H   000422H   BYTE   INSEG    ECODE          ?PR?ZF_DEVICE_DL1B
FE0CD6H   FE10EDH   000418H   BYTE   INSEG    ECODE          ?PR?AOI_FUNCTION
FE10EEH   FE1457H   00036AH   BYTE   INSEG    ECODE          ?PR?ZF_DRIVER_EEPROM
FE1458H   FE179AH   000343H   BYTE   INSEG    ECODE          ?PR?ZF_DEVICE_BLE6A20
FE179BH   FE1ABFH   000325H   BYTE   INSEG    ECODE          ?PR?ZF_DEVICE_WIRELESS_UART
FE1AC0H   FE1DB7H   0002F8H   BYTE   INSEG    ECODE          ?PR?ZF_DRIVER_ADC
FE1DB8H   FE2007H   000250H   BYTE   INSEG    ECODE          ?PR?MOTOR
FE2008H   FE21E5H   0001DEH   BYTE   INSEG    ECODE          ?PR?MAIN
FE21E6H   FE23B5H   0001D0H   BYTE   INSEG    ECODE          ?PR?TFT
FE23B6H   FE2578H   0001C3H   BYTE   INSEG    ECODE          ?PR?PD_ENC_SDI
FE2579H   FE2735H   0001BDH   BYTE   INSEG    ECODE          ?PR?ZF_COMMON_CLOCK
FE2736H   FE28F2H   0001BDH   BYTE   INSEG    ECODE          ?PR?ZF_DEVICE_MT9V03X
FE28F3H   FE2A72H   000180H   BYTE   INSEG    ECODE          ?PR?IMU
FE2A73H   FE2BE2H   000170H   BYTE   INSEG    ECODE          ?PR?ZF_DEVICE_TYPE
FE2BE3H   FE2D27H   000145H   BYTE   INSEG    ECODE          ?PR?ZF_DRIVER_DELAY
FE2D28H   FE2E61H   00013AH   BYTE   INSEG    ECODE          ?PR?KEY
FE2E62H   FE2F6AH   000109H   BYTE   INSEG    ECODE          ?PR?WIFI
FE2F6BH   FE3038H   0000CEH   BYTE   INSEG    ECODE          ?PR?USB_REQ_CLASS
FE3039H   FE30DEH   0000A6H   BYTE   INSEG    ECODE          ?PR?UTIL
FE30DFH   FE315FH   000081H   BYTE   INSEG    ECODE          ?PR?ZF_DRIVER_TIMER
FE3160H   FE31D9H   00007AH   BYTE   INSEG    ECODE          ?PR?ZF_DRIVER_EXTI
FE31DAH   FE3238H   00005FH   BYTE   INSEG    ECODE          ?PR?SEEKFREE_ASSISTANT_INTERFACE
FE3239H   FE325DH   000025H   BYTE   INSEG    ECODE          ?PR?MEMCPY_
FE325EH   FE52E8H   00208BH   BYTE   UNIT     HCONST         ?HC?ZF_DEVICE_CONFIG
FE52E9H   FE5EBBH   000BD3H   BYTE   UNIT     HCONST         ?C_INITHDATA
FE5EBCH   FE60BBH   000200H   BYTE   UNIT     HCONST         ?HC?ZF_DRIVER_EEPROM
FE60BCH   FE6295H   0001DAH   BYTE   UNIT     HCONST         ?HC?ZF_DRIVER_PWM
FE6296H   FE63E7H   000152H   BYTE   UNIT     HCONST         ?HC?ZF_DRIVER_SPI
FE63E8H   FE64B7H   0000D0H   BYTE   UNIT     HCONST         ?HC?ZF_DEVICE_IMU963RA
FE64B8H   FE656CH   0000B5H   BYTE   UNIT     HCONST         ?HC?WIFI
FE656DH   FE6610H   0000A4H   BYTE   UNIT     HCONST         ?HC?SEEKFREE_ASSISTANT
FE6611H   FE6697H   000087H   BYTE   UNIT     HCONST         ?HC?ZF_DEVICE_IMU660RA
FE6698H   FE670FH   000078H   BYTE   UNIT     HCONST         ?HC?ZF_DEVICE_WIFI_SPI
FE6710H   FE6786H   000077H   BYTE   UNIT     HCONST         ?HC?ZF_DEVICE_DL1A
FE6787H   FE67F9H   000073H   BYTE   UNIT     HCONST         ?HC?ZF_DRIVER_UART
FE67FAH   FE6850H   000057H   BYTE   UNIT     HCONST         ?HC?ZF_COMMON_FUNCTION
FE6851H   FE68A6H   000056H   BYTE   UNIT     HCONST         ?HC?ADC
FE68A7H   FE68EBH   000045H   BYTE   UNIT     HCONST         ?HC?MAIN
FE68ECH   FE691FH   000034H   BYTE   UNIT     HCONST         ?HC?ZF_DEVICE_WIRELESS_UART
FE6920H   FE6952H   000033H   BYTE   UNIT     HCONST         ?HC?ZF_DEVICE_IPS114
FE6953H   FE6985H   000033H   BYTE   UNIT     HCONST         ?HC?ZF_DEVICE_TFT180
FE6986H   FE69B8H   000033H   BYTE   UNIT     HCONST         ?HC?ZF_DEVICE_IPS200
FE69B9H   FE69E9H   000031H   BYTE   UNIT     HCONST         ?HC?TFT
FE69EAH   FE6A18H   00002FH   BYTE   UNIT     HCONST         ?HC?ZF_DRIVER_SOFT_IIC
FE6A19H   FE6A46H   00002EH   BYTE   UNIT     HCONST         ?HC?ZF_DRIVER_ENCODER
FE6A47H   FE6A74H   00002EH   BYTE   UNIT     HCONST         ?HC?ZF_DEVICE_BLE6A20
FE6A75H   FE6AA1H   00002DH   BYTE   UNIT     HCONST         ?HC?ZF_COMMON_DEBUG
FE6AA2H   FE6ACCH   00002BH   BYTE   UNIT     HCONST         ?HC?ZF_COMMON_FIFO
FE6ACDH   FE6AF7H   00002BH   BYTE   UNIT     HCONST         ?HC?ZF_DRIVER_GPIO
FE6AF8H   FE6B21H   00002AH   BYTE   UNIT     HCONST         ?HC?ZF_DRIVER_ADC
FE6B22H   FE6B4BH   00002AH   BYTE   UNIT     HCONST         ?HC?ZF_DRIVER_PIT
FE6B4CH   FE6B75H   00002AH   BYTE   UNIT     HCONST         ?HC?ZF_DEVICE_MT9V03X_DMA
FE6B76H   FE6B9DH   000028H   BYTE   UNIT     HCONST         ?HC?ZF_DEVICE_MT9V03X
FE6B9EH   FE6BB8H   00001BH   BYTE   UNIT     HCONST         ?HC?ZF_DEVICE_IMU660RB
FE6BB9H   FEFFFFH   009447H   ---    ---      **GAP**
FF0000H   FF0002H   000003H   ---    OFFS..   CODE           ?CO?START251?4
L251 LINKER/LOCATER V4.66.93.0                                                        05/01/2026  15:28:45  PAGE 13


FF0003H   FF000AH   000008H   ---    ---      **GAP**
FF000BH   FF000EH   000004H   ---    OFFS..   CODE           ?PR?IV?1
FF000FH   FF0012H   000004H   ---    ---      **GAP**
FF0013H   FF0016H   000004H   ---    OFFS..   CODE           ?PR?IV?2
FF0017H   FF001AH   000004H   ---    ---      **GAP**
FF001BH   FF001EH   000004H   ---    OFFS..   CODE           ?PR?IV?3
FF001FH   FF0062H   000044H   ---    ---      **GAP**
FF0063H   FF0066H   000004H   ---    OFFS..   CODE           ?PR?IV?12
FF0067H   FF009AH   000034H   ---    ---      **GAP**
FF009BH   FF009EH   000004H   ---    OFFS..   CODE           ?PR?IV?19
FF009FH   FF00A2H   000004H   ---    ---      **GAP**
FF00A3H   FF00A6H   000004H   ---    OFFS..   CODE           ?PR?IV?20
FF00A7H   FF00CAH   000024H   ---    ---      **GAP**
FF00CBH   FF00CEH   000004H   ---    OFFS..   CODE           ?PR?IV?25
FF00CFH   FF0186H   0000B8H   BYTE   UNIT     CODE           ?CO?DL1A_INIT??ZF_DEVICE_DL1A
FF0187H   FF019AH   000014H   ---    ---      **GAP**
FF019BH   FF019EH   000004H   ---    OFFS..   CODE           ?PR?IV?51
FF019FH   FF01AAH   00000CH   ---    ---      **GAP**
FF01ABH   FF01AEH   000004H   ---    OFFS..   CODE           ?PR?IV?53
FF01AFH   FF01BAH   00000CH   ---    ---      **GAP**
FF01BBH   FF01BEH   000004H   ---    OFFS..   CODE           ?PR?IV?55
FF01BFH   FF01CAH   00000CH   ---    ---      **GAP**
FF01CBH   FF01CEH   000004H   ---    OFFS..   CODE           ?PR?IV?57
FF01CFH   FF01D2H   000004H   ---    ---      **GAP**
FF01D3H   FF01D6H   000004H   ---    OFFS..   CODE           ?PR?IV?58
FF01D7H   FF021AH   000044H   ---    ---      **GAP**
FF021BH   FF021EH   000004H   ---    OFFS..   CODE           ?PR?IV?67
FF021FH   FF023FH   000021H   BYTE   UNIT     CODE           ?C_C51STARTUP
FF0240H   FF0270H   000031H   BYTE   UNIT     CODE           ?C_C51STARTUP?2
FF0271H   FF0274H   000004H   BYTE   UNIT     CODE           ?C_C51STARTUP?3
FF0275H   FF029AH   000026H   ---    ---      **GAP**
FF029BH   FF029EH   000004H   ---    OFFS..   CODE           ?PR?IV?83
FF029FH   FF02AAH   00000CH   ---    ---      **GAP**
FF02ABH   FF02AEH   000004H   ---    OFFS..   CODE           ?PR?IV?85
FF02AFH   FF02BAH   00000CH   ---    ---      **GAP**
FF02BBH   FF02BEH   000004H   ---    OFFS..   CODE           ?PR?IV?87
FF02BFH   FF02CAH   00000CH   ---    ---      **GAP**
FF02CBH   FF02CEH   000004H   ---    OFFS..   CODE           ?PR?IV?89
FF02CFH   FF0302H   000034H   ---    ---      **GAP**
FF0303H   FF0306H   000004H   ---    OFFS..   CODE           ?PR?IV?96
FF0307H   FF030AH   000004H   ---    ---      **GAP**
FF030BH   FF030EH   000004H   ---    OFFS..   CODE           ?PR?IV?97
FF030FH   FF0312H   000004H   ---    ---      **GAP**
FF0313H   FF0316H   000004H   ---    OFFS..   CODE           ?PR?IV?98
FF0317H   FF031AH   000004H   ---    ---      **GAP**
FF031BH   FF031EH   000004H   ---    OFFS..   CODE           ?PR?IV?99
FF031FH   FF090EH   0005F0H   BYTE   UNIT     CODE           ?CO?ZF_COMMON_FONT
FF090FH   FF0991H   000083H   BYTE   UNIT     CODE           ?CO?USB_DESC



PUBLIC SYMBOLS OF MODULE:  .\out_file\SEEKFREE (?C_START?)


      VALUE       CLASS    TYPE      PUBLIC SYMBOL NAME
      =================================================
      00011F4AH   XDATA    BYTE      ?Adc_Normalize??BYTE
      00FD89A6H   ECODE    ---       ?C?BMOVEPP8?
      00FD89A8H   ECODE    ---       ?C?BMOVEPP?
      00FD7D43H   ECODE    FAR LAB   ?C?CASTD?
      00FD8894H   ECODE    FAR LAB   ?C?CASTF?
      000000FFH   NUMBER   ---       ?C?CODESEG
      00FD7D00H   ECODE    FAR LAB   ?C?DCASTC?
      00FD7DA3H   ECODE    FAR LAB   ?C?DCASTF?
      00FD7CFBH   ECODE    FAR LAB   ?C?DCASTI?
L251 LINKER/LOCATER V4.66.93.0                                                        05/01/2026  15:28:45  PAGE 14


      00FD7CF6H   ECODE    FAR LAB   ?C?DCASTL?
      00FD79C9H   ECODE    ---       ?C?DPADD?
      00FD7C87H   ECODE    ---       ?C?DPCMP3?
      00FD7C89H   ECODE    ---       ?C?DPCMP?
      00FD8346H   ECODE    ---       ?C?DPCONVERT?
      00FD7BE8H   ECODE    ---       ?C?DPDIV?
      00FD7E78H   ECODE    ---       ?C?DPGETOPN2?
      00FD7AD8H   ECODE    ---       ?C?DPMUL?
      00FD7EC3H   ECODE    ---       ?C?DPNANRESULT?
      00FD7CE8H   ECODE    ---       ?C?DPNEG?
      00FD7ECFH   ECODE    ---       ?C?DPOVERFLOW?
      00FD7EB4H   ECODE    ---       ?C?DPRESULT2?
      00FD7E9BH   ECODE    ---       ?C?DPRESULT?
      00FD846FH   ECODE    ---       ?C?DPROUND?
      00FD79C5H   ECODE    ---       ?C?DPSUB?
      00FD7ECAH   ECODE    ---       ?C?DPUNDERFLOW?
      00FD854AH   ECODE    ---       ?C?DTNPWR?
      00FD8861H   ECODE    FAR LAB   ?C?FCASTC?
      00FD7DE5H   ECODE    FAR LAB   ?C?FCASTD?
      00FD885CH   ECODE    FAR LAB   ?C?FCASTI?
      00FD8857H   ECODE    FAR LAB   ?C?FCASTL?
      00FD862AH   ECODE    ---       ?C?FPADD?
      00FD8803H   ECODE    ---       ?C?FPCMP3?
      00FD8805H   ECODE    ---       ?C?FPCMP?
      00FD8782H   ECODE    ---       ?C?FPDIV?
      00FD85D3H   ECODE    ---       ?C?FPGETOPN2?
      00FD86E2H   ECODE    ---       ?C?FPMUL?
      00FD8610H   ECODE    ---       ?C?FPNANRESULT?
      00FD8849H   ECODE    ---       ?C?FPNEG?
      00FD8618H   ECODE    ---       ?C?FPOVERFLOW?
      00FD8602H   ECODE    ---       ?C?FPRESULT2?
      00FD85ECH   ECODE    ---       ?C?FPRESULT?
      00FD8627H   ECODE    ---       ?C?FPSUB?
      00FD8615H   ECODE    ---       ?C?FPUNDERFLOW?
      00FF0240H   CODE     ---       ?C?INITHDATA
      00FE5EBAH   HCONST   WORD      ?C?INITHDATA_END
      00FD8914H   ECODE    ---       ?C?LIMUL?
      00FD8903H   ECODE    ---       ?C?LMUL?
      00FD7F0AH   ECODE    ---       ?C?PRNFMT?
      00FD88D1H   ECODE    ---       ?C?SIDIV?
      00FD8970H   ECODE    FAR LAB   ?C?SLDIV?
      00FF0000H   CODE     ---       ?C?STARTUP?
      00FD891FH   ECODE    FAR LAB   ?C?ULDIV?
      00FD891DH   ECODE    FAR LAB   ?C?ULIDIV?
      00000001H   NUMBER   ---       ?C?XDATASEG
      00FF0000H   CODE     ---       ?C_STARTUP?
      000122EEH   XDATA    BYTE      ?fifo_init??BYTE
      00011FAFH   XDATA    BYTE      ?fifo_read_buffer??BYTE
      00012144H   XDATA    BYTE      ?fifo_write_buffer??BYTE
      00011845H   XDATA    BYTE      ?func_double_to_str??BYTE
      000125E7H   XDATA    BYTE      ?iap_read_buff??BYTE
      000125F1H   XDATA    BYTE      ?iap_write_buff??BYTE
      00011F7DH   XDATA    BYTE      ?ips114_show_chinese??BYTE
      0001192BH   XDATA    BYTE      ?ips114_show_float??BYTE
      000108FDH   XDATA    BYTE      ?ips114_show_gray_image??BYTE
      00011D8DH   XDATA    BYTE      ?ips114_show_wave??BYTE
      00011F96H   XDATA    BYTE      ?ips200_show_chinese??BYTE
      00011993H   XDATA    BYTE      ?ips200_show_float??BYTE
      00010452H   XDATA    BYTE      ?ips200_show_gray_image??BYTE
      00011DCDH   XDATA    BYTE      ?ips200_show_wave??BYTE
      00011EFBH   XDATA    BYTE      ?ips200pro_create_widgets??BYTE
      00011B86H   XDATA    BYTE      ?ips200pro_image_display??BYTE
      00011F30H   XDATA    BYTE      ?ips200pro_image_draw_line??BYTE
      00011D4AH   XDATA    BYTE      ?ips200pro_image_draw_rectangle??BYTE
      000117F2H   XDATA    BYTE      ?ips200pro_label_printf??BYTE
L251 LINKER/LOCATER V4.66.93.0                                                        05/01/2026  15:28:45  PAGE 15


      000123E6H   XDATA    BYTE      ?ips200pro_receive_buffer??BYTE
      00012388H   XDATA    BYTE      ?ips200pro_send_buffer??BYTE
      0001176AH   XDATA    BYTE      ?ips200pro_table_cell_printf??BYTE
      00011F16H   XDATA    BYTE      ?ips200pro_waveform_add_value??BYTE
      00011DEDH   XDATA    BYTE      ?ips200pro_write_packet??BYTE
      000125A5H   XDATA    BYTE      ?mt9v03x_dma_init??BYTE
      00012268H   XDATA    BYTE      ?pit_init??BYTE
      00011BD6H   XDATA    ---       ?printf??BYTE
      00012156H   XDATA    BYTE      ?pwm_init??BYTE
      00012046H   XDATA    BYTE      ?pwm_set_freq??BYTE
      00011FC7H   XDATA    BYTE      ?range_protect??BYTE
      00011E2BH   XDATA    BYTE      ?seekfree_assistant_camera_boundary_config??BYTE
      000122D1H   XDATA    BYTE      ?seekfree_assistant_camera_data_send??BYTE
      00012691H   XDATA    BYTE      ?seekfree_assistant_camera_information_config??BYTE
      0001237AH   XDATA    BYTE      ?set_camera_type??BYTE
      000123D9H   XDATA    BYTE      ?soft_iic_init??BYTE
      00012465H   XDATA    BYTE      ?soft_iic_read_16bit_array??BYTE
      00012326H   XDATA    BYTE      ?soft_iic_read_16bit_registers??BYTE
      00012459H   XDATA    BYTE      ?soft_iic_read_8bit_array??BYTE
      000123CCH   XDATA    BYTE      ?soft_iic_read_8bit_registers??BYTE
      0001206EH   XDATA    BYTE      ?soft_iic_transfer_16bit_array??BYTE
      0001205AH   XDATA    BYTE      ?soft_iic_transfer_8bit_array??BYTE
      0001244DH   XDATA    BYTE      ?soft_iic_write_16bit_array??BYTE
      00012318H   XDATA    BYTE      ?soft_iic_write_16bit_registers??BYTE
      00012441H   XDATA    BYTE      ?soft_iic_write_8bit_array??BYTE
      000123BFH   XDATA    BYTE      ?soft_iic_write_8bit_registers??BYTE
      00012082H   XDATA    BYTE      ?spi_dma_init??BYTE
      000125FBH   XDATA    BYTE      ?spi_dma_read??BYTE
      00012623H   XDATA    BYTE      ?spi_dma_read_16bit_array??BYTE
      0001247DH   XDATA    BYTE      ?spi_dma_read_16bit_registers??BYTE
      00012619H   XDATA    BYTE      ?spi_dma_read_8bit_array??BYTE
      00012584H   XDATA    BYTE      ?spi_dma_read_8bit_registers??BYTE
      00011579H   XDATA    BYTE      ?spi_dma_transfer??BYTE
      00012342H   XDATA    BYTE      ?spi_dma_transfer_16bit??BYTE
      00012334H   XDATA    BYTE      ?spi_dma_transfer_8bit??BYTE
      00011618H   XDATA    BYTE      ?spi_dma_write??BYTE
      0001260FH   XDATA    BYTE      ?spi_dma_write_16bit_array??BYTE
      00012471H   XDATA    BYTE      ?spi_dma_write_16bit_registers??BYTE
      00012605H   XDATA    BYTE      ?spi_dma_write_8bit_array??BYTE
      00012579H   XDATA    BYTE      ?spi_dma_write_8bit_registers??BYTE
      00012096H   XDATA    BYTE      ?spi_init??BYTE
      0001264BH   XDATA    BYTE      ?spi_read_16bit_array??BYTE
      00012495H   XDATA    BYTE      ?spi_read_16bit_registers??BYTE
      00012641H   XDATA    BYTE      ?spi_read_8bit_array??BYTE
      0001259AH   XDATA    BYTE      ?spi_read_8bit_registers??BYTE
      0001235EH   XDATA    BYTE      ?spi_transfer_16bit??BYTE
      00012350H   XDATA    BYTE      ?spi_transfer_8bit??BYTE
      00012637H   XDATA    BYTE      ?spi_write_16bit_array??BYTE
      00012489H   XDATA    BYTE      ?spi_write_16bit_registers??BYTE
      0001262DH   XDATA    BYTE      ?spi_write_8bit_array??BYTE
      0001258FH   XDATA    BYTE      ?spi_write_8bit_registers??BYTE
      00011BFEH   XDATA    ---       ?sprintf??BYTE
      0001195FH   XDATA    BYTE      ?tft180_show_float??BYTE
      00011C49H   XDATA    BYTE      ?tft180_show_gray_image??BYTE
      00011DADH   XDATA    BYTE      ?tft180_show_wave??BYTE
      000120D2H   XDATA    BYTE      ?uart_init??BYTE
      0001236CH   XDATA    BYTE      ?uart_tim_init??BYTE
      00011526H   XDATA    BYTE      ?vsnprintf??BYTE
      00011881H   XDATA    BYTE      ?wifi_spi_socket_connect??BYTE
      0001143DH   XDATA    BYTE      ?zf_sprintf??BYTE
      00FE2036H   ECODE    ---       _m?
      00011D7CH   XDATA    FLOAT     A_Deviation
      00FE0CD6H   ECODE    ---       abs_int32?
*SFR* 000000D0H.6 DATA     BIT       AC
*SFR* 000000E0H   DATA     BYTE      ACC
L251 LINKER/LOCATER V4.66.93.0                                                        05/01/2026  15:28:45  PAGE 16


*SFR* 000000BCH   DATA     BYTE      ADC_CONTR
      00FE1B53H   ECODE    ---       adc_convert?
      00FE1CB2H   ECODE    ---       adc_init?
      00FE1AC0H   ECODE    ---       adc_mean_filter_convert?
      00FDCAB0H   ECODE    ---       adc_mid_sample?
      00FDF9A1H   ECODE    ---       Adc_Normalize?
      00FDCBCEH   ECODE    ---       adc_normalizing?
*SFR* 000000BDH   DATA     BYTE      ADC_RES
*SFR* 000000BEH   DATA     BYTE      ADC_RESL
      00FDC87FH   ECODE    ---       adc_sample?
      00FDCA4EH   ECODE    ---       adc_sample_a?
      00FDC966H   ECODE    ---       adc_sample_b?
      0001170AH   XDATA    ---       ADC_temp
      00FDCD27H   ECODE    ---       adc_v_sample?
      00FDCDFAH   ECODE    ---       adc_v_sample_2?
      00FDCEBDH   ECODE    ---       adc_v_sample_3?
      00FDCF90H   ECODE    ---       adc_v_sample_4?
*SFR* 000000DEH   DATA     BYTE      ADCCFG
      00FE29FDH   ECODE    ---       angle_clear?
      00FE29BBH   ECODE    ---       angle_get?
      00011D6CH   XDATA    FLOAT     angle_L_t
      00011E5EH   XDATA    FLOAT     angle_ringR
      00FF031FH   CODE     ---       ascii_font_8x16
*SFR* 000000EFH   DATA     BYTE      AUXINTIF
*SFR* 0000008EH   DATA     BYTE      AUXR
*SFR* 00000097H   DATA     BYTE      AUXR2
      00011E5AH   XDATA    FLOAT     avl_gyro_z
*SFR* 000000F0H   DATA     BYTE      B
      00011D80H   XDATA    FLOAT     B_Deviation
      00FE16DEH   ECODE    ---       ble6a20_callback?
      00FE1705H   ECODE    ---       ble6a20_init?
      00FE1658H   ECODE    ---       ble6a20_read_buffer?
      00FE14D6H   ECODE    ---       ble6a20_send_buffer?
      00FE1458H   ECODE    ---       ble6a20_send_byte?
      00FE15F8H   ECODE    ---       ble6a20_send_string?
      00011D84H   XDATA    FLOAT     C_Deviation
*SFR* 000000C8H.1 DATA     BIT       C_T2
      00011E75H   XDATA    ---       camera_dma_handler
      00011E69H   XDATA    INT       camera_type
      00011E7DH   XDATA    ---       camera_uart_handler
      00011E79H   XDATA    ---       camera_vsync_handler
*SFR* 000000FAH   DATA     BYTE      CCAP0H
*SFR* 000000EAH   DATA     BYTE      CCAP0L
*SFR* 000000FBH   DATA     BYTE      CCAP1H
*SFR* 000000EBH   DATA     BYTE      CCAP1L
*SFR* 000000FCH   DATA     BYTE      CCAP2H
*SFR* 000000ECH   DATA     BYTE      CCAP2L
*SFR* 000000FDH   DATA     BYTE      CCAP3H
*SFR* 000000EDH   DATA     BYTE      CCAP3L
*SFR* 000000FEH   DATA     BYTE      CCAP4H
*SFR* 000000EEH   DATA     BYTE      CCAP4L
*SFR* 000000DAH   DATA     BYTE      CCAPM0
*SFR* 000000DBH   DATA     BYTE      CCAPM1
*SFR* 000000DCH   DATA     BYTE      CCAPM2
*SFR* 000000DDH   DATA     BYTE      CCAPM3
*SFR* 000000DEH   DATA     BYTE      CCAPM4
*SFR* 000000D8H.0 DATA     BIT       CCF0
*SFR* 000000D8H.1 DATA     BIT       CCF1
*SFR* 000000D8H.2 DATA     BIT       CCF2
*SFR* 000000D8H.3 DATA     BIT       CCF3
*SFR* 000000D8H.4 DATA     BIT       CCF4
*SFR* 000000D8H   DATA     BYTE      CCON
*SFR* 00000090H.3 DATA     BIT       CEX0
*SFR* 00000090H.4 DATA     BIT       CEX1
*SFR* 00000090H.5 DATA     BIT       CEX2
L251 LINKER/LOCATER V4.66.93.0                                                        05/01/2026  15:28:45  PAGE 17


*SFR* 00000090H.6 DATA     BIT       CEX3
*SFR* 00000090H.7 DATA     BIT       CEX4
*SFR* 000000D8H.7 DATA     BIT       CF
*SFR* 000000F9H   DATA     BYTE      CH
      00011709H   XDATA    BYTE      channel_index
      0001171AH   XDATA    ---       channel_list
*SFR* 000000EAH   DATA     BYTE      CKCON
*SFR* 000000E9H   DATA     BYTE      CL
      00FE2579H   ECODE    ---       clock_init?
*SFR* 000000D9H   DATA     BYTE      CMOD
*SFR* 000000E6H   DATA     BYTE      CMPCR1
*SFR* 000000E7H   DATA     BYTE      CMPCR2
      00FE0D19H   ECODE    ---       compare_swap?
      00FF0943H   CODE     ---       CONFIGDESC
      000113A7H   XDATA    FLOAT     correct_L
*SFR* 000000C8H.0 DATA     BIT       CP_RL2
*SFR* 000000D8H.6 DATA     BIT       CR
*SFR* 000000D0H.7 DATA     BIT       CY
      00FDD063H   ECODE    ---       debug_adc?
      00FDFEDCH   ECODE    ---       debug_assert_handler?
      00FDFF6EH   ECODE    ---       debug_init?
      00FDFE01H   ECODE    ---       debug_interrupr_handler?
      00FDFDB2H   ECODE    ---       debug_read_buffer?
      00FDFD4FH   ECODE    ---       debug_send_buffer?
      000111E7H   XDATA    ---       debug_uart_buffer
      00011268H   XDATA    ---       debug_uart_fifo
      00011D78H   XDATA    FLOAT     deviation
      00FDFAA4H   ECODE    ---       deviation_calculation?
      00FF0931H   CODE     ---       DEVICEDESC
      00012194H   XDATA    BYTE      DeviceState
      000129C8H   XDATA    CHAR      dir
      00FDED3AH   ECODE    ---       direction_return?
      00011D42H   XDATA    LONG      distance_text
      00012423H   XDATA    WORD      dl1a_distance_mm
      00012425H   XDATA    BYTE      dl1a_finsh_flag
      00FD501CH   ECODE    ---       dl1a_get_distance?
      00FD50F5H   ECODE    ---       dl1a_init?
      00FD50F4H   ECODE    ---       dl1a_int_handler?
      00FE525EH   HCONST   ---       dl1b_config_file
      00012430H   XDATA    WORD      dl1b_distance_mm
      00012432H   XDATA    BYTE      dl1b_finsh_flag
      00FE08B4H   ECODE    ---       dl1b_get_distance?
      00FE0A9DH   ECODE    ---       dl1b_init?
      00FE0A9CH   ECODE    ---       dl1b_int_handler?
      00FDC821H   ECODE    ---       DMA_LCM_IRQHandler?
      00FE63C4H   HCONST   ---       DMA_SPIx_AMT_ADDR
      00FE6358H   HCONST   ---       DMA_SPIx_AMTH_ADDR
      00FE63B8H   HCONST   ---       DMA_SPIx_CFG_ADDR
      00FE62C0H   HCONST   ---       DMA_SPIx_CR_ADDR
      00FE6394H   HCONST   ---       DMA_SPIx_ITVH_ADDR
      00FE63A0H   HCONST   ---       DMA_SPIx_ITVL_ADDR
      00FE6364H   HCONST   ---       DMA_SPIx_RXAH_ADDR
      00FE637CH   HCONST   ---       DMA_SPIx_RXAL_ADDR
      00FE63D0H   HCONST   ---       DMA_SPIx_STA_ADDR
      00FE6370H   HCONST   ---       DMA_SPIx_TXAH_ADDR
      00FE6388H   HCONST   ---       DMA_SPIx_TXAL_ADDR
      00FDBE9CH   ECODE    ---       DMA_UART1_IRQHandler?
      00FDBF54H   ECODE    ---       DMA_UART2_IRQHandler?
      00FDBFEBH   ECODE    ---       DMA_UART3_IRQHandler?
      00FDC082H   ECODE    ---       DMA_UART4_IRQHandler?
      00FDC119H   ECODE    ---       DMA_UART5_IRQHandler?
      00FDC1B0H   ECODE    ---       DMA_UART6_IRQHandler?
      00FDC247H   ECODE    ---       DMA_UART7_IRQHandler?
      00FDC2DEH   ECODE    ---       DMA_UART8_IRQHandler?
*SFR* 00000083H   DATA     BYTE      DPH
L251 LINKER/LOCATER V4.66.93.0                                                        05/01/2026  15:28:45  PAGE 18


*SFR* 00000082H   DATA     BYTE      DPL
*SFR* 00000084H   DATA     BYTE      DPXL
      000129C9H   XDATA    INT       duty
*SFR* 000000A8H.7 DATA     BIT       EA
*SFR* 000000BAH.7 DATA     BIT       EAXFR
*SFR* 000000A8H.6 DATA     BIT       EC
*SFR* 00000090H.2 DATA     BIT       ECI
      00FE10EEH   ECODE    ---       eeprom_trig?
      00FDF8B4H   ECODE    ---       Electromagnetic_Logic?
      00FE23B6H   ECODE    ---       ENC_Init?
      00FD5AFCH   ECODE    ---       encoder_clear_count?
      00FD6889H   ECODE    ---       encoder_dir_init?
      00FD571DH   ECODE    ---       encoder_get_count?
      00FD6458H   ECODE    ---       encoder_quad_init?
      00FE23D5H   ECODE    ---       encoder_update?
      00012195H   XDATA    ---       Ep0State
      00011D70H   XDATA    FLOAT     err_position
      000113BBH   XDATA    INT       err_speed
*SFR* 000000A8H.4 DATA     BIT       ES
*SFR* 000000A8H.1 DATA     BIT       ET0
*SFR* 000000A8H.3 DATA     BIT       ET1
*SFR* 000000A8H.5 DATA     BIT       ET2
*SFR* 000000AFH.7 DATA     BIT       EUSB
*SFR* 000000A8H.0 DATA     BIT       EX0
*SFR* 000000A8H.2 DATA     BIT       EX1
*SFR* 000000C8H.3 DATA     BIT       EXEN2
*SFR* 000000C8H.6 DATA     BIT       EXF2
      00FE3160H   ECODE    ---       exit_init?
      000113AFH   XDATA    FLOAT     expect_gyro
      00FE133BH   ECODE    ---       extern_iap_write_buff?
*SFR* 000000D0H.5 DATA     BIT       F0
      00FD7E69H   ECODE    FAR LAB   fabs??
*SFR* 00000098H.7 DATA     BIT       FE
      00FD8B0FH   ECODE    ---       fifo_clear?
      00FD9862H   ECODE    ---       fifo_init?
      00FD92A5H   ECODE    ---       fifo_read_buffer?
      00FD8C99H   ECODE    ---       fifo_used?
      00FD8CF3H   ECODE    ---       fifo_write_buffer?
      00FC572FH   ECODE    ---       func_double_to_str?
      00FC5031H   ECODE    ---       func_float_to_str?
      00FC4800H   ECODE    ---       func_get_greatest_common_divisor?
      00FC5D1CH   ECODE    ---       func_hex_to_str?
      00FC4A11H   ECODE    ---       func_int_to_str?
      00FC48A6H   ECODE    ---       func_soft_delay?
      00FC53F8H   ECODE    ---       func_str_to_double?
      00FC4DAAH   ECODE    ---       func_str_to_float?
      00FC5B2EH   ECODE    ---       func_str_to_hex?
      00FC48CEH   ECODE    ---       func_str_to_int?
      00FC4BCAH   ECODE    ---       func_str_to_uint?
      00FC4C8CH   ECODE    ---       func_uint_to_str?
      000129C6H   XDATA    INT       fy_duty
      00FD3CC8H   ECODE    ---       gpio_get_level?
      00FD426BH   ECODE    ---       gpio_init?
      00FD34C3H   ECODE    ---       gpio_set_impedance?
      00FD3EC5H   ECODE    ---       gpio_set_level?
      00FD3B71H   ECODE    ---       gpio_set_level_speed?
      00FD4246H   ECODE    ---       gpio_toggle_level?
      00011E4EH   XDATA    ---       gyro_z
      00FE28F8H   ECODE    ---       gyroscope_get_gyro?
      00FE63ACH   HCONST   ---       HSSPIX_CFG2_ADDR
      00FE62CCH   HCONST   ---       HSSPIX_CFG_ADDR
*SFR* 000000F6H   DATA     BYTE      IAP_ADDRE
*SFR* 000000C3H   DATA     BYTE      IAP_ADDRH
*SFR* 000000C4H   DATA     BYTE      IAP_ADDRL
*SFR* 000000C5H   DATA     BYTE      IAP_CMD
L251 LINKER/LOCATER V4.66.93.0                                                        05/01/2026  15:28:45  PAGE 19


*SFR* 000000C7H   DATA     BYTE      IAP_CONTR
*SFR* 000000C2H   DATA     BYTE      IAP_DATA
      00FE12D4H   ECODE    ---       iap_erase_page?
      00FE1108H   ECODE    ---       iap_get_cmd_state?
      00FE1104H   ECODE    ---       iap_idle?
      00FE10FBH   ECODE    ---       iap_init?
      00FE11EBH   ECODE    ---       iap_read_buff?
      00FE1145H   ECODE    ---       iap_read_byte?
      00FE111AH   ECODE    ---       iap_set_tps?
*SFR* 000000F5H   DATA     BYTE      IAP_TPS
*SFR* 000000C6H   DATA     BYTE      IAP_TRIG
      00FE1261H   ECODE    ---       iap_write_buff?
      00FE1198H   ECODE    ---       iap_write_byte?
*SFR* 000000A8H   DATA     BYTE      IE
*SFR* 000000A8H   DATA     BYTE      IE0
*SFR* 00000088H.1 DATA     BIT       IE0_
*SFR* 000000B1H   DATA     BYTE      IE1
*SFR* 00000088H.3 DATA     BIT       IE1_
*SFR* 000000AFH   DATA     BYTE      IE2
      00FE52E5H   HCONST   ---       image_frame_header
      000120BEH   XDATA    INT       imu660ra_acc_x
      000120C0H   XDATA    INT       imu660ra_acc_y
      000120C2H   XDATA    INT       imu660ra_acc_z
      00FE325EH   HCONST   ---       imu660ra_config_file
      00FDF57FH   ECODE    ---       imu660ra_get_acc?
      00FDF5D9H   ECODE    ---       imu660ra_get_gyro?
      000120C4H   XDATA    INT       imu660ra_gyro_x
      000120C6H   XDATA    INT       imu660ra_gyro_y
      000120C8H   XDATA    INT       imu660ra_gyro_z
      00FDF633H   ECODE    ---       imu660ra_init?
      000120CAH   XDATA    ---       imu660ra_transition_factor
      00FE01A9H   ECODE    ---       imu660rb_acc_transition?
      0001256DH   XDATA    INT       imu660rb_acc_x
      0001256FH   XDATA    INT       imu660rb_acc_y
      00012571H   XDATA    INT       imu660rb_acc_z
      00FE00F5H   ECODE    ---       imu660rb_get_acc?
      00FE014FH   ECODE    ---       imu660rb_get_gyro?
      00FE0272H   ECODE    ---       imu660rb_gyro_transition?
      00012573H   XDATA    INT       imu660rb_gyro_x
      00012575H   XDATA    INT       imu660rb_gyro_y
      00012577H   XDATA    INT       imu660rb_gyro_z
      00FE0395H   ECODE    ---       imu660rb_init?
      00011E87H   XDATA    INT       imu963ra_acc_x
      00011E89H   XDATA    INT       imu963ra_acc_y
      00011E8BH   XDATA    INT       imu963ra_acc_z
      00FDD441H   ECODE    ---       imu963ra_get_acc?
      00FDD49BH   ECODE    ---       imu963ra_get_gyro?
      00FDD4F5H   ECODE    ---       imu963ra_get_mag?
      00011E93H   XDATA    INT       imu963ra_gyro_x
      00011E95H   XDATA    INT       imu963ra_gyro_y
      00011E97H   XDATA    INT       imu963ra_gyro_z
      00FDD56EH   ECODE    ---       imu963ra_init?
      00011E8DH   XDATA    INT       imu963ra_mag_x
      00011E8FH   XDATA    INT       imu963ra_mag_y
      00011E91H   XDATA    INT       imu963ra_mag_z
      00011E99H   XDATA    ---       imu963ra_transition_factor
      00FE28F3H   ECODE    ---       IMU_Init?
      0001219CH   XDATA    BYTE      InEpState
*SFR* 000000B0H.2 DATA     BIT       INT0
      00011821H   XDATA    ---       int0_irq_handler
*SFR* 000000B0H.3 DATA     BIT       INT1
      00011829H   XDATA    ---       int1_irq_handler
      00FDC7F4H   ECODE    ---       INT1_IRQHandler?
      00011831H   XDATA    ---       int2_irq_handler
      00011839H   XDATA    ---       int3_irq_handler
L251 LINKER/LOCATER V4.66.93.0                                                        05/01/2026  15:28:45  PAGE 20


      00011841H   XDATA    ---       int4_irq_handler
*SFR* 0000008FH   DATA     BYTE      INTCLKO
      00FE08ACH   ECODE    ---       interrupt_global_disable?
      00FE08B0H   ECODE    ---       interrupt_global_enable?
      00FE046AH   ECODE    ---       interrupt_set_priority?
*SFR* 000000B8H   DATA     BYTE      IP
*SFR* 000000B5H   DATA     BYTE      IP2
*SFR* 000000B6H   DATA     BYTE      IP2H
*SFR* 000000DFH   DATA     BYTE      IP3
*SFR* 000000EEH   DATA     BYTE      IP3H
*SFR* 000000B7H   DATA     BYTE      IPH
*SFR* 000000B7H   DATA     BYTE      IPH0
*SFR* 000000B8H   DATA     BYTE      IPL0
      000127F2H   XDATA    WORD      ips114_bgcolor
      00FD027CH   ECODE    ---       ips114_clear?
      000127F4H   XDATA    INT       ips114_display_dir
      00FD038BH   ECODE    ---       ips114_draw_point?
      00FD1527H   ECODE    ---       ips114_init?
      000127F0H   XDATA    WORD      ips114_pencolor
      00FD0366H   ECODE    ---       ips114_set_color?
      00FD032BH   ECODE    ---       ips114_set_dir?
      00FD0411H   ECODE    ---       ips114_show_char?
      00FD1323H   ECODE    ---       ips114_show_chinese?
      00FD0C15H   ECODE    ---       ips114_show_float?
      00FD1051H   ECODE    ---       ips114_show_gray_image?
      00FD081CH   ECODE    ---       ips114_show_int16?
      00FD0AB2H   ECODE    ---       ips114_show_int32?
      00FD05F7H   ECODE    ---       ips114_show_int8?
      00FD0530H   ECODE    ---       ips114_show_string?
      00FD0996H   ECODE    ---       ips114_show_uint16?
      00FD072EH   ECODE    ---       ips114_show_uint8?
      00FD0E37H   ECODE    ---       ips114_show_wave?
      000127F6H   XDATA    BYTE      ips114_x_max
      000127F7H   XDATA    BYTE      ips114_y_max
      00012675H   XDATA    WORD      ips200_bgcolor
      00FCE868H   ECODE    ---       ips200_clear?
      00012677H   XDATA    INT       ips200_display_dir
      00FCE94FH   ECODE    ---       ips200_draw_point?
      00FCFAEBH   ECODE    ---       ips200_init?
      00012673H   XDATA    WORD      ips200_pencolor
      00FCE92AH   ECODE    ---       ips200_set_color?
      00FCE917H   ECODE    ---       ips200_set_dir?
      00FCE9D5H   ECODE    ---       ips200_show_char?
      00FCF615H   ECODE    ---       ips200_show_chinese?
      00FCF1D9H   ECODE    ---       ips200_show_float?
      00FCF819H   ECODE    ---       ips200_show_gray_image?
      00FCEDE0H   ECODE    ---       ips200_show_int16?
      00FCF076H   ECODE    ---       ips200_show_int32?
      00FCEBBBH   ECODE    ---       ips200_show_int8?
      00FCEAF4H   ECODE    ---       ips200_show_string?
      00FCEF5AH   ECODE    ---       ips200_show_uint16?
      00FCECF2H   ECODE    ---       ips200_show_uint8?
      00FCF3FBH   ECODE    ---       ips200_show_wave?
      00012679H   XDATA    WORD      ips200_x_max
      0001267BH   XDATA    WORD      ips200_y_max
      00FCA90CH   ECODE    ---       ips200pro_calendar_create?
      00FCA960H   ECODE    ---       ips200pro_calendar_display?
      00FCA76FH   ECODE    ---       ips200pro_clock_create?
      00FCB0ABH   ECODE    ---       ips200pro_container_create?
      00FCB141H   ECODE    ---       ips200pro_container_radius?
      00FC9CBCH   ECODE    ---       ips200pro_create_widgets?
      00FC9D72H   ECODE    ---       ips200pro_delete_widgets?
      00FC9B73H   ECODE    ---       ips200pro_get_date?
      00FC9C6EH   ECODE    ---       ips200pro_get_free_stack_size?
      00FC9C0DH   ECODE    ---       ips200pro_get_information?
L251 LINKER/LOCATER V4.66.93.0                                                        05/01/2026  15:28:45  PAGE 21


      00FC9BBFH   ECODE    ---       ips200pro_get_time?
      00FCACACH   ECODE    ---       ips200pro_image_create?
      00FCAD42H   ECODE    ---       ips200pro_image_display?
      00FCAF02H   ECODE    ---       ips200pro_image_draw_line?
      00FCAFE9H   ECODE    ---       ips200pro_image_draw_rectangle?
      000115FEH   XDATA    ---       ips200pro_information
      00FCB1B4H   ECODE    ---       ips200pro_init?
      00FCA18BH   ECODE    ---       ips200pro_label_create?
      00FCA389H   ECODE    ---       ips200pro_label_mode?
      00FCA221H   ECODE    ---       ips200pro_label_printf?
      00FCA306H   ECODE    ---       ips200pro_label_show_string?
      00FCA678H   ECODE    ---       ips200pro_meter_create?
      00FCA70EH   ECODE    ---       ips200pro_meter_set_value?
      00FC9F7BH   ECODE    ---       ips200pro_page_create?
      00FCA07CH   ECODE    ---       ips200pro_page_hidden?
      00FCA0B3H   ECODE    ---       ips200pro_page_set_title_name?
      00FCA124H   ECODE    ---       ips200pro_page_set_title_position_width?
      00FCA01BH   ECODE    ---       ips200pro_page_switch?
      00FCA805H   ECODE    ---       ips200pro_progress_bar_create?
      00FCA89BH   ECODE    ---       ips200pro_progress_bar_set_value?
      00FC973CH   ECODE    ---       ips200pro_read_parameter?
      00FC9412H   ECODE    ---       ips200pro_receive_buffer?
      00FC9377H   ECODE    ---       ips200pro_send_buffer?
      00FC99CBH   ECODE    ---       ips200pro_set_backlight?
      00FC9E2AH   ECODE    ---       ips200pro_set_color?
      00FC9A75H   ECODE    ---       ips200pro_set_crc_state?
      00FC97F4H   ECODE    ---       ips200pro_set_date?
      00FC9AC9H   ECODE    ---       ips200pro_set_default_font?
      00FC9A1FH   ECODE    ---       ips200pro_set_direction?
      00FC9DC5H   ECODE    ---       ips200pro_set_font?
      00FC9975H   ECODE    ---       ips200pro_set_format?
      00FC9F18H   ECODE    ---       ips200pro_set_hidden?
      00FC9B1FH   ECODE    ---       ips200pro_set_optimize?
      00FC990DH   ECODE    ---       ips200pro_set_parent?
      00FC9EA1H   ECODE    ---       ips200pro_set_position?
      00FC987BH   ECODE    ---       ips200pro_set_time?
      00FCA480H   ECODE    ---       ips200pro_table_cell_printf?
      00FCA3EAH   ECODE    ---       ips200pro_table_create?
      00FCA607H   ECODE    ---       ips200pro_table_select?
      00FCA596H   ECODE    ---       ips200pro_table_set_col_width?
      00011607H   XDATA    ---       ips200pro_time
      00FCAA7EH   ECODE    ---       ips200pro_waveform_add_value?
      00FCAC5DH   ECODE    ---       ips200pro_waveform_clear?
      00FCA9E8H   ECODE    ---       ips200pro_waveform_create?
      00FCAB8BH   ECODE    ---       ips200pro_waveform_line_state?
      00FCABFEH   ECODE    ---       ips200pro_waveform_line_type?
      00FC94B4H   ECODE    ---       ips200pro_write_packet?
*SFR* 0000009DH   DATA     BYTE      IRCBAND
*SFR* 0000009FH   DATA     BYTE      IRTRIM
*SFR* 00000088H.0 DATA     BIT       IT0
*SFR* 00000088H.2 DATA     BIT       IT1
      0001243DH   XDATA    BYTE      key1_flag
      00012438H   XDATA    BYTE      key1_last_status
      00012434H   XDATA    CHAR      key1_status
      0001243EH   XDATA    BYTE      key2_flag
      00012439H   XDATA    BYTE      key2_last_status
      00012435H   XDATA    BYTE      key2_status
      0001243FH   XDATA    BYTE      key3_flag
      0001243AH   XDATA    BYTE      key3_last_status
      00012436H   XDATA    BYTE      key3_status
      00012440H   XDATA    BYTE      key4_flag
      0001243BH   XDATA    BYTE      key4_last_status
      00012437H   XDATA    BYTE      key4_status
      00FE2D69H   ECODE    ---       Key_Case?
      00FE2D28H   ECODE    ---       Key_Init?
L251 LINKER/LOCATER V4.66.93.0                                                        05/01/2026  15:28:45  PAGE 22


      00011701H   XDATA    FLOAT     L
      00FF092DH   CODE     ---       LANGIDDESC
      00011D74H   XDATA    FLOAT     Large_t
      00011D3EH   XDATA    FLOAT     lastspeed_L
      00011D46H   XDATA    FLOAT     lastspeed_R
      0001190FH   XDATA    FLOAT     limit_gyro
      000128A7H   XDATA    ---       LineCoding
*SFR* 000000F9H   DATA     BYTE      LINICR
      000116F9H   XDATA    FLOAT     LM
      00FDE8E3H   ECODE    ---       loop_speed?
      00FDEA97H   ECODE    ---       loop_speed_LR?
      00FE2008H   ECODE    ---       MAIN?
      00FF098AH   CODE     ---       MANUFACTDESC
      00FE3239H   ECODE    ---       memcpy??
      00FCFFE6H   ECODE    ---       memset??
      00FDF8E3H   ECODE    ---       Module_Init?
      00FE1FADH   ECODE    ---       Motor_fuya?
      00FE1DB8H   ECODE    ---       Motor_Init?
      00FE1F2DH   ECODE    ---       Motor_L?
      00FE1EADH   ECODE    ---       Motor_R?
      00FDA5DBH   ECODE    ---       mt9v03x_dma_handler?
      00FDA640H   ECODE    ---       mt9v03x_dma_init?
      00018334H   HDATA    BYTE      mt9v03x_finish_flag
      00012B14H   HDATA    ---       mt9v03x_image
      00FE27BFH   ECODE    ---       mt9v03x_init?
      00FD9A85H   ECODE    ---       mt9v03x_sccb_check_id?
      00FE2770H   ECODE    ---       mt9v03x_sccb_init?
      00FD9B42H   ECODE    ---       mt9v03x_sccb_set_config?
      00FDA521H   ECODE    ---       mt9v03x_sccb_set_exposure_time?
      00FDA5A3H   ECODE    ---       mt9v03x_sccb_set_reg?
      00FE6B76H   HCONST   ---       mt9v03x_set_confing_buffer
      00FE2736H   ECODE    ---       mt9v03x_set_exposure_time?
      00FE274FH   ECODE    ---       mt9v03x_set_reg?
      00FDA5F5H   ECODE    ---       mt9v03x_vsync_handler?
      00FDC84EH   ECODE    ---       my_ADC_Init?
      00011E56H   XDATA    FLOAT     next_gyro_z
      00FE2A0AH   ECODE    ---       null_drift_calculate?
      00011E4AH   XDATA    FLOAT     null_drift_z
      0001139BH   XDATA    FLOAT     out_L
      0001139FH   XDATA    FLOAT     out_R
      0001219DH   XDATA    BYTE      OutEpState
*SFR* 000000D0H.2 DATA     BIT       OV
*SFR* 000000D0H.0 DATA     BIT       P
*SFR* 00000080H   DATA     BYTE      P0
*SFR* 00000094H   DATA     BYTE      P0M0
*SFR* 00000093H   DATA     BYTE      P0M1
*SFR* 00000090H   DATA     BYTE      P1
*SFR* 00000092H   DATA     BYTE      P1M0
*SFR* 00000091H   DATA     BYTE      P1M1
*SFR* 000000A0H   DATA     BYTE      P2
*SFR* 000000A0H.2 DATA     BIT       P22
*SFR* 00000096H   DATA     BYTE      P2M0
*SFR* 00000095H   DATA     BYTE      P2M1
*SFR* 000000B0H   DATA     BYTE      P3
*SFR* 000000B0H.3 DATA     BIT       P33
*SFR* 000000B0H.4 DATA     BIT       P34
*SFR* 000000B0H.5 DATA     BIT       P35
*SFR* 000000B0H.7 DATA     BIT       P37
*SFR* 000000B2H   DATA     BYTE      P3M0
*SFR* 000000B1H   DATA     BYTE      P3M1
*SFR* 000000C0H   DATA     BYTE      P4
*SFR* 000000C0H.1 DATA     BIT       P41
*SFR* 000000C0H.3 DATA     BIT       P43
*SFR* 000000C0H.5 DATA     BIT       P45
*SFR* 000000B4H   DATA     BYTE      P4M0
L251 LINKER/LOCATER V4.66.93.0                                                        05/01/2026  15:28:45  PAGE 23


*SFR* 000000B3H   DATA     BYTE      P4M1
*SFR* 000000C8H   DATA     BYTE      P5
*SFR* 000000CAH   DATA     BYTE      P5M0
*SFR* 000000C9H   DATA     BYTE      P5M1
*SFR* 000000E8H   DATA     BYTE      P6
*SFR* 000000CCH   DATA     BYTE      P6M0
*SFR* 000000CBH   DATA     BYTE      P6M1
*SFR* 000000F8H   DATA     BYTE      P7
*SFR* 000000F8H.0 DATA     BIT       P70
*SFR* 000000F8H.1 DATA     BIT       P71
*SFR* 000000F8H.2 DATA     BIT       P72
*SFR* 000000F8H.3 DATA     BIT       P73
*SFR* 000000E2H   DATA     BYTE      P7M0
*SFR* 000000E1H   DATA     BYTE      P7M1
*SFR* 000000A2H   DATA     BYTE      P_SW1
*SFR* 000000BAH   DATA     BYTE      P_SW2
*SFR* 000000BBH   DATA     BYTE      P_SW3
*SFR* 000000BFH   DATA     BYTE      P_SW4
      00FF0986H   CODE     ---       PACKET0
      00FF0988H   CODE     ---       PACKET1
*SFR* 00000087H   DATA     BYTE      PCON
      00011913H   XDATA    ---       pid_loop_speed
      000118F7H   XDATA    ---       pid_motor_run
      00FE21CAH   ECODE    ---       Pit_funciton?
      00FDD93FH   ECODE    ---       pit_init?
      00FE21D7H   ECODE    ---       Pit_Steering_PD?
      000113A3H   XDATA    FLOAT     place_error
      000113C9H   XDATA    FLOAT     place_gyro_kd
      000113B5H   XDATA    FLOAT     place_kd
      000113C1H   XDATA    FLOAT     place_kp
      000113ABH   XDATA    FLOAT     place_last_error
      000113C5H   XDATA    FLOAT     place_last_out
      000113BDH   XDATA    FLOAT     place_out
      00FDE7F0H   ECODE    ---       place_pid?
*SFR* 000000B8H.6 DATA     BIT       PPC
      00FD7E1CH   ECODE    FAR LAB   printf?
      00FF090FH   CODE     ---       PRODUCTDESC
*SFR* 000000B8H.4 DATA     BIT       PS
*SFR* 000000D0H   DATA     BYTE      PSW
*SFR* 000000D1H   DATA     BYTE      PSW1
*SFR* 000000B8H.1 DATA     BIT       PT0
*SFR* 000000B8H.3 DATA     BIT       PT1
*SFR* 000000B8H.5 DATA     BIT       PT2
      00FDFECBH   ECODE    ---       putchar?
      00FE618EH   HCONST   ---       PWM_ARR_ADDR
      00FE61EEH   HCONST   ---       PWM_CCER_ADDR
      00FE6236H   HCONST   ---       PWM_CCMR_ADDR
      00FE612EH   HCONST   ---       PWM_CCR_ADDR
      00FDB937H   ECODE    ---       pwm_init?
      00FE60FEH   HCONST   ---       PWM_PSCR_ADDR
      00FDB759H   ECODE    ---       pwm_set_duty?
      00FDB471H   ECODE    ---       pwm_set_freq?
      00FE60E6H   HCONST   ---       PWMX_BKR_ADDR
      00FE61D6H   HCONST   ---       PWMX_CNTR_ADDR
      00FE621EH   HCONST   ---       PWMX_CR1_ADDR
      00FE6116H   HCONST   ---       PWMX_ENO_ADDR
      00FE61A6H   HCONST   ---       PWMX_PS_ADDR
      00FE61BEH   HCONST   ---       PWMX_SMCR_ADDR
*SFR* 000000B8H.0 DATA     BIT       PX0
*SFR* 000000B8H.2 DATA     BIT       PX1
      00011705H   XDATA    FLOAT     R
      00FDF900H   ECODE    ---       range_protect?
*SFR* 00000098H.2 DATA     BIT       RB8
*SFR* 000000CBH   DATA     BYTE      RCAP2H
*SFR* 000000CAH   DATA     BYTE      RCAP2L
L251 LINKER/LOCATER V4.66.93.0                                                        05/01/2026  15:28:45  PAGE 24


*SFR* 000000C8H.5 DATA     BIT       RCLK
*SFR* 000000B0H.7 DATA     BIT       RD
*SFR* 00000098H.4 DATA     BIT       REN
      00FE30A6H   ECODE    ---       reverse2?
      00FE3039H   ECODE    ---       reverse4?
*SFR* 00000098H.0 DATA     BIT       RI
      000116FDH   XDATA    FLOAT     RM
*SFR* 000000D0H.3 DATA     BIT       RS0
*SFR* 000000D0H.4 DATA     BIT       RS1
*SFR* 000000FFH   DATA     BYTE      RSTCFG
      00FDFD02H   ECODE    ---       Run_Out_Protect?
*SFR* 000000B0H.0 DATA     BIT       RXD
*SFR* 0000009AH   DATA     BYTE      S2CON
*SFR* 000000ACH   DATA     BYTE      S3CON
*SFR* 000000FDH   DATA     BYTE      S4CON
*SFR* 000000A9H   DATA     BYTE      SADDR
*SFR* 000000B9H   DATA     BYTE      SADEN
*SFR* 00000099H   DATA     BYTE      SBUF
*SFR* 00000098H   DATA     BYTE      SCON
      00FDAC9AH   ECODE    ---       seekfree_assistant_camera_boundary_config?
      00FDA7DFH   ECODE    ---       seekfree_assistant_camera_data_send?
      00FDAB4CH   ECODE    ---       seekfree_assistant_camera_dot_send?
      00FDA943H   ECODE    ---       seekfree_assistant_camera_information_config?
      00FDB3F6H   ECODE    ---       seekfree_assistant_camera_send?
      00FDB13BH   ECODE    ---       seekfree_assistant_data_analysis?
      00FDB442H   ECODE    ---       seekfree_assistant_init?
      00FE31DAH   ECODE    ---       seekfree_assistant_interface_init?
      000110B2H   XDATA    ---       seekfree_assistant_oscilloscope_data
      00FDA9A4H   ECODE    ---       seekfree_assistant_oscilloscope_send?
      000110F5H   XDATA    ---       seekfree_assistant_parameter
      000110EDH   XDATA    ---       seekfree_assistant_parameter_update_flag
      00012858H   XDATA    ---       seekfree_assistant_receive_callback
      0001285CH   XDATA    ---       seekfree_assistant_transfer_callback
      00FE2A74H   ECODE    ---       set_camera_type?
      00FE2B9AH   ECODE    ---       set_tof_type?
      00FE2B15H   ECODE    ---       set_wireless_type?
      0001218CH   XDATA    ---       Setup
      00FDCB69H   ECODE    ---       siai_adc_all_sample?
*SFR* 00000098H.7 DATA     BIT       SM0
*SFR* 00000098H.6 DATA     BIT       SM1
*SFR* 00000098H.5 DATA     BIT       SM2
      00011D88H   XDATA    FLOAT     Small_t
      00FE2BE3H   ECODE    ---       soft_delay?
      00FCB2DAH   ECODE    ---       soft_iic_delay?
      00FCCC89H   ECODE    ---       soft_iic_init?
      00FCC0D2H   ECODE    ---       soft_iic_read_16bit?
      00FCC188H   ECODE    ---       soft_iic_read_16bit_array?
      00FCC4C5H   ECODE    ---       soft_iic_read_16bit_register?
      00FCC5E6H   ECODE    ---       soft_iic_read_16bit_registers?
      00FCBF4BH   ECODE    ---       soft_iic_read_8bit?
      00FCBFD5H   ECODE    ---       soft_iic_read_8bit_array?
      00FCC2B8H   ECODE    ---       soft_iic_read_8bit_register?
      00FCC385H   ECODE    ---       soft_iic_read_8bit_registers?
      00FCB757H   ECODE    ---       soft_iic_read_data?
      00FCCBAEH   ECODE    ---       soft_iic_sccb_read_register?
      00FCCB17H   ECODE    ---       soft_iic_sccb_write_register?
      00FCB48BH   ECODE    ---       soft_iic_send_ack?
      00FCB65BH   ECODE    ---       soft_iic_send_data?
      00FCB316H   ECODE    ---       soft_iic_start?
      00FCB3C4H   ECODE    ---       soft_iic_stop?
      00FCC918H   ECODE    ---       soft_iic_transfer_16bit_array?
      00FCC777H   ECODE    ---       soft_iic_transfer_8bit_array?
      00FCB56FH   ECODE    ---       soft_iic_wait_ack?
      00FCB9FDH   ECODE    ---       soft_iic_write_16bit?
      00FCBAA4H   ECODE    ---       soft_iic_write_16bit_array?
L251 LINKER/LOCATER V4.66.93.0                                                        05/01/2026  15:28:45  PAGE 25


      00FCBD2EH   ECODE    ---       soft_iic_write_16bit_register?
      00FCBE13H   ECODE    ---       soft_iic_write_16bit_registers?
      00FCB8A5H   ECODE    ---       soft_iic_write_8bit?
      00FCB924H   ECODE    ---       soft_iic_write_8bit_array?
      00FCBBA8H   ECODE    ---       soft_iic_write_8bit_register?
      00FCBC3FH   ECODE    ---       soft_iic_write_8bit_registers?
      00FE0D8CH   ECODE    ---       sort_seven?
*SFR* 00000081H   DATA     BYTE      SP
*SFR* 000000CEH   DATA     BYTE      SPCTL
*SFR* 000000CFH   DATA     BYTE      SPDAT
      00011D26H   XDATA    FLOAT     speed_avl
      00011D32H   XDATA    FLOAT     speed_avl_next
      00011D2AH   XDATA    FLOAT     speed_L
      00011D36H   XDATA    FLOAT     speed_L_next
      00011D2EH   XDATA    FLOAT     speed_R
      00011D3AH   XDATA    FLOAT     speed_R_next
      000118F5H   XDATA    INT       speed_target
*SFR* 000000BEH   DATA     BYTE      SPH
      00FC8016H   ECODE    ---       spi_dma_init?
      00FC799FH   ECODE    ---       spi_dma_read?
      00FC7DAFH   ECODE    ---       spi_dma_read_16bit?
      00FC7DDCH   ECODE    ---       spi_dma_read_16bit_array?
      00FC7EC8H   ECODE    ---       spi_dma_read_16bit_register?
      00FC7F1BH   ECODE    ---       spi_dma_read_16bit_registers?
      00FC7D46H   ECODE    ---       spi_dma_read_8bit?
      00FC7D76H   ECODE    ---       spi_dma_read_8bit_array?
      00FC7E17H   ECODE    ---       spi_dma_read_8bit_register?
      00FC7E6BH   ECODE    ---       spi_dma_read_8bit_registers?
      00FC71A4H   ECODE    ---       spi_dma_transfer?
      00FC7FC7H   ECODE    ---       spi_dma_transfer_16bit?
      00FC7F7AH   ECODE    ---       spi_dma_transfer_8bit?
      00FC7614H   ECODE    ---       spi_dma_write?
      00FC7B7CH   ECODE    ---       spi_dma_write_16bit?
      00FC7BA9H   ECODE    ---       spi_dma_write_16bit_array?
      00FC7C92H   ECODE    ---       spi_dma_write_16bit_register?
      00FC7CE5H   ECODE    ---       spi_dma_write_16bit_registers?
      00FC7B18H   ECODE    ---       spi_dma_write_8bit?
      00FC7B43H   ECODE    ---       spi_dma_write_8bit_array?
      00FC7BE4H   ECODE    ---       spi_dma_write_8bit_register?
      00FC7C35H   ECODE    ---       spi_dma_write_8bit_registers?
      00FC8E7EH   ECODE    ---       spi_init?
      00FC8A22H   ECODE    ---       spi_read_16bit?
      00FC8A69H   ECODE    ---       spi_read_16bit_array?
      00FC8B87H   ECODE    ---       spi_read_16bit_register?
      00FC8C04H   ECODE    ---       spi_read_16bit_registers?
      00FC89B2H   ECODE    ---       spi_read_8bit?
      00FC89C4H   ECODE    ---       spi_read_8bit_array?
      00FC8AF3H   ECODE    ---       spi_read_8bit_register?
      00FC8B17H   ECODE    ---       spi_read_8bit_registers?
      00FC863CH   ECODE    ---       spi_read_dat?
      00FC8D6AH   ECODE    ---       spi_transfer_16bit?
      00FC8CC4H   ECODE    ---       spi_transfer_8bit?
      00FC876EH   ECODE    ---       spi_write_16bit?
      00FC87ABH   ECODE    ---       spi_write_16bit_array?
      00FC88B1H   ECODE    ---       spi_write_16bit_register?
      00FC8924H   ECODE    ---       spi_write_16bit_registers?
      00FC8705H   ECODE    ---       spi_write_8bit?
      00FC871EH   ECODE    ---       spi_write_8bit_array?
      00FC8822H   ECODE    ---       spi_write_8bit_register?
      00FC884FH   ECODE    ---       spi_write_8bit_registers?
      00FC85A5H   ECODE    ---       spi_write_dat?
      00FE63DCH   HCONST   ---       SPIX_CLKDIV_ADDR
      00FD7E49H   ECODE    FAR LAB   sprintf?
*SFR* 000000CDH   DATA     BYTE      SPSTAT
      00011D8CH   XDATA    BYTE      standby
L251 LINKER/LOCATER V4.66.93.0                                                        05/01/2026  15:28:45  PAGE 26


      00FDFFE4H   ECODE    ---       strlen??
      00FDFFADH   ECODE    ---       strncmp??
      000129CBH   XDATA    DWORD     system_clock
      00FE2C1AH   ECODE    ---       system_delay?
*SFR* 000000B0H.4 DATA     BIT       T0
*SFR* 000000B0H.5 DATA     BIT       T1
*SFR* 00000090H.0 DATA     BIT       T2
*SFR* 000000C8H   DATA     BYTE      T2CON
*SFR* 00000090H.1 DATA     BIT       T2EX
*SFR* 000000D6H   DATA     BYTE      T2H
*SFR* 000000D7H   DATA     BYTE      T2L
*SFR* 000000C9H   DATA     BYTE      T2MOD
*SFR* 000000D4H   DATA     BYTE      T3H
*SFR* 000000D5H   DATA     BYTE      T3L
*SFR* 000000D2H   DATA     BYTE      T4H
*SFR* 000000D3H   DATA     BYTE      T4L
*SFR* 000000DDH   DATA     BYTE      T4T3M
      000113B3H   XDATA    WORD      target_L
      000113B9H   XDATA    WORD      target_R
      00FDFB8DH   ECODE    ---       Task_Run?
*SFR* 00000098H.3 DATA     BIT       TB8
*SFR* 000000C8H.4 DATA     BIT       TCLK
*SFR* 00000088H   DATA     BYTE      TCON
      0001243CH   XDATA    BYTE      test1
*SFR* 00000088H.5 DATA     BIT       TF0
*SFR* 00000088H.7 DATA     BIT       TF1
*SFR* 000000C8H.7 DATA     BIT       TF2
      0001280AH   XDATA    WORD      tft180_bgcolor
      00FD1A63H   ECODE    ---       tft180_clear?
      0001280CH   XDATA    INT       tft180_display_dir
      00FD1B72H   ECODE    ---       tft180_draw_point?
      00FD2AC0H   ECODE    ---       tft180_init?
      00012808H   XDATA    WORD      tft180_pencolor
      00FD1B4DH   ECODE    ---       tft180_set_color?
      00FD1B12H   ECODE    ---       tft180_set_dir?
      00FD1BF8H   ECODE    ---       tft180_show_char?
      00FD23FCH   ECODE    ---       tft180_show_float?
      00FD261EH   ECODE    ---       tft180_show_gray_image?
      00FD2003H   ECODE    ---       tft180_show_int16?
      00FD2299H   ECODE    ---       tft180_show_int32?
      00FD1DDEH   ECODE    ---       tft180_show_int8?
      00FD1D17H   ECODE    ---       tft180_show_string?
      00FD217DH   ECODE    ---       tft180_show_uint16?
      00FD1F15H   ECODE    ---       tft180_show_uint8?
      00FD28A6H   ECODE    ---       tft180_show_wave?
      0001280EH   XDATA    BYTE      tft180_x_max
      0001280FH   XDATA    BYTE      tft180_y_max
      00FE21E6H   ECODE    ---       TFT_Debug?
*SFR* 0000008CH   DATA     BYTE      TH0
*SFR* 0000008DH   DATA     BYTE      TH1
*SFR* 000000CDH   DATA     BYTE      TH2
*SFR* 00000098H.1 DATA     BIT       TI
      0001181DH   XDATA    ---       tim0_irq_handler
      00011809H   XDATA    ---       tim11_irq_handler
      00011825H   XDATA    ---       tim1_irq_handler
      0001182DH   XDATA    ---       tim2_irq_handler
      00011835H   XDATA    ---       tim3_irq_handler
      0001183DH   XDATA    ---       tim4_irq_handler
      000118BDH   XDATA    ---       tim_irq_handlers
      00FE30DFH   ECODE    ---       timer_funciton_check?
*SFR* 0000008AH   DATA     BYTE      TL0
*SFR* 0000008BH   DATA     BYTE      TL1
*SFR* 000000CCH   DATA     BYTE      TL2
      00FDC375H   ECODE    ---       TM0_IRQHandler?
      00FDC6ECH   ECODE    ---       TM11_IRQHandler?
L251 LINKER/LOCATER V4.66.93.0                                                        05/01/2026  15:28:45  PAGE 27


      00FDC741H   ECODE    ---       TM17_TM18_IRQHandler?
      00FDC3BBH   ECODE    ---       TM1_IRQHandler?
      00FDC401H   ECODE    ---       TM2_IRQHandler?
      00FDC447H   ECODE    ---       TM3_IRQHandler?
      00FDC48DH   ECODE    ---       TM4_IRQHandler?
      00FDC4D3H   ECODE    ---       TM5_TM6_IRQHandler?
      00FDC586H   ECODE    ---       TM7_IRQHandler?
      00FDC639H   ECODE    ---       TM9_TM10_IRQHandler?
*SFR* 00000089H   DATA     BYTE      TMOD
      00011E6BH   XDATA    ---       tof_module_exti_handler
      00011E85H   XDATA    INT       tof_type
*SFR* 00000088H.4 DATA     BIT       TR0
*SFR* 00000088H.6 DATA     BIT       TR1
*SFR* 000000C8H.2 DATA     BIT       TR2
*SFR* 000000B0H.1 DATA     BIT       TXD
      0001180DH   XDATA    ---       uart1_irq_handler
      00011811H   XDATA    ---       uart2_irq_handler
      00011815H   XDATA    ---       uart3_irq_handler
      00011819H   XDATA    ---       uart4_irq_handler
      00FCD68AH   ECODE    ---       uart_dma_init?
      00FCE6ACH   ECODE    ---       uart_init?
      00FCD57CH   ECODE    ---       uart_query_byte?
      00FCD499H   ECODE    ---       uart_read_byte?
      00011B5EH   XDATA    ---       uart_rx_buff
      00011B66H   XDATA    ---       uart_rx_handlers
      00FCD396H   ECODE    ---       uart_rx_interrupt?
      00FCD1BCH   ECODE    ---       uart_rx_start_buff?
      00FCDACDH   ECODE    ---       uart_tim_init?
      00FCCD6CH   ECODE    ---       uart_write_buffer?
      00FCD19BH   ECODE    ---       uart_write_byte?
      00FCD15CH   ECODE    ---       uart_write_string?
      00FCFE5FH   ECODE    ---       usb_cdc_init?
      00012A2FH   XDATA    ---       usb_cdc_read_buffer_handler
      00FCFFC7H   ECODE    ---       usb_cdc_rx_interrupt?
      00FCFE64H   ECODE    ---       usb_cdc_write_buffer?
      00FCFF7FH   ECODE    ---       usb_cdc_write_byte?
      00FCFF94H   ECODE    ---       usb_cdc_write_string?
      00FDE2E0H   ECODE    ---       usb_clear_feature?
      00FDF195H   ECODE    ---       usb_ctrl_in?
      00FDF233H   ECODE    ---       usb_ctrl_out?
      00FDE604H   ECODE    ---       usb_get_configuration?
      00FDE505H   ECODE    ---       usb_get_descriptor?
      00FDE757H   ECODE    ---       usb_get_interface?
      00FE2FCCH   ECODE    ---       usb_get_line_coding?
      00FDE11BH   ECODE    ---       usb_get_status?
      00FDF2B4H   ECODE    ---       usb_in_ep1?
      00FDF2EAH   ECODE    ---       usb_in_ep2?
      00FDEE5BH   ECODE    ---       usb_init?
      00FDEFABH   ECODE    ---       usb_isr?
      00FDF31DH   ECODE    ---       usb_out_ep1?
      00FDEF02H   ECODE    ---       usb_read_fifo?
      00FDEEBBH   ECODE    ---       usb_read_reg?
      00FE2F6BH   ECODE    ---       usb_req_class?
      00FDE09CH   ECODE    ---       usb_req_std?
      00FDFFF2H   ECODE    ---       usb_req_vendor?
      00FDF04CH   ECODE    ---       usb_reset?
      00FDF04BH   ECODE    ---       usb_resume?
      00FDE494H   ECODE    ---       usb_set_address?
      00FDE68DH   ECODE    ---       usb_set_configuration?
      00FE3007H   ECODE    ---       usb_set_ctrl_line_state?
      00FDE5FFH   ECODE    ---       usb_set_descriptor?
      00FDE3BFH   ECODE    ---       usb_set_feature?
      00FDE7B0H   ECODE    ---       usb_set_interface?
      00FE2F91H   ECODE    ---       usb_set_line_coding?
      00FDF09EH   ECODE    ---       usb_setup?
L251 LINKER/LOCATER V4.66.93.0                                                        05/01/2026  15:28:45  PAGE 28


      00FDF162H   ECODE    ---       usb_setup_in?
      00FDF176H   ECODE    ---       usb_setup_out?
      00FDF152H   ECODE    ---       usb_setup_stall?
      00FDF186H   ECODE    ---       usb_setup_status?
      00FDF09DH   ECODE    ---       usb_suspend?
      00FDE7EBH   ECODE    ---       usb_synch_frame?
      00FE3024H   ECODE    ---       usb_uart_settings?
      00FDEF63H   ECODE    ---       usb_write_fifo?
      00FDEEE0H   ECODE    ---       usb_write_reg?
*SFR* 000000FCH   DATA     BYTE      USBADR
*SFR* 000000DCH   DATA     BYTE      USBCLK
*SFR* 000000F4H   DATA     BYTE      USBCON
*SFR* 000000ECH   DATA     BYTE      USBDAT
      00000020H.0 BIT      BIT       UsbInBusy
      00000020H.1 BIT      BIT       UsbOutBusy
*SFR* 000000A6H   DATA     BYTE      VRTRIM
      00FC6136H   ECODE    ---       vsnprintf?
*SFR* 000000C1H   DATA     BYTE      WDT_CONTR
*SFR* 000000A6H   DATA     BYTE      WDTRST
      00FE2E62H   ECODE    ---       Wifi_Init?
      00FD6F38H   ECODE    ---       wifi_spi_get_time?
      00FD7873H   ECODE    ---       wifi_spi_init?
      00010400H   XDATA    ---       wifi_spi_ip_addr_port
      0001043CH   XDATA    ---       wifi_spi_mac_addr
      00FD7568H   ECODE    ---       wifi_spi_read_buffer?
      00FD7284H   ECODE    ---       wifi_spi_reset?
      00FD73A5H   ECODE    ---       wifi_spi_send_buffer?
      00FD753FH   ECODE    ---       wifi_spi_send_string?
      00FD71B9H   ECODE    ---       wifi_spi_socket_connect?
      00FD7266H   ECODE    ---       wifi_spi_socket_disconnect?
      00FD72D0H   ECODE    ---       wifi_spi_udp_send_now?
      00010419H   XDATA    ---       wifi_spi_version
      00FD70F6H   ECODE    ---       wifi_spi_wifi_connect?
      00FD705BH   ECODE    ---       wifi_spi_wifi_scan?
      00011E81H   XDATA    ---       wireless_module_spi_handler
      00011E71H   XDATA    ---       wireless_module_uart_handler
      00011E6FH   XDATA    INT       wireless_type
      00FE1A21H   ECODE    ---       wireless_uart_callback?
      00FE1A48H   ECODE    ---       wireless_uart_init?
      00FE199BH   ECODE    ---       wireless_uart_read_buffer?
      00FE1819H   ECODE    ---       wireless_uart_send_buffer?
      00FE179BH   ECODE    ---       wireless_uart_send_byte?
      00FE193BH   ECODE    ---       wireless_uart_send_string?
*SFR* 000000ABH   DATA     BYTE      WKTCH
*SFR* 000000B0H.6 DATA     BIT       WR
*SFR* 000000E9H   DATA     BYTE      WTST
      00FC681FH   ECODE    ---       zf_sprintf?



SYMBOL TABLE OF MODULE:  .\out_file\SEEKFREE (?C_START?)

      VALUE       REP       CLASS    TYPE      SYMBOL NAME
      ====================================================
      ---         MODULE    ---      ---       ?C_START?
      00FF0000H   PUBLIC    CODE     ---       ?C?STARTUP?
      00FF0000H   PUBLIC    CODE     ---       ?C_STARTUP?
      000000D0H.6 SFRSYM    DATA     BIT       AC
      000000E0H   SFRSYM    DATA     BYTE      ACC
      000000F0H   SFRSYM    DATA     BYTE      B
      000000FAH   SFRSYM    DATA     BYTE      CCAP0H
      000000EAH   SFRSYM    DATA     BYTE      CCAP0L
      000000FBH   SFRSYM    DATA     BYTE      CCAP1H
      000000EBH   SFRSYM    DATA     BYTE      CCAP1L
      000000FCH   SFRSYM    DATA     BYTE      CCAP2H
L251 LINKER/LOCATER V4.66.93.0                                                        05/01/2026  15:28:45  PAGE 29


      000000ECH   SFRSYM    DATA     BYTE      CCAP2L
      000000FDH   SFRSYM    DATA     BYTE      CCAP3H
      000000EDH   SFRSYM    DATA     BYTE      CCAP3L
      000000FEH   SFRSYM    DATA     BYTE      CCAP4H
      000000EEH   SFRSYM    DATA     BYTE      CCAP4L
      000000DAH   SFRSYM    DATA     BYTE      CCAPM0
      000000DBH   SFRSYM    DATA     BYTE      CCAPM1
      000000DCH   SFRSYM    DATA     BYTE      CCAPM2
      000000DDH   SFRSYM    DATA     BYTE      CCAPM3
      000000DEH   SFRSYM    DATA     BYTE      CCAPM4
      000000D8H.0 SFRSYM    DATA     BIT       CCF0
      000000D8H.1 SFRSYM    DATA     BIT       CCF1
      000000D8H.2 SFRSYM    DATA     BIT       CCF2
      000000D8H.3 SFRSYM    DATA     BIT       CCF3
      000000D8H.4 SFRSYM    DATA     BIT       CCF4
      000000D8H   SFRSYM    DATA     BYTE      CCON
      00000090H.3 SFRSYM    DATA     BIT       CEX0
      00000090H.4 SFRSYM    DATA     BIT       CEX1
      00000090H.5 SFRSYM    DATA     BIT       CEX2
      00000090H.6 SFRSYM    DATA     BIT       CEX3
      00000090H.7 SFRSYM    DATA     BIT       CEX4
      000000D8H.7 SFRSYM    DATA     BIT       CF
      000000F9H   SFRSYM    DATA     BYTE      CH
      000000E9H   SFRSYM    DATA     BYTE      CL
      000000D9H   SFRSYM    DATA     BYTE      CMOD
      000000C8H.0 SFRSYM    DATA     BIT       CP_RL2
      000000D8H.6 SFRSYM    DATA     BIT       CR
      000000D0H.7 SFRSYM    DATA     BIT       CY
      000000C8H.1 SFRSYM    DATA     BIT       C_T2
      00000083H   SFRSYM    DATA     BYTE      DPH
      00000082H   SFRSYM    DATA     BYTE      DPL
      00000084H   SFRSYM    DATA     BYTE      DPXL
      000000A8H.7 SFRSYM    DATA     BIT       EA
      000000A8H.6 SFRSYM    DATA     BIT       EC
      00000090H.2 SFRSYM    DATA     BIT       ECI
      000000A8H.4 SFRSYM    DATA     BIT       ES
      000000A8H.1 SFRSYM    DATA     BIT       ET0
      000000A8H.3 SFRSYM    DATA     BIT       ET1
      000000A8H.5 SFRSYM    DATA     BIT       ET2
      000000A8H.0 SFRSYM    DATA     BIT       EX0
      000000A8H.2 SFRSYM    DATA     BIT       EX1
      000000C8H.3 SFRSYM    DATA     BIT       EXEN2
      000000C8H.6 SFRSYM    DATA     BIT       EXF2
      000000D0H.5 SFRSYM    DATA     BIT       F0
      00000098H.7 SFRSYM    DATA     BIT       FE
      000000A8H   SFRSYM    DATA     BYTE      IE0
      00000088H.1 SFRSYM    DATA     BIT       IE0_
      000000B1H   SFRSYM    DATA     BYTE      IE1
      00000088H.3 SFRSYM    DATA     BIT       IE1_
      000000B0H.2 SFRSYM    DATA     BIT       INT0
      000000B0H.3 SFRSYM    DATA     BIT       INT1
      000000B7H   SFRSYM    DATA     BYTE      IPH0
      000000B8H   SFRSYM    DATA     BYTE      IPL0
      00000088H.0 SFRSYM    DATA     BIT       IT0
      00000088H.2 SFRSYM    DATA     BIT       IT1
      000000D0H.2 SFRSYM    DATA     BIT       OV
      000000D0H.0 SFRSYM    DATA     BIT       P
      00000080H   SFRSYM    DATA     BYTE      P0
      00000090H   SFRSYM    DATA     BYTE      P1
      000000A0H   SFRSYM    DATA     BYTE      P2
      000000B0H   SFRSYM    DATA     BYTE      P3
      00000087H   SFRSYM    DATA     BYTE      PCON
      000000B8H.6 SFRSYM    DATA     BIT       PPC
      000000B8H.4 SFRSYM    DATA     BIT       PS
      000000D0H   SFRSYM    DATA     BYTE      PSW
L251 LINKER/LOCATER V4.66.93.0                                                        05/01/2026  15:28:45  PAGE 30


      000000D1H   SFRSYM    DATA     BYTE      PSW1
      000000B8H.1 SFRSYM    DATA     BIT       PT0
      000000B8H.3 SFRSYM    DATA     BIT       PT1
      000000B8H.5 SFRSYM    DATA     BIT       PT2
      000000B8H.0 SFRSYM    DATA     BIT       PX0
      000000B8H.2 SFRSYM    DATA     BIT       PX1
      00000098H.2 SFRSYM    DATA     BIT       RB8
      000000CBH   SFRSYM    DATA     BYTE      RCAP2H
      000000CAH   SFRSYM    DATA     BYTE      RCAP2L
      000000C8H.5 SFRSYM    DATA     BIT       RCLK
      000000B0H.7 SFRSYM    DATA     BIT       RD
      00000098H.4 SFRSYM    DATA     BIT       REN
      00000098H.0 SFRSYM    DATA     BIT       RI
      000000D0H.3 SFRSYM    DATA     BIT       RS0
      000000D0H.4 SFRSYM    DATA     BIT       RS1
      000000B0H.0 SFRSYM    DATA     BIT       RXD
      000000A9H   SFRSYM    DATA     BYTE      SADDR
      000000B9H   SFRSYM    DATA     BYTE      SADEN
      00000099H   SFRSYM    DATA     BYTE      SBUF
      00000098H   SFRSYM    DATA     BYTE      SCON
      00000098H.7 SFRSYM    DATA     BIT       SM0
      00000098H.6 SFRSYM    DATA     BIT       SM1
      00000098H.5 SFRSYM    DATA     BIT       SM2
      00000081H   SFRSYM    DATA     BYTE      SP
      000000BEH   SFRSYM    DATA     BYTE      SPH
      000000B0H.4 SFRSYM    DATA     BIT       T0
      000000B0H.5 SFRSYM    DATA     BIT       T1
      00000090H.0 SFRSYM    DATA     BIT       T2
      000000C8H   SFRSYM    DATA     BYTE      T2CON
      00000090H.1 SFRSYM    DATA     BIT       T2EX
      000000C9H   SFRSYM    DATA     BYTE      T2MOD
      00000098H.3 SFRSYM    DATA     BIT       TB8
      000000C8H.4 SFRSYM    DATA     BIT       TCLK
      00000088H   SFRSYM    DATA     BYTE      TCON
      00000088H.5 SFRSYM    DATA     BIT       TF0
      00000088H.7 SFRSYM    DATA     BIT       TF1
      000000C8H.7 SFRSYM    DATA     BIT       TF2
      0000008CH   SFRSYM    DATA     BYTE      TH0
      0000008DH   SFRSYM    DATA     BYTE      TH1
      000000CDH   SFRSYM    DATA     BYTE      TH2
      00000098H.1 SFRSYM    DATA     BIT       TI
      0000008AH   SFRSYM    DATA     BYTE      TL0
      0000008BH   SFRSYM    DATA     BYTE      TL1
      000000CCH   SFRSYM    DATA     BYTE      TL2
      00000089H   SFRSYM    DATA     BYTE      TMOD
      00000088H.4 SFRSYM    DATA     BIT       TR0
      00000088H.6 SFRSYM    DATA     BIT       TR1
      000000C8H.2 SFRSYM    DATA     BIT       TR2
      000000B0H.1 SFRSYM    DATA     BIT       TXD
      000000A6H   SFRSYM    DATA     BYTE      WDTRST
      000000B0H.6 SFRSYM    DATA     BIT       WR
      00004000H   SYMBOL    NUMBER   ---       EDATALEN
      00FF0227H   SYMBOL    CODE     ---       EDATALOOP
      00000001H   SYMBOL    NUMBER   ---       EDF
      00000001H   SYMBOL    NUMBER   ---       EMAP
      00000000H   SYMBOL    NUMBER   ---       HDATALEN
      00010000H   SYMBOL    NUMBER   ---       HDATASTART
      00000000H   SYMBOL    NUMBER   ---       IBPSTACK
      00000100H   SYMBOL    NUMBER   ---       IBPSTACKTOP
      00000001H   SYMBOL    NUMBER   ---       INTR
      00000001H   SYMBOL    NUMBER   ---       PAGM
      00000003H   SYMBOL    NUMBER   ---       RDRG
      00000001H   SYMBOL    NUMBER   ---       SRCM
      00002000H   SYMBOL    NUMBER   ---       STACKSIZE
      00FF021FH   SYMBOL    CODE     ---       STARTUP1
L251 LINKER/LOCATER V4.66.93.0                                                        05/01/2026  15:28:45  PAGE 31


      00000003H   SYMBOL    NUMBER   ---       WSA
      00000003H   SYMBOL    NUMBER   ---       WSB
      00000001H   SYMBOL    NUMBER   ---       XALE
      00000000H   SYMBOL    NUMBER   ---       XBPSTACK
      00010000H   SYMBOL    NUMBER   ---       XBPSTACKTOP
      0000FFFFH   SYMBOL    NUMBER   ---       XDATALEN
      00FF0236H   SYMBOL    CODE     ---       XDATALOOP
      00010000H   SYMBOL    NUMBER   ---       XDATASTART

      00FF0000H   BLOCK     CODE     NEAR LAB  LVL=0
      00FF0000H   LINE      CODE     ---       #183
      ---         BLOCKEND  ---      ---       LVL=0

      00FF021FH   BLOCK     CODE     NEAR LAB  LVL=0
      00FF021FH   LINE      CODE     ---       #188
      00FF0222H   LINE      CODE     ---       #191
      00FF0226H   LINE      CODE     ---       #192
      00FF0227H   LINE      CODE     ---       #193
      00FF022AH   LINE      CODE     ---       #194
      00FF022CH   LINE      CODE     ---       #195
      00FF022EH   LINE      CODE     ---       #199
      00FF0231H   LINE      CODE     ---       #200
      00FF0235H   LINE      CODE     ---       #201
      00FF0236H   LINE      CODE     ---       #202
      00FF0237H   LINE      CODE     ---       #203
      00FF0238H   LINE      CODE     ---       #204
      00FF023AH   LINE      CODE     ---       #205
      00FF023CH   LINE      CODE     ---       #235
      ---         BLOCKEND  ---      ---       LVL=0

      00FF0271H   BLOCK     CODE     NEAR LAB  LVL=0
      00FF0271H   LINE      CODE     ---       #238
      ---         BLOCKEND  ---      ---       LVL=0

      ---         MODULE    ---      ---       zf_common_typedef
      00011809H   PUBLIC    XDATA    ---       tim11_irq_handler
      0001180DH   PUBLIC    XDATA    ---       uart1_irq_handler
      00011811H   PUBLIC    XDATA    ---       uart2_irq_handler
      00011815H   PUBLIC    XDATA    ---       uart3_irq_handler
      00011819H   PUBLIC    XDATA    ---       uart4_irq_handler
      0001181DH   PUBLIC    XDATA    ---       tim0_irq_handler
      00011821H   PUBLIC    XDATA    ---       int0_irq_handler
      00011825H   PUBLIC    XDATA    ---       tim1_irq_handler
      00011829H   PUBLIC    XDATA    ---       int1_irq_handler
      0001182DH   PUBLIC    XDATA    ---       tim2_irq_handler
      00011831H   PUBLIC    XDATA    ---       int2_irq_handler
      00011835H   PUBLIC    XDATA    ---       tim3_irq_handler
      00011839H   PUBLIC    XDATA    ---       int3_irq_handler
      0001183DH   PUBLIC    XDATA    ---       tim4_irq_handler
      00011841H   PUBLIC    XDATA    ---       int4_irq_handler
      000000D0H   SFRSYM    DATA     BYTE      PSW
      0000009DH   SFRSYM    DATA     BYTE      IRCBAND
      00000097H   SFRSYM    DATA     BYTE      AUXR2
      000000EAH   SFRSYM    DATA     BYTE      CKCON
      000000EFH   SFRSYM    DATA     BYTE      AUXINTIF
      000000FDH   SFRSYM    DATA     BYTE      S4CON
      000000ACH   SFRSYM    DATA     BYTE      S3CON
      0000009AH   SFRSYM    DATA     BYTE      S2CON
      000000B7H   SFRSYM    DATA     BYTE      IPH
      000000CDH   SFRSYM    DATA     BYTE      SPSTAT
      000000DDH   SFRSYM    DATA     BYTE      T4T3M
      000000C1H   SFRSYM    DATA     BYTE      WDT_CONTR
      000000DFH   SFRSYM    DATA     BYTE      IP3
      000000F4H   SFRSYM    DATA     BYTE      USBCON
      000000B5H   SFRSYM    DATA     BYTE      IP2
L251 LINKER/LOCATER V4.66.93.0                                                        05/01/2026  15:28:45  PAGE 32


      000000FFH   SFRSYM    DATA     BYTE      RSTCFG
      000000E0H   SFRSYM    DATA     BYTE      ACC
      000000C7H   SFRSYM    DATA     BYTE      IAP_CONTR
      000000F9H   SFRSYM    DATA     BYTE      LINICR
      0000008EH   SFRSYM    DATA     BYTE      AUXR
      000000F0H   SFRSYM    DATA     BYTE      B
      000000AFH   SFRSYM    DATA     BYTE      IE2
      00000088H   SFRSYM    DATA     BYTE      TCON
      00000089H   SFRSYM    DATA     BYTE      TMOD
      00000098H   SFRSYM    DATA     BYTE      SCON
      00000087H   SFRSYM    DATA     BYTE      PCON
      000000BCH   SFRSYM    DATA     BYTE      ADC_CONTR
      000000D1H   SFRSYM    DATA     BYTE      PSW1
      000000E7H   SFRSYM    DATA     BYTE      CMPCR2
      000000E6H   SFRSYM    DATA     BYTE      CMPCR1
      000000DEH   SFRSYM    DATA     BYTE      ADCCFG
      000000B8H   SFRSYM    DATA     BYTE      IP
      0000008FH   SFRSYM    DATA     BYTE      INTCLKO
      000000EEH   SFRSYM    DATA     BYTE      IP3H
      000000B6H   SFRSYM    DATA     BYTE      IP2H
      000000BFH   SFRSYM    DATA     BYTE      P_SW4
      000000A8H   SFRSYM    DATA     BYTE      IE
      000000BBH   SFRSYM    DATA     BYTE      P_SW3
      000000BAH   SFRSYM    DATA     BYTE      P_SW2
      000000A2H   SFRSYM    DATA     BYTE      P_SW1
      000000CEH   SFRSYM    DATA     BYTE      SPCTL
      000000F8H   SFRSYM    DATA     BYTE      P7
      000000E8H   SFRSYM    DATA     BYTE      P6
      000000C8H   SFRSYM    DATA     BYTE      P5
      000000C0H   SFRSYM    DATA     BYTE      P4
      000000ABH   SFRSYM    DATA     BYTE      WKTCH
      000000B0H   SFRSYM    DATA     BYTE      P3
      000000A0H   SFRSYM    DATA     BYTE      P2
      00000090H   SFRSYM    DATA     BYTE      P1
      00000080H   SFRSYM    DATA     BYTE      P0

      ---         MODULE    ---      ---       zf_common_clock
      00FE2579H   PUBLIC    ECODE    ---       clock_init?
      000129CBH   PUBLIC    XDATA    DWORD     system_clock
      000000D0H   SFRSYM    DATA     BYTE      PSW
      000000BAH.7 SFRSYM    DATA     BIT       EAXFR
      0000009DH   SFRSYM    DATA     BYTE      IRCBAND
      00000097H   SFRSYM    DATA     BYTE      AUXR2
      000000EAH   SFRSYM    DATA     BYTE      CKCON
      000000EFH   SFRSYM    DATA     BYTE      AUXINTIF
      000000FDH   SFRSYM    DATA     BYTE      S4CON
      000000ACH   SFRSYM    DATA     BYTE      S3CON
      0000009AH   SFRSYM    DATA     BYTE      S2CON
      000000A6H   SFRSYM    DATA     BYTE      VRTRIM
      000000B7H   SFRSYM    DATA     BYTE      IPH
      000000CDH   SFRSYM    DATA     BYTE      SPSTAT
      000000DDH   SFRSYM    DATA     BYTE      T4T3M
      0000009FH   SFRSYM    DATA     BYTE      IRTRIM
      000000C1H   SFRSYM    DATA     BYTE      WDT_CONTR
      000000E9H   SFRSYM    DATA     BYTE      WTST
      000000DFH   SFRSYM    DATA     BYTE      IP3
      000000F4H   SFRSYM    DATA     BYTE      USBCON
      000000B5H   SFRSYM    DATA     BYTE      IP2
      000000FFH   SFRSYM    DATA     BYTE      RSTCFG
      000000E0H   SFRSYM    DATA     BYTE      ACC
      000000C7H   SFRSYM    DATA     BYTE      IAP_CONTR
      000000F9H   SFRSYM    DATA     BYTE      LINICR
      0000008EH   SFRSYM    DATA     BYTE      AUXR
      000000F0H   SFRSYM    DATA     BYTE      B
      000000AFH   SFRSYM    DATA     BYTE      IE2
L251 LINKER/LOCATER V4.66.93.0                                                        05/01/2026  15:28:45  PAGE 33


      00000088H   SFRSYM    DATA     BYTE      TCON
      00000089H   SFRSYM    DATA     BYTE      TMOD
      00000098H   SFRSYM    DATA     BYTE      SCON
      00000087H   SFRSYM    DATA     BYTE      PCON
      000000BCH   SFRSYM    DATA     BYTE      ADC_CONTR
      000000D1H   SFRSYM    DATA     BYTE      PSW1
      000000E7H   SFRSYM    DATA     BYTE      CMPCR2
      000000E6H   SFRSYM    DATA     BYTE      CMPCR1
      000000DEH   SFRSYM    DATA     BYTE      ADCCFG
      000000B8H   SFRSYM    DATA     BYTE      IP
      0000008FH   SFRSYM    DATA     BYTE      INTCLKO
      000000EEH   SFRSYM    DATA     BYTE      IP3H
      000000B6H   SFRSYM    DATA     BYTE      IP2H
      000000BFH   SFRSYM    DATA     BYTE      P_SW4
      000000A8H   SFRSYM    DATA     BYTE      IE
      000000BBH   SFRSYM    DATA     BYTE      P_SW3
      000000BAH   SFRSYM    DATA     BYTE      P_SW2
      000000A2H   SFRSYM    DATA     BYTE      P_SW1
      000000CEH   SFRSYM    DATA     BYTE      SPCTL
      000000F8H   SFRSYM    DATA     BYTE      P7
      000000E8H   SFRSYM    DATA     BYTE      P6
      000000C8H   SFRSYM    DATA     BYTE      P5
      000000C0H   SFRSYM    DATA     BYTE      P4
      000000ABH   SFRSYM    DATA     BYTE      WKTCH
      000000B0H   SFRSYM    DATA     BYTE      P3
      000000A0H   SFRSYM    DATA     BYTE      P2
      000000B1H   SFRSYM    DATA     BYTE      P3M1
      00000090H   SFRSYM    DATA     BYTE      P1
      000000B2H   SFRSYM    DATA     BYTE      P3M0
      00000080H   SFRSYM    DATA     BYTE      P0

      00FE2579H   BLOCK     ECODE    ---       LVL=0
      0001297BH   SYMBOL    XDATA    DWORD     clock
      00FE2583H   BLOCK     ECODE    NEAR LAB  LVL=1
      0001297FH   SYMBOL    XDATA    BYTE      pll_div
      ---         BLOCKEND  ---      ---       LVL=1
      00FE2579H   LINE      ECODE    ---       #49
      00FE2583H   LINE      ECODE    ---       #50
      00FE2583H   LINE      ECODE    ---       #51
      00FE25ADH   LINE      ECODE    ---       #52
      00FE25B1H   LINE      ECODE    ---       #53
      00FE25B5H   LINE      ECODE    ---       #55
      00FE25CBH   LINE      ECODE    ---       #57
      00FE25CFH   LINE      ECODE    ---       #58
      00FE25D1H   LINE      ECODE    ---       #59
      00FE25E7H   LINE      ECODE    ---       #61
      00FE25EBH   LINE      ECODE    ---       #62
      00FE25EDH   LINE      ECODE    ---       #63
      00FE2603H   LINE      ECODE    ---       #65
      00FE2607H   LINE      ECODE    ---       #66
      00FE2609H   LINE      ECODE    ---       #69
      00FE260DH   LINE      ECODE    ---       #70
      00FE260DH   LINE      ECODE    ---       #73
      00FE261AH   LINE      ECODE    ---       #76
      00FE2627H   LINE      ECODE    ---       #77
      00FE2634H   LINE      ECODE    ---       #78
      00FE2637H   LINE      ECODE    ---       #79
      00FE263AH   LINE      ECODE    ---       #80
      00FE264CH   LINE      ECODE    ---       #81
      00FE2659H   LINE      ECODE    ---       #82
      00FE2673H   LINE      ECODE    ---       #83
      00FE2685H   LINE      ECODE    ---       #84
      00FE268DH   LINE      ECODE    ---       #85
      00FE269FH   LINE      ECODE    ---       #86
      00FE26B1H   LINE      ECODE    ---       #87
L251 LINKER/LOCATER V4.66.93.0                                                        05/01/2026  15:28:45  PAGE 34


      00FE26C3H   LINE      ECODE    ---       #115
      00FE26C6H   LINE      ECODE    ---       #116
      00FE26C9H   LINE      ECODE    ---       #117
      00FE26CCH   LINE      ECODE    ---       #118
      00FE26CFH   LINE      ECODE    ---       #119
      00FE26D2H   LINE      ECODE    ---       #120
      00FE26D5H   LINE      ECODE    ---       #121
      00FE26D8H   LINE      ECODE    ---       #122
      00FE26DBH   LINE      ECODE    ---       #123
      00FE26DEH   LINE      ECODE    ---       #125
      00FE26F2H   LINE      ECODE    ---       #129
      00FE26F5H   LINE      ECODE    ---       #130
      00FE26F8H   LINE      ECODE    ---       #132
      00FE2705H   LINE      ECODE    ---       #133
      00FE2713H   LINE      ECODE    ---       #136
      00FE2731H   LINE      ECODE    ---       #140
      00FE2735H   LINE      ECODE    ---       #141
      ---         BLOCKEND  ---      ---       LVL=0

      ---         MODULE    ---      ---       zf_common_interrupt
      00FE08ACH   PUBLIC    ECODE    ---       interrupt_global_disable?
      00FE046AH   PUBLIC    ECODE    ---       interrupt_set_priority?
      00FE08B0H   PUBLIC    ECODE    ---       interrupt_global_enable?
      000000D0H   SFRSYM    DATA     BYTE      PSW
      0000009DH   SFRSYM    DATA     BYTE      IRCBAND
      00000097H   SFRSYM    DATA     BYTE      AUXR2
      000000EAH   SFRSYM    DATA     BYTE      CKCON
      000000EFH   SFRSYM    DATA     BYTE      AUXINTIF
      000000FDH   SFRSYM    DATA     BYTE      S4CON
      000000ACH   SFRSYM    DATA     BYTE      S3CON
      0000009AH   SFRSYM    DATA     BYTE      S2CON
      000000B7H   SFRSYM    DATA     BYTE      IPH
      000000CDH   SFRSYM    DATA     BYTE      SPSTAT
      000000DDH   SFRSYM    DATA     BYTE      T4T3M
      000000C1H   SFRSYM    DATA     BYTE      WDT_CONTR
      000000DFH   SFRSYM    DATA     BYTE      IP3
      000000F4H   SFRSYM    DATA     BYTE      USBCON
      000000B5H   SFRSYM    DATA     BYTE      IP2
      000000FFH   SFRSYM    DATA     BYTE      RSTCFG
      000000E0H   SFRSYM    DATA     BYTE      ACC
      000000C7H   SFRSYM    DATA     BYTE      IAP_CONTR
      000000F9H   SFRSYM    DATA     BYTE      LINICR
      0000008EH   SFRSYM    DATA     BYTE      AUXR
      000000F0H   SFRSYM    DATA     BYTE      B
      000000AFH   SFRSYM    DATA     BYTE      IE2
      00000088H   SFRSYM    DATA     BYTE      TCON
      00000089H   SFRSYM    DATA     BYTE      TMOD
      00000098H   SFRSYM    DATA     BYTE      SCON
      00000087H   SFRSYM    DATA     BYTE      PCON
      000000BCH   SFRSYM    DATA     BYTE      ADC_CONTR
      000000D1H   SFRSYM    DATA     BYTE      PSW1
      000000E7H   SFRSYM    DATA     BYTE      CMPCR2
      000000E6H   SFRSYM    DATA     BYTE      CMPCR1
      000000DEH   SFRSYM    DATA     BYTE      ADCCFG
      000000B8H   SFRSYM    DATA     BYTE      IP
      0000008FH   SFRSYM    DATA     BYTE      INTCLKO
      000000EEH   SFRSYM    DATA     BYTE      IP3H
      000000B6H   SFRSYM    DATA     BYTE      IP2H
      000000BFH   SFRSYM    DATA     BYTE      P_SW4
      000000A8H   SFRSYM    DATA     BYTE      IE
      000000BBH   SFRSYM    DATA     BYTE      P_SW3
      000000BAH   SFRSYM    DATA     BYTE      P_SW2
      000000A2H   SFRSYM    DATA     BYTE      P_SW1
      000000CEH   SFRSYM    DATA     BYTE      SPCTL
      000000F8H   SFRSYM    DATA     BYTE      P7
L251 LINKER/LOCATER V4.66.93.0                                                        05/01/2026  15:28:45  PAGE 35


      000000A8H.7 SFRSYM    DATA     BIT       EA
      000000E8H   SFRSYM    DATA     BYTE      P6
      000000C8H   SFRSYM    DATA     BYTE      P5
      000000C0H   SFRSYM    DATA     BYTE      P4
      000000ABH   SFRSYM    DATA     BYTE      WKTCH
      000000B0H   SFRSYM    DATA     BYTE      P3
      000000A0H   SFRSYM    DATA     BYTE      P2
      00000090H   SFRSYM    DATA     BYTE      P1
      00000080H   SFRSYM    DATA     BYTE      P0

      00FE046AH   BLOCK     ECODE    ---       LVL=0
      00012A93H   SYMBOL    XDATA    INT       irqn
      00012A95H   SYMBOL    XDATA    BYTE      priority
      00FE046AH   LINE      ECODE    ---       #47
      00FE0474H   LINE      ECODE    ---       #49
      00FE0488H   LINE      ECODE    ---       #51
      00FE04ACH   LINE      ECODE    ---       #52
      00FE04D3H   LINE      ECODE    ---       #53
      00FE04D6H   LINE      ECODE    ---       #54
      00FE04ECH   LINE      ECODE    ---       #56
      00FE0510H   LINE      ECODE    ---       #57
      00FE0537H   LINE      ECODE    ---       #58
      00FE053AH   LINE      ECODE    ---       #59
      00FE0553H   LINE      ECODE    ---       #63
      00FE0553H   LINE      ECODE    ---       #66
      00FE05A1H   LINE      ECODE    ---       #68
      00FE05CEH   LINE      ECODE    ---       #69
      00FE05FBH   LINE      ECODE    ---       #70
      00FE0628H   LINE      ECODE    ---       #71
      00FE0655H   LINE      ECODE    ---       #72
      00FE0682H   LINE      ECODE    ---       #73
      00FE06AFH   LINE      ECODE    ---       #74
      00FE06DCH   LINE      ECODE    ---       #75
      00FE0709H   LINE      ECODE    ---       #77
      00FE0738H   LINE      ECODE    ---       #78
      00FE0767H   LINE      ECODE    ---       #79
      00FE0796H   LINE      ECODE    ---       #80
      00FE07C5H   LINE      ECODE    ---       #81
      00FE07F4H   LINE      ECODE    ---       #82
      00FE0823H   LINE      ECODE    ---       #83
      00FE0851H   LINE      ECODE    ---       #84
      00FE087FH   LINE      ECODE    ---       #86
      00FE08ABH   LINE      ECODE    ---       #87
      00FE08ABH   LINE      ECODE    ---       #88
      00FE08ABH   LINE      ECODE    ---       #89
      ---         BLOCKEND  ---      ---       LVL=0

      00FE08ACH   BLOCK     ECODE    ---       LVL=0
      00FE08ACH   LINE      ECODE    ---       #99
      00FE08ACH   LINE      ECODE    ---       #101
      00FE08AFH   LINE      ECODE    ---       #102
      ---         BLOCKEND  ---      ---       LVL=0

      00FE08B0H   BLOCK     ECODE    ---       LVL=0
      00FE08B0H   LINE      ECODE    ---       #112
      00FE08B0H   LINE      ECODE    ---       #114
      00FE08B3H   LINE      ECODE    ---       #115
      ---         BLOCKEND  ---      ---       LVL=0

      ---         MODULE    ---      ---       zf_common_debug
      00FDFE01H   PUBLIC    ECODE    ---       debug_interrupr_handler?
      00FDFF6EH   PUBLIC    ECODE    ---       debug_init?
      00FDFEDCH   PUBLIC    ECODE    ---       debug_assert_handler?
      00FDFDB2H   PUBLIC    ECODE    ---       debug_read_buffer?
      00FDFD4FH   PUBLIC    ECODE    ---       debug_send_buffer?
L251 LINKER/LOCATER V4.66.93.0                                                        05/01/2026  15:28:45  PAGE 36


      00FDFECBH   PUBLIC    ECODE    ---       putchar?
      000111E7H   PUBLIC    XDATA    ---       debug_uart_buffer
      00011268H   PUBLIC    XDATA    ---       debug_uart_fifo
      000000D0H   SFRSYM    DATA     BYTE      PSW
      0000009DH   SFRSYM    DATA     BYTE      IRCBAND
      00000097H   SFRSYM    DATA     BYTE      AUXR2
      000000EAH   SFRSYM    DATA     BYTE      CKCON
      000000EFH   SFRSYM    DATA     BYTE      AUXINTIF
      000000FDH   SFRSYM    DATA     BYTE      S4CON
      000000ACH   SFRSYM    DATA     BYTE      S3CON
      0000009AH   SFRSYM    DATA     BYTE      S2CON
      000000B7H   SFRSYM    DATA     BYTE      IPH
      000000CDH   SFRSYM    DATA     BYTE      SPSTAT
      000000DDH   SFRSYM    DATA     BYTE      T4T3M
      000000C1H   SFRSYM    DATA     BYTE      WDT_CONTR
      000000DFH   SFRSYM    DATA     BYTE      IP3
      000000F4H   SFRSYM    DATA     BYTE      USBCON
      000000B5H   SFRSYM    DATA     BYTE      IP2
      000000FFH   SFRSYM    DATA     BYTE      RSTCFG
      000000E0H   SFRSYM    DATA     BYTE      ACC
      000000DCH   SFRSYM    DATA     BYTE      USBCLK
      000000C7H   SFRSYM    DATA     BYTE      IAP_CONTR
      000000F9H   SFRSYM    DATA     BYTE      LINICR
      0000008EH   SFRSYM    DATA     BYTE      AUXR
      000000F0H   SFRSYM    DATA     BYTE      B
      000000AFH   SFRSYM    DATA     BYTE      IE2
      00000088H   SFRSYM    DATA     BYTE      TCON
      00000089H   SFRSYM    DATA     BYTE      TMOD
      00000098H   SFRSYM    DATA     BYTE      SCON
      00000087H   SFRSYM    DATA     BYTE      PCON
      000000BCH   SFRSYM    DATA     BYTE      ADC_CONTR
      000000D1H   SFRSYM    DATA     BYTE      PSW1
      000000E7H   SFRSYM    DATA     BYTE      CMPCR2
      000000E6H   SFRSYM    DATA     BYTE      CMPCR1
      000000DEH   SFRSYM    DATA     BYTE      ADCCFG
      000000B8H   SFRSYM    DATA     BYTE      IP
      0000008FH   SFRSYM    DATA     BYTE      INTCLKO
      000000EEH   SFRSYM    DATA     BYTE      IP3H
      000000B6H   SFRSYM    DATA     BYTE      IP2H
      000000BFH   SFRSYM    DATA     BYTE      P_SW4
      000000A8H   SFRSYM    DATA     BYTE      IE
      000000BBH   SFRSYM    DATA     BYTE      P_SW3
      000000BAH   SFRSYM    DATA     BYTE      P_SW2
      000000A2H   SFRSYM    DATA     BYTE      P_SW1
      000000CEH   SFRSYM    DATA     BYTE      SPCTL
      000000F8H   SFRSYM    DATA     BYTE      P7
      000000A8H.7 SFRSYM    DATA     BIT       EA
      000000E8H   SFRSYM    DATA     BYTE      P6
      000000C8H   SFRSYM    DATA     BYTE      P5
      000000C0H   SFRSYM    DATA     BYTE      P4
      000000ABH   SFRSYM    DATA     BYTE      WKTCH
      000000B0H   SFRSYM    DATA     BYTE      P3
      000000A0H   SFRSYM    DATA     BYTE      P2
      00000090H   SFRSYM    DATA     BYTE      P1
      00000080H   SFRSYM    DATA     BYTE      P0
      00FE6A8DH   SYMBOL    HCONST   ---       ?tpl?0001
      00FE6A95H   SYMBOL    HCONST   ---       ?tpl?0002
      00011267H   SYMBOL    XDATA    BYTE      zf_debug_assert_enable
      0001127FH   SYMBOL    XDATA    BYTE      zf_debug_init_flag

      00FDFD4FH   BLOCK     ECODE    ---       LVL=0
      00012790H   SYMBOL    XDATA    ---       buff
      00012794H   SYMBOL    XDATA    DWORD     len
      00FDFD4FH   LINE      ECODE    ---       #68
      00FDFD63H   LINE      ECODE    ---       #72
L251 LINKER/LOCATER V4.66.93.0                                                        05/01/2026  15:28:45  PAGE 37


      00FDFD73H   LINE      ECODE    ---       #74
      00FDFD85H   LINE      ECODE    ---       #75
      00FDFD97H   LINE      ECODE    ---       #76
      00FDFD97H   LINE      ECODE    ---       #79
      00FDFDAFH   LINE      ECODE    ---       #80
      00FDFDAFH   LINE      ECODE    ---       #81
      00FDFDB1H   LINE      ECODE    ---       #96
      ---         BLOCKEND  ---      ---       LVL=0

      00FDFDB2H   BLOCK     ECODE    ---       LVL=0
      00012798H   SYMBOL    XDATA    ---       buff
      0001279CH   SYMBOL    XDATA    DWORD     len
      00FDFDB2H   LINE      ECODE    ---       #106
      00FDFDC6H   LINE      ECODE    ---       #108
      00FDFDF6H   LINE      ECODE    ---       #109
      00FDFE00H   LINE      ECODE    ---       #110
      ---         BLOCKEND  ---      ---       LVL=0

      00FDFE01H   BLOCK     ECODE    ---       LVL=0
      000122E0H   SYMBOL    XDATA    ---       buff
      000122E4H   SYMBOL    XDATA    WORD      len
      00FDFE11H   BLOCK     ECODE    NEAR LAB  LVL=1
      000122E6H   SYMBOL    XDATA    ---       reboot_str
      ---         BLOCKEND  ---      ---       LVL=1
      00FDFE01H   LINE      ECODE    ---       #122
      00FDFE11H   LINE      ECODE    ---       #123
      00FDFE11H   LINE      ECODE    ---       #126
      00FDFE27H   LINE      ECODE    ---       #127
      00FDFE4AH   LINE      ECODE    ---       #129
      00FDFE4DH   LINE      ECODE    ---       #130
      00FDFE59H   LINE      ECODE    ---       #131
      00FDFE5CH   LINE      ECODE    ---       #132
      00FDFE5FH   LINE      ECODE    ---       #133
      00FDFE6BH   LINE      ECODE    ---       #134
      00FDFE77H   LINE      ECODE    ---       #135
      00FDFE95H   LINE      ECODE    ---       #136
      00FDFE99H   LINE      ECODE    ---       #137
      00FDFE99H   LINE      ECODE    ---       #139
      00FDFEA2H   LINE      ECODE    ---       #141
      00FDFECAH   LINE      ECODE    ---       #142
      ---         BLOCKEND  ---      ---       LVL=0

      00FDFECBH   BLOCK     ECODE    ---       LVL=0
      00012AFCH   SYMBOL    XDATA    CHAR      c
      00FDFECBH   LINE      ECODE    ---       #167
      00FDFECFH   LINE      ECODE    ---       #170
      00FDFED7H   LINE      ECODE    ---       #171
      00FDFEDBH   LINE      ECODE    ---       #177
      ---         BLOCKEND  ---      ---       LVL=0

      00FDFEDCH   BLOCK     ECODE    ---       LVL=0
      0001200AH   SYMBOL    XDATA    BYTE      pass
      0001200BH   SYMBOL    XDATA    ---       file
      0001200FH   SYMBOL    XDATA    INT       line
      00FDFEF0H   BLOCK     ECODE    NEAR LAB  LVL=1
      00012011H   SYMBOL    XDATA    ---       log_str
      ---         BLOCKEND  ---      ---       LVL=1
      00FDFEDCH   LINE      ECODE    ---       #191
      00FDFEF0H   LINE      ECODE    ---       #192
      00FDFEF0H   LINE      ECODE    ---       #193
      00FDFF06H   LINE      ECODE    ---       #195
      00FDFF08H   LINE      ECODE    ---       #211
      00FDFF46H   LINE      ECODE    ---       #214
      00FDFF64H   LINE      ECODE    ---       #215
      00FDFF6DH   LINE      ECODE    ---       #216
L251 LINKER/LOCATER V4.66.93.0                                                        05/01/2026  15:28:45  PAGE 38


      ---         BLOCKEND  ---      ---       LVL=0

      00FDFF6EH   BLOCK     ECODE    ---       LVL=0
      00FDFF6EH   LINE      ECODE    ---       #226
      00FDFF6EH   LINE      ECODE    ---       #229
      00FDFF72H   LINE      ECODE    ---       #231
      00FDFFA0H   LINE      ECODE    ---       #232
      00FDFFACH   LINE      ECODE    ---       #248
      ---         BLOCKEND  ---      ---       LVL=0

      ---         MODULE    ---      ---       zf_common_fifo
      00FD92A5H   PUBLIC    ECODE    ---       fifo_read_buffer?
      00FD8B0FH   PUBLIC    ECODE    ---       fifo_clear?
      00FD8CF3H   PUBLIC    ECODE    ---       fifo_write_buffer?
      00FD8C99H   PUBLIC    ECODE    ---       fifo_used?
      00FD9862H   PUBLIC    ECODE    ---       fifo_init?
      00012144H   PUBLIC    XDATA    BYTE      ?fifo_write_buffer??BYTE
      00011FAFH   PUBLIC    XDATA    BYTE      ?fifo_read_buffer??BYTE
      000122EEH   PUBLIC    XDATA    BYTE      ?fifo_init??BYTE
      000000D0H   SFRSYM    DATA     BYTE      PSW
      0000009DH   SFRSYM    DATA     BYTE      IRCBAND
      00000097H   SFRSYM    DATA     BYTE      AUXR2
      000000EAH   SFRSYM    DATA     BYTE      CKCON
      000000EFH   SFRSYM    DATA     BYTE      AUXINTIF
      000000FDH   SFRSYM    DATA     BYTE      S4CON
      000000ACH   SFRSYM    DATA     BYTE      S3CON
      0000009AH   SFRSYM    DATA     BYTE      S2CON
      000000B7H   SFRSYM    DATA     BYTE      IPH
      000000CDH   SFRSYM    DATA     BYTE      SPSTAT
      000000DDH   SFRSYM    DATA     BYTE      T4T3M
      000000C1H   SFRSYM    DATA     BYTE      WDT_CONTR
      000000DFH   SFRSYM    DATA     BYTE      IP3
      000000F4H   SFRSYM    DATA     BYTE      USBCON
      000000B5H   SFRSYM    DATA     BYTE      IP2
      000000FFH   SFRSYM    DATA     BYTE      RSTCFG
      000000E0H   SFRSYM    DATA     BYTE      ACC
      000000C7H   SFRSYM    DATA     BYTE      IAP_CONTR
      000000F9H   SFRSYM    DATA     BYTE      LINICR
      0000008EH   SFRSYM    DATA     BYTE      AUXR
      000000F0H   SFRSYM    DATA     BYTE      B
      000000AFH   SFRSYM    DATA     BYTE      IE2
      00000088H   SFRSYM    DATA     BYTE      TCON
      00000089H   SFRSYM    DATA     BYTE      TMOD
      00000098H   SFRSYM    DATA     BYTE      SCON
      00000087H   SFRSYM    DATA     BYTE      PCON
      000000BCH   SFRSYM    DATA     BYTE      ADC_CONTR
      000000D1H   SFRSYM    DATA     BYTE      PSW1
      000000E7H   SFRSYM    DATA     BYTE      CMPCR2
      000000E6H   SFRSYM    DATA     BYTE      CMPCR1
      000000DEH   SFRSYM    DATA     BYTE      ADCCFG
      000000B8H   SFRSYM    DATA     BYTE      IP
      0000008FH   SFRSYM    DATA     BYTE      INTCLKO
      000000EEH   SFRSYM    DATA     BYTE      IP3H
      000000B6H   SFRSYM    DATA     BYTE      IP2H
      000000BFH   SFRSYM    DATA     BYTE      P_SW4
      000000A8H   SFRSYM    DATA     BYTE      IE
      000000BBH   SFRSYM    DATA     BYTE      P_SW3
      000000BAH   SFRSYM    DATA     BYTE      P_SW2
      000000A2H   SFRSYM    DATA     BYTE      P_SW1
      000000CEH   SFRSYM    DATA     BYTE      SPCTL
      000000F8H   SFRSYM    DATA     BYTE      P7
      000000E8H   SFRSYM    DATA     BYTE      P6
      000000C8H   SFRSYM    DATA     BYTE      P5
      000000C0H   SFRSYM    DATA     BYTE      P4
      000000ABH   SFRSYM    DATA     BYTE      WKTCH
L251 LINKER/LOCATER V4.66.93.0                                                        05/01/2026  15:28:45  PAGE 39


      000000B0H   SFRSYM    DATA     BYTE      P3
      000000A0H   SFRSYM    DATA     BYTE      P2
      00000090H   SFRSYM    DATA     BYTE      P1
      00000080H   SFRSYM    DATA     BYTE      P0
      00FD89CFH   SYMBOL    ECODE    ---       fifo_head_offset
      00FD8A6FH   SYMBOL    ECODE    ---       fifo_end_offset

      00FD89CFH   BLOCK     ECODE    ---       LVL=0
      000127A0H   SYMBOL    XDATA    ---       fifo
      000127A4H   SYMBOL    XDATA    DWORD     offset
      00FD89CFH   LINE      ECODE    ---       #49
      00FD89E3H   LINE      ECODE    ---       #51
      00FD8A0BH   LINE      ECODE    ---       #53
      00FD8A0DH   LINE      ECODE    ---       #55
      00FD8A40H   LINE      ECODE    ---       #56
      00FD8A6EH   LINE      ECODE    ---       #57
      ---         BLOCKEND  ---      ---       LVL=0

      00FD8A6FH   BLOCK     ECODE    ---       LVL=0
      000127A8H   SYMBOL    XDATA    ---       fifo
      000127ACH   SYMBOL    XDATA    DWORD     offset
      00FD8A6FH   LINE      ECODE    ---       #67
      00FD8A83H   LINE      ECODE    ---       #69
      00FD8AABH   LINE      ECODE    ---       #71
      00FD8AADH   LINE      ECODE    ---       #73
      00FD8AE0H   LINE      ECODE    ---       #74
      00FD8B0EH   LINE      ECODE    ---       #75
      ---         BLOCKEND  ---      ---       LVL=0

      00FD8B0FH   BLOCK     ECODE    ---       LVL=0
      000128B5H   SYMBOL    XDATA    ---       fifo
      00FD8B19H   BLOCK     ECODE    NEAR LAB  LVL=1
      000128B9H   SYMBOL    XDATA    INT       return_state
      ---         BLOCKEND  ---      ---       LVL=1
      00FD8B0FH   LINE      ECODE    ---       #84
      00FD8B19H   LINE      ECODE    ---       #85
      00FD8B19H   LINE      ECODE    ---       #86
      00FD8B21H   LINE      ECODE    ---       #87
      00FD8B44H   LINE      ECODE    ---       #89
      00FD8B44H   LINE      ECODE    ---       #91
      00FD8B56H   LINE      ECODE    ---       #93
      00FD8B60H   LINE      ECODE    ---       #94
      00FD8B63H   LINE      ECODE    ---       #95
      00FD8B63H   LINE      ECODE    ---       #96
      00FD8B77H   LINE      ECODE    ---       #97
      00FD8B8EH   LINE      ECODE    ---       #98
      00FD8BA5H   LINE      ECODE    ---       #99
      00FD8BCFH   LINE      ECODE    ---       #100
      00FD8BEDH   LINE      ECODE    ---       #102
      00FD8C1EH   LINE      ECODE    ---       #103
      00FD8C51H   LINE      ECODE    ---       #104
      00FD8C84H   LINE      ECODE    ---       #105
      00FD8C84H   LINE      ECODE    ---       #106
      00FD8C92H   LINE      ECODE    ---       #107
      00FD8C92H   LINE      ECODE    ---       #108
      00FD8C98H   LINE      ECODE    ---       #109
      ---         BLOCKEND  ---      ---       LVL=0

      00FD8C99H   BLOCK     ECODE    ---       LVL=0
      000129CFH   SYMBOL    XDATA    ---       fifo
      00FD8C99H   LINE      ECODE    ---       #118
      00FD8CA3H   LINE      ECODE    ---       #120
      00FD8CC6H   LINE      ECODE    ---       #121
      00FD8CF2H   LINE      ECODE    ---       #122
      ---         BLOCKEND  ---      ---       LVL=0
L251 LINKER/LOCATER V4.66.93.0                                                        05/01/2026  15:28:45  PAGE 40



      00FD8CF3H   BLOCK     ECODE    ---       LVL=0
      00012144H   SYMBOL    XDATA    ---       fifo
      00012148H   SYMBOL    XDATA    ---       dat
      0001214CH   SYMBOL    XDATA    DWORD     length
      00FD8D07H   BLOCK     ECODE    NEAR LAB  LVL=1
      00012150H   SYMBOL    XDATA    INT       return_state
      00012152H   SYMBOL    XDATA    DWORD     temp_length
      ---         BLOCKEND  ---      ---       LVL=1
      00FD8CF3H   LINE      ECODE    ---       #176
      00FD8D07H   LINE      ECODE    ---       #177
      00FD8D07H   LINE      ECODE    ---       #178
      00FD8D0FH   LINE      ECODE    ---       #179
      00FD8D1BH   LINE      ECODE    ---       #180
      00FD8D3EH   LINE      ECODE    ---       #182
      00FD8D3EH   LINE      ECODE    ---       #184
      00FD8D4CH   LINE      ECODE    ---       #186
      00FD8D56H   LINE      ECODE    ---       #187
      00FD8D59H   LINE      ECODE    ---       #188
      00FD8D59H   LINE      ECODE    ---       #189
      00FD8D74H   LINE      ECODE    ---       #191
      00FD8D7EH   LINE      ECODE    ---       #192
      00FD8D81H   LINE      ECODE    ---       #193
      00FD8D81H   LINE      ECODE    ---       #194
      00FD8D95H   LINE      ECODE    ---       #196
      00FD8DBBH   LINE      ECODE    ---       #198
      00FD8DF1H   LINE      ECODE    ---       #200
      00FD8E0CH   LINE      ECODE    ---       #202
      00FD8E30H   LINE      ECODE    ---       #204
      00FD8E30H   LINE      ECODE    ---       #206
      00FD8E78H   LINE      ECODE    ---       #209
      00FD8E8FH   LINE      ECODE    ---       #210
      00FD8EF5H   LINE      ECODE    ---       #214
      00FD8F18H   LINE      ECODE    ---       #215
      00FD8F1BH   LINE      ECODE    ---       #216
      00FD8F1BH   LINE      ECODE    ---       #218
      00FD8F67H   LINE      ECODE    ---       #221
      00FD8F7EH   LINE      ECODE    ---       #222
      00FD8FE6H   LINE      ECODE    ---       #226
      00FD9009H   LINE      ECODE    ---       #227
      00FD900CH   LINE      ECODE    ---       #228
      00FD900CH   LINE      ECODE    ---       #230
      00FD905CH   LINE      ECODE    ---       #233
      00FD9073H   LINE      ECODE    ---       #234
      00FD90E1H   LINE      ECODE    ---       #238
      00FD9104H   LINE      ECODE    ---       #239
      00FD9104H   LINE      ECODE    ---       #240
      00FD9104H   LINE      ECODE    ---       #241
      00FD9107H   LINE      ECODE    ---       #244
      00FD9128H   LINE      ECODE    ---       #246
      00FD9128H   LINE      ECODE    ---       #248
      00FD9170H   LINE      ECODE    ---       #251
      00FD9187H   LINE      ECODE    ---       #252
      00FD918AH   LINE      ECODE    ---       #253
      00FD918AH   LINE      ECODE    ---       #255
      00FD91D6H   LINE      ECODE    ---       #258
      00FD91EDH   LINE      ECODE    ---       #259
      00FD91EFH   LINE      ECODE    ---       #260
      00FD91EFH   LINE      ECODE    ---       #262
      00FD923FH   LINE      ECODE    ---       #265
      00FD9256H   LINE      ECODE    ---       #266
      00FD9256H   LINE      ECODE    ---       #267
      00FD9256H   LINE      ECODE    ---       #268
      00FD9256H   LINE      ECODE    ---       #270
      00FD927EH   LINE      ECODE    ---       #271
L251 LINKER/LOCATER V4.66.93.0                                                        05/01/2026  15:28:45  PAGE 41


      00FD9280H   LINE      ECODE    ---       #274
      00FD928AH   LINE      ECODE    ---       #275
      00FD928AH   LINE      ECODE    ---       #276
      00FD929EH   LINE      ECODE    ---       #277
      00FD929EH   LINE      ECODE    ---       #279
      00FD92A4H   LINE      ECODE    ---       #280
      ---         BLOCKEND  ---      ---       LVL=0

      00FD92A5H   BLOCK     ECODE    ---       LVL=0
      00011FAFH   SYMBOL    XDATA    ---       fifo
      00011FB3H   SYMBOL    XDATA    ---       dat
      00011FB7H   SYMBOL    XDATA    ---       length
      00011FBBH   SYMBOL    XDATA    INT       flag
      00FD92B9H   BLOCK     ECODE    NEAR LAB  LVL=1
      00011FBDH   SYMBOL    XDATA    INT       return_state
      00011FBFH   SYMBOL    XDATA    DWORD     temp_length
      00011FC3H   SYMBOL    XDATA    DWORD     fifo_data_length
      ---         BLOCKEND  ---      ---       LVL=1
      00FD92A5H   LINE      ECODE    ---       #353
      00FD92B9H   LINE      ECODE    ---       #354
      00FD92B9H   LINE      ECODE    ---       #355
      00FD92C1H   LINE      ECODE    ---       #356
      00FD92CDH   LINE      ECODE    ---       #357
      00FD92D9H   LINE      ECODE    ---       #359
      00FD92FCH   LINE      ECODE    ---       #360
      00FD931FH   LINE      ECODE    ---       #362
      00FD931FH   LINE      ECODE    ---       #364
      00FD932DH   LINE      ECODE    ---       #366
      00FD9337H   LINE      ECODE    ---       #367
      00FD933AH   LINE      ECODE    ---       #370
      00FD9355H   LINE      ECODE    ---       #372
      00FD9370H   LINE      ECODE    ---       #373
      00FD937AH   LINE      ECODE    ---       #374
      00FD937DH   LINE      ECODE    ---       #375
      00FD937DH   LINE      ECODE    ---       #377
      00FD9395H   LINE      ECODE    ---       #378
      00FD93B4H   LINE      ECODE    ---       #380
      00FD93CFH   LINE      ECODE    ---       #381
      00FD93D9H   LINE      ECODE    ---       #382
      00FD93E7H   LINE      ECODE    ---       #384
      00FD93FBH   LINE      ECODE    ---       #385
      00FD93FEH   LINE      ECODE    ---       #386
      00FD93FEH   LINE      ECODE    ---       #389
      00FD9412H   LINE      ECODE    ---       #390
      00FD9448H   LINE      ECODE    ---       #391
      00FD946AH   LINE      ECODE    ---       #393
      00FD948BH   LINE      ECODE    ---       #395
      00FD94DFH   LINE      ECODE    ---       #396
      00FD9537H   LINE      ECODE    ---       #397
      00FD9590H   LINE      ECODE    ---       #398
      00FD9590H   LINE      ECODE    ---       #399
      00FD9593H   LINE      ECODE    ---       #402
      00FD95B7H   LINE      ECODE    ---       #404
      00FD95B7H   LINE      ECODE    ---       #406
      00FD9601H   LINE      ECODE    ---       #407
      00FD9653H   LINE      ECODE    ---       #408
      00FD9656H   LINE      ECODE    ---       #409
      00FD9656H   LINE      ECODE    ---       #411
      00FD96A4H   LINE      ECODE    ---       #412
      00FD96F8H   LINE      ECODE    ---       #413
      00FD96FBH   LINE      ECODE    ---       #414
      00FD96FBH   LINE      ECODE    ---       #416
      00FD974DH   LINE      ECODE    ---       #417
      00FD97A5H   LINE      ECODE    ---       #418
      00FD97A5H   LINE      ECODE    ---       #419
L251 LINKER/LOCATER V4.66.93.0                                                        05/01/2026  15:28:45  PAGE 42


      00FD97A5H   LINE      ECODE    ---       #420
      00FD97A5H   LINE      ECODE    ---       #421
      00FD97B9H   LINE      ECODE    ---       #422
      00FD97B9H   LINE      ECODE    ---       #424
      00FD97C8H   LINE      ECODE    ---       #426
      00FD97DAH   LINE      ECODE    ---       #428
      00FD97E4H   LINE      ECODE    ---       #429
      00FD97E6H   LINE      ECODE    ---       #430
      00FD97E6H   LINE      ECODE    ---       #431
      00FD97FAH   LINE      ECODE    ---       #432
      00FD9818H   LINE      ECODE    ---       #433
      00FD9847H   LINE      ECODE    ---       #434
      00FD985BH   LINE      ECODE    ---       #435
      00FD985BH   LINE      ECODE    ---       #438
      00FD9861H   LINE      ECODE    ---       #439
      ---         BLOCKEND  ---      ---       LVL=0

      00FD9862H   BLOCK     ECODE    ---       LVL=0
      000122EEH   SYMBOL    XDATA    ---       fifo
      000122F2H   SYMBOL    XDATA    INT       type
      000122F4H   SYMBOL    XDATA    ---       buffer_addr
      000122F8H   SYMBOL    XDATA    DWORD     siz
      00FD9862H   LINE      ECODE    ---       #547
      00FD9872H   LINE      ECODE    ---       #549
      00FD9895H   LINE      ECODE    ---       #550
      00FD9895H   LINE      ECODE    ---       #552
      00FD98B4H   LINE      ECODE    ---       #553
      00FD98C2H   LINE      ECODE    ---       #554
      00FD98D7H   LINE      ECODE    ---       #555
      00FD98EEH   LINE      ECODE    ---       #556
      00FD9905H   LINE      ECODE    ---       #557
      00FD9924H   LINE      ECODE    ---       #558
      00FD9943H   LINE      ECODE    ---       #559
      00FD9943H   LINE      ECODE    ---       #560
      00FD9945H   LINE      ECODE    ---       #561
      ---         BLOCKEND  ---      ---       LVL=0

      ---         MODULE    ---      ---       zf_common_font
      00FF031FH   PUBLIC    CODE     ---       ascii_font_8x16
      000000D0H   SFRSYM    DATA     BYTE      PSW
      0000009DH   SFRSYM    DATA     BYTE      IRCBAND
      00000097H   SFRSYM    DATA     BYTE      AUXR2
      000000EAH   SFRSYM    DATA     BYTE      CKCON
      000000EFH   SFRSYM    DATA     BYTE      AUXINTIF
      000000FDH   SFRSYM    DATA     BYTE      S4CON
      000000ACH   SFRSYM    DATA     BYTE      S3CON
      0000009AH   SFRSYM    DATA     BYTE      S2CON
      000000B7H   SFRSYM    DATA     BYTE      IPH
      000000CDH   SFRSYM    DATA     BYTE      SPSTAT
      000000DDH   SFRSYM    DATA     BYTE      T4T3M
      000000C1H   SFRSYM    DATA     BYTE      WDT_CONTR
      000000DFH   SFRSYM    DATA     BYTE      IP3
      000000F4H   SFRSYM    DATA     BYTE      USBCON
      000000B5H   SFRSYM    DATA     BYTE      IP2
      000000FFH   SFRSYM    DATA     BYTE      RSTCFG
      000000E0H   SFRSYM    DATA     BYTE      ACC
      000000C7H   SFRSYM    DATA     BYTE      IAP_CONTR
      000000F9H   SFRSYM    DATA     BYTE      LINICR
      0000008EH   SFRSYM    DATA     BYTE      AUXR
      000000F0H   SFRSYM    DATA     BYTE      B
      000000AFH   SFRSYM    DATA     BYTE      IE2
      00000088H   SFRSYM    DATA     BYTE      TCON
      00000089H   SFRSYM    DATA     BYTE      TMOD
      00000098H   SFRSYM    DATA     BYTE      SCON
      00000087H   SFRSYM    DATA     BYTE      PCON
L251 LINKER/LOCATER V4.66.93.0                                                        05/01/2026  15:28:45  PAGE 43


      000000BCH   SFRSYM    DATA     BYTE      ADC_CONTR
      000000D1H   SFRSYM    DATA     BYTE      PSW1
      000000E7H   SFRSYM    DATA     BYTE      CMPCR2
      000000E6H   SFRSYM    DATA     BYTE      CMPCR1
      000000DEH   SFRSYM    DATA     BYTE      ADCCFG
      000000B8H   SFRSYM    DATA     BYTE      IP
      0000008FH   SFRSYM    DATA     BYTE      INTCLKO
      000000EEH   SFRSYM    DATA     BYTE      IP3H
      000000B6H   SFRSYM    DATA     BYTE      IP2H
      000000BFH   SFRSYM    DATA     BYTE      P_SW4
      000000A8H   SFRSYM    DATA     BYTE      IE
      000000BBH   SFRSYM    DATA     BYTE      P_SW3
      000000BAH   SFRSYM    DATA     BYTE      P_SW2
      000000A2H   SFRSYM    DATA     BYTE      P_SW1
      000000CEH   SFRSYM    DATA     BYTE      SPCTL
      000000F8H   SFRSYM    DATA     BYTE      P7
      000000E8H   SFRSYM    DATA     BYTE      P6
      000000C8H   SFRSYM    DATA     BYTE      P5
      000000C0H   SFRSYM    DATA     BYTE      P4
      000000ABH   SFRSYM    DATA     BYTE      WKTCH
      000000B0H   SFRSYM    DATA     BYTE      P3
      000000A0H   SFRSYM    DATA     BYTE      P2
      00000090H   SFRSYM    DATA     BYTE      P1
      00000080H   SFRSYM    DATA     BYTE      P0

      ---         MODULE    ---      ---       zf_common_function
      00FC572FH   PUBLIC    ECODE    ---       func_double_to_str?
      00FC53F8H   PUBLIC    ECODE    ---       func_str_to_double?
      00FC5031H   PUBLIC    ECODE    ---       func_float_to_str?
      00FC4DAAH   PUBLIC    ECODE    ---       func_str_to_float?
      00FC48A6H   PUBLIC    ECODE    ---       func_soft_delay?
      00FC681FH   PUBLIC    ECODE    ---       zf_sprintf?
      00FC4C8CH   PUBLIC    ECODE    ---       func_uint_to_str?
      00FC4BCAH   PUBLIC    ECODE    ---       func_str_to_uint?
      00FC5D1CH   PUBLIC    ECODE    ---       func_hex_to_str?
      00FC5B2EH   PUBLIC    ECODE    ---       func_str_to_hex?
      00FC4A11H   PUBLIC    ECODE    ---       func_int_to_str?
      00FC48CEH   PUBLIC    ECODE    ---       func_str_to_int?
      00FC4800H   PUBLIC    ECODE    ---       func_get_greatest_common_divisor?
      00FC6136H   PUBLIC    ECODE    ---       vsnprintf?
      00011845H   PUBLIC    XDATA    BYTE      ?func_double_to_str??BYTE
      00011526H   PUBLIC    XDATA    BYTE      ?vsnprintf??BYTE
      0001143DH   PUBLIC    XDATA    BYTE      ?zf_sprintf??BYTE
      000000D0H   SFRSYM    DATA     BYTE      PSW
      0000009DH   SFRSYM    DATA     BYTE      IRCBAND
      00000097H   SFRSYM    DATA     BYTE      AUXR2
      000000EAH   SFRSYM    DATA     BYTE      CKCON
      000000EFH   SFRSYM    DATA     BYTE      AUXINTIF
      000000FDH   SFRSYM    DATA     BYTE      S4CON
      000000ACH   SFRSYM    DATA     BYTE      S3CON
      0000009AH   SFRSYM    DATA     BYTE      S2CON
      000000B7H   SFRSYM    DATA     BYTE      IPH
      000000CDH   SFRSYM    DATA     BYTE      SPSTAT
      000000DDH   SFRSYM    DATA     BYTE      T4T3M
      000000C1H   SFRSYM    DATA     BYTE      WDT_CONTR
      000000DFH   SFRSYM    DATA     BYTE      IP3
      000000F4H   SFRSYM    DATA     BYTE      USBCON
      000000B5H   SFRSYM    DATA     BYTE      IP2
      000000FFH   SFRSYM    DATA     BYTE      RSTCFG
      000000E0H   SFRSYM    DATA     BYTE      ACC
      000000C7H   SFRSYM    DATA     BYTE      IAP_CONTR
      000000F9H   SFRSYM    DATA     BYTE      LINICR
      0000008EH   SFRSYM    DATA     BYTE      AUXR
      000000F0H   SFRSYM    DATA     BYTE      B
      000000AFH   SFRSYM    DATA     BYTE      IE2
L251 LINKER/LOCATER V4.66.93.0                                                        05/01/2026  15:28:45  PAGE 44


      00000088H   SFRSYM    DATA     BYTE      TCON
      00000089H   SFRSYM    DATA     BYTE      TMOD
      00000098H   SFRSYM    DATA     BYTE      SCON
      00000087H   SFRSYM    DATA     BYTE      PCON
      000000BCH   SFRSYM    DATA     BYTE      ADC_CONTR
      000000D1H   SFRSYM    DATA     BYTE      PSW1
      000000E7H   SFRSYM    DATA     BYTE      CMPCR2
      000000E6H   SFRSYM    DATA     BYTE      CMPCR1
      000000DEH   SFRSYM    DATA     BYTE      ADCCFG
      000000B8H   SFRSYM    DATA     BYTE      IP
      0000008FH   SFRSYM    DATA     BYTE      INTCLKO
      000000EEH   SFRSYM    DATA     BYTE      IP3H
      000000B6H   SFRSYM    DATA     BYTE      IP2H
      000000BFH   SFRSYM    DATA     BYTE      P_SW4
      000000A8H   SFRSYM    DATA     BYTE      IE
      000000BBH   SFRSYM    DATA     BYTE      P_SW3
      000000BAH   SFRSYM    DATA     BYTE      P_SW2
      000000A2H   SFRSYM    DATA     BYTE      P_SW1
      000000CEH   SFRSYM    DATA     BYTE      SPCTL
      000000F8H   SFRSYM    DATA     BYTE      P7
      000000E8H   SFRSYM    DATA     BYTE      P6
      000000C8H   SFRSYM    DATA     BYTE      P5
      000000C0H   SFRSYM    DATA     BYTE      P4
      000000ABH   SFRSYM    DATA     BYTE      WKTCH
      000000B0H   SFRSYM    DATA     BYTE      P3
      000000A0H   SFRSYM    DATA     BYTE      P2
      00000090H   SFRSYM    DATA     BYTE      P1
      00000080H   SFRSYM    DATA     BYTE      P0
      00FE6830H   SYMBOL    HCONST   ---       ?tpl?0001
      00FE6840H   SYMBOL    HCONST   ---       ?tpl?0002
      00FC5EA2H   SYMBOL    ECODE    ---       number_conversion_ascii
      00FC603DH   SYMBOL    ECODE    ---       printf_reverse_order

      00FC4800H   BLOCK     ECODE    ---       LVL=0
      000127B0H   SYMBOL    XDATA    DWORD     num1
      000127B4H   SYMBOL    XDATA    DWORD     num2
      00FC4800H   LINE      ECODE    ---       #49
      00FC4814H   LINE      ECODE    ---       #51
      00FC4816H   LINE      ECODE    ---       #53
      00FC482EH   LINE      ECODE    ---       #55
      00FC484BH   LINE      ECODE    ---       #56
      00FC484BH   LINE      ECODE    ---       #57
      00FC4863H   LINE      ECODE    ---       #59
      00FC4880H   LINE      ECODE    ---       #60
      00FC489BH   LINE      ECODE    ---       #62
      00FC48A5H   LINE      ECODE    ---       #63
      ---         BLOCKEND  ---      ---       LVL=0

      00FC48A6H   BLOCK     ECODE    ---       LVL=0
      000129D3H   SYMBOL    XDATA    LONG      t
      00FC48A6H   LINE      ECODE    ---       #72
      00FC48B0H   LINE      ECODE    ---       #74
      00FC48CDH   LINE      ECODE    ---       #75
      ---         BLOCKEND  ---      ---       LVL=0

      00FC48CEH   BLOCK     ECODE    ---       LVL=0
      000126AFH   SYMBOL    XDATA    ---       str
      00FC48D8H   BLOCK     ECODE    NEAR LAB  LVL=1
      000126B3H   SYMBOL    XDATA    BYTE      sign
      000126B4H   SYMBOL    XDATA    LONG      temp
      ---         BLOCKEND  ---      ---       LVL=1
      00FC48CEH   LINE      ECODE    ---       #84
      00FC48D8H   LINE      ECODE    ---       #85
      00FC48D8H   LINE      ECODE    ---       #86
      00FC48DDH   LINE      ECODE    ---       #87
L251 LINKER/LOCATER V4.66.93.0                                                        05/01/2026  15:28:45  PAGE 45


      00FC48E9H   LINE      ECODE    ---       #88
      00FC490CH   LINE      ECODE    ---       #89
      00FC490CH   LINE      ECODE    ---       #91
      00FC491DH   LINE      ECODE    ---       #93
      00FC491DH   LINE      ECODE    ---       #94
      00FC491DH   LINE      ECODE    ---       #96
      00FC492FH   LINE      ECODE    ---       #98
      00FC4935H   LINE      ECODE    ---       #99
      00FC4948H   LINE      ECODE    ---       #100
      00FC494AH   LINE      ECODE    ---       #101
      00FC495CH   LINE      ECODE    ---       #103
      00FC496FH   LINE      ECODE    ---       #104
      00FC496FH   LINE      ECODE    ---       #106
      00FC4971H   LINE      ECODE    ---       #108
      00FC49A6H   LINE      ECODE    ---       #109
      00FC49B9H   LINE      ECODE    ---       #110
      00FC49DFH   LINE      ECODE    ---       #112
      00FC49E8H   LINE      ECODE    ---       #114
      00FC4A06H   LINE      ECODE    ---       #115
      00FC4A06H   LINE      ECODE    ---       #117
      00FC4A10H   LINE      ECODE    ---       #118
      ---         BLOCKEND  ---      ---       LVL=0

      00FC4A11H   BLOCK     ECODE    ---       LVL=0
      00011EA5H   SYMBOL    XDATA    ---       str
      00011EA9H   SYMBOL    XDATA    LONG      number
      00FC4A25H   BLOCK     ECODE    NEAR LAB  LVL=1
      00011EADH   SYMBOL    XDATA    ---       data_temp
      00011EBDH   SYMBOL    XDATA    BYTE      temp_bit
      00011EBEH   SYMBOL    XDATA    LONG      number_temp
      ---         BLOCKEND  ---      ---       LVL=1
      00FC4A11H   LINE      ECODE    ---       #128
      00FC4A25H   LINE      ECODE    ---       #129
      00FC4A25H   LINE      ECODE    ---       #131
      00FC4A2AH   LINE      ECODE    ---       #132
      00FC4A36H   LINE      ECODE    ---       #133
      00FC4A59H   LINE      ECODE    ---       #134
      00FC4A59H   LINE      ECODE    ---       #136
      00FC4A6AH   LINE      ECODE    ---       #138
      00FC4A6AH   LINE      ECODE    ---       #139
      00FC4A6AH   LINE      ECODE    ---       #141
      00FC4A7AH   LINE      ECODE    ---       #143
      00FC4A9FH   LINE      ECODE    ---       #144
      00FC4ABDH   LINE      ECODE    ---       #145
      00FC4ABFH   LINE      ECODE    ---       #146
      00FC4ACDH   LINE      ECODE    ---       #148
      00FC4ADCH   LINE      ECODE    ---       #149
      00FC4ADFH   LINE      ECODE    ---       #150
      00FC4ADFH   LINE      ECODE    ---       #152
      00FC4AE2H   LINE      ECODE    ---       #154
      00FC4AFEH   LINE      ECODE    ---       #155
      00FC4B48H   LINE      ECODE    ---       #156
      00FC4B61H   LINE      ECODE    ---       #157
      00FC4B72H   LINE      ECODE    ---       #158
      00FC4B74H   LINE      ECODE    ---       #160
      00FC4BB2H   LINE      ECODE    ---       #161
      00FC4BC0H   LINE      ECODE    ---       #162
      00FC4BC9H   LINE      ECODE    ---       #163
      00FC4BC9H   LINE      ECODE    ---       #164
      ---         BLOCKEND  ---      ---       LVL=0

      00FC4BCAH   BLOCK     ECODE    ---       LVL=0
      000127B8H   SYMBOL    XDATA    ---       str
      00FC4BD4H   BLOCK     ECODE    NEAR LAB  LVL=1
      000127BCH   SYMBOL    XDATA    DWORD     temp
L251 LINKER/LOCATER V4.66.93.0                                                        05/01/2026  15:28:45  PAGE 46


      ---         BLOCKEND  ---      ---       LVL=1
      00FC4BCAH   LINE      ECODE    ---       #173
      00FC4BD4H   LINE      ECODE    ---       #174
      00FC4BD4H   LINE      ECODE    ---       #175
      00FC4BE0H   LINE      ECODE    ---       #176
      00FC4C03H   LINE      ECODE    ---       #178
      00FC4C03H   LINE      ECODE    ---       #180
      00FC4C11H   LINE      ECODE    ---       #182
      00FC4C11H   LINE      ECODE    ---       #183
      00FC4C11H   LINE      ECODE    ---       #185
      00FC4C13H   LINE      ECODE    ---       #187
      00FC4C48H   LINE      ECODE    ---       #188
      00FC4C5BH   LINE      ECODE    ---       #189
      00FC4C81H   LINE      ECODE    ---       #190
      00FC4C81H   LINE      ECODE    ---       #192
      00FC4C8BH   LINE      ECODE    ---       #193
      ---         BLOCKEND  ---      ---       LVL=0

      00FC4C8CH   BLOCK     ECODE    ---       LVL=0
      00011F64H   SYMBOL    XDATA    ---       str
      00011F68H   SYMBOL    XDATA    DWORD     number
      00FC4CA0H   BLOCK     ECODE    NEAR LAB  LVL=1
      00011F6CH   SYMBOL    XDATA    ---       data_temp
      00011F7CH   SYMBOL    XDATA    BYTE      temp_bit
      ---         BLOCKEND  ---      ---       LVL=1
      00FC4C8CH   LINE      ECODE    ---       #203
      00FC4CA0H   LINE      ECODE    ---       #204
      00FC4CA0H   LINE      ECODE    ---       #206
      00FC4CA5H   LINE      ECODE    ---       #208
      00FC4CC8H   LINE      ECODE    ---       #210
      00FC4CC8H   LINE      ECODE    ---       #212
      00FC4CD9H   LINE      ECODE    ---       #214
      00FC4CD9H   LINE      ECODE    ---       #215
      00FC4CD9H   LINE      ECODE    ---       #217
      00FC4CE7H   LINE      ECODE    ---       #219
      00FC4CF6H   LINE      ECODE    ---       #220
      00FC4CF9H   LINE      ECODE    ---       #221
      00FC4CF9H   LINE      ECODE    ---       #223
      00FC4CFBH   LINE      ECODE    ---       #225
      00FC4D2BH   LINE      ECODE    ---       #226
      00FC4D44H   LINE      ECODE    ---       #227
      00FC4D52H   LINE      ECODE    ---       #228
      00FC4D54H   LINE      ECODE    ---       #230
      00FC4D92H   LINE      ECODE    ---       #231
      00FC4DA0H   LINE      ECODE    ---       #232
      00FC4DA9H   LINE      ECODE    ---       #233
      00FC4DA9H   LINE      ECODE    ---       #234
      ---         BLOCKEND  ---      ---       LVL=0

      00FC4DAAH   BLOCK     ECODE    ---       LVL=0
      0001219EH   SYMBOL    XDATA    ---       str
      00FC4DB4H   BLOCK     ECODE    NEAR LAB  LVL=1
      000121A2H   SYMBOL    XDATA    BYTE      sign
      000121A3H   SYMBOL    XDATA    FLOAT     temp
      000121A7H   SYMBOL    XDATA    FLOAT     temp_point
      000121ABH   SYMBOL    XDATA    FLOAT     point_bit
      ---         BLOCKEND  ---      ---       LVL=1
      00FC4DAAH   LINE      ECODE    ---       #243
      00FC4DB4H   LINE      ECODE    ---       #244
      00FC4DB4H   LINE      ECODE    ---       #245
      00FC4DB9H   LINE      ECODE    ---       #246
      00FC4DC5H   LINE      ECODE    ---       #247
      00FC4DD1H   LINE      ECODE    ---       #248
      00FC4DE1H   LINE      ECODE    ---       #250
      00FC4E04H   LINE      ECODE    ---       #252
L251 LINKER/LOCATER V4.66.93.0                                                        05/01/2026  15:28:45  PAGE 47


      00FC4E04H   LINE      ECODE    ---       #254
      00FC4E15H   LINE      ECODE    ---       #256
      00FC4E15H   LINE      ECODE    ---       #257
      00FC4E15H   LINE      ECODE    ---       #259
      00FC4E27H   LINE      ECODE    ---       #261
      00FC4E2DH   LINE      ECODE    ---       #262
      00FC4E40H   LINE      ECODE    ---       #263
      00FC4E42H   LINE      ECODE    ---       #264
      00FC4E54H   LINE      ECODE    ---       #266
      00FC4E67H   LINE      ECODE    ---       #267
      00FC4E67H   LINE      ECODE    ---       #270
      00FC4E69H   LINE      ECODE    ---       #272
      00FC4EACH   LINE      ECODE    ---       #273
      00FC4EBFH   LINE      ECODE    ---       #274
      00FC4EE5H   LINE      ECODE    ---       #275
      00FC4EFAH   LINE      ECODE    ---       #277
      00FC4F0DH   LINE      ECODE    ---       #278
      00FC4F0FH   LINE      ECODE    ---       #280
      00FC4F52H   LINE      ECODE    ---       #281
      00FC4F6DH   LINE      ECODE    ---       #282
      00FC4F80H   LINE      ECODE    ---       #283
      00FC4FC7H   LINE      ECODE    ---       #284
      00FC4FE6H   LINE      ECODE    ---       #285
      00FC4FE6H   LINE      ECODE    ---       #286
      00FC5005H   LINE      ECODE    ---       #288
      00FC500EH   LINE      ECODE    ---       #290
      00FC5026H   LINE      ECODE    ---       #291
      00FC5026H   LINE      ECODE    ---       #293
      00FC5030H   LINE      ECODE    ---       #294
      ---         BLOCKEND  ---      ---       LVL=0

      00FC5031H   BLOCK     ECODE    ---       LVL=0
      00011B0AH   SYMBOL    XDATA    ---       str
      00011B0EH   SYMBOL    XDATA    FLOAT     number
      00011B12H   SYMBOL    XDATA    BYTE      point_bit
      00FC5049H   BLOCK     ECODE    NEAR LAB  LVL=1
      00011B13H   SYMBOL    XDATA    INT       data_int
      00011B15H   SYMBOL    XDATA    INT       data_float
      00011B17H   SYMBOL    XDATA    ---       data_temp
      00011B27H   SYMBOL    XDATA    ---       data_temp_point
      00011B33H   SYMBOL    XDATA    BYTE      temp_bit
      ---         BLOCKEND  ---      ---       LVL=1
      00FC5031H   LINE      ECODE    ---       #305
      00FC5049H   LINE      ECODE    ---       #306
      00FC5049H   LINE      ECODE    ---       #307
      00FC5051H   LINE      ECODE    ---       #308
      00FC5059H   LINE      ECODE    ---       #311
      00FC5061H   LINE      ECODE    ---       #313
      00FC5084H   LINE      ECODE    ---       #315
      00FC5084H   LINE      ECODE    ---       #317
      00FC5095H   LINE      ECODE    ---       #319
      00FC5095H   LINE      ECODE    ---       #320
      00FC5095H   LINE      ECODE    ---       #323
      00FC50A9H   LINE      ECODE    ---       #324
      00FC50BBH   LINE      ECODE    ---       #326
      00FC50E0H   LINE      ECODE    ---       #327
      00FC50E2H   LINE      ECODE    ---       #328
      00FC50FCH   LINE      ECODE    ---       #330
      00FC5121H   LINE      ECODE    ---       #331
      00FC5146H   LINE      ECODE    ---       #332
      00FC5155H   LINE      ECODE    ---       #333
      00FC5158H   LINE      ECODE    ---       #334
      00FC5158H   LINE      ECODE    ---       #337
      00FC517EH   LINE      ECODE    ---       #338
      00FC5180H   LINE      ECODE    ---       #340
L251 LINKER/LOCATER V4.66.93.0                                                        05/01/2026  15:28:45  PAGE 48


      00FC519EH   LINE      ECODE    ---       #341
      00FC51B1H   LINE      ECODE    ---       #342
      00FC51C5H   LINE      ECODE    ---       #345
      00FC51CAH   LINE      ECODE    ---       #346
      00FC51CAH   LINE      ECODE    ---       #348
      00FC51F6H   LINE      ECODE    ---       #349
      00FC5207H   LINE      ECODE    ---       #350
      00FC5213H   LINE      ECODE    ---       #351
      00FC5216H   LINE      ECODE    ---       #353
      00FC5296H   LINE      ECODE    ---       #354
      00FC52A4H   LINE      ECODE    ---       #355
      00FC52B0H   LINE      ECODE    ---       #358
      00FC52BCH   LINE      ECODE    ---       #360
      00FC52C1H   LINE      ECODE    ---       #361
      00FC52E6H   LINE      ECODE    ---       #362
      00FC52F2H   LINE      ECODE    ---       #364
      00FC5301H   LINE      ECODE    ---       #365
      00FC5304H   LINE      ECODE    ---       #368
      00FC5306H   LINE      ECODE    ---       #370
      00FC5332H   LINE      ECODE    ---       #371
      00FC5343H   LINE      ECODE    ---       #372
      00FC5351H   LINE      ECODE    ---       #373
      00FC535AH   LINE      ECODE    ---       #374
      00FC535DH   LINE      ECODE    ---       #376
      00FC53DDH   LINE      ECODE    ---       #377
      00FC53EBH   LINE      ECODE    ---       #378
      00FC53F7H   LINE      ECODE    ---       #379
      00FC53F7H   LINE      ECODE    ---       #380
      00FC53F7H   LINE      ECODE    ---       #382
      ---         BLOCKEND  ---      ---       LVL=0

      00FC53F8H   BLOCK     ECODE    ---       LVL=0
      00011EC2H   SYMBOL    XDATA    ---       str
      00FC5402H   BLOCK     ECODE    NEAR LAB  LVL=1
      00011EC6H   SYMBOL    XDATA    BYTE      sign
      00011EC7H   SYMBOL    XDATA    DOUBLE    temp
      00011ECFH   SYMBOL    XDATA    DOUBLE    temp_point
      00011ED7H   SYMBOL    XDATA    DOUBLE    point_bit
      ---         BLOCKEND  ---      ---       LVL=1
      00FC53F8H   LINE      ECODE    ---       #391
      00FC5402H   LINE      ECODE    ---       #392
      00FC5402H   LINE      ECODE    ---       #393
      00FC5407H   LINE      ECODE    ---       #394
      00FC541DH   LINE      ECODE    ---       #395
      00FC5433H   LINE      ECODE    ---       #396
      00FC544DH   LINE      ECODE    ---       #398
      00FC5470H   LINE      ECODE    ---       #400
      00FC5470H   LINE      ECODE    ---       #402
      00FC5481H   LINE      ECODE    ---       #404
      00FC5481H   LINE      ECODE    ---       #405
      00FC5481H   LINE      ECODE    ---       #407
      00FC5493H   LINE      ECODE    ---       #409
      00FC5499H   LINE      ECODE    ---       #410
      00FC54ACH   LINE      ECODE    ---       #411
      00FC54AEH   LINE      ECODE    ---       #412
      00FC54C0H   LINE      ECODE    ---       #414
      00FC54D3H   LINE      ECODE    ---       #415
      00FC54D3H   LINE      ECODE    ---       #418
      00FC54D5H   LINE      ECODE    ---       #420
      00FC5530H   LINE      ECODE    ---       #421
      00FC5543H   LINE      ECODE    ---       #422
      00FC556CH   LINE      ECODE    ---       #423
      00FC5581H   LINE      ECODE    ---       #425
      00FC5594H   LINE      ECODE    ---       #426
      00FC5597H   LINE      ECODE    ---       #428
L251 LINKER/LOCATER V4.66.93.0                                                        05/01/2026  15:28:45  PAGE 49


      00FC55F2H   LINE      ECODE    ---       #429
      00FC561FH   LINE      ECODE    ---       #430
      00FC5632H   LINE      ECODE    ---       #431
      00FC567DH   LINE      ECODE    ---       #432
      00FC56B4H   LINE      ECODE    ---       #433
      00FC56B4H   LINE      ECODE    ---       #434
      00FC56EBH   LINE      ECODE    ---       #436
      00FC56F4H   LINE      ECODE    ---       #438
      00FC571CH   LINE      ECODE    ---       #439
      00FC571CH   LINE      ECODE    ---       #441
      00FC572EH   LINE      ECODE    ---       #443
      ---         BLOCKEND  ---      ---       LVL=0

      00FC572FH   BLOCK     ECODE    ---       LVL=0
      00011845H   SYMBOL    XDATA    ---       str
      00011849H   SYMBOL    XDATA    DOUBLE    number
      00011851H   SYMBOL    XDATA    BYTE      point_bit
      00FC573DH   BLOCK     ECODE    NEAR LAB  LVL=1
      00011852H   SYMBOL    XDATA    INT       data_int
      00011854H   SYMBOL    XDATA    INT       data_float
      00011856H   SYMBOL    XDATA    ---       data_temp
      0001186EH   SYMBOL    XDATA    ---       data_temp_point
      00011880H   SYMBOL    XDATA    BYTE      temp_bit
      ---         BLOCKEND  ---      ---       LVL=1
      00FC572FH   LINE      ECODE    ---       #454
      00FC573DH   LINE      ECODE    ---       #455
      00FC573DH   LINE      ECODE    ---       #456
      00FC5745H   LINE      ECODE    ---       #457
      00FC574DH   LINE      ECODE    ---       #460
      00FC5755H   LINE      ECODE    ---       #462
      00FC5778H   LINE      ECODE    ---       #464
      00FC5778H   LINE      ECODE    ---       #466
      00FC5789H   LINE      ECODE    ---       #468
      00FC5789H   LINE      ECODE    ---       #469
      00FC5789H   LINE      ECODE    ---       #472
      00FC57A5H   LINE      ECODE    ---       #473
      00FC57C1H   LINE      ECODE    ---       #475
      00FC57E6H   LINE      ECODE    ---       #476
      00FC57E8H   LINE      ECODE    ---       #477
      00FC5806H   LINE      ECODE    ---       #479
      00FC582BH   LINE      ECODE    ---       #480
      00FC5850H   LINE      ECODE    ---       #481
      00FC585FH   LINE      ECODE    ---       #482
      00FC5862H   LINE      ECODE    ---       #483
      00FC5862H   LINE      ECODE    ---       #486
      00FC589AH   LINE      ECODE    ---       #487
      00FC589CH   LINE      ECODE    ---       #489
      00FC58CCH   LINE      ECODE    ---       #490
      00FC58DFH   LINE      ECODE    ---       #491
      00FC58FBH   LINE      ECODE    ---       #494
      00FC5900H   LINE      ECODE    ---       #495
      00FC5900H   LINE      ECODE    ---       #497
      00FC592CH   LINE      ECODE    ---       #498
      00FC593DH   LINE      ECODE    ---       #499
      00FC5949H   LINE      ECODE    ---       #500
      00FC594CH   LINE      ECODE    ---       #502
      00FC59CCH   LINE      ECODE    ---       #503
      00FC59DAH   LINE      ECODE    ---       #504
      00FC59E6H   LINE      ECODE    ---       #507
      00FC59F2H   LINE      ECODE    ---       #509
      00FC59F7H   LINE      ECODE    ---       #510
      00FC5A1CH   LINE      ECODE    ---       #511
      00FC5A28H   LINE      ECODE    ---       #512
      00FC5A3AH   LINE      ECODE    ---       #515
      00FC5A3CH   LINE      ECODE    ---       #517
L251 LINKER/LOCATER V4.66.93.0                                                        05/01/2026  15:28:45  PAGE 50


      00FC5A68H   LINE      ECODE    ---       #518
      00FC5A79H   LINE      ECODE    ---       #519
      00FC5A87H   LINE      ECODE    ---       #520
      00FC5A90H   LINE      ECODE    ---       #521
      00FC5A93H   LINE      ECODE    ---       #523
      00FC5B13H   LINE      ECODE    ---       #524
      00FC5B21H   LINE      ECODE    ---       #525
      00FC5B2DH   LINE      ECODE    ---       #526
      00FC5B2DH   LINE      ECODE    ---       #527
      00FC5B2DH   LINE      ECODE    ---       #529
      ---         BLOCKEND  ---      ---       LVL=0

      00FC5B2EH   BLOCK     ECODE    ---       LVL=0
      000122FCH   SYMBOL    XDATA    ---       str
      00FC5B38H   BLOCK     ECODE    NEAR LAB  LVL=1
      00012300H   SYMBOL    XDATA    DWORD     str_len
      00012304H   SYMBOL    XDATA    DWORD     result_data
      00012308H   SYMBOL    XDATA    BYTE      temp
      00012309H   SYMBOL    XDATA    BYTE      flag
      ---         BLOCKEND  ---      ---       LVL=1
      00FC5B2EH   LINE      ECODE    ---       #538
      00FC5B38H   LINE      ECODE    ---       #539
      00FC5B38H   LINE      ECODE    ---       #540
      00FC5B52H   LINE      ECODE    ---       #541
      00FC5B5EH   LINE      ECODE    ---       #542
      00FC5B63H   LINE      ECODE    ---       #543
      00FC5B68H   LINE      ECODE    ---       #545
      00FC5B8BH   LINE      ECODE    ---       #547
      00FC5B8BH   LINE      ECODE    ---       #549
      00FC5B9CH   LINE      ECODE    ---       #551
      00FC5B9CH   LINE      ECODE    ---       #552
      00FC5B9CH   LINE      ECODE    ---       #554
      00FC5BA8H   LINE      ECODE    ---       #556
      00FC5BCEH   LINE      ECODE    ---       #558
      00FC5BE7H   LINE      ECODE    ---       #559
      00FC5BEAH   LINE      ECODE    ---       #560
      00FC5C10H   LINE      ECODE    ---       #562
      00FC5C29H   LINE      ECODE    ---       #563
      00FC5C2BH   LINE      ECODE    ---       #564
      00FC5C57H   LINE      ECODE    ---       #566
      00FC5C70H   LINE      ECODE    ---       #567
      00FC5C70H   LINE      ECODE    ---       #570
      00FC5C70H   LINE      ECODE    ---       #571
      00FC5C70H   LINE      ECODE    ---       #572
      00FC5C9DH   LINE      ECODE    ---       #573
      00FC5C9FH   LINE      ECODE    ---       #577
      00FC5CC5H   LINE      ECODE    ---       #579
      00FC5CD8H   LINE      ECODE    ---       #580
      00FC5CDEH   LINE      ECODE    ---       #581
      00FC5CDEH   LINE      ECODE    ---       #583
      00FC5CF1H   LINE      ECODE    ---       #584
      00FC5D11H   LINE      ECODE    ---       #586
      00FC5D1BH   LINE      ECODE    ---       #587
      ---         BLOCKEND  ---      ---       LVL=0

      00FC5D1CH   BLOCK     ECODE    ---       LVL=0
      00011C24H   SYMBOL    XDATA    ---       str
      00011C28H   SYMBOL    XDATA    DWORD     number
      00FC5D30H   BLOCK     ECODE    NEAR LAB  LVL=1
      00011C2CH   SYMBOL    XDATA    ---       hex_index
      00011C3CH   SYMBOL    XDATA    ---       data_temp
      00011C48H   SYMBOL    XDATA    BYTE      temp_bit
      ---         BLOCKEND  ---      ---       LVL=1
      00FC5D1CH   LINE      ECODE    ---       #597
      00FC5D30H   LINE      ECODE    ---       #598
L251 LINKER/LOCATER V4.66.93.0                                                        05/01/2026  15:28:45  PAGE 51


      00FC5D30H   LINE      ECODE    ---       #603
      00FC5D46H   LINE      ECODE    ---       #605
      00FC5D4BH   LINE      ECODE    ---       #607
      00FC5D6EH   LINE      ECODE    ---       #609
      00FC5D93H   LINE      ECODE    ---       #610
      00FC5DB8H   LINE      ECODE    ---       #611
      00FC5DB8H   LINE      ECODE    ---       #613
      00FC5DC9H   LINE      ECODE    ---       #615
      00FC5DC9H   LINE      ECODE    ---       #616
      00FC5DC9H   LINE      ECODE    ---       #618
      00FC5DD7H   LINE      ECODE    ---       #620
      00FC5DE6H   LINE      ECODE    ---       #621
      00FC5DE9H   LINE      ECODE    ---       #622
      00FC5DE9H   LINE      ECODE    ---       #624
      00FC5DEBH   LINE      ECODE    ---       #626
      00FC5E16H   LINE      ECODE    ---       #627
      00FC5E35H   LINE      ECODE    ---       #628
      00FC5E43H   LINE      ECODE    ---       #629
      00FC5E45H   LINE      ECODE    ---       #631
      00FC5E8AH   LINE      ECODE    ---       #632
      00FC5E98H   LINE      ECODE    ---       #633
      00FC5EA1H   LINE      ECODE    ---       #634
      00FC5EA1H   LINE      ECODE    ---       #635
      ---         BLOCKEND  ---      ---       LVL=0

      00FC5EA2H   BLOCK     ECODE    ---       LVL=0
      0001201EH   SYMBOL    XDATA    DWORD     dat
      00012022H   SYMBOL    XDATA    ---       p
      00012026H   SYMBOL    XDATA    BYTE      neg_type
      00012027H   SYMBOL    XDATA    BYTE      radix
      00FC5EBAH   BLOCK     ECODE    NEAR LAB  LVL=1
      00012028H   SYMBOL    XDATA    LONG      neg_dat
      0001202CH   SYMBOL    XDATA    DWORD     pos_dat
      00012030H   SYMBOL    XDATA    BYTE      temp_data
      00012031H   SYMBOL    XDATA    BYTE      valid_num
      ---         BLOCKEND  ---      ---       LVL=1
      00FC5EA2H   LINE      ECODE    ---       #647
      00FC5EBAH   LINE      ECODE    ---       #648
      00FC5EBAH   LINE      ECODE    ---       #651
      00FC5EBFH   LINE      ECODE    ---       #652
      00FC5EC4H   LINE      ECODE    ---       #654
      00FC5ED0H   LINE      ECODE    ---       #656
      00FC5EE4H   LINE      ECODE    ---       #657
      00FC5EF4H   LINE      ECODE    ---       #659
      00FC5F12H   LINE      ECODE    ---       #660
      00FC5F12H   LINE      ECODE    ---       #661
      00FC5F12H   LINE      ECODE    ---       #663
      00FC5F3BH   LINE      ECODE    ---       #664
      00FC5F58H   LINE      ECODE    ---       #665
      00FC5F63H   LINE      ECODE    ---       #667
      00FC5F71H   LINE      ECODE    ---       #669
      00FC5F71H   LINE      ECODE    ---       #670
      00FC5F71H   LINE      ECODE    ---       #671
      00FC5F84H   LINE      ECODE    ---       #672
      00FC5F86H   LINE      ECODE    ---       #673
      00FC5F89H   LINE      ECODE    ---       #676
      00FC5F9DH   LINE      ECODE    ---       #677
      00FC5F9DH   LINE      ECODE    ---       #679
      00FC5FB9H   LINE      ECODE    ---       #680
      00FC5FC5H   LINE      ECODE    ---       #682
      00FC5FCFH   LINE      ECODE    ---       #683
      00FC5FD1H   LINE      ECODE    ---       #686
      00FC5FDBH   LINE      ECODE    ---       #687
      00FC5FDBH   LINE      ECODE    ---       #689
      00FC5FECH   LINE      ECODE    ---       #691
L251 LINKER/LOCATER V4.66.93.0                                                        05/01/2026  15:28:45  PAGE 52


      00FC6009H   LINE      ECODE    ---       #692
      00FC6014H   LINE      ECODE    ---       #694
      00FC6022H   LINE      ECODE    ---       #696
      00FC6022H   LINE      ECODE    ---       #697
      00FC6022H   LINE      ECODE    ---       #698
      00FC6035H   LINE      ECODE    ---       #699
      00FC6038H   LINE      ECODE    ---       #700
      00FC6038H   LINE      ECODE    ---       #701
      00FC603CH   LINE      ECODE    ---       #702
      ---         BLOCKEND  ---      ---       LVL=0

      00FC603DH   BLOCK     ECODE    ---       LVL=0
      000123B2H   SYMBOL    XDATA    ---       d_buff
      000123B6H   SYMBOL    XDATA    DWORD     len
      00FC6051H   BLOCK     ECODE    NEAR LAB  LVL=1
      000123BAH   SYMBOL    XDATA    DWORD     i
      000123BEH   SYMBOL    XDATA    CHAR      temp_data
      ---         BLOCKEND  ---      ---       LVL=1
      00FC603DH   LINE      ECODE    ---       #712
      00FC6051H   LINE      ECODE    ---       #713
      00FC6051H   LINE      ECODE    ---       #716
      00FC6060H   LINE      ECODE    ---       #718
      00FC6091H   LINE      ECODE    ---       #719
      00FC60D9H   LINE      ECODE    ---       #720
      00FC60F8H   LINE      ECODE    ---       #721
      00FC6135H   LINE      ECODE    ---       #722
      ---         BLOCKEND  ---      ---       LVL=0

      00FC6136H   BLOCK     ECODE    ---       LVL=0
      00011526H   SYMBOL    XDATA    ---       buffer
      0001152AH   SYMBOL    XDATA    DWORD     siz
      0001152EH   SYMBOL    XDATA    ---       format
      00011532H   SYMBOL    XDATA    ---       args
      00FC614AH   BLOCK     ECODE    NEAR LAB  LVL=1
      00011536H   SYMBOL    XDATA    DWORD     i
      0001153AH   SYMBOL    XDATA    ---       ptr
      0001153EH   SYMBOL    XDATA    INT       j
      00011540H   SYMBOL    XDATA    INT       num
      00011542H   SYMBOL    XDATA    ---       temp
      00011552H   SYMBOL    XDATA    INT       len
      00011554H   SYMBOL    XDATA    INT       is_negative
      00011556H   SYMBOL    XDATA    ---       str
      0001155AH   SYMBOL    XDATA    DWORD     num_x
      0001155EH   SYMBOL    XDATA    ---       temp_x
      00011567H   SYMBOL    XDATA    ---       hex_digits
      00FC6340H   BLOCK     ECODE    NEAR LAB  LVL=2
      00011578H   SYMBOL    XDATA    CHAR      t
      ---         BLOCKEND  ---      ---       LVL=2
      00FC6650H   BLOCK     ECODE    NEAR LAB  LVL=2
      00011578H   SYMBOL    XDATA    CHAR      t
      ---         BLOCKEND  ---      ---       LVL=2
      ---         BLOCKEND  ---      ---       LVL=1
      00FC6136H   LINE      ECODE    ---       #736
      00FC614AH   LINE      ECODE    ---       #737
      00FC614AH   LINE      ECODE    ---       #748
      00FC6160H   LINE      ECODE    ---       #750
      00FC616CH   LINE      ECODE    ---       #751
      00FC6180H   LINE      ECODE    ---       #753
      00FC61AAH   LINE      ECODE    ---       #755
      00FC61AFH   LINE      ECODE    ---       #756
      00FC61AFH   LINE      ECODE    ---       #758
      00FC61B2H   LINE      ECODE    ---       #760
      00FC61C4H   LINE      ECODE    ---       #762
      00FC61FDH   LINE      ECODE    ---       #763
      00FC6214H   LINE      ECODE    ---       #764
L251 LINKER/LOCATER V4.66.93.0                                                        05/01/2026  15:28:45  PAGE 53


      00FC6217H   LINE      ECODE    ---       #765
      00FC6217H   LINE      ECODE    ---       #768
      00FC622AH   LINE      ECODE    ---       #769
      00FC6253H   LINE      ECODE    ---       #771
      00FC6253H   LINE      ECODE    ---       #772
      00FC6279H   LINE      ECODE    ---       #773
      00FC6281H   LINE      ECODE    ---       #774
      00FC6289H   LINE      ECODE    ---       #776
      00FC6295H   LINE      ECODE    ---       #778
      00FC629FH   LINE      ECODE    ---       #779
      00FC62B1H   LINE      ECODE    ---       #780
      00FC62B1H   LINE      ECODE    ---       #783
      00FC62B1H   LINE      ECODE    ---       #784
      00FC62E1H   LINE      ECODE    ---       #785
      00FC62F2H   LINE      ECODE    ---       #786
      00FC630CH   LINE      ECODE    ---       #789
      00FC6318H   LINE      ECODE    ---       #791
      00FC6336H   LINE      ECODE    ---       #792
      00FC6336H   LINE      ECODE    ---       #795
      00FC6340H   LINE      ECODE    ---       #796
      00FC6340H   LINE      ECODE    ---       #797
      00FC6357H   LINE      ECODE    ---       #798
      00FC6385H   LINE      ECODE    ---       #799
      00FC63A4H   LINE      ECODE    ---       #800
      00FC63D0H   LINE      ECODE    ---       #803
      00FC63DAH   LINE      ECODE    ---       #805
      00FC6410H   LINE      ECODE    ---       #806
      00FC6427H   LINE      ECODE    ---       #807
      00FC6467H   LINE      ECODE    ---       #808
      00FC646AH   LINE      ECODE    ---       #810
      00FC646AH   LINE      ECODE    ---       #811
      00FC6498H   LINE      ECODE    ---       #812
      00FC64A6H   LINE      ECODE    ---       #814
      00FC64B8H   LINE      ECODE    ---       #815
      00FC64B8H   LINE      ECODE    ---       #817
      00FC64BAH   LINE      ECODE    ---       #819
      00FC64F3H   LINE      ECODE    ---       #820
      00FC650AH   LINE      ECODE    ---       #821
      00FC653AH   LINE      ECODE    ---       #822
      00FC653DH   LINE      ECODE    ---       #824
      00FC653DH   LINE      ECODE    ---       #825
      00FC6580H   LINE      ECODE    ---       #826
      00FC6597H   LINE      ECODE    ---       #827
      00FC659AH   LINE      ECODE    ---       #829
      00FC659AH   LINE      ECODE    ---       #830
      00FC65C8H   LINE      ECODE    ---       #831
      00FC65D0H   LINE      ECODE    ---       #833
      00FC65D0H   LINE      ECODE    ---       #834
      00FC6609H   LINE      ECODE    ---       #835
      00FC6628H   LINE      ECODE    ---       #836
      00FC6646H   LINE      ECODE    ---       #839
      00FC6650H   LINE      ECODE    ---       #840
      00FC6650H   LINE      ECODE    ---       #841
      00FC6667H   LINE      ECODE    ---       #842
      00FC6695H   LINE      ECODE    ---       #843
      00FC66B4H   LINE      ECODE    ---       #844
      00FC66E0H   LINE      ECODE    ---       #847
      00FC66EAH   LINE      ECODE    ---       #849
      00FC6720H   LINE      ECODE    ---       #850
      00FC6737H   LINE      ECODE    ---       #851
      00FC6777H   LINE      ECODE    ---       #852
      00FC6779H   LINE      ECODE    ---       #854
      00FC6779H   LINE      ECODE    ---       #855
      00FC67A9H   LINE      ECODE    ---       #856
      00FC67C0H   LINE      ECODE    ---       #857
L251 LINKER/LOCATER V4.66.93.0                                                        05/01/2026  15:28:45  PAGE 54


      00FC67C0H   LINE      ECODE    ---       #858
      00FC67C0H   LINE      ECODE    ---       #859
      00FC67D3H   LINE      ECODE    ---       #860
      00FC6806H   LINE      ECODE    ---       #862
      00FC6814H   LINE      ECODE    ---       #863
      00FC681EH   LINE      ECODE    ---       #864
      ---         BLOCKEND  ---      ---       LVL=0

      00FC681FH   BLOCK     ECODE    ---       LVL=0
      0001143DH   SYMBOL    XDATA    ---       buff
      00011441H   SYMBOL    XDATA    ---       format
      00FC6833H   BLOCK     ECODE    NEAR LAB  LVL=1
      00011445H   SYMBOL    XDATA    DWORD     buff_len
      00011449H   SYMBOL    XDATA    ---       arg
      00FC6854H   BLOCK     ECODE    NEAR LAB  LVL=2
      0001144DH   SYMBOL    XDATA    CHAR      ret
      00FC6998H   BLOCK     ECODE    NEAR LAB  LVL=3
      0001144EH   SYMBOL    XDATA    CHAR      ch
      ---         BLOCKEND  ---      ---       LVL=3
      00FC69FEH   BLOCK     ECODE    NEAR LAB  LVL=3
      0001144EH   SYMBOL    XDATA    ---       vstr
      0001146FH   SYMBOL    XDATA    LONG      ival
      00011473H   SYMBOL    XDATA    BYTE      vlen
      ---         BLOCKEND  ---      ---       LVL=3
      00FC6AEAH   BLOCK     ECODE    NEAR LAB  LVL=3
      0001144EH   SYMBOL    XDATA    ---       vstr
      0001146FH   SYMBOL    XDATA    DOUBLE    ival
      00011477H   SYMBOL    XDATA    BYTE      vlen
      ---         BLOCKEND  ---      ---       LVL=3
      00FC6D88H   BLOCK     ECODE    NEAR LAB  LVL=3
      0001144EH   SYMBOL    XDATA    ---       vstr
      0001146FH   SYMBOL    XDATA    DWORD     ival
      00011473H   SYMBOL    XDATA    BYTE      vlen
      ---         BLOCKEND  ---      ---       LVL=3
      00FC6E40H   BLOCK     ECODE    NEAR LAB  LVL=3
      0001144EH   SYMBOL    XDATA    ---       vstr
      0001146FH   SYMBOL    XDATA    DWORD     ival
      00011473H   SYMBOL    XDATA    BYTE      vlen
      ---         BLOCKEND  ---      ---       LVL=3
      00FC6EF8H   BLOCK     ECODE    NEAR LAB  LVL=3
      0001144EH   SYMBOL    XDATA    ---       vstr
      0001146FH   SYMBOL    XDATA    DWORD     ival
      00011473H   SYMBOL    XDATA    BYTE      vlen
      ---         BLOCKEND  ---      ---       LVL=3
      00FC6FB0H   BLOCK     ECODE    NEAR LAB  LVL=3
      0001144EH   SYMBOL    XDATA    ---       pc
      ---         BLOCKEND  ---      ---       LVL=3
      00FC704CH   BLOCK     ECODE    NEAR LAB  LVL=3
      0001144EH   SYMBOL    XDATA    ---       vstr
      0001146FH   SYMBOL    XDATA    DWORD     ival
      ---         BLOCKEND  ---      ---       LVL=3
      ---         BLOCKEND  ---      ---       LVL=2
      ---         BLOCKEND  ---      ---       LVL=1
      00FC681FH   LINE      ECODE    ---       #875
      00FC6833H   LINE      ECODE    ---       #876
      00FC6833H   LINE      ECODE    ---       #877
      00FC683FH   LINE      ECODE    ---       #879
      00FC6851H   LINE      ECODE    ---       #881
      00FC6854H   LINE      ECODE    ---       #882
      00FC6854H   LINE      ECODE    ---       #883
      00FC6865H   LINE      ECODE    ---       #884
      00FC6871H   LINE      ECODE    ---       #886
      00FC6995H   LINE      ECODE    ---       #888
      00FC6995H   LINE      ECODE    ---       #891
      00FC6998H   LINE      ECODE    ---       #893
L251 LINKER/LOCATER V4.66.93.0                                                        05/01/2026  15:28:45  PAGE 55


      00FC6998H   LINE      ECODE    ---       #894
      00FC6998H   LINE      ECODE    ---       #895
      00FC69C0H   LINE      ECODE    ---       #896
      00FC69D1H   LINE      ECODE    ---       #897
      00FC69E4H   LINE      ECODE    ---       #898
      00FC69FBH   LINE      ECODE    ---       #900
      00FC69FEH   LINE      ECODE    ---       #902
      00FC69FEH   LINE      ECODE    ---       #903
      00FC69FEH   LINE      ECODE    ---       #904
      00FC69FEH   LINE      ECODE    ---       #906
      00FC6A2CH   LINE      ECODE    ---       #907
      00FC6A4DH   LINE      ECODE    ---       #909
      00FC6A5DH   LINE      ECODE    ---       #911
      00FC6A75H   LINE      ECODE    ---       #912
      00FC6A80H   LINE      ECODE    ---       #913
      00FC6A80H   LINE      ECODE    ---       #914
      00FC6A93H   LINE      ECODE    ---       #915
      00FC6AB3H   LINE      ECODE    ---       #916
      00FC6ACCH   LINE      ECODE    ---       #917
      00FC6AE7H   LINE      ECODE    ---       #919
      00FC6AEAH   LINE      ECODE    ---       #921
      00FC6AEAH   LINE      ECODE    ---       #922
      00FC6AEAH   LINE      ECODE    ---       #923
      00FC6AEAH   LINE      ECODE    ---       #925
      00FC6B2AH   LINE      ECODE    ---       #926
      00FC6B57H   LINE      ECODE    ---       #928
      00FC6B73H   LINE      ECODE    ---       #930
      00FC6B8BH   LINE      ECODE    ---       #931
      00FC6B96H   LINE      ECODE    ---       #932
      00FC6B96H   LINE      ECODE    ---       #933
      00FC6BA9H   LINE      ECODE    ---       #934
      00FC6BC9H   LINE      ECODE    ---       #935
      00FC6BE2H   LINE      ECODE    ---       #936
      00FC6BFDH   LINE      ECODE    ---       #938
      00FC6C53H   LINE      ECODE    ---       #939
      00FC6C71H   LINE      ECODE    ---       #941
      00FC6C9EH   LINE      ECODE    ---       #942
      00FC6CA0H   LINE      ECODE    ---       #945
      00FC6CC4H   LINE      ECODE    ---       #946
      00FC6CCAH   LINE      ECODE    ---       #947
      00FC6CCAH   LINE      ECODE    ---       #949
      00FC6CCCH   LINE      ECODE    ---       #951
      00FC6CE4H   LINE      ECODE    ---       #952
      00FC6CEFH   LINE      ECODE    ---       #953
      00FC6CFBH   LINE      ECODE    ---       #955
      00FC6D13H   LINE      ECODE    ---       #956
      00FC6D1EH   LINE      ECODE    ---       #958
      00FC6D31H   LINE      ECODE    ---       #959
      00FC6D51H   LINE      ECODE    ---       #960
      00FC6D6AH   LINE      ECODE    ---       #961
      00FC6D85H   LINE      ECODE    ---       #963
      00FC6D88H   LINE      ECODE    ---       #965
      00FC6D88H   LINE      ECODE    ---       #966
      00FC6D88H   LINE      ECODE    ---       #968
      00FC6DB6H   LINE      ECODE    ---       #969
      00FC6DD6H   LINE      ECODE    ---       #971
      00FC6DE9H   LINE      ECODE    ---       #972
      00FC6E09H   LINE      ECODE    ---       #973
      00FC6E22H   LINE      ECODE    ---       #974
      00FC6E3DH   LINE      ECODE    ---       #976
      00FC6E40H   LINE      ECODE    ---       #978
      00FC6E40H   LINE      ECODE    ---       #979
      00FC6E40H   LINE      ECODE    ---       #981
      00FC6E6EH   LINE      ECODE    ---       #982
      00FC6E8EH   LINE      ECODE    ---       #984
L251 LINKER/LOCATER V4.66.93.0                                                        05/01/2026  15:28:45  PAGE 56


      00FC6EA1H   LINE      ECODE    ---       #985
      00FC6EC1H   LINE      ECODE    ---       #986
      00FC6EDAH   LINE      ECODE    ---       #987
      00FC6EF5H   LINE      ECODE    ---       #990
      00FC6EF8H   LINE      ECODE    ---       #992
      00FC6EF8H   LINE      ECODE    ---       #993
      00FC6EF8H   LINE      ECODE    ---       #994
      00FC6EF8H   LINE      ECODE    ---       #996
      00FC6F26H   LINE      ECODE    ---       #997
      00FC6F46H   LINE      ECODE    ---       #999
      00FC6F59H   LINE      ECODE    ---       #1000
      00FC6F79H   LINE      ECODE    ---       #1001
      00FC6F92H   LINE      ECODE    ---       #1002
      00FC6FADH   LINE      ECODE    ---       #1004
      00FC6FB0H   LINE      ECODE    ---       #1006
      00FC6FB0H   LINE      ECODE    ---       #1007
      00FC6FB0H   LINE      ECODE    ---       #1008
      00FC6FDEH   LINE      ECODE    ---       #1009
      00FC6FE0H   LINE      ECODE    ---       #1011
      00FC6FFAH   LINE      ECODE    ---       #1012
      00FC700DH   LINE      ECODE    ---       #1013
      00FC7024H   LINE      ECODE    ---       #1014
      00FC7037H   LINE      ECODE    ---       #1015
      00FC7049H   LINE      ECODE    ---       #1017
      00FC704CH   LINE      ECODE    ---       #1019
      00FC704CH   LINE      ECODE    ---       #1020
      00FC704CH   LINE      ECODE    ---       #1022
      00FC707AH   LINE      ECODE    ---       #1024
      00FC7096H   LINE      ECODE    ---       #1025
      00FC70A5H   LINE      ECODE    ---       #1026
      00FC70C3H   LINE      ECODE    ---       #1027
      00FC70D8H   LINE      ECODE    ---       #1028
      00FC70EFH   LINE      ECODE    ---       #1030
      00FC70F2H   LINE      ECODE    ---       #1032
      00FC70F2H   LINE      ECODE    ---       #1034
      00FC7101H   LINE      ECODE    ---       #1035
      00FC7114H   LINE      ECODE    ---       #1036
      00FC712BH   LINE      ECODE    ---       #1038
      00FC712DH   LINE      ECODE    ---       #1040
      00FC712DH   LINE      ECODE    ---       #1041
      00FC712DH   LINE      ECODE    ---       #1042
      00FC712DH   LINE      ECODE    ---       #1043
      00FC712DH   LINE      ECODE    ---       #1046
      00FC7147H   LINE      ECODE    ---       #1047
      00FC715AH   LINE      ECODE    ---       #1048
      00FC7171H   LINE      ECODE    ---       #1049
      00FC7171H   LINE      ECODE    ---       #1050
      00FC7184H   LINE      ECODE    ---       #1051
      00FC7199H   LINE      ECODE    ---       #1054
      00FC71A3H   LINE      ECODE    ---       #1055
      ---         BLOCKEND  ---      ---       LVL=0

      ---         MODULE    ---      ---       zf_driver_adc
      00FE1AC0H   PUBLIC    ECODE    ---       adc_mean_filter_convert?
      00FE1B53H   PUBLIC    ECODE    ---       adc_convert?
      00FE1CB2H   PUBLIC    ECODE    ---       adc_init?
      000000D0H   SFRSYM    DATA     BYTE      PSW
      0000009DH   SFRSYM    DATA     BYTE      IRCBAND
      00000097H   SFRSYM    DATA     BYTE      AUXR2
      000000EAH   SFRSYM    DATA     BYTE      CKCON
      000000EFH   SFRSYM    DATA     BYTE      AUXINTIF
      000000FDH   SFRSYM    DATA     BYTE      S4CON
      000000ACH   SFRSYM    DATA     BYTE      S3CON
      0000009AH   SFRSYM    DATA     BYTE      S2CON
      000000B7H   SFRSYM    DATA     BYTE      IPH
L251 LINKER/LOCATER V4.66.93.0                                                        05/01/2026  15:28:45  PAGE 57


      000000CDH   SFRSYM    DATA     BYTE      SPSTAT
      000000BEH   SFRSYM    DATA     BYTE      ADC_RESL
      000000DDH   SFRSYM    DATA     BYTE      T4T3M
      000000C1H   SFRSYM    DATA     BYTE      WDT_CONTR
      000000DFH   SFRSYM    DATA     BYTE      IP3
      000000F4H   SFRSYM    DATA     BYTE      USBCON
      000000B5H   SFRSYM    DATA     BYTE      IP2
      000000FFH   SFRSYM    DATA     BYTE      RSTCFG
      000000E0H   SFRSYM    DATA     BYTE      ACC
      000000C7H   SFRSYM    DATA     BYTE      IAP_CONTR
      000000F9H   SFRSYM    DATA     BYTE      LINICR
      0000008EH   SFRSYM    DATA     BYTE      AUXR
      000000F0H   SFRSYM    DATA     BYTE      B
      000000AFH   SFRSYM    DATA     BYTE      IE2
      00000088H   SFRSYM    DATA     BYTE      TCON
      00000089H   SFRSYM    DATA     BYTE      TMOD
      00000098H   SFRSYM    DATA     BYTE      SCON
      00000087H   SFRSYM    DATA     BYTE      PCON
      000000BCH   SFRSYM    DATA     BYTE      ADC_CONTR
      000000D1H   SFRSYM    DATA     BYTE      PSW1
      000000E7H   SFRSYM    DATA     BYTE      CMPCR2
      000000E6H   SFRSYM    DATA     BYTE      CMPCR1
      000000DEH   SFRSYM    DATA     BYTE      ADCCFG
      000000B8H   SFRSYM    DATA     BYTE      IP
      0000008FH   SFRSYM    DATA     BYTE      INTCLKO
      000000EEH   SFRSYM    DATA     BYTE      IP3H
      000000B6H   SFRSYM    DATA     BYTE      IP2H
      000000BDH   SFRSYM    DATA     BYTE      ADC_RES
      000000BFH   SFRSYM    DATA     BYTE      P_SW4
      000000A8H   SFRSYM    DATA     BYTE      IE
      000000BBH   SFRSYM    DATA     BYTE      P_SW3
      000000BAH   SFRSYM    DATA     BYTE      P_SW2
      000000A2H   SFRSYM    DATA     BYTE      P_SW1
      000000CEH   SFRSYM    DATA     BYTE      SPCTL
      000000F8H   SFRSYM    DATA     BYTE      P7
      000000E8H   SFRSYM    DATA     BYTE      P6
      000000C8H   SFRSYM    DATA     BYTE      P5
      000000C0H   SFRSYM    DATA     BYTE      P4
      000000ABH   SFRSYM    DATA     BYTE      WKTCH
      000000B0H   SFRSYM    DATA     BYTE      P3
      000000A0H   SFRSYM    DATA     BYTE      P2
      00000090H   SFRSYM    DATA     BYTE      P1
      00000080H   SFRSYM    DATA     BYTE      P0
      00012AC6H   SYMBOL    XDATA    ---       adc_resolution

      00FE1AC0H   BLOCK     ECODE    ---       LVL=0
      000127C0H   SYMBOL    XDATA    INT       ch
      000127C2H   SYMBOL    XDATA    BYTE      count
      00FE1ACAH   BLOCK     ECODE    NEAR LAB  LVL=1
      000127C3H   SYMBOL    XDATA    BYTE      i
      000127C4H   SYMBOL    XDATA    DWORD     sum
      ---         BLOCKEND  ---      ---       LVL=1
      00FE1AC0H   LINE      ECODE    ---       #51
      00FE1ACAH   LINE      ECODE    ---       #52
      00FE1ACAH   LINE      ECODE    ---       #56
      00FE1ADEH   LINE      ECODE    ---       #58
      00FE1AEAH   LINE      ECODE    ---       #59
      00FE1AF1H   LINE      ECODE    ---       #61
      00FE1B12H   LINE      ECODE    ---       #62
      00FE1B2BH   LINE      ECODE    ---       #64
      00FE1B48H   LINE      ECODE    ---       #65
      00FE1B52H   LINE      ECODE    ---       #66
      ---         BLOCKEND  ---      ---       LVL=0

      00FE1B53H   BLOCK     ECODE    ---       LVL=0
L251 LINKER/LOCATER V4.66.93.0                                                        05/01/2026  15:28:45  PAGE 58


      000129D7H   SYMBOL    XDATA    INT       ch
      00FE1B59H   BLOCK     ECODE    NEAR LAB  LVL=1
      000129D9H   SYMBOL    XDATA    WORD      adc_value
      ---         BLOCKEND  ---      ---       LVL=1
      00FE1B53H   LINE      ECODE    ---       #75
      00FE1B59H   LINE      ECODE    ---       #76
      00FE1B59H   LINE      ECODE    ---       #77
      00FE1B61H   LINE      ECODE    ---       #79
      00FE1B77H   LINE      ECODE    ---       #81
      00FE1B7AH   LINE      ECODE    ---       #82
      00FE1B7DH   LINE      ECODE    ---       #83
      00FE1B90H   LINE      ECODE    ---       #85
      00FE1B93H   LINE      ECODE    ---       #87
      00FE1B98H   LINE      ECODE    ---       #89
      00FE1BA6H   LINE      ECODE    ---       #90
      00FE1BB5H   LINE      ECODE    ---       #92
      00FE1BB8H   LINE      ECODE    ---       #93
      00FE1BBBH   LINE      ECODE    ---       #95
      00FE1BCFH   LINE      ECODE    ---       #96
      00FE1BD2H   LINE      ECODE    ---       #97
      00FE1BEFH   LINE      ECODE    ---       #99
      00FE1C01H   LINE      ECODE    ---       #100
      00FE1C13H   LINE      ECODE    ---       #101
      00FE1C30H   LINE      ECODE    ---       #103
      00FE1C42H   LINE      ECODE    ---       #105
      00FE1C50H   LINE      ECODE    ---       #107
      00FE1C67H   LINE      ECODE    ---       #108
      00FE1C7FH   LINE      ECODE    ---       #110
      00FE1C8BH   LINE      ECODE    ---       #111
      00FE1C97H   LINE      ECODE    ---       #113
      00FE1CABH   LINE      ECODE    ---       #115
      00FE1CABH   LINE      ECODE    ---       #117
      00FE1CB1H   LINE      ECODE    ---       #118
      ---         BLOCKEND  ---      ---       LVL=0

      00FE1CB2H   BLOCK     ECODE    ---       LVL=0
      000129DBH   SYMBOL    XDATA    INT       ch
      000129DDH   SYMBOL    XDATA    INT       resolution
      00FE1CB2H   LINE      ECODE    ---       #127
      00FE1CBEH   LINE      ECODE    ---       #129
      00FE1CD6H   LINE      ECODE    ---       #131
      00FE1CECH   LINE      ECODE    ---       #134
      00FE1CEFH   LINE      ECODE    ---       #135
      00FE1D02H   LINE      ECODE    ---       #137
      00FE1D05H   LINE      ECODE    ---       #138
      00FE1D08H   LINE      ECODE    ---       #140
      00FE1D12H   LINE      ECODE    ---       #142
      00FE1D15H   LINE      ECODE    ---       #143
      00FE1D18H   LINE      ECODE    ---       #144
      00FE1D32H   LINE      ECODE    ---       #147
      00FE1D44H   LINE      ECODE    ---       #148
      00FE1D61H   LINE      ECODE    ---       #150
      00FE1D73H   LINE      ECODE    ---       #151
      00FE1D85H   LINE      ECODE    ---       #153
      00FE1D8FH   LINE      ECODE    ---       #155
      00FE1DA1H   LINE      ECODE    ---       #156
      00FE1DA1H   LINE      ECODE    ---       #157
      00FE1DB7H   LINE      ECODE    ---       #158
      ---         BLOCKEND  ---      ---       LVL=0

      ---         MODULE    ---      ---       zf_driver_delay
      00FE2C1AH   PUBLIC    ECODE    ---       system_delay?
      00FE2BE3H   PUBLIC    ECODE    ---       soft_delay?
      000000D0H   SFRSYM    DATA     BYTE      PSW
      0000009DH   SFRSYM    DATA     BYTE      IRCBAND
L251 LINKER/LOCATER V4.66.93.0                                                        05/01/2026  15:28:45  PAGE 59


      00000097H   SFRSYM    DATA     BYTE      AUXR2
      000000EAH   SFRSYM    DATA     BYTE      CKCON
      000000EFH   SFRSYM    DATA     BYTE      AUXINTIF
      000000FDH   SFRSYM    DATA     BYTE      S4CON
      000000ACH   SFRSYM    DATA     BYTE      S3CON
      0000009AH   SFRSYM    DATA     BYTE      S2CON
      000000B7H   SFRSYM    DATA     BYTE      IPH
      000000CDH   SFRSYM    DATA     BYTE      SPSTAT
      000000DDH   SFRSYM    DATA     BYTE      T4T3M
      000000C1H   SFRSYM    DATA     BYTE      WDT_CONTR
      000000DFH   SFRSYM    DATA     BYTE      IP3
      000000F4H   SFRSYM    DATA     BYTE      USBCON
      000000B5H   SFRSYM    DATA     BYTE      IP2
      000000FFH   SFRSYM    DATA     BYTE      RSTCFG
      000000E0H   SFRSYM    DATA     BYTE      ACC
      000000C7H   SFRSYM    DATA     BYTE      IAP_CONTR
      000000F9H   SFRSYM    DATA     BYTE      LINICR
      0000008EH   SFRSYM    DATA     BYTE      AUXR
      000000F0H   SFRSYM    DATA     BYTE      B
      000000AFH   SFRSYM    DATA     BYTE      IE2
      00000088H   SFRSYM    DATA     BYTE      TCON
      00000089H   SFRSYM    DATA     BYTE      TMOD
      00000098H   SFRSYM    DATA     BYTE      SCON
      00000087H   SFRSYM    DATA     BYTE      PCON
      000000BCH   SFRSYM    DATA     BYTE      ADC_CONTR
      000000D1H   SFRSYM    DATA     BYTE      PSW1
      000000E7H   SFRSYM    DATA     BYTE      CMPCR2
      000000E6H   SFRSYM    DATA     BYTE      CMPCR1
      000000DEH   SFRSYM    DATA     BYTE      ADCCFG
      000000B8H   SFRSYM    DATA     BYTE      IP
      0000008FH   SFRSYM    DATA     BYTE      INTCLKO
      000000EEH   SFRSYM    DATA     BYTE      IP3H
      000000B6H   SFRSYM    DATA     BYTE      IP2H
      000000BFH   SFRSYM    DATA     BYTE      P_SW4
      000000A8H   SFRSYM    DATA     BYTE      IE
      000000BBH   SFRSYM    DATA     BYTE      P_SW3
      000000BAH   SFRSYM    DATA     BYTE      P_SW2
      000000A2H   SFRSYM    DATA     BYTE      P_SW1
      000000CEH   SFRSYM    DATA     BYTE      SPCTL
      000000F8H   SFRSYM    DATA     BYTE      P7
      000000E8H   SFRSYM    DATA     BYTE      P6
      000000C8H   SFRSYM    DATA     BYTE      P5
      000000C0H   SFRSYM    DATA     BYTE      P4
      000000ABH   SFRSYM    DATA     BYTE      WKTCH
      000000B0H   SFRSYM    DATA     BYTE      P3
      000000A0H   SFRSYM    DATA     BYTE      P2
      00000090H   SFRSYM    DATA     BYTE      P1
      00000080H   SFRSYM    DATA     BYTE      P0

      00FE2BE3H   BLOCK     ECODE    ---       LVL=0
      000129DFH   SYMBOL    XDATA    DWORD     count
      00FE2BEDH   BLOCK     ECODE    NEAR LAB  LVL=1
      00000010H   SYMBOL    EDATA    DWORD     i
      ---         BLOCKEND  ---      ---       LVL=1
      00FE2BE3H   LINE      ECODE    ---       #44
      00FE2BEDH   LINE      ECODE    ---       #45
      00FE2BEDH   LINE      ECODE    ---       #46
      00FE2BF3H   LINE      ECODE    ---       #48
      00FE2C01H   LINE      ECODE    ---       #49
      00FE2C19H   LINE      ECODE    ---       #50
      ---         BLOCKEND  ---      ---       LVL=0

      00FE2C1AH   BLOCK     ECODE    ---       LVL=0
      000126B8H   SYMBOL    XDATA    DWORD     period
      00FE2C24H   BLOCK     ECODE    NEAR LAB  LVL=1
L251 LINKER/LOCATER V4.66.93.0                                                        05/01/2026  15:28:45  PAGE 60


      000126BCH   SYMBOL    XDATA    BYTE      freq_div
      000126BDH   SYMBOL    XDATA    WORD      period_temp
      000126BFH   SYMBOL    XDATA    WORD      temp
      ---         BLOCKEND  ---      ---       LVL=1
      00FE2C1AH   LINE      ECODE    ---       #59
      00FE2C24H   LINE      ECODE    ---       #60
      00FE2C24H   LINE      ECODE    ---       #65
      00FE2C30H   LINE      ECODE    ---       #66
      00FE2C46H   LINE      ECODE    ---       #69
      00FE2C68H   LINE      ECODE    ---       #70
      00FE2C7AH   LINE      ECODE    ---       #71
      00FE2C7CH   LINE      ECODE    ---       #75
      00FE2C8EH   LINE      ECODE    ---       #76
      00FE2C8EH   LINE      ECODE    ---       #78
      00FE2C9EH   LINE      ECODE    ---       #79
      00FE2CC0H   LINE      ECODE    ---       #80
      00FE2CD2H   LINE      ECODE    ---       #82
      00FE2CE1H   LINE      ECODE    ---       #83
      00FE2CF2H   LINE      ECODE    ---       #84
      00FE2D07H   LINE      ECODE    ---       #85
      00FE2D19H   LINE      ECODE    ---       #87
      00FE2D27H   LINE      ECODE    ---       #89
      ---         BLOCKEND  ---      ---       LVL=0

      ---         MODULE    ---      ---       zf_driver_eeprom
      00FE111AH   PUBLIC    ECODE    ---       iap_set_tps?
      00FE10EEH   PUBLIC    ECODE    ---       eeprom_trig?
      00FE12D4H   PUBLIC    ECODE    ---       iap_erase_page?
      00FE1104H   PUBLIC    ECODE    ---       iap_idle?
      00FE11EBH   PUBLIC    ECODE    ---       iap_read_buff?
      00FE133BH   PUBLIC    ECODE    ---       extern_iap_write_buff?
      00FE1261H   PUBLIC    ECODE    ---       iap_write_buff?
      00FE1145H   PUBLIC    ECODE    ---       iap_read_byte?
      00FE10FBH   PUBLIC    ECODE    ---       iap_init?
      00FE1198H   PUBLIC    ECODE    ---       iap_write_byte?
      00FE1108H   PUBLIC    ECODE    ---       iap_get_cmd_state?
      000125E7H   PUBLIC    XDATA    BYTE      ?iap_read_buff??BYTE
      000125F1H   PUBLIC    XDATA    BYTE      ?iap_write_buff??BYTE
      000000D0H   SFRSYM    DATA     BYTE      PSW
      0000009DH   SFRSYM    DATA     BYTE      IRCBAND
      00000097H   SFRSYM    DATA     BYTE      AUXR2
      000000C6H   SFRSYM    DATA     BYTE      IAP_TRIG
      000000EAH   SFRSYM    DATA     BYTE      CKCON
      000000EFH   SFRSYM    DATA     BYTE      AUXINTIF
      000000FDH   SFRSYM    DATA     BYTE      S4CON
      000000ACH   SFRSYM    DATA     BYTE      S3CON
      0000009AH   SFRSYM    DATA     BYTE      S2CON
      000000B7H   SFRSYM    DATA     BYTE      IPH
      000000CDH   SFRSYM    DATA     BYTE      SPSTAT
      000000DDH   SFRSYM    DATA     BYTE      T4T3M
      000000C1H   SFRSYM    DATA     BYTE      WDT_CONTR
      000000C2H   SFRSYM    DATA     BYTE      IAP_DATA
      000000DFH   SFRSYM    DATA     BYTE      IP3
      000000F4H   SFRSYM    DATA     BYTE      USBCON
      000000B5H   SFRSYM    DATA     BYTE      IP2
      000000FFH   SFRSYM    DATA     BYTE      RSTCFG
      000000E0H   SFRSYM    DATA     BYTE      ACC
      000000C7H   SFRSYM    DATA     BYTE      IAP_CONTR
      000000F9H   SFRSYM    DATA     BYTE      LINICR
      0000008EH   SFRSYM    DATA     BYTE      AUXR
      000000F0H   SFRSYM    DATA     BYTE      B
      000000AFH   SFRSYM    DATA     BYTE      IE2
      00000088H   SFRSYM    DATA     BYTE      TCON
      00000089H   SFRSYM    DATA     BYTE      TMOD
      00000098H   SFRSYM    DATA     BYTE      SCON
L251 LINKER/LOCATER V4.66.93.0                                                        05/01/2026  15:28:45  PAGE 61


      000000F5H   SFRSYM    DATA     BYTE      IAP_TPS
      00000087H   SFRSYM    DATA     BYTE      PCON
      000000BCH   SFRSYM    DATA     BYTE      ADC_CONTR
      000000D1H   SFRSYM    DATA     BYTE      PSW1
      000000E7H   SFRSYM    DATA     BYTE      CMPCR2
      000000E6H   SFRSYM    DATA     BYTE      CMPCR1
      000000C4H   SFRSYM    DATA     BYTE      IAP_ADDRL
      000000C3H   SFRSYM    DATA     BYTE      IAP_ADDRH
      000000F6H   SFRSYM    DATA     BYTE      IAP_ADDRE
      000000DEH   SFRSYM    DATA     BYTE      ADCCFG
      000000B8H   SFRSYM    DATA     BYTE      IP
      0000008FH   SFRSYM    DATA     BYTE      INTCLKO
      000000EEH   SFRSYM    DATA     BYTE      IP3H
      000000B6H   SFRSYM    DATA     BYTE      IP2H
      000000C5H   SFRSYM    DATA     BYTE      IAP_CMD
      000000BFH   SFRSYM    DATA     BYTE      P_SW4
      000000A8H   SFRSYM    DATA     BYTE      IE
      000000BBH   SFRSYM    DATA     BYTE      P_SW3
      000000BAH   SFRSYM    DATA     BYTE      P_SW2
      000000A2H   SFRSYM    DATA     BYTE      P_SW1
      000000CEH   SFRSYM    DATA     BYTE      SPCTL
      000000F8H   SFRSYM    DATA     BYTE      P7
      000000A8H.7 SFRSYM    DATA     BIT       EA
      000000E8H   SFRSYM    DATA     BYTE      P6
      000000C8H   SFRSYM    DATA     BYTE      P5
      000000C0H   SFRSYM    DATA     BYTE      P4
      000000ABH   SFRSYM    DATA     BYTE      WKTCH
      000000B0H   SFRSYM    DATA     BYTE      P3
      000000A0H   SFRSYM    DATA     BYTE      P2
      00000090H   SFRSYM    DATA     BYTE      P1
      00000080H   SFRSYM    DATA     BYTE      P0
      00FE5EBCH   SYMBOL    HCONST   ---       ?tpl?0001

      00FE10EEH   BLOCK     ECODE    ---       LVL=0
      00FE10EEH   LINE      ECODE    ---       #48
      00FE10EEH   LINE      ECODE    ---       #51
      00FE10F2H   LINE      ECODE    ---       #52
      00FE10F6H   LINE      ECODE    ---       #55
      00FE10F7H   LINE      ECODE    ---       #56
      00FE10F8H   LINE      ECODE    ---       #57
      00FE10F9H   LINE      ECODE    ---       #58
      00FE10FAH   LINE      ECODE    ---       #60
      ---         BLOCKEND  ---      ---       LVL=0

      00FE10FBH   BLOCK     ECODE    ---       LVL=0
      00FE10FBH   LINE      ECODE    ---       #69
      00FE10FBH   LINE      ECODE    ---       #71
      00FE10FFH   LINE      ECODE    ---       #72
      00FE1103H   LINE      ECODE    ---       #73
      ---         BLOCKEND  ---      ---       LVL=0

      00FE1104H   BLOCK     ECODE    ---       LVL=0
      00FE1104H   LINE      ECODE    ---       #82
      00FE1104H   LINE      ECODE    ---       #84
      00FE1107H   LINE      ECODE    ---       #85
      ---         BLOCKEND  ---      ---       LVL=0

      00FE1108H   BLOCK     ECODE    ---       LVL=0
      00FE1108H   LINE      ECODE    ---       #94
      00FE1108H   LINE      ECODE    ---       #96
      00FE1119H   LINE      ECODE    ---       #97
      ---         BLOCKEND  ---      ---       LVL=0

      00FE111AH   BLOCK     ECODE    ---       LVL=0
      00012AFDH   SYMBOL    XDATA    BYTE      write_time
L251 LINKER/LOCATER V4.66.93.0                                                        05/01/2026  15:28:45  PAGE 62


      00FE111AH   LINE      ECODE    ---       #106
      00FE111AH   LINE      ECODE    ---       #107
      00FE111AH   LINE      ECODE    ---       #109
      00FE1136H   LINE      ECODE    ---       #110
      00FE1144H   LINE      ECODE    ---       #111
      ---         BLOCKEND  ---      ---       LVL=0

      00FE1145H   BLOCK     ECODE    ---       LVL=0
      00012980H   SYMBOL    XDATA    DWORD     addr
      00FE114FH   BLOCK     ECODE    NEAR LAB  LVL=1
      00012984H   SYMBOL    XDATA    BYTE      temp
      00000020H.2 SYMBOL    BIT      BIT       flag
      ---         BLOCKEND  ---      ---       LVL=1
      00FE1145H   LINE      ECODE    ---       #120
      00FE114FH   LINE      ECODE    ---       #121
      00FE114FH   LINE      ECODE    ---       #123
      00FE1152H   LINE      ECODE    ---       #124
      00FE1156H   LINE      ECODE    ---       #125
      00FE1159H   LINE      ECODE    ---       #127
      00FE115DH   LINE      ECODE    ---       #129
      00FE1169H   LINE      ECODE    ---       #130
      00FE1177H   LINE      ECODE    ---       #131
      00FE1185H   LINE      ECODE    ---       #132
      00FE1189H   LINE      ECODE    ---       #133
      00FE118FH   LINE      ECODE    ---       #135
      00FE1193H   LINE      ECODE    ---       #136
      00FE1197H   LINE      ECODE    ---       #137
      ---         BLOCKEND  ---      ---       LVL=0

      00FE1198H   BLOCK     ECODE    ---       LVL=0
      00012985H   SYMBOL    XDATA    DWORD     addr
      00012989H   SYMBOL    XDATA    BYTE      byte
      00FE11A6H   BLOCK     ECODE    NEAR LAB  LVL=1
      00000020H.3 SYMBOL    BIT      BIT       flag
      ---         BLOCKEND  ---      ---       LVL=1
      00FE1198H   LINE      ECODE    ---       #146
      00FE11A6H   LINE      ECODE    ---       #147
      00FE11A6H   LINE      ECODE    ---       #148
      00FE11A9H   LINE      ECODE    ---       #150
      00FE11ADH   LINE      ECODE    ---       #151
      00FE11B0H   LINE      ECODE    ---       #153
      00FE11B4H   LINE      ECODE    ---       #155
      00FE11C0H   LINE      ECODE    ---       #156
      00FE11CEH   LINE      ECODE    ---       #157
      00FE11DCH   LINE      ECODE    ---       #158
      00FE11E2H   LINE      ECODE    ---       #160
      00FE11E6H   LINE      ECODE    ---       #162
      00FE11EAH   LINE      ECODE    ---       #163
      ---         BLOCKEND  ---      ---       LVL=0

      00FE11EBH   BLOCK     ECODE    ---       LVL=0
      000125E7H   SYMBOL    XDATA    DWORD     addr
      000125EBH   SYMBOL    XDATA    ---       buf
      000125EFH   SYMBOL    XDATA    WORD      len
      00FE11EBH   LINE      ECODE    ---       #173
      00FE11FFH   LINE      ECODE    ---       #175
      00FE1201H   LINE      ECODE    ---       #177
      00FE1232H   LINE      ECODE    ---       #178
      00FE1249H   LINE      ECODE    ---       #179
      00FE1260H   LINE      ECODE    ---       #180
      ---         BLOCKEND  ---      ---       LVL=0

      00FE1261H   BLOCK     ECODE    ---       LVL=0
      000125F1H   SYMBOL    XDATA    DWORD     addr
      000125F5H   SYMBOL    XDATA    ---       buf
L251 LINKER/LOCATER V4.66.93.0                                                        05/01/2026  15:28:45  PAGE 63


      000125F9H   SYMBOL    XDATA    WORD      len
      00FE1261H   LINE      ECODE    ---       #191
      00FE1275H   LINE      ECODE    ---       #193
      00FE1277H   LINE      ECODE    ---       #195
      00FE1292H   LINE      ECODE    ---       #196
      00FE12A9H   LINE      ECODE    ---       #197
      00FE12BCH   LINE      ECODE    ---       #198
      00FE12D3H   LINE      ECODE    ---       #199
      ---         BLOCKEND  ---      ---       LVL=0

      00FE12D4H   BLOCK     ECODE    ---       LVL=0
      000129E3H   SYMBOL    XDATA    DWORD     addr
      00FE12DEH   BLOCK     ECODE    NEAR LAB  LVL=1
      00000020H.4 SYMBOL    BIT      BIT       flag
      ---         BLOCKEND  ---      ---       LVL=1
      00FE12D4H   LINE      ECODE    ---       #208
      00FE12DEH   LINE      ECODE    ---       #209
      00FE12DEH   LINE      ECODE    ---       #210
      00FE12E1H   LINE      ECODE    ---       #212
      00FE12E5H   LINE      ECODE    ---       #213
      00FE12E8H   LINE      ECODE    ---       #214
      00FE12ECH   LINE      ECODE    ---       #215
      00FE12F8H   LINE      ECODE    ---       #216
      00FE1306H   LINE      ECODE    ---       #217
      00FE1314H   LINE      ECODE    ---       #218
      00FE1318H   LINE      ECODE    ---       #220
      00FE131CH   LINE      ECODE    ---       #221
      00FE133AH   LINE      ECODE    ---       #222
      ---         BLOCKEND  ---      ---       LVL=0

      00FE133BH   BLOCK     ECODE    ---       LVL=0
      000106F3H   SYMBOL    XDATA    WORD      addr
      000106F5H   SYMBOL    XDATA    ---       buf
      000106F9H   SYMBOL    XDATA    WORD      len
      00FE1351H   BLOCK     ECODE    NEAR LAB  LVL=1
      000106FBH   SYMBOL    XDATA    ---       temp
      000108FBH   SYMBOL    XDATA    WORD      i
      ---         BLOCKEND  ---      ---       LVL=1
      00FE133BH   LINE      ECODE    ---       #236
      00FE1351H   LINE      ECODE    ---       #237
      00FE1351H   LINE      ECODE    ---       #238
      00FE1369H   LINE      ECODE    ---       #241
      00FE13A4H   LINE      ECODE    ---       #243
      00FE13C8H   LINE      ECODE    ---       #245
      00FE1427H   LINE      ECODE    ---       #247
      00FE1433H   LINE      ECODE    ---       #248
      00FE1457H   LINE      ECODE    ---       #249
      ---         BLOCKEND  ---      ---       LVL=0

      ---         MODULE    ---      ---       zf_driver_encoder
      00FD6458H   PUBLIC    ECODE    ---       encoder_quad_init?
      00FD571DH   PUBLIC    ECODE    ---       encoder_get_count?
      00FD6889H   PUBLIC    ECODE    ---       encoder_dir_init?
      00FD5AFCH   PUBLIC    ECODE    ---       encoder_clear_count?
      000000D0H   SFRSYM    DATA     BYTE      PSW
      0000009DH   SFRSYM    DATA     BYTE      IRCBAND
      00000097H   SFRSYM    DATA     BYTE      AUXR2
      000000EAH   SFRSYM    DATA     BYTE      CKCON
      000000EFH   SFRSYM    DATA     BYTE      AUXINTIF
      000000FDH   SFRSYM    DATA     BYTE      S4CON
      000000ACH   SFRSYM    DATA     BYTE      S3CON
      0000009AH   SFRSYM    DATA     BYTE      S2CON
      000000B7H   SFRSYM    DATA     BYTE      IPH
      000000CDH   SFRSYM    DATA     BYTE      SPSTAT
      000000DDH   SFRSYM    DATA     BYTE      T4T3M
L251 LINKER/LOCATER V4.66.93.0                                                        05/01/2026  15:28:45  PAGE 64


      000000C1H   SFRSYM    DATA     BYTE      WDT_CONTR
      00000088H.6 SFRSYM    DATA     BIT       TR1
      00000088H.4 SFRSYM    DATA     BIT       TR0
      000000D3H   SFRSYM    DATA     BYTE      T4L
      000000D5H   SFRSYM    DATA     BYTE      T3L
      000000D7H   SFRSYM    DATA     BYTE      T2L
      0000008BH   SFRSYM    DATA     BYTE      TL1
      0000008AH   SFRSYM    DATA     BYTE      TL0
      000000D2H   SFRSYM    DATA     BYTE      T4H
      000000D4H   SFRSYM    DATA     BYTE      T3H
      000000D6H   SFRSYM    DATA     BYTE      T2H
      0000008DH   SFRSYM    DATA     BYTE      TH1
      0000008CH   SFRSYM    DATA     BYTE      TH0
      000000DFH   SFRSYM    DATA     BYTE      IP3
      000000F4H   SFRSYM    DATA     BYTE      USBCON
      000000B5H   SFRSYM    DATA     BYTE      IP2
      000000FFH   SFRSYM    DATA     BYTE      RSTCFG
      000000E0H   SFRSYM    DATA     BYTE      ACC
      000000C7H   SFRSYM    DATA     BYTE      IAP_CONTR
      000000F9H   SFRSYM    DATA     BYTE      LINICR
      0000008EH   SFRSYM    DATA     BYTE      AUXR
      000000F0H   SFRSYM    DATA     BYTE      B
      000000AFH   SFRSYM    DATA     BYTE      IE2
      00000088H   SFRSYM    DATA     BYTE      TCON
      00000089H   SFRSYM    DATA     BYTE      TMOD
      00000098H   SFRSYM    DATA     BYTE      SCON
      00000087H   SFRSYM    DATA     BYTE      PCON
      000000BCH   SFRSYM    DATA     BYTE      ADC_CONTR
      000000D1H   SFRSYM    DATA     BYTE      PSW1
      000000E7H   SFRSYM    DATA     BYTE      CMPCR2
      000000E6H   SFRSYM    DATA     BYTE      CMPCR1
      000000DEH   SFRSYM    DATA     BYTE      ADCCFG
      000000B8H   SFRSYM    DATA     BYTE      IP
      0000008FH   SFRSYM    DATA     BYTE      INTCLKO
      000000EEH   SFRSYM    DATA     BYTE      IP3H
      000000B6H   SFRSYM    DATA     BYTE      IP2H
      000000BFH   SFRSYM    DATA     BYTE      P_SW4
      000000A8H   SFRSYM    DATA     BYTE      IE
      000000BBH   SFRSYM    DATA     BYTE      P_SW3
      000000BAH   SFRSYM    DATA     BYTE      P_SW2
      000000A2H   SFRSYM    DATA     BYTE      P_SW1
      000000CEH   SFRSYM    DATA     BYTE      SPCTL
      000000F8H   SFRSYM    DATA     BYTE      P7
      000000E8H   SFRSYM    DATA     BYTE      P6
      000000C8H   SFRSYM    DATA     BYTE      P5
      000000C0H   SFRSYM    DATA     BYTE      P4
      000000ABH   SFRSYM    DATA     BYTE      WKTCH
      000000B0H   SFRSYM    DATA     BYTE      P3
      000000A0H   SFRSYM    DATA     BYTE      P2
      00000090H   SFRSYM    DATA     BYTE      P1
      00000080H   SFRSYM    DATA     BYTE      P0
      00FD5E3BH   SYMBOL    ECODE    ---       tim_encoder_dir_init
      00FD6118H   SYMBOL    ECODE    ---       pwm_encoder_dir_init
      00012032H   SYMBOL    XDATA    ---       encoder_dir_pin

      00FD571DH   BLOCK     ECODE    ---       LVL=0
      000129E7H   SYMBOL    XDATA    INT       encoder_n
      00FD5723H   BLOCK     ECODE    NEAR LAB  LVL=1
      000129E9H   SYMBOL    XDATA    INT       ret
      ---         BLOCKEND  ---      ---       LVL=1
      00FD571DH   LINE      ECODE    ---       #60
      00FD5723H   LINE      ECODE    ---       #61
      00FD5723H   LINE      ECODE    ---       #62
      00FD572BH   LINE      ECODE    ---       #63
      00FD573CH   LINE      ECODE    ---       #65
L251 LINKER/LOCATER V4.66.93.0                                                        05/01/2026  15:28:45  PAGE 65


      00FD5781H   LINE      ECODE    ---       #67
      00FD57A1H   LINE      ECODE    ---       #68
      00FD57C1H   LINE      ECODE    ---       #69
      00FD57E1H   LINE      ECODE    ---       #70
      00FD5801H   LINE      ECODE    ---       #71
      00FD5821H   LINE      ECODE    ---       #72
      00FD5853H   LINE      ECODE    ---       #73
      00FD5885H   LINE      ECODE    ---       #74
      00FD58B7H   LINE      ECODE    ---       #75
      00FD58E9H   LINE      ECODE    ---       #76
      00FD591BH   LINE      ECODE    ---       #77
      00FD594DH   LINE      ECODE    ---       #78
      00FD597EH   LINE      ECODE    ---       #79
      00FD59AFH   LINE      ECODE    ---       #80
      00FD59E0H   LINE      ECODE    ---       #81
      00FD59F1H   LINE      ECODE    ---       #82
      00FD59F1H   LINE      ECODE    ---       #83
      00FD5A18H   LINE      ECODE    ---       #85
      00FD5A2AH   LINE      ECODE    ---       #86
      00FD5A2DH   LINE      ECODE    ---       #90
      00FD5A5BH   LINE      ECODE    ---       #91
      00FD5A92H   LINE      ECODE    ---       #92
      00FD5AB0H   LINE      ECODE    ---       #95
      00FD5AD4H   LINE      ECODE    ---       #97
      00FD5AE6H   LINE      ECODE    ---       #98
      00FD5AE8H   LINE      ECODE    ---       #103
      00FD5AF5H   LINE      ECODE    ---       #104
      00FD5AF5H   LINE      ECODE    ---       #105
      00FD5AF5H   LINE      ECODE    ---       #107
      00FD5AFBH   LINE      ECODE    ---       #108
      ---         BLOCKEND  ---      ---       LVL=0

      00FD5AFCH   BLOCK     ECODE    ---       LVL=0
      00012AC8H   SYMBOL    XDATA    INT       encoder_n
      00FD5AFCH   LINE      ECODE    ---       #117
      00FD5B02H   LINE      ECODE    ---       #119
      00FD5B13H   LINE      ECODE    ---       #121
      00FD5B58H   LINE      ECODE    ---       #123
      00FD5B67H   LINE      ECODE    ---       #124
      00FD5B76H   LINE      ECODE    ---       #125
      00FD5B85H   LINE      ECODE    ---       #126
      00FD5B94H   LINE      ECODE    ---       #127
      00FD5BA3H   LINE      ECODE    ---       #128
      00FD5BE2H   LINE      ECODE    ---       #129
      00FD5C21H   LINE      ECODE    ---       #130
      00FD5C60H   LINE      ECODE    ---       #131
      00FD5C9FH   LINE      ECODE    ---       #132
      00FD5CDEH   LINE      ECODE    ---       #133
      00FD5D1DH   LINE      ECODE    ---       #134
      00FD5D5CH   LINE      ECODE    ---       #135
      00FD5D9BH   LINE      ECODE    ---       #136
      00FD5DD9H   LINE      ECODE    ---       #137
      00FD5DEAH   LINE      ECODE    ---       #138
      00FD5DEAH   LINE      ECODE    ---       #139
      00FD5DECH   LINE      ECODE    ---       #143
      00FD5E0FH   LINE      ECODE    ---       #144
      00FD5E3AH   LINE      ECODE    ---       #146
      00FD5E3AH   LINE      ECODE    ---       #147
      ---         BLOCKEND  ---      ---       LVL=0

      00FD5E3BH   BLOCK     ECODE    ---       LVL=0
      000128BBH   SYMBOL    XDATA    INT       encoder_n
      000128BDH   SYMBOL    XDATA    INT       lsb_pin
      000128BFH   SYMBOL    XDATA    INT       dir_pin
      00FD5E3BH   LINE      ECODE    ---       #160
L251 LINKER/LOCATER V4.66.93.0                                                        05/01/2026  15:28:45  PAGE 66


      00FD5E4DH   LINE      ECODE    ---       #166
      00FD5E71H   LINE      ECODE    ---       #169
      00FD5E9AH   LINE      ECODE    ---       #170
      00FD5EB1H   LINE      ECODE    ---       #171
      00FD5EC8H   LINE      ECODE    ---       #172
      00FD5EEDH   LINE      ECODE    ---       #173
      00FD5F32H   LINE      ECODE    ---       #175
      00FD5F41H   LINE      ECODE    ---       #176
      00FD5F50H   LINE      ECODE    ---       #177
      00FD5F5CH   LINE      ECODE    ---       #178
      00FD5F68H   LINE      ECODE    ---       #179
      00FD5F74H   LINE      ECODE    ---       #180
      00FD5FA1H   LINE      ECODE    ---       #181
      00FD5FCEH   LINE      ECODE    ---       #182
      00FD5FFBH   LINE      ECODE    ---       #183
      00FD6028H   LINE      ECODE    ---       #184
      00FD6055H   LINE      ECODE    ---       #185
      00FD6082H   LINE      ECODE    ---       #186
      00FD60AEH   LINE      ECODE    ---       #187
      00FD60DAH   LINE      ECODE    ---       #188
      00FD6106H   LINE      ECODE    ---       #189
      00FD6117H   LINE      ECODE    ---       #191
      00FD6117H   LINE      ECODE    ---       #192
      ---         BLOCKEND  ---      ---       LVL=0

      00FD6118H   BLOCK     ECODE    ---       LVL=0
      000128C1H   SYMBOL    XDATA    INT       encoder_n
      000128C3H   SYMBOL    XDATA    INT       ch1_pin
      000128C5H   SYMBOL    XDATA    INT       ch2_pin
      00FD6118H   LINE      ECODE    ---       #202
      00FD612AH   LINE      ECODE    ---       #205
      00FD6141H   LINE      ECODE    ---       #206
      00FD6158H   LINE      ECODE    ---       #207
      00FD617DH   LINE      ECODE    ---       #210
      00FD61B4H   LINE      ECODE    ---       #211
      00FD6219H   LINE      ECODE    ---       #213
      00FD624BH   LINE      ECODE    ---       #214
      00FD6285H   LINE      ECODE    ---       #216
      00FD62B6H   LINE      ECODE    ---       #217
      00FD62EFH   LINE      ECODE    ---       #219
      00FD6321H   LINE      ECODE    ---       #221
      00FD6374H   LINE      ECODE    ---       #222
      00FD63C7H   LINE      ECODE    ---       #223
      00FD6420H   LINE      ECODE    ---       #224
      00FD6457H   LINE      ECODE    ---       #226
      ---         BLOCKEND  ---      ---       LVL=0

      00FD6458H   BLOCK     ECODE    ---       LVL=0
      000128C7H   SYMBOL    XDATA    INT       encoder_n
      000128C9H   SYMBOL    XDATA    INT       ch1_pin
      000128CBH   SYMBOL    XDATA    INT       ch2_pin
      00FD6458H   LINE      ECODE    ---       #239
      00FD646AH   LINE      ECODE    ---       #243
      00FD6497H   LINE      ECODE    ---       #244
      00FD64C4H   LINE      ECODE    ---       #247
      00FD64DAH   LINE      ECODE    ---       #248
      00FD64F0H   LINE      ECODE    ---       #250
      00FD6527H   LINE      ECODE    ---       #251
      00FD658CH   LINE      ECODE    ---       #252
      00FD65F1H   LINE      ECODE    ---       #254
      00FD6623H   LINE      ECODE    ---       #255
      00FD665DH   LINE      ECODE    ---       #257
      00FD668EH   LINE      ECODE    ---       #258
      00FD66C7H   LINE      ECODE    ---       #260
      00FD66F9H   LINE      ECODE    ---       #262
L251 LINKER/LOCATER V4.66.93.0                                                        05/01/2026  15:28:45  PAGE 67


      00FD674CH   LINE      ECODE    ---       #263
      00FD679FH   LINE      ECODE    ---       #264
      00FD67F8H   LINE      ECODE    ---       #265
      00FD6851H   LINE      ECODE    ---       #266
      00FD6888H   LINE      ECODE    ---       #287
      ---         BLOCKEND  ---      ---       LVL=0

      00FD6889H   BLOCK     ECODE    ---       LVL=0
      000128CDH   SYMBOL    XDATA    WORD      encoder_n
      000128CFH   SYMBOL    XDATA    WORD      lsb_pin
      000128D1H   SYMBOL    XDATA    WORD      dir_pin
      00FD6889H   LINE      ECODE    ---       #301
      00FD689BH   LINE      ECODE    ---       #303
      00FD68A9H   LINE      ECODE    ---       #306
      00FD68D0H   LINE      ECODE    ---       #307
      00FD68E5H   LINE      ECODE    ---       #308
      00FD68E7H   LINE      ECODE    ---       #311
      00FD68FCH   LINE      ECODE    ---       #312
      00FD68FCH   LINE      ECODE    ---       #313
      ---         BLOCKEND  ---      ---       LVL=0

      ---         MODULE    ---      ---       zf_driver_exti
      00FE3160H   PUBLIC    ECODE    ---       exit_init?
      000000D0H   SFRSYM    DATA     BYTE      PSW
      0000009DH   SFRSYM    DATA     BYTE      IRCBAND
      00000097H   SFRSYM    DATA     BYTE      AUXR2
      000000EAH   SFRSYM    DATA     BYTE      CKCON
      000000EFH   SFRSYM    DATA     BYTE      AUXINTIF
      000000FDH   SFRSYM    DATA     BYTE      S4CON
      000000ACH   SFRSYM    DATA     BYTE      S3CON
      0000009AH   SFRSYM    DATA     BYTE      S2CON
      000000B7H   SFRSYM    DATA     BYTE      IPH
      000000CDH   SFRSYM    DATA     BYTE      SPSTAT
      000000DDH   SFRSYM    DATA     BYTE      T4T3M
      000000C1H   SFRSYM    DATA     BYTE      WDT_CONTR
      00000088H.2 SFRSYM    DATA     BIT       IT1
      000000A8H.2 SFRSYM    DATA     BIT       EX1
      00000088H.0 SFRSYM    DATA     BIT       IT0
      000000A8H.0 SFRSYM    DATA     BIT       EX0
      000000DFH   SFRSYM    DATA     BYTE      IP3
      000000F4H   SFRSYM    DATA     BYTE      USBCON
      000000B5H   SFRSYM    DATA     BYTE      IP2
      000000FFH   SFRSYM    DATA     BYTE      RSTCFG
      000000E0H   SFRSYM    DATA     BYTE      ACC
      000000C7H   SFRSYM    DATA     BYTE      IAP_CONTR
      000000F9H   SFRSYM    DATA     BYTE      LINICR
      0000008EH   SFRSYM    DATA     BYTE      AUXR
      000000F0H   SFRSYM    DATA     BYTE      B
      000000AFH   SFRSYM    DATA     BYTE      IE2
      00000088H   SFRSYM    DATA     BYTE      TCON
      00000089H   SFRSYM    DATA     BYTE      TMOD
      00000098H   SFRSYM    DATA     BYTE      SCON
      00000087H   SFRSYM    DATA     BYTE      PCON
      000000BCH   SFRSYM    DATA     BYTE      ADC_CONTR
      000000D1H   SFRSYM    DATA     BYTE      PSW1
      000000E7H   SFRSYM    DATA     BYTE      CMPCR2
      000000E6H   SFRSYM    DATA     BYTE      CMPCR1
      000000DEH   SFRSYM    DATA     BYTE      ADCCFG
      000000B8H   SFRSYM    DATA     BYTE      IP
      0000008FH   SFRSYM    DATA     BYTE      INTCLKO
      000000EEH   SFRSYM    DATA     BYTE      IP3H
      000000B6H   SFRSYM    DATA     BYTE      IP2H
      000000BFH   SFRSYM    DATA     BYTE      P_SW4
      000000A8H   SFRSYM    DATA     BYTE      IE
      000000BBH   SFRSYM    DATA     BYTE      P_SW3
L251 LINKER/LOCATER V4.66.93.0                                                        05/01/2026  15:28:45  PAGE 68


      000000BAH   SFRSYM    DATA     BYTE      P_SW2
      000000A2H   SFRSYM    DATA     BYTE      P_SW1
      000000CEH   SFRSYM    DATA     BYTE      SPCTL
      000000F8H   SFRSYM    DATA     BYTE      P7
      000000E8H   SFRSYM    DATA     BYTE      P6
      000000C8H   SFRSYM    DATA     BYTE      P5
      000000C0H   SFRSYM    DATA     BYTE      P4
      000000ABH   SFRSYM    DATA     BYTE      WKTCH
      000000B0H   SFRSYM    DATA     BYTE      P3
      000000A0H   SFRSYM    DATA     BYTE      P2
      00000090H   SFRSYM    DATA     BYTE      P1
      00000080H   SFRSYM    DATA     BYTE      P0

      00FE3160H   BLOCK     ECODE    ---       LVL=0
      000129EBH   SYMBOL    XDATA    INT       int_n
      000129EDH   SYMBOL    XDATA    INT       mode
      00FE3160H   LINE      ECODE    ---       #44
      00FE316CH   LINE      ECODE    ---       #46
      00FE317AH   LINE      ECODE    ---       #48
      00FE3186H   LINE      ECODE    ---       #49
      00FE3189H   LINE      ECODE    ---       #50
      00FE3189H   LINE      ECODE    ---       #52
      00FE3197H   LINE      ECODE    ---       #54
      00FE31A3H   LINE      ECODE    ---       #55
      00FE31A6H   LINE      ECODE    ---       #56
      00FE31A6H   LINE      ECODE    ---       #58
      00FE31B4H   LINE      ECODE    ---       #60
      00FE31B7H   LINE      ECODE    ---       #61
      00FE31B7H   LINE      ECODE    ---       #63
      00FE31C5H   LINE      ECODE    ---       #65
      00FE31C8H   LINE      ECODE    ---       #66
      00FE31C8H   LINE      ECODE    ---       #68
      00FE31D6H   LINE      ECODE    ---       #70
      00FE31D9H   LINE      ECODE    ---       #71
      ---         BLOCKEND  ---      ---       LVL=0

      ---         MODULE    ---      ---       zf_driver_gpio
      00FD4246H   PUBLIC    ECODE    ---       gpio_toggle_level?
      00FD426BH   PUBLIC    ECODE    ---       gpio_init?
      00FD3CC8H   PUBLIC    ECODE    ---       gpio_get_level?
      00FD3B71H   PUBLIC    ECODE    ---       gpio_set_level_speed?
      00FD3EC5H   PUBLIC    ECODE    ---       gpio_set_level?
      00FD34C3H   PUBLIC    ECODE    ---       gpio_set_impedance?
      00000094H   SFRSYM    DATA     BYTE      P0M0
      000000D0H   SFRSYM    DATA     BYTE      PSW
      0000009DH   SFRSYM    DATA     BYTE      IRCBAND
      00000097H   SFRSYM    DATA     BYTE      AUXR2
      000000EAH   SFRSYM    DATA     BYTE      CKCON
      000000EFH   SFRSYM    DATA     BYTE      AUXINTIF
      000000FDH   SFRSYM    DATA     BYTE      S4CON
      000000ACH   SFRSYM    DATA     BYTE      S3CON
      0000009AH   SFRSYM    DATA     BYTE      S2CON
      000000B7H   SFRSYM    DATA     BYTE      IPH
      000000CDH   SFRSYM    DATA     BYTE      SPSTAT
      000000DDH   SFRSYM    DATA     BYTE      T4T3M
      000000C1H   SFRSYM    DATA     BYTE      WDT_CONTR
      000000DFH   SFRSYM    DATA     BYTE      IP3
      000000F4H   SFRSYM    DATA     BYTE      USBCON
      000000B5H   SFRSYM    DATA     BYTE      IP2
      000000FFH   SFRSYM    DATA     BYTE      RSTCFG
      000000E0H   SFRSYM    DATA     BYTE      ACC
      000000C7H   SFRSYM    DATA     BYTE      IAP_CONTR
      000000F9H   SFRSYM    DATA     BYTE      LINICR
      0000008EH   SFRSYM    DATA     BYTE      AUXR
      000000F0H   SFRSYM    DATA     BYTE      B
L251 LINKER/LOCATER V4.66.93.0                                                        05/01/2026  15:28:45  PAGE 69


      000000AFH   SFRSYM    DATA     BYTE      IE2
      00000088H   SFRSYM    DATA     BYTE      TCON
      00000089H   SFRSYM    DATA     BYTE      TMOD
      00000098H   SFRSYM    DATA     BYTE      SCON
      00000087H   SFRSYM    DATA     BYTE      PCON
      000000BCH   SFRSYM    DATA     BYTE      ADC_CONTR
      000000D1H   SFRSYM    DATA     BYTE      PSW1
      000000E7H   SFRSYM    DATA     BYTE      CMPCR2
      000000E6H   SFRSYM    DATA     BYTE      CMPCR1
      000000DEH   SFRSYM    DATA     BYTE      ADCCFG
      000000B8H   SFRSYM    DATA     BYTE      IP
      0000008FH   SFRSYM    DATA     BYTE      INTCLKO
      000000EEH   SFRSYM    DATA     BYTE      IP3H
      000000B6H   SFRSYM    DATA     BYTE      IP2H
      000000BFH   SFRSYM    DATA     BYTE      P_SW4
      000000A8H   SFRSYM    DATA     BYTE      IE
      000000BBH   SFRSYM    DATA     BYTE      P_SW3
      000000BAH   SFRSYM    DATA     BYTE      P_SW2
      000000A2H   SFRSYM    DATA     BYTE      P_SW1
      000000CEH   SFRSYM    DATA     BYTE      SPCTL
      000000F8H   SFRSYM    DATA     BYTE      P7
      000000E1H   SFRSYM    DATA     BYTE      P7M1
      000000E8H   SFRSYM    DATA     BYTE      P6
      000000C8H   SFRSYM    DATA     BYTE      P5
      000000CBH   SFRSYM    DATA     BYTE      P6M1
      000000E2H   SFRSYM    DATA     BYTE      P7M0
      000000C0H   SFRSYM    DATA     BYTE      P4
      000000C9H   SFRSYM    DATA     BYTE      P5M1
      000000CCH   SFRSYM    DATA     BYTE      P6M0
      000000ABH   SFRSYM    DATA     BYTE      WKTCH
      000000B0H   SFRSYM    DATA     BYTE      P3
      000000B3H   SFRSYM    DATA     BYTE      P4M1
      000000CAH   SFRSYM    DATA     BYTE      P5M0
      000000A0H   SFRSYM    DATA     BYTE      P2
      000000B1H   SFRSYM    DATA     BYTE      P3M1
      000000B4H   SFRSYM    DATA     BYTE      P4M0
      00000090H   SFRSYM    DATA     BYTE      P1
      00000095H   SFRSYM    DATA     BYTE      P2M1
      000000B2H   SFRSYM    DATA     BYTE      P3M0
      00000080H   SFRSYM    DATA     BYTE      P0
      00000091H   SFRSYM    DATA     BYTE      P1M1
      00000096H   SFRSYM    DATA     BYTE      P2M0
      00000092H   SFRSYM    DATA     BYTE      P1M0
      00000093H   SFRSYM    DATA     BYTE      P0M1
      00FD3A21H   SYMBOL    ECODE    ---       gpio_set_ie
      00FD3840H   SYMBOL    ECODE    ---       gpio_set_pd
      00FD38D1H   SYMBOL    ECODE    ---       gpio_set_dr
      00FD2F03H   SYMBOL    ECODE    ---       gpio_set_push_pull
      00FD37AFH   SYMBOL    ECODE    ---       gpio_set_up
      00FD31EFH   SYMBOL    ECODE    ---       gpio_set_open_dtain

      00FD2F03H   BLOCK     ECODE    ---       LVL=0
      000129EFH   SYMBOL    XDATA    INT       pin
      00FD2F09H   BLOCK     ECODE    NEAR LAB  LVL=1
      000129F1H   SYMBOL    XDATA    BYTE      pin_bit
      000129F2H   SYMBOL    XDATA    BYTE      port_flag
      ---         BLOCKEND  ---      ---       LVL=1
      00FD2F03H   LINE      ECODE    ---       #46
      00FD2F09H   LINE      ECODE    ---       #47
      00FD2F09H   LINE      ECODE    ---       #48
      00FD2F19H   LINE      ECODE    ---       #49
      00FD2F29H   LINE      ECODE    ---       #52
      00FD2F7EH   LINE      ECODE    ---       #54
      00FD2FA9H   LINE      ECODE    ---       #55
      00FD2FD4H   LINE      ECODE    ---       #56
L251 LINKER/LOCATER V4.66.93.0                                                        05/01/2026  15:28:45  PAGE 70


      00FD2FFFH   LINE      ECODE    ---       #57
      00FD302AH   LINE      ECODE    ---       #58
      00FD3055H   LINE      ECODE    ---       #59
      00FD3080H   LINE      ECODE    ---       #60
      00FD30ABH   LINE      ECODE    ---       #61
      00FD30D6H   LINE      ECODE    ---       #62
      00FD311DH   LINE      ECODE    ---       #63
      00FD3164H   LINE      ECODE    ---       #64
      00FD31AAH   LINE      ECODE    ---       #65
      00FD31EEH   LINE      ECODE    ---       #67
      00FD31EEH   LINE      ECODE    ---       #68
      00FD31EEH   LINE      ECODE    ---       #70
      ---         BLOCKEND  ---      ---       LVL=0

      00FD31EFH   BLOCK     ECODE    ---       LVL=0
      000129F3H   SYMBOL    XDATA    INT       pin
      00FD31F5H   BLOCK     ECODE    NEAR LAB  LVL=1
      000129F5H   SYMBOL    XDATA    BYTE      pin_bit
      000129F6H   SYMBOL    XDATA    BYTE      port_flag
      ---         BLOCKEND  ---      ---       LVL=1
      00FD31EFH   LINE      ECODE    ---       #78
      00FD31F5H   LINE      ECODE    ---       #79
      00FD31F5H   LINE      ECODE    ---       #80
      00FD3205H   LINE      ECODE    ---       #81
      00FD3215H   LINE      ECODE    ---       #84
      00FD326AH   LINE      ECODE    ---       #86
      00FD3293H   LINE      ECODE    ---       #87
      00FD32BCH   LINE      ECODE    ---       #88
      00FD32E5H   LINE      ECODE    ---       #89
      00FD330EH   LINE      ECODE    ---       #90
      00FD3337H   LINE      ECODE    ---       #91
      00FD3360H   LINE      ECODE    ---       #92
      00FD3389H   LINE      ECODE    ---       #93
      00FD33B2H   LINE      ECODE    ---       #94
      00FD33F7H   LINE      ECODE    ---       #95
      00FD343CH   LINE      ECODE    ---       #96
      00FD3480H   LINE      ECODE    ---       #97
      00FD34C2H   LINE      ECODE    ---       #99
      00FD34C2H   LINE      ECODE    ---       #100
      00FD34C2H   LINE      ECODE    ---       #102
      ---         BLOCKEND  ---      ---       LVL=0

      00FD34C3H   BLOCK     ECODE    ---       LVL=0
      000129F7H   SYMBOL    XDATA    INT       pin
      00FD34C9H   BLOCK     ECODE    NEAR LAB  LVL=1
      000129F9H   SYMBOL    XDATA    BYTE      pin_bit
      000129FAH   SYMBOL    XDATA    BYTE      port_flag
      ---         BLOCKEND  ---      ---       LVL=1
      00FD34C3H   LINE      ECODE    ---       #110
      00FD34C9H   LINE      ECODE    ---       #111
      00FD34C9H   LINE      ECODE    ---       #112
      00FD34D9H   LINE      ECODE    ---       #113
      00FD34E9H   LINE      ECODE    ---       #116
      00FD353EH   LINE      ECODE    ---       #118
      00FD3569H   LINE      ECODE    ---       #119
      00FD3594H   LINE      ECODE    ---       #120
      00FD35BFH   LINE      ECODE    ---       #121
      00FD35EAH   LINE      ECODE    ---       #122
      00FD3615H   LINE      ECODE    ---       #123
      00FD3640H   LINE      ECODE    ---       #124
      00FD366BH   LINE      ECODE    ---       #125
      00FD3696H   LINE      ECODE    ---       #126
      00FD36DDH   LINE      ECODE    ---       #127
      00FD3724H   LINE      ECODE    ---       #128
      00FD376AH   LINE      ECODE    ---       #129
L251 LINKER/LOCATER V4.66.93.0                                                        05/01/2026  15:28:45  PAGE 71


      00FD37AEH   LINE      ECODE    ---       #131
      00FD37AEH   LINE      ECODE    ---       #132
      00FD37AEH   LINE      ECODE    ---       #133
      ---         BLOCKEND  ---      ---       LVL=0

      00FD37AFH   BLOCK     ECODE    ---       LVL=0
      00012ACAH   SYMBOL    XDATA    INT       pin
      00FD37AFH   LINE      ECODE    ---       #136
      00FD37B5H   LINE      ECODE    ---       #140
      00FD37C3H   LINE      ECODE    ---       #142
      00FD3800H   LINE      ECODE    ---       #143
      00FD3802H   LINE      ECODE    ---       #146
      00FD383FH   LINE      ECODE    ---       #147
      00FD383FH   LINE      ECODE    ---       #148
      ---         BLOCKEND  ---      ---       LVL=0

      00FD3840H   BLOCK     ECODE    ---       LVL=0
      00012ACCH   SYMBOL    XDATA    INT       pin
      00FD3840H   LINE      ECODE    ---       #151
      00FD3846H   LINE      ECODE    ---       #155
      00FD3854H   LINE      ECODE    ---       #157
      00FD3891H   LINE      ECODE    ---       #158
      00FD3893H   LINE      ECODE    ---       #161
      00FD38D0H   LINE      ECODE    ---       #162
      00FD38D0H   LINE      ECODE    ---       #163
      ---         BLOCKEND  ---      ---       LVL=0

      00FD38D1H   BLOCK     ECODE    ---       LVL=0
      000129FBH   SYMBOL    XDATA    INT       pin
      000129FDH   SYMBOL    XDATA    INT       mode
      00FD38D1H   LINE      ECODE    ---       #166
      00FD38DDH   LINE      ECODE    ---       #168
      00FD38F1H   LINE      ECODE    ---       #170
      00FD38F1H   LINE      ECODE    ---       #172
      00FD38FFH   LINE      ECODE    ---       #174
      00FD393EH   LINE      ECODE    ---       #175
      00FD3941H   LINE      ECODE    ---       #178
      00FD3980H   LINE      ECODE    ---       #179
      00FD3980H   LINE      ECODE    ---       #180
      00FD3983H   LINE      ECODE    ---       #183
      00FD3983H   LINE      ECODE    ---       #185
      00FD3991H   LINE      ECODE    ---       #187
      00FD39CEH   LINE      ECODE    ---       #188
      00FD39D0H   LINE      ECODE    ---       #191
      00FD3A0DH   LINE      ECODE    ---       #192
      00FD3A0DH   LINE      ECODE    ---       #193
      00FD3A0FH   LINE      ECODE    ---       #196
      00FD3A0FH   LINE      ECODE    ---       #198
      00FD3A20H   LINE      ECODE    ---       #199
      00FD3A20H   LINE      ECODE    ---       #201
      00FD3A20H   LINE      ECODE    ---       #202
      ---         BLOCKEND  ---      ---       LVL=0

      00FD3A21H   BLOCK     ECODE    ---       LVL=0
      000129FFH   SYMBOL    XDATA    INT       pin
      00012A01H   SYMBOL    XDATA    INT       mode
      00FD3A21H   LINE      ECODE    ---       #205
      00FD3A2DH   LINE      ECODE    ---       #213
      00FD3A41H   LINE      ECODE    ---       #215
      00FD3A41H   LINE      ECODE    ---       #217
      00FD3A4FH   LINE      ECODE    ---       #219
      00FD3A8EH   LINE      ECODE    ---       #220
      00FD3A91H   LINE      ECODE    ---       #223
      00FD3AD0H   LINE      ECODE    ---       #224
      00FD3AD0H   LINE      ECODE    ---       #225
L251 LINKER/LOCATER V4.66.93.0                                                        05/01/2026  15:28:45  PAGE 72


      00FD3AD3H   LINE      ECODE    ---       #228
      00FD3AD3H   LINE      ECODE    ---       #230
      00FD3AE1H   LINE      ECODE    ---       #232
      00FD3B1EH   LINE      ECODE    ---       #233
      00FD3B20H   LINE      ECODE    ---       #236
      00FD3B5DH   LINE      ECODE    ---       #237
      00FD3B5DH   LINE      ECODE    ---       #238
      00FD3B5FH   LINE      ECODE    ---       #241
      00FD3B5FH   LINE      ECODE    ---       #243
      00FD3B70H   LINE      ECODE    ---       #244
      00FD3B70H   LINE      ECODE    ---       #246
      00FD3B70H   LINE      ECODE    ---       #247
      ---         BLOCKEND  ---      ---       LVL=0

      00FD3B71H   BLOCK     ECODE    ---       LVL=0
      00012A03H   SYMBOL    XDATA    INT       pin
      00012A05H   SYMBOL    XDATA    INT       speed
      00FD3B71H   LINE      ECODE    ---       #250
      00FD3B7DH   LINE      ECODE    ---       #254
      00FD3B8BH   LINE      ECODE    ---       #256
      00FD3B9CH   LINE      ECODE    ---       #257
      00FD3B9CH   LINE      ECODE    ---       #261
      00FD3BABH   LINE      ECODE    ---       #263
      00FD3BB9H   LINE      ECODE    ---       #265
      00FD3BF8H   LINE      ECODE    ---       #266
      00FD3BFBH   LINE      ECODE    ---       #269
      00FD3C3AH   LINE      ECODE    ---       #270
      00FD3C3AH   LINE      ECODE    ---       #271
      00FD3C3DH   LINE      ECODE    ---       #274
      00FD3C4BH   LINE      ECODE    ---       #276
      00FD3C88H   LINE      ECODE    ---       #277
      00FD3C8AH   LINE      ECODE    ---       #280
      00FD3CC7H   LINE      ECODE    ---       #281
      00FD3CC7H   LINE      ECODE    ---       #282
      00FD3CC7H   LINE      ECODE    ---       #283
      ---         BLOCKEND  ---      ---       LVL=0

      00FD3CC8H   BLOCK     ECODE    ---       LVL=0
      0001298AH   SYMBOL    XDATA    INT       pin
      00FD3CCEH   BLOCK     ECODE    NEAR LAB  LVL=1
      0001298CH   SYMBOL    XDATA    BYTE      pin_bit
      0001298DH   SYMBOL    XDATA    BYTE      port_flag
      0001298EH   SYMBOL    XDATA    BYTE      status
      ---         BLOCKEND  ---      ---       LVL=1
      00FD3CC8H   LINE      ECODE    ---       #293
      00FD3CCEH   LINE      ECODE    ---       #294
      00FD3CCEH   LINE      ECODE    ---       #295
      00FD3CDEH   LINE      ECODE    ---       #296
      00FD3CEEH   LINE      ECODE    ---       #297
      00FD3CF3H   LINE      ECODE    ---       #300
      00FD3D48H   LINE      ECODE    ---       #302
      00FD3D64H   LINE      ECODE    ---       #303
      00FD3D80H   LINE      ECODE    ---       #304
      00FD3D9CH   LINE      ECODE    ---       #305
      00FD3DB8H   LINE      ECODE    ---       #306
      00FD3DD4H   LINE      ECODE    ---       #307
      00FD3DF0H   LINE      ECODE    ---       #308
      00FD3E0CH   LINE      ECODE    ---       #309
      00FD3E28H   LINE      ECODE    ---       #311
      00FD3E4CH   LINE      ECODE    ---       #312
      00FD3E70H   LINE      ECODE    ---       #313
      00FD3E94H   LINE      ECODE    ---       #314
      00FD3EB6H   LINE      ECODE    ---       #316
      00FD3EB6H   LINE      ECODE    ---       #317
      00FD3EB6H   LINE      ECODE    ---       #319
L251 LINKER/LOCATER V4.66.93.0                                                        05/01/2026  15:28:45  PAGE 73


      00FD3EC4H   LINE      ECODE    ---       #320
      ---         BLOCKEND  ---      ---       LVL=0

      00FD3EC5H   BLOCK     ECODE    ---       LVL=0
      0001298FH   SYMBOL    XDATA    INT       pin
      00012991H   SYMBOL    XDATA    BYTE      dat
      00FD3ECFH   BLOCK     ECODE    NEAR LAB  LVL=1
      00012992H   SYMBOL    XDATA    BYTE      pin_bit
      00012993H   SYMBOL    XDATA    BYTE      port_flag
      ---         BLOCKEND  ---      ---       LVL=1
      00FD3EC5H   LINE      ECODE    ---       #329
      00FD3ECFH   LINE      ECODE    ---       #330
      00FD3ECFH   LINE      ECODE    ---       #331
      00FD3EDFH   LINE      ECODE    ---       #332
      00FD3EEFH   LINE      ECODE    ---       #335
      00FD3F47H   LINE      ECODE    ---       #337
      00FD3F7EH   LINE      ECODE    ---       #338
      00FD3FB5H   LINE      ECODE    ---       #339
      00FD3FECH   LINE      ECODE    ---       #340
      00FD4023H   LINE      ECODE    ---       #341
      00FD405AH   LINE      ECODE    ---       #342
      00FD4091H   LINE      ECODE    ---       #343
      00FD40C8H   LINE      ECODE    ---       #344
      00FD40FFH   LINE      ECODE    ---       #346
      00FD4152H   LINE      ECODE    ---       #347
      00FD41A5H   LINE      ECODE    ---       #348
      00FD41F6H   LINE      ECODE    ---       #349
      00FD4245H   LINE      ECODE    ---       #351
      00FD4245H   LINE      ECODE    ---       #352
      00FD4245H   LINE      ECODE    ---       #353
      ---         BLOCKEND  ---      ---       LVL=0

      00FD4246H   BLOCK     ECODE    ---       LVL=0
      00012ACEH   SYMBOL    XDATA    INT       pin
      00FD4246H   LINE      ECODE    ---       #361
      00FD424CH   LINE      ECODE    ---       #364
      00FD426AH   LINE      ECODE    ---       #365
      ---         BLOCKEND  ---      ---       LVL=0

      00FD426BH   BLOCK     ECODE    ---       LVL=0
      00012868H   SYMBOL    XDATA    INT       pin
      0001286AH   SYMBOL    XDATA    INT       dir
      0001286CH   SYMBOL    XDATA    BYTE      dat
      0001286DH   SYMBOL    XDATA    INT       mode
      00FD426BH   LINE      ECODE    ---       #377
      00FD4281H   LINE      ECODE    ---       #379
      00FD42ABH   LINE      ECODE    ---       #381
      00FD42BAH   LINE      ECODE    ---       #383
      00FD42C6H   LINE      ECODE    ---       #385
      00FD42D0H   LINE      ECODE    ---       #386
      00FD42DDH   LINE      ECODE    ---       #387
      00FD42E0H   LINE      ECODE    ---       #388
      00FD42EEH   LINE      ECODE    ---       #390
      00FD42F8H   LINE      ECODE    ---       #391
      00FD4301H   LINE      ECODE    ---       #392
      00FD430EH   LINE      ECODE    ---       #394
      00FD4311H   LINE      ECODE    ---       #395
      00FD431FH   LINE      ECODE    ---       #397
      00FD4329H   LINE      ECODE    ---       #398
      00FD4334H   LINE      ECODE    ---       #399
      00FD4337H   LINE      ECODE    ---       #400
      00FD4345H   LINE      ECODE    ---       #402
      00FD434FH   LINE      ECODE    ---       #403
      00FD4358H   LINE      ECODE    ---       #404
      00FD435AH   LINE      ECODE    ---       #406
L251 LINKER/LOCATER V4.66.93.0                                                        05/01/2026  15:28:45  PAGE 74


      00FD4368H   LINE      ECODE    ---       #408
      00FD4376H   LINE      ECODE    ---       #410
      00FD437FH   LINE      ECODE    ---       #411
      00FD438AH   LINE      ECODE    ---       #412
      00FD438CH   LINE      ECODE    ---       #413
      00FD439AH   LINE      ECODE    ---       #415
      00FD43A3H   LINE      ECODE    ---       #416
      00FD43A3H   LINE      ECODE    ---       #417
      00FD43B1H   LINE      ECODE    ---       #418
      ---         BLOCKEND  ---      ---       LVL=0

      ---         MODULE    ---      ---       zf_driver_pit
      00FDD93FH   PUBLIC    ECODE    ---       pit_init?
      000118BDH   PUBLIC    XDATA    ---       tim_irq_handlers
      00012268H   PUBLIC    XDATA    BYTE      ?pit_init??BYTE
      000000D0H   SFRSYM    DATA     BYTE      PSW
      0000009DH   SFRSYM    DATA     BYTE      IRCBAND
      00000097H   SFRSYM    DATA     BYTE      AUXR2
      000000EAH   SFRSYM    DATA     BYTE      CKCON
      000000EFH   SFRSYM    DATA     BYTE      AUXINTIF
      000000FDH   SFRSYM    DATA     BYTE      S4CON
      000000ACH   SFRSYM    DATA     BYTE      S3CON
      0000009AH   SFRSYM    DATA     BYTE      S2CON
      000000B7H   SFRSYM    DATA     BYTE      IPH
      000000CDH   SFRSYM    DATA     BYTE      SPSTAT
      000000DDH   SFRSYM    DATA     BYTE      T4T3M
      000000C1H   SFRSYM    DATA     BYTE      WDT_CONTR
      00000088H.6 SFRSYM    DATA     BIT       TR1
      00000088H.4 SFRSYM    DATA     BIT       TR0
      000000D3H   SFRSYM    DATA     BYTE      T4L
      000000D5H   SFRSYM    DATA     BYTE      T3L
      000000D7H   SFRSYM    DATA     BYTE      T2L
      0000008BH   SFRSYM    DATA     BYTE      TL1
      0000008AH   SFRSYM    DATA     BYTE      TL0
      000000D2H   SFRSYM    DATA     BYTE      T4H
      000000D4H   SFRSYM    DATA     BYTE      T3H
      000000D6H   SFRSYM    DATA     BYTE      T2H
      0000008DH   SFRSYM    DATA     BYTE      TH1
      0000008CH   SFRSYM    DATA     BYTE      TH0
      000000DFH   SFRSYM    DATA     BYTE      IP3
      000000F4H   SFRSYM    DATA     BYTE      USBCON
      000000B5H   SFRSYM    DATA     BYTE      IP2
      000000FFH   SFRSYM    DATA     BYTE      RSTCFG
      000000A8H.3 SFRSYM    DATA     BIT       ET1
      000000A8H.1 SFRSYM    DATA     BIT       ET0
      000000E0H   SFRSYM    DATA     BYTE      ACC
      000000C7H   SFRSYM    DATA     BYTE      IAP_CONTR
      000000F9H   SFRSYM    DATA     BYTE      LINICR
      0000008EH   SFRSYM    DATA     BYTE      AUXR
      000000F0H   SFRSYM    DATA     BYTE      B
      000000AFH   SFRSYM    DATA     BYTE      IE2
      00000088H   SFRSYM    DATA     BYTE      TCON
      00000089H   SFRSYM    DATA     BYTE      TMOD
      00000098H   SFRSYM    DATA     BYTE      SCON
      00000087H   SFRSYM    DATA     BYTE      PCON
      000000BCH   SFRSYM    DATA     BYTE      ADC_CONTR
      000000D1H   SFRSYM    DATA     BYTE      PSW1
      000000E7H   SFRSYM    DATA     BYTE      CMPCR2
      000000E6H   SFRSYM    DATA     BYTE      CMPCR1
      000000DEH   SFRSYM    DATA     BYTE      ADCCFG
      000000B8H   SFRSYM    DATA     BYTE      IP
      0000008FH   SFRSYM    DATA     BYTE      INTCLKO
      000000EEH   SFRSYM    DATA     BYTE      IP3H
      000000B6H   SFRSYM    DATA     BYTE      IP2H
      000000BFH   SFRSYM    DATA     BYTE      P_SW4
L251 LINKER/LOCATER V4.66.93.0                                                        05/01/2026  15:28:45  PAGE 75


      000000A8H   SFRSYM    DATA     BYTE      IE
      000000BBH   SFRSYM    DATA     BYTE      P_SW3
      000000BAH   SFRSYM    DATA     BYTE      P_SW2
      000000A2H   SFRSYM    DATA     BYTE      P_SW1
      000000CEH   SFRSYM    DATA     BYTE      SPCTL
      000000F8H   SFRSYM    DATA     BYTE      P7
      000000E8H   SFRSYM    DATA     BYTE      P6
      000000C8H   SFRSYM    DATA     BYTE      P5
      000000C0H   SFRSYM    DATA     BYTE      P4
      000000ABH   SFRSYM    DATA     BYTE      WKTCH
      000000B0H   SFRSYM    DATA     BYTE      P3
      000000A0H   SFRSYM    DATA     BYTE      P2
      00000090H   SFRSYM    DATA     BYTE      P1
      00000080H   SFRSYM    DATA     BYTE      P0

      00FDD93FH   BLOCK     ECODE    ---       LVL=0
      00012268H   SYMBOL    XDATA    INT       pit_n
      0001226AH   SYMBOL    XDATA    DWORD     period
      0001226EH   SYMBOL    XDATA    ---       pit_handler
      00FDD94FH   BLOCK     ECODE    NEAR LAB  LVL=1
      00012272H   SYMBOL    XDATA    BYTE      freq_div
      00012273H   SYMBOL    XDATA    WORD      period_temp
      00012275H   SYMBOL    XDATA    WORD      temp
      ---         BLOCKEND  ---      ---       LVL=1
      00FDD93FH   LINE      ECODE    ---       #54
      00FDD94FH   LINE      ECODE    ---       #55
      00FDD94FH   LINE      ECODE    ---       #56
      00FDD954H   LINE      ECODE    ---       #57
      00FDD95CH   LINE      ECODE    ---       #58
      00FDD964H   LINE      ECODE    ---       #64
      00FDD982H   LINE      ECODE    ---       #66
      00FDD99BH   LINE      ECODE    ---       #69
      00FDD9B4H   LINE      ECODE    ---       #72
      00FDD9F5H   LINE      ECODE    ---       #74
      00FDD9F5H   LINE      ECODE    ---       #76
      00FDD9F8H   LINE      ECODE    ---       #77
      00FDD9FBH   LINE      ECODE    ---       #79
      00FDD9FBH   LINE      ECODE    ---       #81
      00FDD9FEH   LINE      ECODE    ---       #82
      00FDDA01H   LINE      ECODE    ---       #84
      00FDDA01H   LINE      ECODE    ---       #86
      00FDDA04H   LINE      ECODE    ---       #87
      00FDDA07H   LINE      ECODE    ---       #89
      00FDDA07H   LINE      ECODE    ---       #91
      00FDDA0AH   LINE      ECODE    ---       #92
      00FDDA0DH   LINE      ECODE    ---       #94
      00FDDA0DH   LINE      ECODE    ---       #96
      00FDDA10H   LINE      ECODE    ---       #97
      00FDDA13H   LINE      ECODE    ---       #99
      00FDDA13H   LINE      ECODE    ---       #101
      00FDDA25H   LINE      ECODE    ---       #102
      00FDDA28H   LINE      ECODE    ---       #104
      00FDDA28H   LINE      ECODE    ---       #106
      00FDDA3AH   LINE      ECODE    ---       #107
      00FDDA3DH   LINE      ECODE    ---       #109
      00FDDA3DH   LINE      ECODE    ---       #111
      00FDDA4FH   LINE      ECODE    ---       #112
      00FDDA52H   LINE      ECODE    ---       #114
      00FDDA52H   LINE      ECODE    ---       #116
      00FDDA64H   LINE      ECODE    ---       #117
      00FDDA67H   LINE      ECODE    ---       #119
      00FDDA67H   LINE      ECODE    ---       #121
      00FDDA79H   LINE      ECODE    ---       #122
      00FDDA7CH   LINE      ECODE    ---       #124
      00FDDA7CH   LINE      ECODE    ---       #126
L251 LINKER/LOCATER V4.66.93.0                                                        05/01/2026  15:28:45  PAGE 76


      00FDDA8EH   LINE      ECODE    ---       #127
      00FDDA91H   LINE      ECODE    ---       #129
      00FDDA91H   LINE      ECODE    ---       #131
      00FDDAA3H   LINE      ECODE    ---       #132
      00FDDAA6H   LINE      ECODE    ---       #135
      00FDDAA6H   LINE      ECODE    ---       #137
      00FDDAB8H   LINE      ECODE    ---       #138
      00FDDABBH   LINE      ECODE    ---       #140
      00FDDABBH   LINE      ECODE    ---       #142
      00FDDACDH   LINE      ECODE    ---       #143
      00FDDAD0H   LINE      ECODE    ---       #147
      00FDDAD0H   LINE      ECODE    ---       #149
      00FDDAD0H   LINE      ECODE    ---       #151
      00FDDAD0H   LINE      ECODE    ---       #152
      00FDDAD0H   LINE      ECODE    ---       #156
      00FDDB11H   LINE      ECODE    ---       #158
      00FDDB11H   LINE      ECODE    ---       #160
      00FDDB14H   LINE      ECODE    ---       #161
      00FDDB17H   LINE      ECODE    ---       #163
      00FDDB17H   LINE      ECODE    ---       #165
      00FDDB1AH   LINE      ECODE    ---       #166
      00FDDB1DH   LINE      ECODE    ---       #168
      00FDDB1DH   LINE      ECODE    ---       #170
      00FDDB20H   LINE      ECODE    ---       #171
      00FDDB23H   LINE      ECODE    ---       #173
      00FDDB23H   LINE      ECODE    ---       #175
      00FDDB26H   LINE      ECODE    ---       #176
      00FDDB29H   LINE      ECODE    ---       #178
      00FDDB29H   LINE      ECODE    ---       #180
      00FDDB2CH   LINE      ECODE    ---       #181
      00FDDB2FH   LINE      ECODE    ---       #183
      00FDDB2FH   LINE      ECODE    ---       #185
      00FDDB41H   LINE      ECODE    ---       #186
      00FDDB44H   LINE      ECODE    ---       #188
      00FDDB44H   LINE      ECODE    ---       #190
      00FDDB56H   LINE      ECODE    ---       #191
      00FDDB59H   LINE      ECODE    ---       #193
      00FDDB59H   LINE      ECODE    ---       #195
      00FDDB6BH   LINE      ECODE    ---       #196
      00FDDB6DH   LINE      ECODE    ---       #198
      00FDDB6DH   LINE      ECODE    ---       #200
      00FDDB7FH   LINE      ECODE    ---       #201
      00FDDB81H   LINE      ECODE    ---       #203
      00FDDB81H   LINE      ECODE    ---       #205
      00FDDB93H   LINE      ECODE    ---       #206
      00FDDB95H   LINE      ECODE    ---       #208
      00FDDB95H   LINE      ECODE    ---       #210
      00FDDBA7H   LINE      ECODE    ---       #211
      00FDDBA9H   LINE      ECODE    ---       #213
      00FDDBA9H   LINE      ECODE    ---       #215
      00FDDBBBH   LINE      ECODE    ---       #216
      00FDDBBDH   LINE      ECODE    ---       #219
      00FDDBBDH   LINE      ECODE    ---       #221
      00FDDBCFH   LINE      ECODE    ---       #222
      00FDDBD1H   LINE      ECODE    ---       #224
      00FDDBD1H   LINE      ECODE    ---       #226
      00FDDBE3H   LINE      ECODE    ---       #227
      00FDDBE3H   LINE      ECODE    ---       #232
      00FDDBE3H   LINE      ECODE    ---       #234
      00FDDBE3H   LINE      ECODE    ---       #236
      00FDDBE3H   LINE      ECODE    ---       #237
      00FDDBE3H   LINE      ECODE    ---       #240
      00FDDBF3H   LINE      ECODE    ---       #241
      00FDDC15H   LINE      ECODE    ---       #242
      00FDDC27H   LINE      ECODE    ---       #245
L251 LINKER/LOCATER V4.66.93.0                                                        05/01/2026  15:28:45  PAGE 77


      00FDDC68H   LINE      ECODE    ---       #247
      00FDDC68H   LINE      ECODE    ---       #249
      00FDDC77H   LINE      ECODE    ---       #250
      00FDDC7AH   LINE      ECODE    ---       #251
      00FDDC82H   LINE      ECODE    ---       #252
      00FDDC8EH   LINE      ECODE    ---       #253
      00FDDC91H   LINE      ECODE    ---       #254
      00FDDC94H   LINE      ECODE    ---       #255
      00FDDC97H   LINE      ECODE    ---       #257
      00FDDC97H   LINE      ECODE    ---       #259
      00FDDCA6H   LINE      ECODE    ---       #260
      00FDDCAAH   LINE      ECODE    ---       #261
      00FDDCB2H   LINE      ECODE    ---       #262
      00FDDCBEH   LINE      ECODE    ---       #263
      00FDDCC1H   LINE      ECODE    ---       #264
      00FDDCC4H   LINE      ECODE    ---       #265
      00FDDCC7H   LINE      ECODE    ---       #267
      00FDDCC7H   LINE      ECODE    ---       #269
      00FDDCD6H   LINE      ECODE    ---       #270
      00FDDCDEH   LINE      ECODE    ---       #271
      00FDDCEAH   LINE      ECODE    ---       #272
      00FDDCEDH   LINE      ECODE    ---       #273
      00FDDCF0H   LINE      ECODE    ---       #274
      00FDDCF3H   LINE      ECODE    ---       #276
      00FDDCF3H   LINE      ECODE    ---       #278
      00FDDD02H   LINE      ECODE    ---       #279
      00FDDD0AH   LINE      ECODE    ---       #280
      00FDDD16H   LINE      ECODE    ---       #281
      00FDDD19H   LINE      ECODE    ---       #282
      00FDDD1CH   LINE      ECODE    ---       #283
      00FDDD1FH   LINE      ECODE    ---       #285
      00FDDD1FH   LINE      ECODE    ---       #287
      00FDDD2EH   LINE      ECODE    ---       #288
      00FDDD36H   LINE      ECODE    ---       #289
      00FDDD42H   LINE      ECODE    ---       #290
      00FDDD45H   LINE      ECODE    ---       #291
      00FDDD48H   LINE      ECODE    ---       #292
      00FDDD4BH   LINE      ECODE    ---       #293
      00FDDD4EH   LINE      ECODE    ---       #295
      00FDDD4EH   LINE      ECODE    ---       #297
      00FDDD5DH   LINE      ECODE    ---       #298
      00FDDD6EH   LINE      ECODE    ---       #299
      00FDDD83H   LINE      ECODE    ---       #300
      00FDDD95H   LINE      ECODE    ---       #301
      00FDDDA7H   LINE      ECODE    ---       #302
      00FDDDAAH   LINE      ECODE    ---       #304
      00FDDDAAH   LINE      ECODE    ---       #306
      00FDDDB9H   LINE      ECODE    ---       #307
      00FDDDCAH   LINE      ECODE    ---       #308
      00FDDDDFH   LINE      ECODE    ---       #309
      00FDDDF1H   LINE      ECODE    ---       #310
      00FDDE03H   LINE      ECODE    ---       #311
      00FDDE06H   LINE      ECODE    ---       #313
      00FDDE06H   LINE      ECODE    ---       #315
      00FDDE15H   LINE      ECODE    ---       #316
      00FDDE26H   LINE      ECODE    ---       #317
      00FDDE3BH   LINE      ECODE    ---       #318
      00FDDE4DH   LINE      ECODE    ---       #319
      00FDDE5FH   LINE      ECODE    ---       #320
      00FDDE62H   LINE      ECODE    ---       #322
      00FDDE62H   LINE      ECODE    ---       #324
      00FDDE71H   LINE      ECODE    ---       #325
      00FDDE82H   LINE      ECODE    ---       #326
      00FDDE97H   LINE      ECODE    ---       #327
      00FDDEA9H   LINE      ECODE    ---       #328
L251 LINKER/LOCATER V4.66.93.0                                                        05/01/2026  15:28:45  PAGE 78


      00FDDEBBH   LINE      ECODE    ---       #329
      00FDDEBEH   LINE      ECODE    ---       #331
      00FDDEBEH   LINE      ECODE    ---       #333
      00FDDECDH   LINE      ECODE    ---       #334
      00FDDEDEH   LINE      ECODE    ---       #335
      00FDDEF3H   LINE      ECODE    ---       #336
      00FDDF05H   LINE      ECODE    ---       #337
      00FDDF17H   LINE      ECODE    ---       #338
      00FDDF1AH   LINE      ECODE    ---       #340
      00FDDF1AH   LINE      ECODE    ---       #342
      00FDDF29H   LINE      ECODE    ---       #343
      00FDDF3AH   LINE      ECODE    ---       #344
      00FDDF4FH   LINE      ECODE    ---       #345
      00FDDF61H   LINE      ECODE    ---       #346
      00FDDF73H   LINE      ECODE    ---       #347
      00FDDF76H   LINE      ECODE    ---       #349
      00FDDF76H   LINE      ECODE    ---       #351
      00FDDF85H   LINE      ECODE    ---       #352
      00FDDF96H   LINE      ECODE    ---       #353
      00FDDFABH   LINE      ECODE    ---       #354
      00FDDFBDH   LINE      ECODE    ---       #355
      00FDDFC0H   LINE      ECODE    ---       #357
      00FDDFC0H   LINE      ECODE    ---       #359
      00FDDFCFH   LINE      ECODE    ---       #360
      00FDDFE0H   LINE      ECODE    ---       #361
      00FDDFF5H   LINE      ECODE    ---       #362
      00FDE007H   LINE      ECODE    ---       #363
      00FDE019H   LINE      ECODE    ---       #364
      00FDE01BH   LINE      ECODE    ---       #366
      00FDE01BH   LINE      ECODE    ---       #368
      00FDE02AH   LINE      ECODE    ---       #369
      00FDE03BH   LINE      ECODE    ---       #370
      00FDE050H   LINE      ECODE    ---       #371
      00FDE062H   LINE      ECODE    ---       #372
      00FDE074H   LINE      ECODE    ---       #373
      00FDE074H   LINE      ECODE    ---       #377
      00FDE074H   LINE      ECODE    ---       #379
      00FDE074H   LINE      ECODE    ---       #381
      00FDE074H   LINE      ECODE    ---       #383
      00FDE09BH   LINE      ECODE    ---       #384
      ---         BLOCKEND  ---      ---       LVL=0

      ---         MODULE    ---      ---       zf_driver_pwm
      00FE60E6H   PUBLIC    HCONST   ---       PWMX_BKR_ADDR
      00FE60FEH   PUBLIC    HCONST   ---       PWM_PSCR_ADDR
      00FE6116H   PUBLIC    HCONST   ---       PWMX_ENO_ADDR
      00FE612EH   PUBLIC    HCONST   ---       PWM_CCR_ADDR
      00FE618EH   PUBLIC    HCONST   ---       PWM_ARR_ADDR
      00FE61A6H   PUBLIC    HCONST   ---       PWMX_PS_ADDR
      00FE61BEH   PUBLIC    HCONST   ---       PWMX_SMCR_ADDR
      00FE61D6H   PUBLIC    HCONST   ---       PWMX_CNTR_ADDR
      00FE61EEH   PUBLIC    HCONST   ---       PWM_CCER_ADDR
      00FE621EH   PUBLIC    HCONST   ---       PWMX_CR1_ADDR
      00FE6236H   PUBLIC    HCONST   ---       PWM_CCMR_ADDR
      00FDB471H   PUBLIC    ECODE    ---       pwm_set_freq?
      00FDB759H   PUBLIC    ECODE    ---       pwm_set_duty?
      00FDB937H   PUBLIC    ECODE    ---       pwm_init?
      00012046H   PUBLIC    XDATA    BYTE      ?pwm_set_freq??BYTE
      00012156H   PUBLIC    XDATA    BYTE      ?pwm_init??BYTE
      000000D0H   SFRSYM    DATA     BYTE      PSW
      0000009DH   SFRSYM    DATA     BYTE      IRCBAND
      00000097H   SFRSYM    DATA     BYTE      AUXR2
      000000EAH   SFRSYM    DATA     BYTE      CKCON
      000000EFH   SFRSYM    DATA     BYTE      AUXINTIF
      000000FDH   SFRSYM    DATA     BYTE      S4CON
L251 LINKER/LOCATER V4.66.93.0                                                        05/01/2026  15:28:45  PAGE 79


      000000ACH   SFRSYM    DATA     BYTE      S3CON
      0000009AH   SFRSYM    DATA     BYTE      S2CON
      000000B7H   SFRSYM    DATA     BYTE      IPH
      000000CDH   SFRSYM    DATA     BYTE      SPSTAT
      000000DDH   SFRSYM    DATA     BYTE      T4T3M
      000000C1H   SFRSYM    DATA     BYTE      WDT_CONTR
      000000DFH   SFRSYM    DATA     BYTE      IP3
      000000F4H   SFRSYM    DATA     BYTE      USBCON
      000000B5H   SFRSYM    DATA     BYTE      IP2
      000000FFH   SFRSYM    DATA     BYTE      RSTCFG
      000000E0H   SFRSYM    DATA     BYTE      ACC
      000000C7H   SFRSYM    DATA     BYTE      IAP_CONTR
      000000F9H   SFRSYM    DATA     BYTE      LINICR
      0000008EH   SFRSYM    DATA     BYTE      AUXR
      000000F0H   SFRSYM    DATA     BYTE      B
      000000AFH   SFRSYM    DATA     BYTE      IE2
      00000088H   SFRSYM    DATA     BYTE      TCON
      00000089H   SFRSYM    DATA     BYTE      TMOD
      00000098H   SFRSYM    DATA     BYTE      SCON
      00000087H   SFRSYM    DATA     BYTE      PCON
      000000BCH   SFRSYM    DATA     BYTE      ADC_CONTR
      000000D1H   SFRSYM    DATA     BYTE      PSW1
      000000E7H   SFRSYM    DATA     BYTE      CMPCR2
      000000E6H   SFRSYM    DATA     BYTE      CMPCR1
      000000DEH   SFRSYM    DATA     BYTE      ADCCFG
      000000B8H   SFRSYM    DATA     BYTE      IP
      0000008FH   SFRSYM    DATA     BYTE      INTCLKO
      000000EEH   SFRSYM    DATA     BYTE      IP3H
      000000B6H   SFRSYM    DATA     BYTE      IP2H
      000000BFH   SFRSYM    DATA     BYTE      P_SW4
      000000A8H   SFRSYM    DATA     BYTE      IE
      000000BBH   SFRSYM    DATA     BYTE      P_SW3
      000000BAH   SFRSYM    DATA     BYTE      P_SW2
      000000A2H   SFRSYM    DATA     BYTE      P_SW1
      000000CEH   SFRSYM    DATA     BYTE      SPCTL
      000000F8H   SFRSYM    DATA     BYTE      P7
      000000E8H   SFRSYM    DATA     BYTE      P6
      000000C8H   SFRSYM    DATA     BYTE      P5
      000000C0H   SFRSYM    DATA     BYTE      P4
      000000ABH   SFRSYM    DATA     BYTE      WKTCH
      000000B0H   SFRSYM    DATA     BYTE      P3
      000000A0H   SFRSYM    DATA     BYTE      P2
      00000090H   SFRSYM    DATA     BYTE      P1
      00000080H   SFRSYM    DATA     BYTE      P0

      00FDB471H   BLOCK     ECODE    ---       LVL=0
      00012046H   SYMBOL    XDATA    INT       pin
      00012048H   SYMBOL    XDATA    DWORD     freq
      0001204CH   SYMBOL    XDATA    DWORD     duty
      00FDB481H   BLOCK     ECODE    NEAR LAB  LVL=1
      00012050H   SYMBOL    XDATA    DWORD     match_temp
      00012054H   SYMBOL    XDATA    DWORD     period_temp
      00012058H   SYMBOL    XDATA    WORD      freq_div
      ---         BLOCKEND  ---      ---       LVL=1
      00FDB471H   LINE      ECODE    ---       #175
      00FDB481H   LINE      ECODE    ---       #176
      00FDB481H   LINE      ECODE    ---       #177
      00FDB48DH   LINE      ECODE    ---       #178
      00FDB499H   LINE      ECODE    ---       #179
      00FDB4A1H   LINE      ECODE    ---       #182
      00FDB4C6H   LINE      ECODE    ---       #185
      00FDB4E8H   LINE      ECODE    ---       #186
      00FDB50AH   LINE      ECODE    ---       #187
      00FDB534H   LINE      ECODE    ---       #189
      00FDB544H   LINE      ECODE    ---       #191
L251 LINKER/LOCATER V4.66.93.0                                                        05/01/2026  15:28:45  PAGE 80


      00FDB582H   LINE      ECODE    ---       #192
      00FDB584H   LINE      ECODE    ---       #195
      00FDB59EH   LINE      ECODE    ---       #196
      00FDB59EH   LINE      ECODE    ---       #198
      00FDB5D9H   LINE      ECODE    ---       #199
      00FDB618H   LINE      ECODE    ---       #201
      00FDB653H   LINE      ECODE    ---       #202
      00FDB696H   LINE      ECODE    ---       #204
      00FDB6F3H   LINE      ECODE    ---       #205
      00FDB758H   LINE      ECODE    ---       #206
      ---         BLOCKEND  ---      ---       LVL=0

      00FDB759H   BLOCK     ECODE    ---       LVL=0
      0001230AH   SYMBOL    XDATA    INT       pin
      0001230CH   SYMBOL    XDATA    DWORD     duty
      00FDB769H   BLOCK     ECODE    NEAR LAB  LVL=1
      00012310H   SYMBOL    XDATA    DWORD     match_temp
      00012314H   SYMBOL    XDATA    DWORD     arr
      ---         BLOCKEND  ---      ---       LVL=1
      00FDB759H   LINE      ECODE    ---       #216
      00FDB769H   LINE      ECODE    ---       #217
      00FDB769H   LINE      ECODE    ---       #219
      00FDB7E5H   LINE      ECODE    ---       #222
      00FDB80AH   LINE      ECODE    ---       #224
      00FDB81AH   LINE      ECODE    ---       #226
      00FDB858H   LINE      ECODE    ---       #227
      00FDB85AH   LINE      ECODE    ---       #230
      00FDB874H   LINE      ECODE    ---       #231
      00FDB874H   LINE      ECODE    ---       #234
      00FDB8D1H   LINE      ECODE    ---       #235
      00FDB936H   LINE      ECODE    ---       #237
      ---         BLOCKEND  ---      ---       LVL=0

      00FDB937H   BLOCK     ECODE    ---       LVL=0
      00012156H   SYMBOL    XDATA    INT       pin
      00012158H   SYMBOL    XDATA    DWORD     freq
      0001215CH   SYMBOL    XDATA    DWORD     duty
      00FDB947H   BLOCK     ECODE    NEAR LAB  LVL=1
      00012160H   SYMBOL    XDATA    WORD      match_temp
      00012162H   SYMBOL    XDATA    DWORD     period_temp
      00012166H   SYMBOL    XDATA    WORD      freq_div
      ---         BLOCKEND  ---      ---       LVL=1
      00FDB937H   LINE      ECODE    ---       #248
      00FDB947H   LINE      ECODE    ---       #249
      00FDB947H   LINE      ECODE    ---       #251
      00FDB94FH   LINE      ECODE    ---       #252
      00FDB95BH   LINE      ECODE    ---       #253
      00FDB963H   LINE      ECODE    ---       #256
      00FDB988H   LINE      ECODE    ---       #258
      00FDB9A2H   LINE      ECODE    ---       #261
      00FDB9C4H   LINE      ECODE    ---       #262
      00FDB9E6H   LINE      ECODE    ---       #263
      00FDBA10H   LINE      ECODE    ---       #265
      00FDBA20H   LINE      ECODE    ---       #267
      00FDBA5AH   LINE      ECODE    ---       #268
      00FDBA5CH   LINE      ECODE    ---       #271
      00FDBA74H   LINE      ECODE    ---       #272
      00FDBA74H   LINE      ECODE    ---       #275
      00FDBAAFH   LINE      ECODE    ---       #276
      00FDBAEEH   LINE      ECODE    ---       #278
      00FDBB29H   LINE      ECODE    ---       #279
      00FDBB6CH   LINE      ECODE    ---       #281
      00FDBBC9H   LINE      ECODE    ---       #282
      00FDBC2AH   LINE      ECODE    ---       #284
      00FDBCA7H   LINE      ECODE    ---       #285
L251 LINKER/LOCATER V4.66.93.0                                                        05/01/2026  15:28:45  PAGE 81


      00FDBD00H   LINE      ECODE    ---       #286
      00FDBD59H   LINE      ECODE    ---       #288
      00FDBDC8H   LINE      ECODE    ---       #289
      00FDBE2DH   LINE      ECODE    ---       #290
      00FDBE64H   LINE      ECODE    ---       #291
      00FDBE9BH   LINE      ECODE    ---       #292
      ---         BLOCKEND  ---      ---       LVL=0

      ---         MODULE    ---      ---       zf_driver_soft_iic
      00FCB56FH   PUBLIC    ECODE    ---       soft_iic_wait_ack?
      00FCB3C4H   PUBLIC    ECODE    ---       soft_iic_stop?
      00FCBBA8H   PUBLIC    ECODE    ---       soft_iic_write_8bit_register?
      00FCC5E6H   PUBLIC    ECODE    ---       soft_iic_read_16bit_registers?
      00FCCBAEH   PUBLIC    ECODE    ---       soft_iic_sccb_read_register?
      00FCC4C5H   PUBLIC    ECODE    ---       soft_iic_read_16bit_register?
      00FCC918H   PUBLIC    ECODE    ---       soft_iic_transfer_16bit_array?
      00FCBE13H   PUBLIC    ECODE    ---       soft_iic_write_16bit_registers?
      00FCCB17H   PUBLIC    ECODE    ---       soft_iic_sccb_write_register?
      00FCBF4BH   PUBLIC    ECODE    ---       soft_iic_read_8bit?
      00FCBFD5H   PUBLIC    ECODE    ---       soft_iic_read_8bit_array?
      00FCBD2EH   PUBLIC    ECODE    ---       soft_iic_write_16bit_register?
      00FCB8A5H   PUBLIC    ECODE    ---       soft_iic_write_8bit?
      00FCB924H   PUBLIC    ECODE    ---       soft_iic_write_8bit_array?
      00FCB2DAH   PUBLIC    ECODE    ---       soft_iic_delay?
      00FCB757H   PUBLIC    ECODE    ---       soft_iic_read_data?
      00FCC0D2H   PUBLIC    ECODE    ---       soft_iic_read_16bit?
      00FCB65BH   PUBLIC    ECODE    ---       soft_iic_send_data?
      00FCC188H   PUBLIC    ECODE    ---       soft_iic_read_16bit_array?
      00FCB316H   PUBLIC    ECODE    ---       soft_iic_start?
      00FCCC89H   PUBLIC    ECODE    ---       soft_iic_init?
      00FCC385H   PUBLIC    ECODE    ---       soft_iic_read_8bit_registers?
      00FCB9FDH   PUBLIC    ECODE    ---       soft_iic_write_16bit?
      00FCBAA4H   PUBLIC    ECODE    ---       soft_iic_write_16bit_array?
      00FCB48BH   PUBLIC    ECODE    ---       soft_iic_send_ack?
      00FCC2B8H   PUBLIC    ECODE    ---       soft_iic_read_8bit_register?
      00FCC777H   PUBLIC    ECODE    ---       soft_iic_transfer_8bit_array?
      00FCBC3FH   PUBLIC    ECODE    ---       soft_iic_write_8bit_registers?
      00012441H   PUBLIC    XDATA    BYTE      ?soft_iic_write_8bit_array??BYTE
      0001244DH   PUBLIC    XDATA    BYTE      ?soft_iic_write_16bit_array??BYTE
      000123BFH   PUBLIC    XDATA    BYTE      ?soft_iic_write_8bit_registers??BYTE
      00012318H   PUBLIC    XDATA    BYTE      ?soft_iic_write_16bit_registers??BYTE
      00012459H   PUBLIC    XDATA    BYTE      ?soft_iic_read_8bit_array??BYTE
      00012465H   PUBLIC    XDATA    BYTE      ?soft_iic_read_16bit_array??BYTE
      000123CCH   PUBLIC    XDATA    BYTE      ?soft_iic_read_8bit_registers??BYTE
      00012326H   PUBLIC    XDATA    BYTE      ?soft_iic_read_16bit_registers??BYTE
      0001205AH   PUBLIC    XDATA    BYTE      ?soft_iic_transfer_8bit_array??BYTE
      0001206EH   PUBLIC    XDATA    BYTE      ?soft_iic_transfer_16bit_array??BYTE
      000123D9H   PUBLIC    XDATA    BYTE      ?soft_iic_init??BYTE
      000000D0H   SFRSYM    DATA     BYTE      PSW
      0000009DH   SFRSYM    DATA     BYTE      IRCBAND
      00000097H   SFRSYM    DATA     BYTE      AUXR2
      000000EAH   SFRSYM    DATA     BYTE      CKCON
      000000EFH   SFRSYM    DATA     BYTE      AUXINTIF
      000000FDH   SFRSYM    DATA     BYTE      S4CON
      000000ACH   SFRSYM    DATA     BYTE      S3CON
      0000009AH   SFRSYM    DATA     BYTE      S2CON
      000000B7H   SFRSYM    DATA     BYTE      IPH
      000000CDH   SFRSYM    DATA     BYTE      SPSTAT
      000000DDH   SFRSYM    DATA     BYTE      T4T3M
      000000C1H   SFRSYM    DATA     BYTE      WDT_CONTR
      000000DFH   SFRSYM    DATA     BYTE      IP3
      000000F4H   SFRSYM    DATA     BYTE      USBCON
      000000B5H   SFRSYM    DATA     BYTE      IP2
      000000FFH   SFRSYM    DATA     BYTE      RSTCFG
      000000E0H   SFRSYM    DATA     BYTE      ACC
L251 LINKER/LOCATER V4.66.93.0                                                        05/01/2026  15:28:45  PAGE 82


      000000C7H   SFRSYM    DATA     BYTE      IAP_CONTR
      000000F9H   SFRSYM    DATA     BYTE      LINICR
      0000008EH   SFRSYM    DATA     BYTE      AUXR
      000000F0H   SFRSYM    DATA     BYTE      B
      000000AFH   SFRSYM    DATA     BYTE      IE2
      00000088H   SFRSYM    DATA     BYTE      TCON
      00000089H   SFRSYM    DATA     BYTE      TMOD
      00000098H   SFRSYM    DATA     BYTE      SCON
      00000087H   SFRSYM    DATA     BYTE      PCON
      000000BCH   SFRSYM    DATA     BYTE      ADC_CONTR
      000000D1H   SFRSYM    DATA     BYTE      PSW1
      000000E7H   SFRSYM    DATA     BYTE      CMPCR2
      000000E6H   SFRSYM    DATA     BYTE      CMPCR1
      000000DEH   SFRSYM    DATA     BYTE      ADCCFG
      000000B8H   SFRSYM    DATA     BYTE      IP
      0000008FH   SFRSYM    DATA     BYTE      INTCLKO
      000000EEH   SFRSYM    DATA     BYTE      IP3H
      000000B6H   SFRSYM    DATA     BYTE      IP2H
      000000BFH   SFRSYM    DATA     BYTE      P_SW4
      000000A8H   SFRSYM    DATA     BYTE      IE
      000000BBH   SFRSYM    DATA     BYTE      P_SW3
      000000BAH   SFRSYM    DATA     BYTE      P_SW2
      000000A2H   SFRSYM    DATA     BYTE      P_SW1
      000000CEH   SFRSYM    DATA     BYTE      SPCTL
      000000F8H   SFRSYM    DATA     BYTE      P7
      000000E8H   SFRSYM    DATA     BYTE      P6
      000000C8H   SFRSYM    DATA     BYTE      P5
      000000C0H   SFRSYM    DATA     BYTE      P4
      000000ABH   SFRSYM    DATA     BYTE      WKTCH
      000000B0H   SFRSYM    DATA     BYTE      P3
      000000A0H   SFRSYM    DATA     BYTE      P2
      00000090H   SFRSYM    DATA     BYTE      P1
      00000080H   SFRSYM    DATA     BYTE      P0

      00FCB2DAH   BLOCK     ECODE    ---       LVL=0
      000127C8H   SYMBOL    XDATA    DWORD     delay
      00FCB2E4H   BLOCK     ECODE    NEAR LAB  LVL=1
      000127CCH   SYMBOL    XDATA    DWORD     count
      ---         BLOCKEND  ---      ---       LVL=1
      00FCB2DAH   LINE      ECODE    ---       #51
      00FCB2E4H   LINE      ECODE    ---       #52
      00FCB2E4H   LINE      ECODE    ---       #53
      00FCB2F8H   LINE      ECODE    ---       #54
      00FCB315H   LINE      ECODE    ---       #55
      ---         BLOCKEND  ---      ---       LVL=0

      00FCB316H   BLOCK     ECODE    ---       LVL=0
      00012A07H   SYMBOL    XDATA    ---       soft_iic_obj
      00FCB316H   LINE      ECODE    ---       #65
      00FCB320H   LINE      ECODE    ---       #67
      00FCB343H   LINE      ECODE    ---       #68
      00FCB356H   LINE      ECODE    ---       #69
      00FCB36BH   LINE      ECODE    ---       #71
      00FCB384H   LINE      ECODE    ---       #72
      00FCB398H   LINE      ECODE    ---       #73
      00FCB3B1H   LINE      ECODE    ---       #74
      00FCB3C3H   LINE      ECODE    ---       #75
      ---         BLOCKEND  ---      ---       LVL=0

      00FCB3C4H   BLOCK     ECODE    ---       LVL=0
      00012A0BH   SYMBOL    XDATA    ---       soft_iic_obj
      00FCB3C4H   LINE      ECODE    ---       #84
      00FCB3CEH   LINE      ECODE    ---       #86
      00FCB3F1H   LINE      ECODE    ---       #87
      00FCB405H   LINE      ECODE    ---       #88
L251 LINKER/LOCATER V4.66.93.0                                                        05/01/2026  15:28:45  PAGE 83


      00FCB417H   LINE      ECODE    ---       #90
      00FCB430H   LINE      ECODE    ---       #91
      00FCB443H   LINE      ECODE    ---       #92
      00FCB45CH   LINE      ECODE    ---       #93
      00FCB471H   LINE      ECODE    ---       #94
      00FCB48AH   LINE      ECODE    ---       #95
      ---         BLOCKEND  ---      ---       LVL=0

      00FCB48BH   BLOCK     ECODE    ---       LVL=0
      00012994H   SYMBOL    XDATA    ---       soft_iic_obj
      00012998H   SYMBOL    XDATA    BYTE      ack
      00FCB48BH   LINE      ECODE    ---       #105
      00FCB499H   LINE      ECODE    ---       #107
      00FCB4BCH   LINE      ECODE    ---       #108
      00FCB4CEH   LINE      ECODE    ---       #110
      00FCB4D7H   LINE      ECODE    ---       #112
      00FCB4ECH   LINE      ECODE    ---       #113
      00FCB4EEH   LINE      ECODE    ---       #116
      00FCB502H   LINE      ECODE    ---       #117
      00FCB502H   LINE      ECODE    ---       #119
      00FCB51BH   LINE      ECODE    ---       #120
      00FCB52EH   LINE      ECODE    ---       #121
      00FCB547H   LINE      ECODE    ---       #122
      00FCB559H   LINE      ECODE    ---       #123
      00FCB56EH   LINE      ECODE    ---       #124
      ---         BLOCKEND  ---      ---       LVL=0

      00FCB56FH   BLOCK     ECODE    ---       LVL=0
      00012999H   SYMBOL    XDATA    ---       soft_iic_obj
      00FCB579H   BLOCK     ECODE    NEAR LAB  LVL=1
      0001299DH   SYMBOL    XDATA    BYTE      temp
      ---         BLOCKEND  ---      ---       LVL=1
      00FCB56FH   LINE      ECODE    ---       #133
      00FCB579H   LINE      ECODE    ---       #134
      00FCB579H   LINE      ECODE    ---       #135
      00FCB57EH   LINE      ECODE    ---       #136
      00FCB5A1H   LINE      ECODE    ---       #138
      00FCB5B3H   LINE      ECODE    ---       #139
      00FCB5C8H   LINE      ECODE    ---       #143
      00FCB5E1H   LINE      ECODE    ---       #145
      00FCB5F4H   LINE      ECODE    ---       #146
      00FCB60DH   LINE      ECODE    ---       #148
      00FCB625H   LINE      ECODE    ---       #150
      00FCB62BH   LINE      ECODE    ---       #151
      00FCB62BH   LINE      ECODE    ---       #152
      00FCB63DH   LINE      ECODE    ---       #156
      00FCB656H   LINE      ECODE    ---       #158
      00FCB65AH   LINE      ECODE    ---       #159
      ---         BLOCKEND  ---      ---       LVL=0

      00FCB65BH   BLOCK     ECODE    ---       LVL=0
      000128D3H   SYMBOL    XDATA    ---       soft_iic_obj
      000128D7H   SYMBOL    XDATA    BYTE      dat
      00FCB669H   BLOCK     ECODE    NEAR LAB  LVL=1
      000128D8H   SYMBOL    XDATA    BYTE      temp
      ---         BLOCKEND  ---      ---       LVL=1
      00FCB65BH   LINE      ECODE    ---       #168
      00FCB669H   LINE      ECODE    ---       #169
      00FCB669H   LINE      ECODE    ---       #170
      00FCB66FH   LINE      ECODE    ---       #172
      00FCB692H   LINE      ECODE    ---       #174
      00FCB695H   LINE      ECODE    ---       #177
      00FCB6D4H   LINE      ECODE    ---       #178
      00FCB6DBH   LINE      ECODE    ---       #180
      00FCB6F4H   LINE      ECODE    ---       #181
L251 LINKER/LOCATER V4.66.93.0                                                        05/01/2026  15:28:45  PAGE 84


      00FCB707H   LINE      ECODE    ---       #182
      00FCB720H   LINE      ECODE    ---       #183
      00FCB732H   LINE      ECODE    ---       #184
      00FCB73EH   LINE      ECODE    ---       #185
      00FCB756H   LINE      ECODE    ---       #186
      ---         BLOCKEND  ---      ---       LVL=0

      00FCB757H   BLOCK     ECODE    ---       LVL=0
      0001286FH   SYMBOL    XDATA    ---       soft_iic_obj
      00012873H   SYMBOL    XDATA    BYTE      ack
      00FCB765H   BLOCK     ECODE    NEAR LAB  LVL=1
      00012874H   SYMBOL    XDATA    BYTE      dat
      00012875H   SYMBOL    XDATA    BYTE      temp
      ---         BLOCKEND  ---      ---       LVL=1
      00FCB757H   LINE      ECODE    ---       #195
      00FCB765H   LINE      ECODE    ---       #196
      00FCB765H   LINE      ECODE    ---       #197
      00FCB76AH   LINE      ECODE    ---       #198
      00FCB770H   LINE      ECODE    ---       #199
      00FCB793H   LINE      ECODE    ---       #200
      00FCB7A5H   LINE      ECODE    ---       #201
      00FCB7BEH   LINE      ECODE    ---       #202
      00FCB7D3H   LINE      ECODE    ---       #207
      00FCB7D5H   LINE      ECODE    ---       #209
      00FCB7E7H   LINE      ECODE    ---       #210
      00FCB800H   LINE      ECODE    ---       #211
      00FCB813H   LINE      ECODE    ---       #212
      00FCB82CH   LINE      ECODE    ---       #213
      00FCB84DH   LINE      ECODE    ---       #214
      00FCB863H   LINE      ECODE    ---       #215
      00FCB875H   LINE      ECODE    ---       #219
      00FCB88EH   LINE      ECODE    ---       #220
      00FCB8A0H   LINE      ECODE    ---       #221
      00FCB8A4H   LINE      ECODE    ---       #222
      ---         BLOCKEND  ---      ---       LVL=0

      00FCB8A5H   BLOCK     ECODE    ---       LVL=0
      0001299EH   SYMBOL    XDATA    ---       soft_iic_obj
      000129A2H   SYMBOL    XDATA    BYTE      dat
      00FCB8A5H   LINE      ECODE    ---       #232
      00FCB8B3H   LINE      ECODE    ---       #234
      00FCB8D6H   LINE      ECODE    ---       #235
      00FCB8E4H   LINE      ECODE    ---       #236
      00FCB903H   LINE      ECODE    ---       #237
      00FCB915H   LINE      ECODE    ---       #238
      00FCB923H   LINE      ECODE    ---       #239
      ---         BLOCKEND  ---      ---       LVL=0

      00FCB924H   BLOCK     ECODE    ---       LVL=0
      00012441H   SYMBOL    XDATA    ---       soft_iic_obj
      00012445H   SYMBOL    XDATA    ---       dat
      00012449H   SYMBOL    XDATA    DWORD     len
      00FCB924H   LINE      ECODE    ---       #250
      00FCB938H   LINE      ECODE    ---       #252
      00FCB95BH   LINE      ECODE    ---       #253
      00FCB97EH   LINE      ECODE    ---       #254
      00FCB98CH   LINE      ECODE    ---       #255
      00FCB9ABH   LINE      ECODE    ---       #256
      00FCB9ADH   LINE      ECODE    ---       #258
      00FCB9D1H   LINE      ECODE    ---       #259
      00FCB9EEH   LINE      ECODE    ---       #260
      00FCB9FCH   LINE      ECODE    ---       #261
      ---         BLOCKEND  ---      ---       LVL=0

      00FCB9FDH   BLOCK     ECODE    ---       LVL=0
L251 LINKER/LOCATER V4.66.93.0                                                        05/01/2026  15:28:45  PAGE 85


      000128D9H   SYMBOL    XDATA    ---       soft_iic_obj
      000128DDH   SYMBOL    XDATA    WORD      dat
      00FCB9FDH   LINE      ECODE    ---       #271
      00FCBA0DH   LINE      ECODE    ---       #273
      00FCBA30H   LINE      ECODE    ---       #274
      00FCBA3EH   LINE      ECODE    ---       #275
      00FCBA5DH   LINE      ECODE    ---       #276
      00FCBA7BH   LINE      ECODE    ---       #277
      00FCBA95H   LINE      ECODE    ---       #278
      00FCBAA3H   LINE      ECODE    ---       #279
      ---         BLOCKEND  ---      ---       LVL=0

      00FCBAA4H   BLOCK     ECODE    ---       LVL=0
      0001244DH   SYMBOL    XDATA    ---       soft_iic_obj
      00012451H   SYMBOL    XDATA    ---       dat
      00012455H   SYMBOL    XDATA    DWORD     len
      00FCBAA4H   LINE      ECODE    ---       #290
      00FCBAB8H   LINE      ECODE    ---       #292
      00FCBADBH   LINE      ECODE    ---       #293
      00FCBAFEH   LINE      ECODE    ---       #294
      00FCBB0CH   LINE      ECODE    ---       #295
      00FCBB2BH   LINE      ECODE    ---       #296
      00FCBB2DH   LINE      ECODE    ---       #298
      00FCBB52H   LINE      ECODE    ---       #299
      00FCBB7CH   LINE      ECODE    ---       #300
      00FCBB99H   LINE      ECODE    ---       #301
      00FCBBA7H   LINE      ECODE    ---       #302
      ---         BLOCKEND  ---      ---       LVL=0

      00FCBBA8H   BLOCK     ECODE    ---       LVL=0
      000128DFH   SYMBOL    XDATA    ---       soft_iic_obj
      000128E3H   SYMBOL    XDATA    BYTE      register_name
      000128E4H   SYMBOL    XDATA    BYTE      dat
      00FCBBA8H   LINE      ECODE    ---       #313
      00FCBBBCH   LINE      ECODE    ---       #315
      00FCBBDFH   LINE      ECODE    ---       #316
      00FCBBEDH   LINE      ECODE    ---       #317
      00FCBC0CH   LINE      ECODE    ---       #318
      00FCBC1EH   LINE      ECODE    ---       #319
      00FCBC30H   LINE      ECODE    ---       #320
      00FCBC3EH   LINE      ECODE    ---       #321
      ---         BLOCKEND  ---      ---       LVL=0

      00FCBC3FH   BLOCK     ECODE    ---       LVL=0
      000123BFH   SYMBOL    XDATA    ---       soft_iic_obj
      000123C3H   SYMBOL    XDATA    BYTE      register_name
      000123C4H   SYMBOL    XDATA    ---       dat
      000123C8H   SYMBOL    XDATA    DWORD     len
      00FCBC3FH   LINE      ECODE    ---       #333
      00FCBC57H   LINE      ECODE    ---       #335
      00FCBC7AH   LINE      ECODE    ---       #336
      00FCBC9DH   LINE      ECODE    ---       #337
      00FCBCABH   LINE      ECODE    ---       #338
      00FCBCCAH   LINE      ECODE    ---       #339
      00FCBCDCH   LINE      ECODE    ---       #340
      00FCBCDEH   LINE      ECODE    ---       #342
      00FCBD02H   LINE      ECODE    ---       #343
      00FCBD1FH   LINE      ECODE    ---       #344
      00FCBD2DH   LINE      ECODE    ---       #345
      ---         BLOCKEND  ---      ---       LVL=0

      00FCBD2EH   BLOCK     ECODE    ---       LVL=0
      000127D0H   SYMBOL    XDATA    ---       soft_iic_obj
      000127D4H   SYMBOL    XDATA    WORD      register_name
      000127D6H   SYMBOL    XDATA    WORD      dat
L251 LINKER/LOCATER V4.66.93.0                                                        05/01/2026  15:28:45  PAGE 86


      00FCBD2EH   LINE      ECODE    ---       #356
      00FCBD44H   LINE      ECODE    ---       #358
      00FCBD67H   LINE      ECODE    ---       #359
      00FCBD75H   LINE      ECODE    ---       #360
      00FCBD94H   LINE      ECODE    ---       #361
      00FCBDB2H   LINE      ECODE    ---       #362
      00FCBDCCH   LINE      ECODE    ---       #363
      00FCBDEAH   LINE      ECODE    ---       #364
      00FCBE04H   LINE      ECODE    ---       #365
      00FCBE12H   LINE      ECODE    ---       #366
      ---         BLOCKEND  ---      ---       LVL=0

      00FCBE13H   BLOCK     ECODE    ---       LVL=0
      00012318H   SYMBOL    XDATA    ---       soft_iic_obj
      0001231CH   SYMBOL    XDATA    WORD      register_name
      0001231EH   SYMBOL    XDATA    ---       dat
      00012322H   SYMBOL    XDATA    DWORD     len
      00FCBE13H   LINE      ECODE    ---       #378
      00FCBE23H   LINE      ECODE    ---       #380
      00FCBE46H   LINE      ECODE    ---       #381
      00FCBE69H   LINE      ECODE    ---       #382
      00FCBE77H   LINE      ECODE    ---       #383
      00FCBE96H   LINE      ECODE    ---       #384
      00FCBEB4H   LINE      ECODE    ---       #385
      00FCBECEH   LINE      ECODE    ---       #386
      00FCBED0H   LINE      ECODE    ---       #388
      00FCBEF5H   LINE      ECODE    ---       #389
      00FCBF1FH   LINE      ECODE    ---       #390
      00FCBF3CH   LINE      ECODE    ---       #391
      00FCBF4AH   LINE      ECODE    ---       #392
      ---         BLOCKEND  ---      ---       LVL=0

      00FCBF4BH   BLOCK     ECODE    ---       LVL=0
      000129A3H   SYMBOL    XDATA    ---       soft_iic_obj
      00FCBF55H   BLOCK     ECODE    NEAR LAB  LVL=1
      000129A7H   SYMBOL    XDATA    BYTE      temp
      ---         BLOCKEND  ---      ---       LVL=1
      00FCBF4BH   LINE      ECODE    ---       #401
      00FCBF55H   LINE      ECODE    ---       #402
      00FCBF55H   LINE      ECODE    ---       #403
      00FCBF5AH   LINE      ECODE    ---       #404
      00FCBF7DH   LINE      ECODE    ---       #405
      00FCBF8BH   LINE      ECODE    ---       #406
      00FCBFAEH   LINE      ECODE    ---       #407
      00FCBFC2H   LINE      ECODE    ---       #408
      00FCBFD0H   LINE      ECODE    ---       #409
      00FCBFD4H   LINE      ECODE    ---       #410
      ---         BLOCKEND  ---      ---       LVL=0

      00FCBFD5H   BLOCK     ECODE    ---       LVL=0
      00012459H   SYMBOL    XDATA    ---       soft_iic_obj
      0001245DH   SYMBOL    XDATA    ---       dat
      00012461H   SYMBOL    XDATA    DWORD     len
      00FCBFD5H   LINE      ECODE    ---       #422
      00FCBFE9H   LINE      ECODE    ---       #424
      00FCC00CH   LINE      ECODE    ---       #425
      00FCC02FH   LINE      ECODE    ---       #426
      00FCC03DH   LINE      ECODE    ---       #427
      00FCC060H   LINE      ECODE    ---       #428
      00FCC062H   LINE      ECODE    ---       #430
      00FCC0A6H   LINE      ECODE    ---       #431
      00FCC0C3H   LINE      ECODE    ---       #432
      00FCC0D1H   LINE      ECODE    ---       #433
      ---         BLOCKEND  ---      ---       LVL=0

L251 LINKER/LOCATER V4.66.93.0                                                        05/01/2026  15:28:45  PAGE 87


      00FCC0D2H   BLOCK     ECODE    ---       LVL=0
      000128E5H   SYMBOL    XDATA    ---       soft_iic_obj
      00FCC0DCH   BLOCK     ECODE    NEAR LAB  LVL=1
      000128E9H   SYMBOL    XDATA    WORD      temp
      ---         BLOCKEND  ---      ---       LVL=1
      00FCC0D2H   LINE      ECODE    ---       #443
      00FCC0DCH   LINE      ECODE    ---       #444
      00FCC0DCH   LINE      ECODE    ---       #445
      00FCC0E4H   LINE      ECODE    ---       #446
      00FCC107H   LINE      ECODE    ---       #447
      00FCC115H   LINE      ECODE    ---       #448
      00FCC138H   LINE      ECODE    ---       #449
      00FCC14FH   LINE      ECODE    ---       #450
      00FCC173H   LINE      ECODE    ---       #451
      00FCC181H   LINE      ECODE    ---       #452
      00FCC187H   LINE      ECODE    ---       #453
      ---         BLOCKEND  ---      ---       LVL=0

      00FCC188H   BLOCK     ECODE    ---       LVL=0
      00012465H   SYMBOL    XDATA    ---       soft_iic_obj
      00012469H   SYMBOL    XDATA    ---       dat
      0001246DH   SYMBOL    XDATA    DWORD     len
      00FCC188H   LINE      ECODE    ---       #464
      00FCC19CH   LINE      ECODE    ---       #466
      00FCC1BFH   LINE      ECODE    ---       #467
      00FCC1E2H   LINE      ECODE    ---       #468
      00FCC1F0H   LINE      ECODE    ---       #469
      00FCC213H   LINE      ECODE    ---       #470
      00FCC215H   LINE      ECODE    ---       #472
      00FCC233H   LINE      ECODE    ---       #473
      00FCC276H   LINE      ECODE    ---       #474
      00FCC289H   LINE      ECODE    ---       #475
      00FCC2A9H   LINE      ECODE    ---       #476
      00FCC2B7H   LINE      ECODE    ---       #477
      ---         BLOCKEND  ---      ---       LVL=0

      00FCC2B8H   BLOCK     ECODE    ---       LVL=0
      000128EBH   SYMBOL    XDATA    ---       soft_iic_obj
      000128EFH   SYMBOL    XDATA    BYTE      register_name
      00FCC2C6H   BLOCK     ECODE    NEAR LAB  LVL=1
      000128F0H   SYMBOL    XDATA    BYTE      temp
      ---         BLOCKEND  ---      ---       LVL=1
      00FCC2B8H   LINE      ECODE    ---       #487
      00FCC2C6H   LINE      ECODE    ---       #488
      00FCC2C6H   LINE      ECODE    ---       #489
      00FCC2CBH   LINE      ECODE    ---       #490
      00FCC2EEH   LINE      ECODE    ---       #491
      00FCC2FCH   LINE      ECODE    ---       #492
      00FCC31BH   LINE      ECODE    ---       #493
      00FCC32DH   LINE      ECODE    ---       #494
      00FCC33BH   LINE      ECODE    ---       #495
      00FCC35EH   LINE      ECODE    ---       #496
      00FCC372H   LINE      ECODE    ---       #497
      00FCC380H   LINE      ECODE    ---       #498
      00FCC384H   LINE      ECODE    ---       #499
      ---         BLOCKEND  ---      ---       LVL=0

      00FCC385H   BLOCK     ECODE    ---       LVL=0
      000123CCH   SYMBOL    XDATA    ---       soft_iic_obj
      000123D0H   SYMBOL    XDATA    BYTE      register_name
      000123D1H   SYMBOL    XDATA    ---       dat
      000123D5H   SYMBOL    XDATA    DWORD     len
      00FCC385H   LINE      ECODE    ---       #511
      00FCC39DH   LINE      ECODE    ---       #513
      00FCC3C0H   LINE      ECODE    ---       #514
L251 LINKER/LOCATER V4.66.93.0                                                        05/01/2026  15:28:45  PAGE 88


      00FCC3E3H   LINE      ECODE    ---       #515
      00FCC3F1H   LINE      ECODE    ---       #516
      00FCC410H   LINE      ECODE    ---       #517
      00FCC422H   LINE      ECODE    ---       #518
      00FCC430H   LINE      ECODE    ---       #519
      00FCC453H   LINE      ECODE    ---       #520
      00FCC455H   LINE      ECODE    ---       #522
      00FCC499H   LINE      ECODE    ---       #523
      00FCC4B6H   LINE      ECODE    ---       #524
      00FCC4C4H   LINE      ECODE    ---       #525
      ---         BLOCKEND  ---      ---       LVL=0

      00FCC4C5H   BLOCK     ECODE    ---       LVL=0
      000127D8H   SYMBOL    XDATA    ---       soft_iic_obj
      000127DCH   SYMBOL    XDATA    WORD      register_name
      00FCC4D5H   BLOCK     ECODE    NEAR LAB  LVL=1
      000127DEH   SYMBOL    XDATA    WORD      temp
      ---         BLOCKEND  ---      ---       LVL=1
      00FCC4C5H   LINE      ECODE    ---       #535
      00FCC4D5H   LINE      ECODE    ---       #536
      00FCC4D5H   LINE      ECODE    ---       #537
      00FCC4DDH   LINE      ECODE    ---       #538
      00FCC500H   LINE      ECODE    ---       #539
      00FCC50EH   LINE      ECODE    ---       #540
      00FCC52DH   LINE      ECODE    ---       #541
      00FCC54BH   LINE      ECODE    ---       #542
      00FCC565H   LINE      ECODE    ---       #543
      00FCC573H   LINE      ECODE    ---       #544
      00FCC596H   LINE      ECODE    ---       #545
      00FCC5ADH   LINE      ECODE    ---       #546
      00FCC5D1H   LINE      ECODE    ---       #547
      00FCC5DFH   LINE      ECODE    ---       #548
      00FCC5E5H   LINE      ECODE    ---       #549
      ---         BLOCKEND  ---      ---       LVL=0

      00FCC5E6H   BLOCK     ECODE    ---       LVL=0
      00012326H   SYMBOL    XDATA    ---       soft_iic_obj
      0001232AH   SYMBOL    XDATA    WORD      register_name
      0001232CH   SYMBOL    XDATA    ---       dat
      00012330H   SYMBOL    XDATA    DWORD     len
      00FCC5E6H   LINE      ECODE    ---       #561
      00FCC5F6H   LINE      ECODE    ---       #563
      00FCC619H   LINE      ECODE    ---       #564
      00FCC63CH   LINE      ECODE    ---       #565
      00FCC64AH   LINE      ECODE    ---       #566
      00FCC669H   LINE      ECODE    ---       #567
      00FCC687H   LINE      ECODE    ---       #568
      00FCC6A1H   LINE      ECODE    ---       #569
      00FCC6AFH   LINE      ECODE    ---       #570
      00FCC6D2H   LINE      ECODE    ---       #571
      00FCC6D4H   LINE      ECODE    ---       #573
      00FCC6F2H   LINE      ECODE    ---       #574
      00FCC735H   LINE      ECODE    ---       #575
      00FCC748H   LINE      ECODE    ---       #576
      00FCC768H   LINE      ECODE    ---       #577
      00FCC776H   LINE      ECODE    ---       #578
      ---         BLOCKEND  ---      ---       LVL=0

      00FCC777H   BLOCK     ECODE    ---       LVL=0
      0001205AH   SYMBOL    XDATA    ---       soft_iic_obj
      0001205EH   SYMBOL    XDATA    ---       write_data
      00012062H   SYMBOL    XDATA    DWORD     write_len
      00012066H   SYMBOL    XDATA    ---       read_data
      0001206AH   SYMBOL    XDATA    DWORD     read_len
      00FCC777H   LINE      ECODE    ---       #591
L251 LINKER/LOCATER V4.66.93.0                                                        05/01/2026  15:28:45  PAGE 89


      00FCC78BH   LINE      ECODE    ---       #593
      00FCC7AEH   LINE      ECODE    ---       #594
      00FCC7D1H   LINE      ECODE    ---       #595
      00FCC7F4H   LINE      ECODE    ---       #596
      00FCC802H   LINE      ECODE    ---       #597
      00FCC821H   LINE      ECODE    ---       #598
      00FCC823H   LINE      ECODE    ---       #600
      00FCC847H   LINE      ECODE    ---       #601
      00FCC864H   LINE      ECODE    ---       #603
      00FCC875H   LINE      ECODE    ---       #605
      00FCC883H   LINE      ECODE    ---       #606
      00FCC8A6H   LINE      ECODE    ---       #607
      00FCC8A8H   LINE      ECODE    ---       #609
      00FCC8ECH   LINE      ECODE    ---       #610
      00FCC909H   LINE      ECODE    ---       #611
      00FCC909H   LINE      ECODE    ---       #612
      00FCC917H   LINE      ECODE    ---       #613
      ---         BLOCKEND  ---      ---       LVL=0

      00FCC918H   BLOCK     ECODE    ---       LVL=0
      0001206EH   SYMBOL    XDATA    ---       soft_iic_obj
      00012072H   SYMBOL    XDATA    ---       write_data
      00012076H   SYMBOL    XDATA    DWORD     write_len
      0001207AH   SYMBOL    XDATA    ---       read_data
      0001207EH   SYMBOL    XDATA    DWORD     read_len
      00FCC918H   LINE      ECODE    ---       #626
      00FCC92CH   LINE      ECODE    ---       #628
      00FCC94FH   LINE      ECODE    ---       #629
      00FCC972H   LINE      ECODE    ---       #630
      00FCC995H   LINE      ECODE    ---       #631
      00FCC9A3H   LINE      ECODE    ---       #632
      00FCC9C2H   LINE      ECODE    ---       #633
      00FCC9C4H   LINE      ECODE    ---       #635
      00FCC9E9H   LINE      ECODE    ---       #636
      00FCCA13H   LINE      ECODE    ---       #637
      00FCCA30H   LINE      ECODE    ---       #638
      00FCCA41H   LINE      ECODE    ---       #640
      00FCCA4FH   LINE      ECODE    ---       #641
      00FCCA72H   LINE      ECODE    ---       #642
      00FCCA74H   LINE      ECODE    ---       #644
      00FCCA92H   LINE      ECODE    ---       #645
      00FCCAD5H   LINE      ECODE    ---       #646
      00FCCAE8H   LINE      ECODE    ---       #647
      00FCCB08H   LINE      ECODE    ---       #648
      00FCCB08H   LINE      ECODE    ---       #649
      00FCCB16H   LINE      ECODE    ---       #650
      ---         BLOCKEND  ---      ---       LVL=0

      00FCCB17H   BLOCK     ECODE    ---       LVL=0
      000128F1H   SYMBOL    XDATA    ---       soft_iic_obj
      000128F5H   SYMBOL    XDATA    BYTE      register_name
      000128F6H   SYMBOL    XDATA    BYTE      dat
      00FCCB17H   LINE      ECODE    ---       #661
      00FCCB2BH   LINE      ECODE    ---       #663
      00FCCB4EH   LINE      ECODE    ---       #664
      00FCCB5CH   LINE      ECODE    ---       #665
      00FCCB7BH   LINE      ECODE    ---       #666
      00FCCB8DH   LINE      ECODE    ---       #667
      00FCCB9FH   LINE      ECODE    ---       #668
      00FCCBADH   LINE      ECODE    ---       #669
      ---         BLOCKEND  ---      ---       LVL=0

      00FCCBAEH   BLOCK     ECODE    ---       LVL=0
      000128F7H   SYMBOL    XDATA    ---       soft_iic_obj
      000128FBH   SYMBOL    XDATA    BYTE      register_name
L251 LINKER/LOCATER V4.66.93.0                                                        05/01/2026  15:28:45  PAGE 90


      00FCCBBCH   BLOCK     ECODE    NEAR LAB  LVL=1
      000128FCH   SYMBOL    XDATA    BYTE      temp
      ---         BLOCKEND  ---      ---       LVL=1
      00FCCBAEH   LINE      ECODE    ---       #679
      00FCCBBCH   LINE      ECODE    ---       #680
      00FCCBBCH   LINE      ECODE    ---       #681
      00FCCBC1H   LINE      ECODE    ---       #682
      00FCCBE4H   LINE      ECODE    ---       #683
      00FCCBF2H   LINE      ECODE    ---       #684
      00FCCC11H   LINE      ECODE    ---       #685
      00FCCC23H   LINE      ECODE    ---       #686
      00FCCC31H   LINE      ECODE    ---       #688
      00FCCC3FH   LINE      ECODE    ---       #689
      00FCCC62H   LINE      ECODE    ---       #690
      00FCCC76H   LINE      ECODE    ---       #691
      00FCCC84H   LINE      ECODE    ---       #692
      00FCCC88H   LINE      ECODE    ---       #693
      ---         BLOCKEND  ---      ---       LVL=0

      00FCCC89H   BLOCK     ECODE    ---       LVL=0
      000123D9H   SYMBOL    XDATA    ---       soft_iic_obj
      000123DDH   SYMBOL    XDATA    BYTE      addr
      000123DEH   SYMBOL    XDATA    DWORD     delay
      000123E2H   SYMBOL    XDATA    INT       scl_pin
      000123E4H   SYMBOL    XDATA    INT       sda_pin
      00FCCC89H   LINE      ECODE    ---       #706
      00FCCCA1H   LINE      ECODE    ---       #708
      00FCCCC4H   LINE      ECODE    ---       #709
      00FCCCE9H   LINE      ECODE    ---       #710
      00FCCCFCH   LINE      ECODE    ---       #711
      00FCCD11H   LINE      ECODE    ---       #712
      00FCCD24H   LINE      ECODE    ---       #713
      00FCCD43H   LINE      ECODE    ---       #714
      00FCCD57H   LINE      ECODE    ---       #715
      00FCCD6BH   LINE      ECODE    ---       #716
      ---         BLOCKEND  ---      ---       LVL=0

      ---         MODULE    ---      ---       zf_driver_spi
      00FE62C0H   PUBLIC    HCONST   ---       DMA_SPIx_CR_ADDR
      00FE62CCH   PUBLIC    HCONST   ---       HSSPIX_CFG_ADDR
      00FE6358H   PUBLIC    HCONST   ---       DMA_SPIx_AMTH_ADDR
      00FE6364H   PUBLIC    HCONST   ---       DMA_SPIx_RXAH_ADDR
      00FE6370H   PUBLIC    HCONST   ---       DMA_SPIx_TXAH_ADDR
      00FE637CH   PUBLIC    HCONST   ---       DMA_SPIx_RXAL_ADDR
      00FE6388H   PUBLIC    HCONST   ---       DMA_SPIx_TXAL_ADDR
      00FE6394H   PUBLIC    HCONST   ---       DMA_SPIx_ITVH_ADDR
      00FE63A0H   PUBLIC    HCONST   ---       DMA_SPIx_ITVL_ADDR
      00FE63ACH   PUBLIC    HCONST   ---       HSSPIX_CFG2_ADDR
      00FE63B8H   PUBLIC    HCONST   ---       DMA_SPIx_CFG_ADDR
      00FE63C4H   PUBLIC    HCONST   ---       DMA_SPIx_AMT_ADDR
      00FE63D0H   PUBLIC    HCONST   ---       DMA_SPIx_STA_ADDR
      00FE63DCH   PUBLIC    HCONST   ---       SPIX_CLKDIV_ADDR
      00FC8822H   PUBLIC    ECODE    ---       spi_write_8bit_register?
      00FC7E17H   PUBLIC    ECODE    ---       spi_dma_read_8bit_register?
      00FC7F7AH   PUBLIC    ECODE    ---       spi_dma_transfer_8bit?
      00FC7C35H   PUBLIC    ECODE    ---       spi_dma_write_8bit_registers?
      00FC8C04H   PUBLIC    ECODE    ---       spi_read_16bit_registers?
      00FC7BE4H   PUBLIC    ECODE    ---       spi_dma_write_8bit_register?
      00FC8B87H   PUBLIC    ECODE    ---       spi_read_16bit_register?
      00FC8D6AH   PUBLIC    ECODE    ---       spi_transfer_16bit?
      00FC8924H   PUBLIC    ECODE    ---       spi_write_16bit_registers?
      00FC89B2H   PUBLIC    ECODE    ---       spi_read_8bit?
      00FC7F1BH   PUBLIC    ECODE    ---       spi_dma_read_16bit_registers?
      00FC89C4H   PUBLIC    ECODE    ---       spi_read_8bit_array?
      00FC71A4H   PUBLIC    ECODE    ---       spi_dma_transfer?
L251 LINKER/LOCATER V4.66.93.0                                                        05/01/2026  15:28:45  PAGE 91


      00FC88B1H   PUBLIC    ECODE    ---       spi_write_16bit_register?
      00FC7EC8H   PUBLIC    ECODE    ---       spi_dma_read_16bit_register?
      00FC7FC7H   PUBLIC    ECODE    ---       spi_dma_transfer_16bit?
      00FC8705H   PUBLIC    ECODE    ---       spi_write_8bit?
      00FC7CE5H   PUBLIC    ECODE    ---       spi_dma_write_16bit_registers?
      00FC871EH   PUBLIC    ECODE    ---       spi_write_8bit_array?
      00FC7D46H   PUBLIC    ECODE    ---       spi_dma_read_8bit?
      00FC7D76H   PUBLIC    ECODE    ---       spi_dma_read_8bit_array?
      00FC7C92H   PUBLIC    ECODE    ---       spi_dma_write_16bit_register?
      00FC7B18H   PUBLIC    ECODE    ---       spi_dma_write_8bit?
      00FC7B43H   PUBLIC    ECODE    ---       spi_dma_write_8bit_array?
      00FC8A22H   PUBLIC    ECODE    ---       spi_read_16bit?
      00FC8A69H   PUBLIC    ECODE    ---       spi_read_16bit_array?
      00FC799FH   PUBLIC    ECODE    ---       spi_dma_read?
      00FC8E7EH   PUBLIC    ECODE    ---       spi_init?
      00FC8B17H   PUBLIC    ECODE    ---       spi_read_8bit_registers?
      00FC876EH   PUBLIC    ECODE    ---       spi_write_16bit?
      00FC863CH   PUBLIC    ECODE    ---       spi_read_dat?
      00FC87ABH   PUBLIC    ECODE    ---       spi_write_16bit_array?
      00FC7DAFH   PUBLIC    ECODE    ---       spi_dma_read_16bit?
      00FC7DDCH   PUBLIC    ECODE    ---       spi_dma_read_16bit_array?
      00FC7614H   PUBLIC    ECODE    ---       spi_dma_write?
      00FC8AF3H   PUBLIC    ECODE    ---       spi_read_8bit_register?
      00FC8CC4H   PUBLIC    ECODE    ---       spi_transfer_8bit?
      00FC884FH   PUBLIC    ECODE    ---       spi_write_8bit_registers?
      00FC85A5H   PUBLIC    ECODE    ---       spi_write_dat?
      00FC8016H   PUBLIC    ECODE    ---       spi_dma_init?
      00FC7E6BH   PUBLIC    ECODE    ---       spi_dma_read_8bit_registers?
      00FC7B7CH   PUBLIC    ECODE    ---       spi_dma_write_16bit?
      00FC7BA9H   PUBLIC    ECODE    ---       spi_dma_write_16bit_array?
      00011579H   PUBLIC    XDATA    BYTE      ?spi_dma_transfer??BYTE
      00011618H   PUBLIC    XDATA    BYTE      ?spi_dma_write??BYTE
      000125FBH   PUBLIC    XDATA    BYTE      ?spi_dma_read??BYTE
      00012605H   PUBLIC    XDATA    BYTE      ?spi_dma_write_8bit_array??BYTE
      0001260FH   PUBLIC    XDATA    BYTE      ?spi_dma_write_16bit_array??BYTE
      00012579H   PUBLIC    XDATA    BYTE      ?spi_dma_write_8bit_registers??BYTE
      00012471H   PUBLIC    XDATA    BYTE      ?spi_dma_write_16bit_registers??BYTE
      00012619H   PUBLIC    XDATA    BYTE      ?spi_dma_read_8bit_array??BYTE
      00012623H   PUBLIC    XDATA    BYTE      ?spi_dma_read_16bit_array??BYTE
      00012584H   PUBLIC    XDATA    BYTE      ?spi_dma_read_8bit_registers??BYTE
      0001247DH   PUBLIC    XDATA    BYTE      ?spi_dma_read_16bit_registers??BYTE
      00012334H   PUBLIC    XDATA    BYTE      ?spi_dma_transfer_8bit??BYTE
      00012342H   PUBLIC    XDATA    BYTE      ?spi_dma_transfer_16bit??BYTE
      00012082H   PUBLIC    XDATA    BYTE      ?spi_dma_init??BYTE
      0001262DH   PUBLIC    XDATA    BYTE      ?spi_write_8bit_array??BYTE
      00012637H   PUBLIC    XDATA    BYTE      ?spi_write_16bit_array??BYTE
      0001258FH   PUBLIC    XDATA    BYTE      ?spi_write_8bit_registers??BYTE
      00012489H   PUBLIC    XDATA    BYTE      ?spi_write_16bit_registers??BYTE
      00012641H   PUBLIC    XDATA    BYTE      ?spi_read_8bit_array??BYTE
      0001264BH   PUBLIC    XDATA    BYTE      ?spi_read_16bit_array??BYTE
      0001259AH   PUBLIC    XDATA    BYTE      ?spi_read_8bit_registers??BYTE
      00012495H   PUBLIC    XDATA    BYTE      ?spi_read_16bit_registers??BYTE
      00012350H   PUBLIC    XDATA    BYTE      ?spi_transfer_8bit??BYTE
      0001235EH   PUBLIC    XDATA    BYTE      ?spi_transfer_16bit??BYTE
      00012096H   PUBLIC    XDATA    BYTE      ?spi_init??BYTE
      000000CFH   SFRSYM    DATA     BYTE      SPDAT
      000000D0H   SFRSYM    DATA     BYTE      PSW
      0000009DH   SFRSYM    DATA     BYTE      IRCBAND
      00000097H   SFRSYM    DATA     BYTE      AUXR2
      000000EAH   SFRSYM    DATA     BYTE      CKCON
      000000EFH   SFRSYM    DATA     BYTE      AUXINTIF
      000000FDH   SFRSYM    DATA     BYTE      S4CON
      000000ACH   SFRSYM    DATA     BYTE      S3CON
      0000009AH   SFRSYM    DATA     BYTE      S2CON
      000000B7H   SFRSYM    DATA     BYTE      IPH
L251 LINKER/LOCATER V4.66.93.0                                                        05/01/2026  15:28:45  PAGE 92


      000000CDH   SFRSYM    DATA     BYTE      SPSTAT
      000000DDH   SFRSYM    DATA     BYTE      T4T3M
      000000C1H   SFRSYM    DATA     BYTE      WDT_CONTR
      000000DFH   SFRSYM    DATA     BYTE      IP3
      000000F4H   SFRSYM    DATA     BYTE      USBCON
      000000B5H   SFRSYM    DATA     BYTE      IP2
      000000FFH   SFRSYM    DATA     BYTE      RSTCFG
      000000E0H   SFRSYM    DATA     BYTE      ACC
      000000C7H   SFRSYM    DATA     BYTE      IAP_CONTR
      000000F9H   SFRSYM    DATA     BYTE      LINICR
      0000008EH   SFRSYM    DATA     BYTE      AUXR
      000000F0H   SFRSYM    DATA     BYTE      B
      000000AFH   SFRSYM    DATA     BYTE      IE2
      00000088H   SFRSYM    DATA     BYTE      TCON
      00000089H   SFRSYM    DATA     BYTE      TMOD
      00000098H   SFRSYM    DATA     BYTE      SCON
      00000087H   SFRSYM    DATA     BYTE      PCON
      000000BCH   SFRSYM    DATA     BYTE      ADC_CONTR
      000000D1H   SFRSYM    DATA     BYTE      PSW1
      000000E7H   SFRSYM    DATA     BYTE      CMPCR2
      000000E6H   SFRSYM    DATA     BYTE      CMPCR1
      000000DEH   SFRSYM    DATA     BYTE      ADCCFG
      000000B8H   SFRSYM    DATA     BYTE      IP
      0000008FH   SFRSYM    DATA     BYTE      INTCLKO
      000000EEH   SFRSYM    DATA     BYTE      IP3H
      000000B6H   SFRSYM    DATA     BYTE      IP2H
      000000BFH   SFRSYM    DATA     BYTE      P_SW4
      000000A8H   SFRSYM    DATA     BYTE      IE
      000000BBH   SFRSYM    DATA     BYTE      P_SW3
      000000BAH   SFRSYM    DATA     BYTE      P_SW2
      000000A2H   SFRSYM    DATA     BYTE      P_SW1
      000000CEH   SFRSYM    DATA     BYTE      SPCTL
      000000F8H   SFRSYM    DATA     BYTE      P7
      000000E8H   SFRSYM    DATA     BYTE      P6
      000000C8H   SFRSYM    DATA     BYTE      P5
      000000C0H   SFRSYM    DATA     BYTE      P4
      000000ABH   SFRSYM    DATA     BYTE      WKTCH
      000000B0H   SFRSYM    DATA     BYTE      P3
      000000A0H   SFRSYM    DATA     BYTE      P2
      00000090H   SFRSYM    DATA     BYTE      P1
      00000080H   SFRSYM    DATA     BYTE      P0
      00FE62D8H   SYMBOL    HCONST   ---       ?tpl?0001
      00FE6318H   SYMBOL    HCONST   ---       ?tpl?0002

      00FC71A4H   BLOCK     ECODE    ---       LVL=0
      00011579H   SYMBOL    XDATA    INT       spi_n
      0001157BH   SYMBOL    XDATA    ---       write_buffer
      0001157FH   SYMBOL    XDATA    ---       read_buffer
      00011583H   SYMBOL    XDATA    DWORD     len
      00FC71B4H   BLOCK     ECODE    NEAR LAB  LVL=1
      00011587H   SYMBOL    XDATA    ---       tmp_buff
      000115C7H   SYMBOL    XDATA    WORD      tmp_len
      000115C9H   SYMBOL    XDATA    WORD      read_idx
      ---         BLOCKEND  ---      ---       LVL=1
      00FC71A4H   LINE      ECODE    ---       #203
      00FC71B4H   LINE      ECODE    ---       #204
      00FC71B4H   LINE      ECODE    ---       #208
      00FC71CAH   LINE      ECODE    ---       #209
      00FC71D2H   LINE      ECODE    ---       #210
      00FC71DAH   LINE      ECODE    ---       #213
      00FC71F1H   LINE      ECODE    ---       #215
      00FC71F4H   LINE      ECODE    ---       #217
      00FC721AH   LINE      ECODE    ---       #218
      00FC723AH   LINE      ECODE    ---       #219
      00FC7255H   LINE      ECODE    ---       #220
L251 LINKER/LOCATER V4.66.93.0                                                        05/01/2026  15:28:45  PAGE 93


      00FC726EH   LINE      ECODE    ---       #222
      00FC72A2H   LINE      ECODE    ---       #223
      00FC72DAH   LINE      ECODE    ---       #225
      00FC7304H   LINE      ECODE    ---       #226
      00FC732AH   LINE      ECODE    ---       #228
      00FC7362H   LINE      ECODE    ---       #229
      00FC7398H   LINE      ECODE    ---       #231
      00FC73BCH   LINE      ECODE    ---       #232
      00FC73E0H   LINE      ECODE    ---       #233
      00FC7405H   LINE      ECODE    ---       #234
      00FC7428H   LINE      ECODE    ---       #236
      00FC7439H   LINE      ECODE    ---       #237
      00FC744AH   LINE      ECODE    ---       #238
      00FC744DH   LINE      ECODE    ---       #241
      00FC7489H   LINE      ECODE    ---       #242
      00FC74C7H   LINE      ECODE    ---       #243
      00FC74F7H   LINE      ECODE    ---       #244
      00FC7525H   LINE      ECODE    ---       #245
      00FC7555H   LINE      ECODE    ---       #246
      00FC7583H   LINE      ECODE    ---       #248
      00FC75A7H   LINE      ECODE    ---       #249
      00FC75CBH   LINE      ECODE    ---       #250
      00FC75F0H   LINE      ECODE    ---       #251
      00FC7613H   LINE      ECODE    ---       #252
      00FC7613H   LINE      ECODE    ---       #253
      ---         BLOCKEND  ---      ---       LVL=0

      00FC7614H   BLOCK     ECODE    ---       LVL=0
      00011618H   SYMBOL    XDATA    INT       spi_n
      0001161AH   SYMBOL    XDATA    ---       write_buffer
      0001161EH   SYMBOL    XDATA    DWORD     len
      00FC7624H   BLOCK     ECODE    NEAR LAB  LVL=1
      00011622H   SYMBOL    XDATA    ---       tmp_buff
      00011662H   SYMBOL    XDATA    WORD      tmp_len
      ---         BLOCKEND  ---      ---       LVL=1
      00FC7614H   LINE      ECODE    ---       #260
      00FC7624H   LINE      ECODE    ---       #261
      00FC7624H   LINE      ECODE    ---       #265
      00FC763AH   LINE      ECODE    ---       #266
      00FC7642H   LINE      ECODE    ---       #270
      00FC7659H   LINE      ECODE    ---       #272
      00FC765CH   LINE      ECODE    ---       #274
      00FC7682H   LINE      ECODE    ---       #275
      00FC76A2H   LINE      ECODE    ---       #276
      00FC76BDH   LINE      ECODE    ---       #277
      00FC76D6H   LINE      ECODE    ---       #279
      00FC770AH   LINE      ECODE    ---       #280
      00FC7742H   LINE      ECODE    ---       #282
      00FC776CH   LINE      ECODE    ---       #283
      00FC7792H   LINE      ECODE    ---       #285
      00FC77B6H   LINE      ECODE    ---       #286
      00FC77DAH   LINE      ECODE    ---       #287
      00FC77FFH   LINE      ECODE    ---       #288
      00FC7822H   LINE      ECODE    ---       #289
      00FC7833H   LINE      ECODE    ---       #290
      00FC7836H   LINE      ECODE    ---       #293
      00FC7872H   LINE      ECODE    ---       #294
      00FC78B0H   LINE      ECODE    ---       #296
      00FC78E0H   LINE      ECODE    ---       #297
      00FC790EH   LINE      ECODE    ---       #299
      00FC7932H   LINE      ECODE    ---       #300
      00FC7956H   LINE      ECODE    ---       #301
      00FC797BH   LINE      ECODE    ---       #302
      00FC799EH   LINE      ECODE    ---       #303
      00FC799EH   LINE      ECODE    ---       #304
L251 LINKER/LOCATER V4.66.93.0                                                        05/01/2026  15:28:45  PAGE 94


      ---         BLOCKEND  ---      ---       LVL=0

      00FC799FH   BLOCK     ECODE    ---       LVL=0
      000125FBH   SYMBOL    XDATA    INT       spi_n
      000125FDH   SYMBOL    XDATA    ---       read_buffer
      00012601H   SYMBOL    XDATA    DWORD     len
      00FC799FH   LINE      ECODE    ---       #311
      00FC79AFH   LINE      ECODE    ---       #313
      00FC79EBH   LINE      ECODE    ---       #314
      00FC7A29H   LINE      ECODE    ---       #315
      00FC7A59H   LINE      ECODE    ---       #316
      00FC7A87H   LINE      ECODE    ---       #318
      00FC7AABH   LINE      ECODE    ---       #319
      00FC7ACFH   LINE      ECODE    ---       #320
      00FC7AF4H   LINE      ECODE    ---       #321
      00FC7B17H   LINE      ECODE    ---       #322
      ---         BLOCKEND  ---      ---       LVL=0

      00FC7B18H   BLOCK     ECODE    ---       LVL=0
      00012A96H   SYMBOL    XDATA    INT       spi_n
      00012A98H   SYMBOL    XDATA    BYTE      dat
      00FC7B18H   LINE      ECODE    ---       #331
      00FC7B22H   LINE      ECODE    ---       #333
      00FC7B42H   LINE      ECODE    ---       #334
      ---         BLOCKEND  ---      ---       LVL=0

      00FC7B43H   BLOCK     ECODE    ---       LVL=0
      00012605H   SYMBOL    XDATA    INT       spi_n
      00012607H   SYMBOL    XDATA    ---       dat
      0001260BH   SYMBOL    XDATA    DWORD     len
      00FC7B43H   LINE      ECODE    ---       #344
      00FC7B53H   LINE      ECODE    ---       #346
      00FC7B7BH   LINE      ECODE    ---       #347
      ---         BLOCKEND  ---      ---       LVL=0

      00FC7B7CH   BLOCK     ECODE    ---       LVL=0
      00012A0FH   SYMBOL    XDATA    INT       spi_n
      00012A11H   SYMBOL    XDATA    WORD      dat
      00FC7B7CH   LINE      ECODE    ---       #356
      00FC7B88H   LINE      ECODE    ---       #358
      00FC7BA8H   LINE      ECODE    ---       #359
      ---         BLOCKEND  ---      ---       LVL=0

      00FC7BA9H   BLOCK     ECODE    ---       LVL=0
      0001260FH   SYMBOL    XDATA    INT       spi_n
      00012611H   SYMBOL    XDATA    ---       dat
      00012615H   SYMBOL    XDATA    DWORD     len
      00FC7BA9H   LINE      ECODE    ---       #369
      00FC7BB9H   LINE      ECODE    ---       #371
      00FC7BE3H   LINE      ECODE    ---       #372
      ---         BLOCKEND  ---      ---       LVL=0

      00FC7BE4H   BLOCK     ECODE    ---       LVL=0
      00012A13H   SYMBOL    XDATA    INT       spi_n
      00012A15H   SYMBOL    XDATA    BYTE      register_name
      00012A16H   SYMBOL    XDATA    BYTE      dat
      00FC7BE4H   LINE      ECODE    ---       #382
      00FC7BF4H   LINE      ECODE    ---       #384
      00FC7C14H   LINE      ECODE    ---       #385
      00FC7C34H   LINE      ECODE    ---       #386
      ---         BLOCKEND  ---      ---       LVL=0

      00FC7C35H   BLOCK     ECODE    ---       LVL=0
      00012579H   SYMBOL    XDATA    INT       spi_n
      0001257BH   SYMBOL    XDATA    BYTE      register_name
L251 LINKER/LOCATER V4.66.93.0                                                        05/01/2026  15:28:45  PAGE 95


      0001257CH   SYMBOL    XDATA    ---       dat
      00012580H   SYMBOL    XDATA    DWORD     len
      00FC7C35H   LINE      ECODE    ---       #397
      00FC7C49H   LINE      ECODE    ---       #399
      00FC7C69H   LINE      ECODE    ---       #400
      00FC7C91H   LINE      ECODE    ---       #401
      ---         BLOCKEND  ---      ---       LVL=0

      00FC7C92H   BLOCK     ECODE    ---       LVL=0
      000128FDH   SYMBOL    XDATA    INT       spi_n
      000128FFH   SYMBOL    XDATA    WORD      register_name
      00012901H   SYMBOL    XDATA    WORD      dat
      00FC7C92H   LINE      ECODE    ---       #411
      00FC7CA4H   LINE      ECODE    ---       #413
      00FC7CC4H   LINE      ECODE    ---       #414
      00FC7CE4H   LINE      ECODE    ---       #415
      ---         BLOCKEND  ---      ---       LVL=0

      00FC7CE5H   BLOCK     ECODE    ---       LVL=0
      00012471H   SYMBOL    XDATA    INT       spi_n
      00012473H   SYMBOL    XDATA    WORD      register_name
      00012475H   SYMBOL    XDATA    ---       dat
      00012479H   SYMBOL    XDATA    DWORD     len
      00FC7CE5H   LINE      ECODE    ---       #426
      00FC7CFBH   LINE      ECODE    ---       #428
      00FC7D1BH   LINE      ECODE    ---       #429
      00FC7D45H   LINE      ECODE    ---       #430
      ---         BLOCKEND  ---      ---       LVL=0

      00FC7D46H   BLOCK     ECODE    ---       LVL=0
      00012A99H   SYMBOL    XDATA    INT       spi_n
      00FC7D4CH   BLOCK     ECODE    NEAR LAB  LVL=1
      00012A9BH   SYMBOL    XDATA    BYTE      value
      ---         BLOCKEND  ---      ---       LVL=1
      00FC7D46H   LINE      ECODE    ---       #439
      00FC7D4CH   LINE      ECODE    ---       #440
      00FC7D4CH   LINE      ECODE    ---       #441
      00FC7D51H   LINE      ECODE    ---       #442
      00FC7D71H   LINE      ECODE    ---       #443
      00FC7D75H   LINE      ECODE    ---       #444
      ---         BLOCKEND  ---      ---       LVL=0

      00FC7D76H   BLOCK     ECODE    ---       LVL=0
      00012619H   SYMBOL    XDATA    INT       spi_n
      0001261BH   SYMBOL    XDATA    ---       dat
      0001261FH   SYMBOL    XDATA    DWORD     len
      00FC7D76H   LINE      ECODE    ---       #454
      00FC7D86H   LINE      ECODE    ---       #456
      00FC7DAEH   LINE      ECODE    ---       #457
      ---         BLOCKEND  ---      ---       LVL=0

      00FC7DAFH   BLOCK     ECODE    ---       LVL=0
      00012A17H   SYMBOL    XDATA    INT       spi_n
      00FC7DB5H   BLOCK     ECODE    NEAR LAB  LVL=1
      00012A19H   SYMBOL    XDATA    WORD      dat
      ---         BLOCKEND  ---      ---       LVL=1
      00FC7DAFH   LINE      ECODE    ---       #466
      00FC7DB5H   LINE      ECODE    ---       #467
      00FC7DB5H   LINE      ECODE    ---       #469
      00FC7DD5H   LINE      ECODE    ---       #470
      00FC7DDBH   LINE      ECODE    ---       #471
      ---         BLOCKEND  ---      ---       LVL=0

      00FC7DDCH   BLOCK     ECODE    ---       LVL=0
      00012623H   SYMBOL    XDATA    INT       spi_n
L251 LINKER/LOCATER V4.66.93.0                                                        05/01/2026  15:28:45  PAGE 96


      00012625H   SYMBOL    XDATA    ---       dat
      00012629H   SYMBOL    XDATA    DWORD     len
      00FC7DDCH   LINE      ECODE    ---       #481
      00FC7DECH   LINE      ECODE    ---       #483
      00FC7E16H   LINE      ECODE    ---       #484
      ---         BLOCKEND  ---      ---       LVL=0

      00FC7E17H   BLOCK     ECODE    ---       LVL=0
      00012A1BH   SYMBOL    XDATA    INT       spi_n
      00012A1DH   SYMBOL    XDATA    BYTE      register_name
      00FC7E21H   BLOCK     ECODE    NEAR LAB  LVL=1
      00012A1EH   SYMBOL    XDATA    BYTE      reg
      ---         BLOCKEND  ---      ---       LVL=1
      00FC7E17H   LINE      ECODE    ---       #493
      00FC7E21H   LINE      ECODE    ---       #494
      00FC7E21H   LINE      ECODE    ---       #495
      00FC7E26H   LINE      ECODE    ---       #496
      00FC7E46H   LINE      ECODE    ---       #497
      00FC7E66H   LINE      ECODE    ---       #498
      00FC7E6AH   LINE      ECODE    ---       #499
      ---         BLOCKEND  ---      ---       LVL=0

      00FC7E6BH   BLOCK     ECODE    ---       LVL=0
      00012584H   SYMBOL    XDATA    INT       spi_n
      00012586H   SYMBOL    XDATA    BYTE      register_name
      00012587H   SYMBOL    XDATA    ---       dat
      0001258BH   SYMBOL    XDATA    DWORD     len
      00FC7E6BH   LINE      ECODE    ---       #510
      00FC7E7FH   LINE      ECODE    ---       #512
      00FC7E9FH   LINE      ECODE    ---       #513
      00FC7EC7H   LINE      ECODE    ---       #514
      ---         BLOCKEND  ---      ---       LVL=0

      00FC7EC8H   BLOCK     ECODE    ---       LVL=0
      00012903H   SYMBOL    XDATA    INT       spi_n
      00012905H   SYMBOL    XDATA    WORD      register_name
      00FC7ED4H   BLOCK     ECODE    NEAR LAB  LVL=1
      00012907H   SYMBOL    XDATA    WORD      dat
      ---         BLOCKEND  ---      ---       LVL=1
      00FC7EC8H   LINE      ECODE    ---       #523
      00FC7ED4H   LINE      ECODE    ---       #524
      00FC7ED4H   LINE      ECODE    ---       #526
      00FC7EF4H   LINE      ECODE    ---       #527
      00FC7F14H   LINE      ECODE    ---       #528
      00FC7F1AH   LINE      ECODE    ---       #529
      ---         BLOCKEND  ---      ---       LVL=0

      00FC7F1BH   BLOCK     ECODE    ---       LVL=0
      0001247DH   SYMBOL    XDATA    INT       spi_n
      0001247FH   SYMBOL    XDATA    WORD      register_name
      00012481H   SYMBOL    XDATA    ---       dat
      00012485H   SYMBOL    XDATA    DWORD     len
      00FC7F1BH   LINE      ECODE    ---       #540
      00FC7F31H   LINE      ECODE    ---       #542
      00FC7F51H   LINE      ECODE    ---       #543
      00FC7F79H   LINE      ECODE    ---       #544
      ---         BLOCKEND  ---      ---       LVL=0

      00FC7F7AH   BLOCK     ECODE    ---       LVL=0
      00012334H   SYMBOL    XDATA    INT       spi_n
      00012336H   SYMBOL    XDATA    ---       write_buffer
      0001233AH   SYMBOL    XDATA    ---       read_buffer
      0001233EH   SYMBOL    XDATA    DWORD     len
      00FC7F7AH   LINE      ECODE    ---       #555
      00FC7F8AH   LINE      ECODE    ---       #557
L251 LINKER/LOCATER V4.66.93.0                                                        05/01/2026  15:28:45  PAGE 97


      00FC7FC6H   LINE      ECODE    ---       #558
      ---         BLOCKEND  ---      ---       LVL=0

      00FC7FC7H   BLOCK     ECODE    ---       LVL=0
      00012342H   SYMBOL    XDATA    INT       spi_n
      00012344H   SYMBOL    XDATA    ---       write_buffer
      00012348H   SYMBOL    XDATA    ---       read_buffer
      0001234CH   SYMBOL    XDATA    DWORD     len
      00FC7FC7H   LINE      ECODE    ---       #569
      00FC7FD7H   LINE      ECODE    ---       #571
      00FC8015H   LINE      ECODE    ---       #572
      ---         BLOCKEND  ---      ---       LVL=0

      00FC8016H   BLOCK     ECODE    ---       LVL=0
      00012082H   SYMBOL    XDATA    INT       spi_n
      00012084H   SYMBOL    XDATA    INT       mode
      00012086H   SYMBOL    XDATA    DWORD     baud
      0001208AH   SYMBOL    XDATA    INT       sck_pin
      0001208CH   SYMBOL    XDATA    INT       mosi_pin
      0001208EH   SYMBOL    XDATA    INT       miso_pin
      00012090H   SYMBOL    XDATA    INT       cs_pin
      00FC802CH   BLOCK     ECODE    NEAR LAB  LVL=1
      00012092H   SYMBOL    XDATA    DWORD     spi_psc
      ---         BLOCKEND  ---      ---       LVL=1
      00FC8016H   LINE      ECODE    ---       #586
      00FC802CH   LINE      ECODE    ---       #587
      00FC802CH   LINE      ECODE    ---       #589
      00FC8038H   LINE      ECODE    ---       #591
      00FC8054H   LINE      ECODE    ---       #593
      00FC8065H   LINE      ECODE    ---       #595
      00FC8065H   LINE      ECODE    ---       #597
      00FC807FH   LINE      ECODE    ---       #598
      00FC8099H   LINE      ECODE    ---       #600
      00FC80A7H   LINE      ECODE    ---       #602
      00FC80BFH   LINE      ECODE    ---       #603
      00FC80BFH   LINE      ECODE    ---       #605
      00FC80CDH   LINE      ECODE    ---       #607
      00FC80E6H   LINE      ECODE    ---       #608
      00FC80E6H   LINE      ECODE    ---       #611
      00FC80F6H   LINE      ECODE    ---       #613
      00FC8108H   LINE      ECODE    ---       #614
      00FC811AH   LINE      ECODE    ---       #615
      00FC8128H   LINE      ECODE    ---       #617
      00FC813AH   LINE      ECODE    ---       #618
      00FC813AH   LINE      ECODE    ---       #619
      00FC8148H   LINE      ECODE    ---       #621
      00FC815AH   LINE      ECODE    ---       #622
      00FC815AH   LINE      ECODE    ---       #625
      00FC8172H   LINE      ECODE    ---       #627
      00FC8172H   LINE      ECODE    ---       #629
      00FC8175H   LINE      ECODE    ---       #630
      00FC8197H   LINE      ECODE    ---       #632
      00FC819DH   LINE      ECODE    ---       #633
      00FC81A2H   LINE      ECODE    ---       #634
      00FC81A7H   LINE      ECODE    ---       #635
      00FC81AAH   LINE      ECODE    ---       #636
      00FC81AAH   LINE      ECODE    ---       #638
      00FC81ADH   LINE      ECODE    ---       #639
      00FC81B0H   LINE      ECODE    ---       #641
      00FC81B3H   LINE      ECODE    ---       #644
      00FC81C5H   LINE      ECODE    ---       #646
      00FC81CAH   LINE      ECODE    ---       #647
      00FC81CFH   LINE      ECODE    ---       #648
      00FC81D2H   LINE      ECODE    ---       #649
      00FC81D2H   LINE      ECODE    ---       #650
L251 LINKER/LOCATER V4.66.93.0                                                        05/01/2026  15:28:45  PAGE 98


      00FC81D2H   LINE      ECODE    ---       #651
      00FC81D5H   LINE      ECODE    ---       #652
      00FC81D8H   LINE      ECODE    ---       #655
      00FC81D8H   LINE      ECODE    ---       #657
      00FC81EAH   LINE      ECODE    ---       #658
      00FC820CH   LINE      ECODE    ---       #660
      00FC821CH   LINE      ECODE    ---       #661
      00FC8230H   LINE      ECODE    ---       #662
      00FC8244H   LINE      ECODE    ---       #663
      00FC8256H   LINE      ECODE    ---       #664
      00FC8256H   LINE      ECODE    ---       #666
      00FC8262H   LINE      ECODE    ---       #667
      00FC8274H   LINE      ECODE    ---       #669
      00FC8296H   LINE      ECODE    ---       #670
      00FC82A8H   LINE      ECODE    ---       #673
      00FC82BAH   LINE      ECODE    ---       #675
      00FC82CEH   LINE      ECODE    ---       #676
      00FC82E2H   LINE      ECODE    ---       #677
      00FC82F4H   LINE      ECODE    ---       #678
      00FC82F4H   LINE      ECODE    ---       #679
      00FC82F4H   LINE      ECODE    ---       #680
      00FC8306H   LINE      ECODE    ---       #681
      00FC8309H   LINE      ECODE    ---       #684
      00FC8309H   LINE      ECODE    ---       #686
      00FC831BH   LINE      ECODE    ---       #687
      00FC833DH   LINE      ECODE    ---       #689
      00FC834DH   LINE      ECODE    ---       #690
      00FC8361H   LINE      ECODE    ---       #691
      00FC8375H   LINE      ECODE    ---       #692
      00FC8387H   LINE      ECODE    ---       #693
      00FC8387H   LINE      ECODE    ---       #695
      00FC8393H   LINE      ECODE    ---       #696
      00FC83A5H   LINE      ECODE    ---       #699
      00FC83B7H   LINE      ECODE    ---       #702
      00FC83C9H   LINE      ECODE    ---       #704
      00FC83DDH   LINE      ECODE    ---       #705
      00FC83F1H   LINE      ECODE    ---       #706
      00FC8403H   LINE      ECODE    ---       #707
      00FC8403H   LINE      ECODE    ---       #708
      00FC8403H   LINE      ECODE    ---       #709
      00FC8415H   LINE      ECODE    ---       #710
      00FC8415H   LINE      ECODE    ---       #713
      00FC8415H   LINE      ECODE    ---       #715
      00FC8415H   LINE      ECODE    ---       #716
      00FC8415H   LINE      ECODE    ---       #718
      00FC8438H   LINE      ECODE    ---       #721
      00FC845CH   LINE      ECODE    ---       #723
      00FC84AAH   LINE      ECODE    ---       #724
      00FC84C8H   LINE      ECODE    ---       #725
      00FC84F4H   LINE      ECODE    ---       #727
      00FC8517H   LINE      ECODE    ---       #728
      00FC853AH   LINE      ECODE    ---       #732
      00FC855DH   LINE      ECODE    ---       #733
      00FC8580H   LINE      ECODE    ---       #735
      00FC85A4H   LINE      ECODE    ---       #736
      ---         BLOCKEND  ---      ---       LVL=0

      00FC85A5H   BLOCK     ECODE    ---       LVL=0
      00012A9CH   SYMBOL    XDATA    INT       spi_n
      00012A9EH   SYMBOL    XDATA    BYTE      dat
      00FC85A5H   LINE      ECODE    ---       #739
      00FC85AFH   LINE      ECODE    ---       #741
      00FC85C1H   LINE      ECODE    ---       #743
      00FC85C1H   LINE      ECODE    ---       #744
      00FC85C5H   LINE      ECODE    ---       #745
L251 LINKER/LOCATER V4.66.93.0                                                        05/01/2026  15:28:45  PAGE 99


      00FC85CBH   LINE      ECODE    ---       #746
      00FC85D0H   LINE      ECODE    ---       #747
      00FC85D2H   LINE      ECODE    ---       #748
      00FC85D2H   LINE      ECODE    ---       #749
      00FC85DFH   LINE      ECODE    ---       #750
      00FC85EEH   LINE      ECODE    ---       #751
      00FC85FCH   LINE      ECODE    ---       #752
      00FC85FEH   LINE      ECODE    ---       #753
      00FC85FEH   LINE      ECODE    ---       #754
      00FC860BH   LINE      ECODE    ---       #755
      00FC861AH   LINE      ECODE    ---       #756
      00FC8628H   LINE      ECODE    ---       #757
      00FC862AH   LINE      ECODE    ---       #758
      00FC862AH   LINE      ECODE    ---       #759
      00FC863BH   LINE      ECODE    ---       #760
      00FC863BH   LINE      ECODE    ---       #761
      00FC863BH   LINE      ECODE    ---       #762
      ---         BLOCKEND  ---      ---       LVL=0

      00FC863CH   BLOCK     ECODE    ---       LVL=0
      00012A1FH   SYMBOL    XDATA    INT       spi_n
      00012A21H   SYMBOL    XDATA    BYTE      dat
      00FC8646H   BLOCK     ECODE    NEAR LAB  LVL=1
      00012A22H   SYMBOL    XDATA    BYTE      ret
      ---         BLOCKEND  ---      ---       LVL=1
      00FC863CH   LINE      ECODE    ---       #765
      00FC8646H   LINE      ECODE    ---       #766
      00FC8646H   LINE      ECODE    ---       #767
      00FC864CH   LINE      ECODE    ---       #768
      00FC8661H   LINE      ECODE    ---       #770
      00FC8661H   LINE      ECODE    ---       #771
      00FC8665H   LINE      ECODE    ---       #772
      00FC866BH   LINE      ECODE    ---       #773
      00FC8670H   LINE      ECODE    ---       #774
      00FC8676H   LINE      ECODE    ---       #775
      00FC8679H   LINE      ECODE    ---       #776
      00FC8679H   LINE      ECODE    ---       #777
      00FC8686H   LINE      ECODE    ---       #778
      00FC8695H   LINE      ECODE    ---       #779
      00FC86A3H   LINE      ECODE    ---       #780
      00FC86B2H   LINE      ECODE    ---       #781
      00FC86B4H   LINE      ECODE    ---       #782
      00FC86B4H   LINE      ECODE    ---       #783
      00FC86C1H   LINE      ECODE    ---       #784
      00FC86D0H   LINE      ECODE    ---       #785
      00FC86DEH   LINE      ECODE    ---       #786
      00FC86EDH   LINE      ECODE    ---       #787
      00FC86EFH   LINE      ECODE    ---       #788
      00FC86EFH   LINE      ECODE    ---       #789
      00FC8700H   LINE      ECODE    ---       #790
      00FC8700H   LINE      ECODE    ---       #791
      00FC8700H   LINE      ECODE    ---       #793
      00FC8704H   LINE      ECODE    ---       #794
      ---         BLOCKEND  ---      ---       LVL=0

      00FC8705H   BLOCK     ECODE    ---       LVL=0
      00012A9FH   SYMBOL    XDATA    INT       spi_n
      00012AA1H   SYMBOL    XDATA    BYTE      dat
      00FC8705H   LINE      ECODE    ---       #805
      00FC870FH   LINE      ECODE    ---       #807
      00FC871DH   LINE      ECODE    ---       #808
      ---         BLOCKEND  ---      ---       LVL=0

      00FC871EH   BLOCK     ECODE    ---       LVL=0
      0001262DH   SYMBOL    XDATA    INT       spi_n
L251 LINKER/LOCATER V4.66.93.0                                                        05/01/2026  15:28:45  PAGE 100


      0001262FH   SYMBOL    XDATA    ---       dat
      00012633H   SYMBOL    XDATA    DWORD     len
      00FC871EH   LINE      ECODE    ---       #818
      00FC872EH   LINE      ECODE    ---       #820
      00FC8730H   LINE      ECODE    ---       #822
      00FC8750H   LINE      ECODE    ---       #823
      00FC876DH   LINE      ECODE    ---       #824
      ---         BLOCKEND  ---      ---       LVL=0

      00FC876EH   BLOCK     ECODE    ---       LVL=0
      00012A23H   SYMBOL    XDATA    INT       spi_n
      00012A25H   SYMBOL    XDATA    WORD      dat
      00FC876EH   LINE      ECODE    ---       #833
      00FC877AH   LINE      ECODE    ---       #835
      00FC8794H   LINE      ECODE    ---       #836
      00FC87AAH   LINE      ECODE    ---       #837
      ---         BLOCKEND  ---      ---       LVL=0

      00FC87ABH   BLOCK     ECODE    ---       LVL=0
      00012637H   SYMBOL    XDATA    INT       spi_n
      00012639H   SYMBOL    XDATA    ---       dat
      0001263DH   SYMBOL    XDATA    DWORD     len
      00FC87ABH   LINE      ECODE    ---       #847
      00FC87BBH   LINE      ECODE    ---       #849
      00FC87BDH   LINE      ECODE    ---       #851
      00FC87DEH   LINE      ECODE    ---       #852
      00FC8804H   LINE      ECODE    ---       #853
      00FC8821H   LINE      ECODE    ---       #854
      ---         BLOCKEND  ---      ---       LVL=0

      00FC8822H   BLOCK     ECODE    ---       LVL=0
      00012A27H   SYMBOL    XDATA    INT       spi_n
      00012A29H   SYMBOL    XDATA    BYTE      register_name
      00012A2AH   SYMBOL    XDATA    BYTE      dat
      00FC8822H   LINE      ECODE    ---       #864
      00FC8832H   LINE      ECODE    ---       #866
      00FC8840H   LINE      ECODE    ---       #867
      00FC884EH   LINE      ECODE    ---       #868
      ---         BLOCKEND  ---      ---       LVL=0

      00FC884FH   BLOCK     ECODE    ---       LVL=0
      0001258FH   SYMBOL    XDATA    INT       spi_n
      00012591H   SYMBOL    XDATA    BYTE      register_name
      00012592H   SYMBOL    XDATA    ---       dat
      00012596H   SYMBOL    XDATA    DWORD     len
      00FC884FH   LINE      ECODE    ---       #880
      00FC8863H   LINE      ECODE    ---       #882
      00FC8871H   LINE      ECODE    ---       #883
      00FC8873H   LINE      ECODE    ---       #885
      00FC8893H   LINE      ECODE    ---       #886
      00FC88B0H   LINE      ECODE    ---       #887
      ---         BLOCKEND  ---      ---       LVL=0

      00FC88B1H   BLOCK     ECODE    ---       LVL=0
      00012909H   SYMBOL    XDATA    INT       spi_n
      0001290BH   SYMBOL    XDATA    WORD      register_name
      0001290DH   SYMBOL    XDATA    WORD      dat
      00FC88B1H   LINE      ECODE    ---       #897
      00FC88C3H   LINE      ECODE    ---       #899
      00FC88DDH   LINE      ECODE    ---       #900
      00FC88F3H   LINE      ECODE    ---       #901
      00FC890DH   LINE      ECODE    ---       #902
      00FC8923H   LINE      ECODE    ---       #903
      ---         BLOCKEND  ---      ---       LVL=0

L251 LINKER/LOCATER V4.66.93.0                                                        05/01/2026  15:28:45  PAGE 101


      00FC8924H   BLOCK     ECODE    ---       LVL=0
      00012489H   SYMBOL    XDATA    INT       spi_n
      0001248BH   SYMBOL    XDATA    WORD      register_name
      0001248DH   SYMBOL    XDATA    ---       dat
      00FC8924H   LINE      ECODE    ---       #914
      00FC893AH   LINE      ECODE    ---       #916
      00FC8954H   LINE      ECODE    ---       #917
      00FC896AH   LINE      ECODE    ---       #918
      00FC898BH   LINE      ECODE    ---       #919
      00FC89B1H   LINE      ECODE    ---       #920
      ---         BLOCKEND  ---      ---       LVL=0

      00FC89B2H   BLOCK     ECODE    ---       LVL=0
      00012AD0H   SYMBOL    XDATA    INT       spi_n
      00FC89B2H   LINE      ECODE    ---       #929
      00FC89B8H   LINE      ECODE    ---       #931
      00FC89C3H   LINE      ECODE    ---       #932
      ---         BLOCKEND  ---      ---       LVL=0

      00FC89C4H   BLOCK     ECODE    ---       LVL=0
      00012641H   SYMBOL    XDATA    INT       spi_n
      00012643H   SYMBOL    XDATA    ---       dat
      00012647H   SYMBOL    XDATA    DWORD     len
      00FC89C4H   LINE      ECODE    ---       #942
      00FC89D4H   LINE      ECODE    ---       #944
      00FC89D6H   LINE      ECODE    ---       #946
      00FC8A04H   LINE      ECODE    ---       #947
      00FC8A21H   LINE      ECODE    ---       #948
      ---         BLOCKEND  ---      ---       LVL=0

      00FC8A22H   BLOCK     ECODE    ---       LVL=0
      00012A2BH   SYMBOL    XDATA    INT       spi_n
      00FC8A28H   BLOCK     ECODE    NEAR LAB  LVL=1
      00012A2DH   SYMBOL    XDATA    WORD      dat
      ---         BLOCKEND  ---      ---       LVL=1
      00FC8A22H   LINE      ECODE    ---       #957
      00FC8A28H   LINE      ECODE    ---       #958
      00FC8A28H   LINE      ECODE    ---       #959
      00FC8A30H   LINE      ECODE    ---       #961
      00FC8A43H   LINE      ECODE    ---       #963
      00FC8A62H   LINE      ECODE    ---       #965
      00FC8A68H   LINE      ECODE    ---       #966
      ---         BLOCKEND  ---      ---       LVL=0

      00FC8A69H   BLOCK     ECODE    ---       LVL=0
      0001264BH   SYMBOL    XDATA    INT       spi_n
      0001264DH   SYMBOL    XDATA    ---       dat
      00012651H   SYMBOL    XDATA    DWORD     len
      00FC8A69H   LINE      ECODE    ---       #976
      00FC8A79H   LINE      ECODE    ---       #978
      00FC8A7BH   LINE      ECODE    ---       #980
      00FC8A95H   LINE      ECODE    ---       #981
      00FC8AC2H   LINE      ECODE    ---       #982
      00FC8AD5H   LINE      ECODE    ---       #983
      00FC8AF2H   LINE      ECODE    ---       #984
      ---         BLOCKEND  ---      ---       LVL=0

      00FC8AF3H   BLOCK     ECODE    ---       LVL=0
      00012AA2H   SYMBOL    XDATA    INT       spi_n
      00012AA4H   SYMBOL    XDATA    BYTE      register_name
      00FC8AF3H   LINE      ECODE    ---       #993
      00FC8AFDH   LINE      ECODE    ---       #995
      00FC8B0BH   LINE      ECODE    ---       #996
      00FC8B16H   LINE      ECODE    ---       #997
      ---         BLOCKEND  ---      ---       LVL=0
L251 LINKER/LOCATER V4.66.93.0                                                        05/01/2026  15:28:45  PAGE 102



      00FC8B17H   BLOCK     ECODE    ---       LVL=0
      0001259AH   SYMBOL    XDATA    INT       spi_n
      0001259CH   SYMBOL    XDATA    BYTE      register_name
      0001259DH   SYMBOL    XDATA    ---       dat
      000125A1H   SYMBOL    XDATA    DWORD     len
      00FC8B17H   LINE      ECODE    ---       #1008
      00FC8B2BH   LINE      ECODE    ---       #1010
      00FC8B39H   LINE      ECODE    ---       #1011
      00FC8B3BH   LINE      ECODE    ---       #1013
      00FC8B69H   LINE      ECODE    ---       #1014
      00FC8B86H   LINE      ECODE    ---       #1015
      ---         BLOCKEND  ---      ---       LVL=0

      00FC8B87H   BLOCK     ECODE    ---       LVL=0
      0001290FH   SYMBOL    XDATA    INT       spi_n
      00012911H   SYMBOL    XDATA    WORD      register_name
      00FC8B93H   BLOCK     ECODE    NEAR LAB  LVL=1
      00012913H   SYMBOL    XDATA    WORD      dat
      ---         BLOCKEND  ---      ---       LVL=1
      00FC8B87H   LINE      ECODE    ---       #1024
      00FC8B93H   LINE      ECODE    ---       #1025
      00FC8B93H   LINE      ECODE    ---       #1026
      00FC8B9BH   LINE      ECODE    ---       #1028
      00FC8BB5H   LINE      ECODE    ---       #1029
      00FC8BCBH   LINE      ECODE    ---       #1031
      00FC8BDEH   LINE      ECODE    ---       #1032
      00FC8BFDH   LINE      ECODE    ---       #1034
      00FC8C03H   LINE      ECODE    ---       #1035
      ---         BLOCKEND  ---      ---       LVL=0

      00FC8C04H   BLOCK     ECODE    ---       LVL=0
      00012495H   SYMBOL    XDATA    INT       spi_n
      00012497H   SYMBOL    XDATA    WORD      register_name
      00012499H   SYMBOL    XDATA    ---       dat
      0001249DH   SYMBOL    XDATA    DWORD     len
      00FC8C04H   LINE      ECODE    ---       #1046
      00FC8C1AH   LINE      ECODE    ---       #1048
      00FC8C34H   LINE      ECODE    ---       #1049
      00FC8C4AH   LINE      ECODE    ---       #1051
      00FC8C4CH   LINE      ECODE    ---       #1053
      00FC8C66H   LINE      ECODE    ---       #1054
      00FC8C93H   LINE      ECODE    ---       #1055
      00FC8CA6H   LINE      ECODE    ---       #1056
      00FC8CC3H   LINE      ECODE    ---       #1057
      ---         BLOCKEND  ---      ---       LVL=0

      00FC8CC4H   BLOCK     ECODE    ---       LVL=0
      00012350H   SYMBOL    XDATA    INT       spi_n
      00012352H   SYMBOL    XDATA    ---       write_buffer
      00012356H   SYMBOL    XDATA    ---       read_buffer
      0001235AH   SYMBOL    XDATA    DWORD     len
      00FC8CC4H   LINE      ECODE    ---       #1068
      00FC8CD4H   LINE      ECODE    ---       #1070
      00FC8CD6H   LINE      ECODE    ---       #1072
      00FC8CE4H   LINE      ECODE    ---       #1074
      00FC8D27H   LINE      ECODE    ---       #1075
      00FC8D29H   LINE      ECODE    ---       #1078
      00FC8D49H   LINE      ECODE    ---       #1079
      00FC8D49H   LINE      ECODE    ---       #1080
      00FC8D69H   LINE      ECODE    ---       #1081
      ---         BLOCKEND  ---      ---       LVL=0

      00FC8D6AH   BLOCK     ECODE    ---       LVL=0
      0001235EH   SYMBOL    XDATA    INT       spi_n
L251 LINKER/LOCATER V4.66.93.0                                                        05/01/2026  15:28:45  PAGE 103


      00012360H   SYMBOL    XDATA    ---       write_buffer
      00012364H   SYMBOL    XDATA    ---       read_buffer
      00012368H   SYMBOL    XDATA    DWORD     len
      00FC8D6AH   LINE      ECODE    ---       #1092
      00FC8D7AH   LINE      ECODE    ---       #1094
      00FC8D7DH   LINE      ECODE    ---       #1096
      00FC8D8EH   LINE      ECODE    ---       #1098
      00FC8DBEH   LINE      ECODE    ---       #1099
      00FC8DF7H   LINE      ECODE    ---       #1100
      00FC8E0AH   LINE      ECODE    ---       #1101
      00FC8E0CH   LINE      ECODE    ---       #1104
      00FC8E2DH   LINE      ECODE    ---       #1105
      00FC8E4AH   LINE      ECODE    ---       #1106
      00FC8E4AH   LINE      ECODE    ---       #1107
      00FC8E5DH   LINE      ECODE    ---       #1108
      00FC8E7DH   LINE      ECODE    ---       #1109
      ---         BLOCKEND  ---      ---       LVL=0

      00FC8E7EH   BLOCK     ECODE    ---       LVL=0
      00012096H   SYMBOL    XDATA    INT       spi_n
      00012098H   SYMBOL    XDATA    INT       mode
      0001209AH   SYMBOL    XDATA    DWORD     baud
      0001209EH   SYMBOL    XDATA    INT       sck_pin
      000120A0H   SYMBOL    XDATA    INT       mosi_pin
      000120A2H   SYMBOL    XDATA    INT       miso_pin
      000120A4H   SYMBOL    XDATA    INT       cs_pin
      00FC8E94H   BLOCK     ECODE    NEAR LAB  LVL=1
      000120A6H   SYMBOL    XDATA    DWORD     spi_psc
      ---         BLOCKEND  ---      ---       LVL=1
      00FC8E7EH   LINE      ECODE    ---       #1124
      00FC8E94H   LINE      ECODE    ---       #1125
      00FC8E94H   LINE      ECODE    ---       #1126
      00FC8EA0H   LINE      ECODE    ---       #1128
      00FC8EBCH   LINE      ECODE    ---       #1130
      00FC8ECDH   LINE      ECODE    ---       #1132
      00FC8ECDH   LINE      ECODE    ---       #1134
      00FC8EE7H   LINE      ECODE    ---       #1135
      00FC8F01H   LINE      ECODE    ---       #1137
      00FC8F0FH   LINE      ECODE    ---       #1139
      00FC8F25H   LINE      ECODE    ---       #1140
      00FC8F25H   LINE      ECODE    ---       #1142
      00FC8F33H   LINE      ECODE    ---       #1144
      00FC8F4CH   LINE      ECODE    ---       #1145
      00FC8F4CH   LINE      ECODE    ---       #1148
      00FC8F5CH   LINE      ECODE    ---       #1150
      00FC8F6EH   LINE      ECODE    ---       #1151
      00FC8F80H   LINE      ECODE    ---       #1152
      00FC8F8EH   LINE      ECODE    ---       #1154
      00FC8FA0H   LINE      ECODE    ---       #1155
      00FC8FA0H   LINE      ECODE    ---       #1156
      00FC8FAEH   LINE      ECODE    ---       #1158
      00FC8FC0H   LINE      ECODE    ---       #1159
      00FC8FC0H   LINE      ECODE    ---       #1162
      00FC8FDBH   LINE      ECODE    ---       #1164
      00FC8FDBH   LINE      ECODE    ---       #1166
      00FC8FDEH   LINE      ECODE    ---       #1167
      00FC9000H   LINE      ECODE    ---       #1169
      00FC9006H   LINE      ECODE    ---       #1170
      00FC900BH   LINE      ECODE    ---       #1171
      00FC9010H   LINE      ECODE    ---       #1172
      00FC9013H   LINE      ECODE    ---       #1173
      00FC9013H   LINE      ECODE    ---       #1175
      00FC9016H   LINE      ECODE    ---       #1176
      00FC9019H   LINE      ECODE    ---       #1178
      00FC903BH   LINE      ECODE    ---       #1185
L251 LINKER/LOCATER V4.66.93.0                                                        05/01/2026  15:28:45  PAGE 104


      00FC905FH   LINE      ECODE    ---       #1187
      00FC9071H   LINE      ECODE    ---       #1189
      00FC9076H   LINE      ECODE    ---       #1190
      00FC907BH   LINE      ECODE    ---       #1191
      00FC907EH   LINE      ECODE    ---       #1192
      00FC907EH   LINE      ECODE    ---       #1193
      00FC907EH   LINE      ECODE    ---       #1194
      00FC9081H   LINE      ECODE    ---       #1195
      00FC9084H   LINE      ECODE    ---       #1198
      00FC9084H   LINE      ECODE    ---       #1200
      00FC9096H   LINE      ECODE    ---       #1201
      00FC90B8H   LINE      ECODE    ---       #1203
      00FC90C8H   LINE      ECODE    ---       #1204
      00FC90DCH   LINE      ECODE    ---       #1205
      00FC90F0H   LINE      ECODE    ---       #1206
      00FC9102H   LINE      ECODE    ---       #1207
      00FC9102H   LINE      ECODE    ---       #1209
      00FC910EH   LINE      ECODE    ---       #1210
      00FC9120H   LINE      ECODE    ---       #1212
      00FC9142H   LINE      ECODE    ---       #1218
      00FC9166H   LINE      ECODE    ---       #1220
      00FC9178H   LINE      ECODE    ---       #1222
      00FC918CH   LINE      ECODE    ---       #1223
      00FC91A0H   LINE      ECODE    ---       #1224
      00FC91B2H   LINE      ECODE    ---       #1225
      00FC91B2H   LINE      ECODE    ---       #1226
      00FC91B2H   LINE      ECODE    ---       #1227
      00FC91C4H   LINE      ECODE    ---       #1228
      00FC91C7H   LINE      ECODE    ---       #1231
      00FC91C7H   LINE      ECODE    ---       #1233
      00FC91D9H   LINE      ECODE    ---       #1234
      00FC91FBH   LINE      ECODE    ---       #1236
      00FC920BH   LINE      ECODE    ---       #1237
      00FC921FH   LINE      ECODE    ---       #1238
      00FC9233H   LINE      ECODE    ---       #1239
      00FC9245H   LINE      ECODE    ---       #1240
      00FC9245H   LINE      ECODE    ---       #1242
      00FC9251H   LINE      ECODE    ---       #1243
      00FC9263H   LINE      ECODE    ---       #1245
      00FC9285H   LINE      ECODE    ---       #1251
      00FC92A9H   LINE      ECODE    ---       #1254
      00FC92BBH   LINE      ECODE    ---       #1256
      00FC92CFH   LINE      ECODE    ---       #1257
      00FC92E3H   LINE      ECODE    ---       #1258
      00FC92F5H   LINE      ECODE    ---       #1259
      00FC92F5H   LINE      ECODE    ---       #1260
      00FC92F5H   LINE      ECODE    ---       #1261
      00FC9307H   LINE      ECODE    ---       #1262
      00FC9307H   LINE      ECODE    ---       #1265
      00FC9307H   LINE      ECODE    ---       #1267
      00FC9307H   LINE      ECODE    ---       #1268
      00FC9307H   LINE      ECODE    ---       #1269
      ---         BLOCKEND  ---      ---       LVL=0

      ---         MODULE    ---      ---       zf_driver_timer
      00FE30DFH   PUBLIC    ECODE    ---       timer_funciton_check?
      000000D0H   SFRSYM    DATA     BYTE      PSW
      0000009DH   SFRSYM    DATA     BYTE      IRCBAND
      00000097H   SFRSYM    DATA     BYTE      AUXR2
      000000EAH   SFRSYM    DATA     BYTE      CKCON
      000000EFH   SFRSYM    DATA     BYTE      AUXINTIF
      000000FDH   SFRSYM    DATA     BYTE      S4CON
      000000ACH   SFRSYM    DATA     BYTE      S3CON
      0000009AH   SFRSYM    DATA     BYTE      S2CON
      000000B7H   SFRSYM    DATA     BYTE      IPH
L251 LINKER/LOCATER V4.66.93.0                                                        05/01/2026  15:28:45  PAGE 105


      000000CDH   SFRSYM    DATA     BYTE      SPSTAT
      000000DDH   SFRSYM    DATA     BYTE      T4T3M
      000000C1H   SFRSYM    DATA     BYTE      WDT_CONTR
      000000DFH   SFRSYM    DATA     BYTE      IP3
      000000F4H   SFRSYM    DATA     BYTE      USBCON
      000000B5H   SFRSYM    DATA     BYTE      IP2
      000000FFH   SFRSYM    DATA     BYTE      RSTCFG
      000000E0H   SFRSYM    DATA     BYTE      ACC
      000000C7H   SFRSYM    DATA     BYTE      IAP_CONTR
      000000F9H   SFRSYM    DATA     BYTE      LINICR
      0000008EH   SFRSYM    DATA     BYTE      AUXR
      000000F0H   SFRSYM    DATA     BYTE      B
      000000AFH   SFRSYM    DATA     BYTE      IE2
      00000088H   SFRSYM    DATA     BYTE      TCON
      00000089H   SFRSYM    DATA     BYTE      TMOD
      00000098H   SFRSYM    DATA     BYTE      SCON
      00000087H   SFRSYM    DATA     BYTE      PCON
      000000BCH   SFRSYM    DATA     BYTE      ADC_CONTR
      000000D1H   SFRSYM    DATA     BYTE      PSW1
      000000E7H   SFRSYM    DATA     BYTE      CMPCR2
      000000E6H   SFRSYM    DATA     BYTE      CMPCR1
      000000DEH   SFRSYM    DATA     BYTE      ADCCFG
      000000B8H   SFRSYM    DATA     BYTE      IP
      0000008FH   SFRSYM    DATA     BYTE      INTCLKO
      000000EEH   SFRSYM    DATA     BYTE      IP3H
      000000B6H   SFRSYM    DATA     BYTE      IP2H
      000000BFH   SFRSYM    DATA     BYTE      P_SW4
      000000A8H   SFRSYM    DATA     BYTE      IE
      000000BBH   SFRSYM    DATA     BYTE      P_SW3
      000000BAH   SFRSYM    DATA     BYTE      P_SW2
      000000A2H   SFRSYM    DATA     BYTE      P_SW1
      000000CEH   SFRSYM    DATA     BYTE      SPCTL
      000000F8H   SFRSYM    DATA     BYTE      P7
      000000E8H   SFRSYM    DATA     BYTE      P6
      000000C8H   SFRSYM    DATA     BYTE      P5
      000000C0H   SFRSYM    DATA     BYTE      P4
      000000ABH   SFRSYM    DATA     BYTE      WKTCH
      000000B0H   SFRSYM    DATA     BYTE      P3
      000000A0H   SFRSYM    DATA     BYTE      P2
      00000090H   SFRSYM    DATA     BYTE      P1
      00000080H   SFRSYM    DATA     BYTE      P0
      00011EDFH   SYMBOL    XDATA    ---       timer_function_state

      00FE30DFH   BLOCK     ECODE    ---       LVL=0
      000129A8H   SYMBOL    XDATA    INT       index
      000129AAH   SYMBOL    XDATA    INT       mode
      00FE30EBH   BLOCK     ECODE    NEAR LAB  LVL=1
      000129ACH   SYMBOL    XDATA    BYTE      return_state
      ---         BLOCKEND  ---      ---       LVL=1
      00FE30DFH   LINE      ECODE    ---       #68
      00FE30EBH   LINE      ECODE    ---       #69
      00FE30EBH   LINE      ECODE    ---       #70
      00FE30F1H   LINE      ECODE    ---       #71
      00FE310EH   LINE      ECODE    ---       #73
      00FE312BH   LINE      ECODE    ---       #74
      00FE312DH   LINE      ECODE    ---       #75
      00FE314EH   LINE      ECODE    ---       #77
      00FE3154H   LINE      ECODE    ---       #78
      00FE3156H   LINE      ECODE    ---       #81
      00FE315BH   LINE      ECODE    ---       #82
      00FE315BH   LINE      ECODE    ---       #83
      00FE315FH   LINE      ECODE    ---       #84
      ---         BLOCKEND  ---      ---       LVL=0

      ---         MODULE    ---      ---       zf_driver_uart
L251 LINKER/LOCATER V4.66.93.0                                                        05/01/2026  15:28:45  PAGE 106


      00FCDACDH   PUBLIC    ECODE    ---       uart_tim_init?
      00FCD1BCH   PUBLIC    ECODE    ---       uart_rx_start_buff?
      00FCCD6CH   PUBLIC    ECODE    ---       uart_write_buffer?
      00FCD15CH   PUBLIC    ECODE    ---       uart_write_string?
      00FCD499H   PUBLIC    ECODE    ---       uart_read_byte?
      00FCE6ACH   PUBLIC    ECODE    ---       uart_init?
      00FCD396H   PUBLIC    ECODE    ---       uart_rx_interrupt?
      00FCD19BH   PUBLIC    ECODE    ---       uart_write_byte?
      00FCD68AH   PUBLIC    ECODE    ---       uart_dma_init?
      00FCD57CH   PUBLIC    ECODE    ---       uart_query_byte?
      00011B5EH   PUBLIC    XDATA    ---       uart_rx_buff
      00011B66H   PUBLIC    XDATA    ---       uart_rx_handlers
      0001236CH   PUBLIC    XDATA    BYTE      ?uart_tim_init??BYTE
      000120D2H   PUBLIC    XDATA    BYTE      ?uart_init??BYTE
      000000D0H   SFRSYM    DATA     BYTE      PSW
      0000009DH   SFRSYM    DATA     BYTE      IRCBAND
      00000097H   SFRSYM    DATA     BYTE      AUXR2
      000000EAH   SFRSYM    DATA     BYTE      CKCON
      000000EFH   SFRSYM    DATA     BYTE      AUXINTIF
      000000FDH   SFRSYM    DATA     BYTE      S4CON
      000000ACH   SFRSYM    DATA     BYTE      S3CON
      0000009AH   SFRSYM    DATA     BYTE      S2CON
      000000B7H   SFRSYM    DATA     BYTE      IPH
      000000CDH   SFRSYM    DATA     BYTE      SPSTAT
      000000DDH   SFRSYM    DATA     BYTE      T4T3M
      000000C1H   SFRSYM    DATA     BYTE      WDT_CONTR
      00000088H.6 SFRSYM    DATA     BIT       TR1
      000000D3H   SFRSYM    DATA     BYTE      T4L
      000000D5H   SFRSYM    DATA     BYTE      T3L
      000000D7H   SFRSYM    DATA     BYTE      T2L
      0000008BH   SFRSYM    DATA     BYTE      TL1
      000000D2H   SFRSYM    DATA     BYTE      T4H
      000000D4H   SFRSYM    DATA     BYTE      T3H
      000000D6H   SFRSYM    DATA     BYTE      T2H
      0000008DH   SFRSYM    DATA     BYTE      TH1
      000000DFH   SFRSYM    DATA     BYTE      IP3
      000000F4H   SFRSYM    DATA     BYTE      USBCON
      000000B5H   SFRSYM    DATA     BYTE      IP2
      000000FFH   SFRSYM    DATA     BYTE      RSTCFG
      000000E0H   SFRSYM    DATA     BYTE      ACC
      000000C7H   SFRSYM    DATA     BYTE      IAP_CONTR
      000000F9H   SFRSYM    DATA     BYTE      LINICR
      0000008EH   SFRSYM    DATA     BYTE      AUXR
      000000F0H   SFRSYM    DATA     BYTE      B
      000000AFH   SFRSYM    DATA     BYTE      IE2
      00000088H   SFRSYM    DATA     BYTE      TCON
      00000089H   SFRSYM    DATA     BYTE      TMOD
      00000098H   SFRSYM    DATA     BYTE      SCON
      00000087H   SFRSYM    DATA     BYTE      PCON
      000000BCH   SFRSYM    DATA     BYTE      ADC_CONTR
      000000D1H   SFRSYM    DATA     BYTE      PSW1
      000000E7H   SFRSYM    DATA     BYTE      CMPCR2
      000000E6H   SFRSYM    DATA     BYTE      CMPCR1
      000000DEH   SFRSYM    DATA     BYTE      ADCCFG
      000000B8H   SFRSYM    DATA     BYTE      IP
      0000008FH   SFRSYM    DATA     BYTE      INTCLKO
      000000EEH   SFRSYM    DATA     BYTE      IP3H
      000000B6H   SFRSYM    DATA     BYTE      IP2H
      000000BFH   SFRSYM    DATA     BYTE      P_SW4
      000000A8H   SFRSYM    DATA     BYTE      IE
      000000BBH   SFRSYM    DATA     BYTE      P_SW3
      000000BAH   SFRSYM    DATA     BYTE      P_SW2
      000000A2H   SFRSYM    DATA     BYTE      P_SW1
      000000CEH   SFRSYM    DATA     BYTE      SPCTL
      000000F8H   SFRSYM    DATA     BYTE      P7
L251 LINKER/LOCATER V4.66.93.0                                                        05/01/2026  15:28:45  PAGE 107


      000000E8H   SFRSYM    DATA     BYTE      P6
      000000C8H   SFRSYM    DATA     BYTE      P5
      000000C0H   SFRSYM    DATA     BYTE      P4
      000000ABH   SFRSYM    DATA     BYTE      WKTCH
      000000B0H   SFRSYM    DATA     BYTE      P3
      000000A0H   SFRSYM    DATA     BYTE      P2
      00000090H   SFRSYM    DATA     BYTE      P1
      00000080H   SFRSYM    DATA     BYTE      P0
      00FE67B2H   SYMBOL    HCONST   ---       ?tpl?0001
      00FE67F2H   SYMBOL    HCONST   ---       ?tpl?0002

      00FCCD6CH   BLOCK     ECODE    ---       LVL=0
      000116AFH   SYMBOL    XDATA    INT       uart_n
      000116B1H   SYMBOL    XDATA    ---       buff
      000116B5H   SYMBOL    XDATA    WORD      len
      00FCCD82H   BLOCK     ECODE    NEAR LAB  LVL=1
      000116B7H   SYMBOL    XDATA    ---       tmp_buff
      000116F7H   SYMBOL    XDATA    WORD      tmp_len
      ---         BLOCKEND  ---      ---       LVL=1
      00FCCD6CH   LINE      ECODE    ---       #190
      00FCCD82H   LINE      ECODE    ---       #191
      00FCCD82H   LINE      ECODE    ---       #195
      00FCCD98H   LINE      ECODE    ---       #196
      00FCCDA0H   LINE      ECODE    ---       #197
      00FCCDA3H   LINE      ECODE    ---       #199
      00FCCDC3H   LINE      ECODE    ---       #200
      00FCCDE3H   LINE      ECODE    ---       #201
      00FCCDF4H   LINE      ECODE    ---       #202
      00FCCE0DH   LINE      ECODE    ---       #204
      00FCCE65H   LINE      ECODE    ---       #205
      00FCCEBDH   LINE      ECODE    ---       #207
      00FCCF21H   LINE      ECODE    ---       #208
      00FCCF86H   LINE      ECODE    ---       #209
      00FCCFE6H   LINE      ECODE    ---       #210
      00FCD042H   LINE      ECODE    ---       #211
      00FCD09BH   LINE      ECODE    ---       #213
      00FCD0F4H   LINE      ECODE    ---       #215
      00FCD14CH   LINE      ECODE    ---       #216
      00FCD15BH   LINE      ECODE    ---       #217
      ---         BLOCKEND  ---      ---       LVL=0

      00FCD15CH   BLOCK     ECODE    ---       LVL=0
      000127E0H   SYMBOL    XDATA    INT       uart_n
      000127E2H   SYMBOL    XDATA    ---       str
      00FCD16CH   BLOCK     ECODE    NEAR LAB  LVL=1
      000127E6H   SYMBOL    XDATA    WORD      len
      ---         BLOCKEND  ---      ---       LVL=1
      00FCD15CH   LINE      ECODE    ---       #225
      00FCD16CH   LINE      ECODE    ---       #226
      00FCD16CH   LINE      ECODE    ---       #227
      00FCD180H   LINE      ECODE    ---       #228
      00FCD19AH   LINE      ECODE    ---       #229
      ---         BLOCKEND  ---      ---       LVL=0

      00FCD19BH   BLOCK     ECODE    ---       LVL=0
      00012AA5H   SYMBOL    XDATA    INT       uart_n
      00012AA7H   SYMBOL    XDATA    BYTE      dat
      00FCD19BH   LINE      ECODE    ---       #238
      00FCD1A5H   LINE      ECODE    ---       #240
      00FCD1BBH   LINE      ECODE    ---       #241
      ---         BLOCKEND  ---      ---       LVL=0

      00FCD1BCH   BLOCK     ECODE    ---       LVL=0
      00012AD2H   SYMBOL    XDATA    INT       uart_n
      00FCD1BCH   LINE      ECODE    ---       #249
L251 LINKER/LOCATER V4.66.93.0                                                        05/01/2026  15:28:45  PAGE 108


      00FCD1C2H   LINE      ECODE    ---       #251
      00FCD21AH   LINE      ECODE    ---       #252
      00FCD270H   LINE      ECODE    ---       #253
      00FCD2D4H   LINE      ECODE    ---       #254
      00FCD33CH   LINE      ECODE    ---       #255
      00FCD395H   LINE      ECODE    ---       #256
      ---         BLOCKEND  ---      ---       LVL=0

      00FCD396H   BLOCK     ECODE    ---       LVL=0
      00012876H   SYMBOL    XDATA    INT       uart_n
      00012878H   SYMBOL    XDATA    BYTE      status
      00012879H   SYMBOL    XDATA    ---       callback_handler
      00FCD396H   LINE      ECODE    ---       #265
      00FCD3AAH   LINE      ECODE    ---       #267
      00FCD3B3H   LINE      ECODE    ---       #269
      00FCD411H   LINE      ECODE    ---       #270
      00FCD413H   LINE      ECODE    ---       #273
      00FCD471H   LINE      ECODE    ---       #274
      00FCD471H   LINE      ECODE    ---       #276
      00FCD498H   LINE      ECODE    ---       #277
      ---         BLOCKEND  ---      ---       LVL=0

      00FCD499H   BLOCK     ECODE    ---       LVL=0
      00012AA8H   SYMBOL    XDATA    INT       uart_n
      00FCD49FH   BLOCK     ECODE    NEAR LAB  LVL=1
      00012AAAH   SYMBOL    XDATA    BYTE      dat
      ---         BLOCKEND  ---      ---       LVL=1
      00FCD499H   LINE      ECODE    ---       #286
      00FCD49FH   LINE      ECODE    ---       #287
      00FCD49FH   LINE      ECODE    ---       #291
      00FCD4FEH   LINE      ECODE    ---       #294
      00FCD515H   LINE      ECODE    ---       #297
      00FCD56DH   LINE      ECODE    ---       #300
      00FCD577H   LINE      ECODE    ---       #301
      00FCD57BH   LINE      ECODE    ---       #302
      ---         BLOCKEND  ---      ---       LVL=0

      00FCD57CH   BLOCK     ECODE    ---       LVL=0
      0001287DH   SYMBOL    XDATA    INT       uart_n
      0001287FH   SYMBOL    XDATA    ---       dat
      00FCD58CH   BLOCK     ECODE    NEAR LAB  LVL=1
      00012883H   SYMBOL    XDATA    BYTE      ret
      ---         BLOCKEND  ---      ---       LVL=1
      00FCD57CH   LINE      ECODE    ---       #311
      00FCD58CH   LINE      ECODE    ---       #312
      00FCD58CH   LINE      ECODE    ---       #313
      00FCD591H   LINE      ECODE    ---       #316
      00FCD5B1H   LINE      ECODE    ---       #318
      00FCD610H   LINE      ECODE    ---       #320
      00FCD616H   LINE      ECODE    ---       #322
      00FCD674H   LINE      ECODE    ---       #323
      00FCD676H   LINE      ECODE    ---       #326
      00FCD67BH   LINE      ECODE    ---       #327
      00FCD67BH   LINE      ECODE    ---       #330
      00FCD685H   LINE      ECODE    ---       #332
      00FCD689H   LINE      ECODE    ---       #333
      ---         BLOCKEND  ---      ---       LVL=0

      00FCD68AH   BLOCK     ECODE    ---       LVL=0
      00012AD4H   SYMBOL    XDATA    INT       uart_n
      00FCD68AH   LINE      ECODE    ---       #341
      00FCD690H   LINE      ECODE    ---       #343
      00FCD6E8H   LINE      ECODE    ---       #344
      00FCD740H   LINE      ECODE    ---       #345
      00FCD798H   LINE      ECODE    ---       #347
L251 LINKER/LOCATER V4.66.93.0                                                        05/01/2026  15:28:45  PAGE 109


      00FCD7F0H   LINE      ECODE    ---       #348
      00FCD848H   LINE      ECODE    ---       #349
      00FCD8A0H   LINE      ECODE    ---       #351
      00FCD8F8H   LINE      ECODE    ---       #352
      00FCD94EH   LINE      ECODE    ---       #353
      00FCD9B2H   LINE      ECODE    ---       #354
      00FCDA1AH   LINE      ECODE    ---       #355
      00FCDA73H   LINE      ECODE    ---       #356
      00FCDACCH   LINE      ECODE    ---       #358
      ---         BLOCKEND  ---      ---       LVL=0

      00FCDACDH   BLOCK     ECODE    ---       LVL=0
      0001236CH   SYMBOL    XDATA    INT       uart_n
      0001236EH   SYMBOL    XDATA    DWORD     baud
      00012372H   SYMBOL    XDATA    INT       tx_pin
      00012374H   SYMBOL    XDATA    INT       rx_pin
      00012376H   SYMBOL    XDATA    INT       tim_n
      00FCDAE3H   BLOCK     ECODE    NEAR LAB  LVL=1
      00012378H   SYMBOL    XDATA    WORD      brt
      ---         BLOCKEND  ---      ---       LVL=1
      00FCDACDH   LINE      ECODE    ---       #370
      00FCDAE3H   LINE      ECODE    ---       #371
      00FCDAE3H   LINE      ECODE    ---       #378
      00FCDB01H   LINE      ECODE    ---       #383
      00FCDB38H   LINE      ECODE    ---       #388
      00FCDB6FH   LINE      ECODE    ---       #389
      00FCDBA6H   LINE      ECODE    ---       #392
      00FCDBC0H   LINE      ECODE    ---       #393
      00FCDBD8H   LINE      ECODE    ---       #395
      00FCDC0EH   LINE      ECODE    ---       #397
      00FCDC3DH   LINE      ECODE    ---       #399
      00FCDC3DH   LINE      ECODE    ---       #401
      00FCDC4BH   LINE      ECODE    ---       #403
      00FCDC4EH   LINE      ECODE    ---       #404
      00FCDC51H   LINE      ECODE    ---       #405
      00FCDC59H   LINE      ECODE    ---       #406
      00FCDC65H   LINE      ECODE    ---       #407
      00FCDC68H   LINE      ECODE    ---       #408
      00FCDC6BH   LINE      ECODE    ---       #409
      00FCDC6DH   LINE      ECODE    ---       #410
      00FCDC7BH   LINE      ECODE    ---       #412
      00FCDC7EH   LINE      ECODE    ---       #413
      00FCDC86H   LINE      ECODE    ---       #414
      00FCDC92H   LINE      ECODE    ---       #415
      00FCDC95H   LINE      ECODE    ---       #416
      00FCDC95H   LINE      ECODE    ---       #418
      00FCDC98H   LINE      ECODE    ---       #420
      00FCDCB4H   LINE      ECODE    ---       #422
      00FCDCB8H   LINE      ECODE    ---       #423
      00FCDCBBH   LINE      ECODE    ---       #424
      00FCDCD7H   LINE      ECODE    ---       #426
      00FCDCDAH   LINE      ECODE    ---       #427
      00FCDCDDH   LINE      ECODE    ---       #428
      00FCDCF9H   LINE      ECODE    ---       #430
      00FCDCFCH   LINE      ECODE    ---       #431
      00FCDCFFH   LINE      ECODE    ---       #432
      00FCDD21H   LINE      ECODE    ---       #434
      00FCDD24H   LINE      ECODE    ---       #435
      00FCDD24H   LINE      ECODE    ---       #438
      00FCDD27H   LINE      ECODE    ---       #441
      00FCDD27H   LINE      ECODE    ---       #443
      00FCDD35H   LINE      ECODE    ---       #445
      00FCDD38H   LINE      ECODE    ---       #446
      00FCDD40H   LINE      ECODE    ---       #447
      00FCDD4CH   LINE      ECODE    ---       #448
L251 LINKER/LOCATER V4.66.93.0                                                        05/01/2026  15:28:45  PAGE 110


      00FCDD4FH   LINE      ECODE    ---       #449
      00FCDD4FH   LINE      ECODE    ---       #451
      00FCDD52H   LINE      ECODE    ---       #452
      00FCDD64H   LINE      ECODE    ---       #453
      00FCDD80H   LINE      ECODE    ---       #455
      00FCDD84H   LINE      ECODE    ---       #456
      00FCDD92H   LINE      ECODE    ---       #457
      00FCDD95H   LINE      ECODE    ---       #458
      00FCDDB1H   LINE      ECODE    ---       #460
      00FCDDB4H   LINE      ECODE    ---       #461
      00FCDDC2H   LINE      ECODE    ---       #462
      00FCDDC5H   LINE      ECODE    ---       #463
      00FCDDE1H   LINE      ECODE    ---       #465
      00FCDDE5H   LINE      ECODE    ---       #466
      00FCDDF7H   LINE      ECODE    ---       #467
      00FCDDFAH   LINE      ECODE    ---       #468
      00FCDE1CH   LINE      ECODE    ---       #470
      00FCDE1FH   LINE      ECODE    ---       #471
      00FCDE31H   LINE      ECODE    ---       #472
      00FCDE31H   LINE      ECODE    ---       #475
      00FCDE34H   LINE      ECODE    ---       #478
      00FCDE34H   LINE      ECODE    ---       #480
      00FCDE42H   LINE      ECODE    ---       #482
      00FCDE4AH   LINE      ECODE    ---       #483
      00FCDE56H   LINE      ECODE    ---       #484
      00FCDE59H   LINE      ECODE    ---       #485
      00FCDE5BH   LINE      ECODE    ---       #486
      00FCDE69H   LINE      ECODE    ---       #488
      00FCDE71H   LINE      ECODE    ---       #489
      00FCDE7DH   LINE      ECODE    ---       #490
      00FCDE80H   LINE      ECODE    ---       #491
      00FCDE80H   LINE      ECODE    ---       #493
      00FCDE83H   LINE      ECODE    ---       #494
      00FCDE86H   LINE      ECODE    ---       #495
      00FCDE98H   LINE      ECODE    ---       #497
      00FCDEB4H   LINE      ECODE    ---       #499
      00FCDEB8H   LINE      ECODE    ---       #500
      00FCDEC6H   LINE      ECODE    ---       #501
      00FCDEC9H   LINE      ECODE    ---       #502
      00FCDEE5H   LINE      ECODE    ---       #504
      00FCDEE8H   LINE      ECODE    ---       #505
      00FCDEF6H   LINE      ECODE    ---       #506
      00FCDEF9H   LINE      ECODE    ---       #507
      00FCDF15H   LINE      ECODE    ---       #509
      00FCDF19H   LINE      ECODE    ---       #510
      00FCDF2BH   LINE      ECODE    ---       #511
      00FCDF2EH   LINE      ECODE    ---       #512
      00FCDF50H   LINE      ECODE    ---       #514
      00FCDF53H   LINE      ECODE    ---       #515
      00FCDF65H   LINE      ECODE    ---       #516
      00FCDF65H   LINE      ECODE    ---       #519
      00FCDF68H   LINE      ECODE    ---       #522
      00FCDF68H   LINE      ECODE    ---       #524
      00FCDF76H   LINE      ECODE    ---       #526
      00FCDF7EH   LINE      ECODE    ---       #527
      00FCDF8AH   LINE      ECODE    ---       #528
      00FCDF8DH   LINE      ECODE    ---       #530
      00FCDF9FH   LINE      ECODE    ---       #531
      00FCDFA1H   LINE      ECODE    ---       #532
      00FCDFAFH   LINE      ECODE    ---       #534
      00FCDFB7H   LINE      ECODE    ---       #535
      00FCDFC3H   LINE      ECODE    ---       #536
      00FCDFC6H   LINE      ECODE    ---       #538
      00FCDFD8H   LINE      ECODE    ---       #539
      00FCDFD8H   LINE      ECODE    ---       #540
L251 LINKER/LOCATER V4.66.93.0                                                        05/01/2026  15:28:45  PAGE 111


      00FCDFDBH   LINE      ECODE    ---       #541
      00FCDFDEH   LINE      ECODE    ---       #542
      00FCDFF0H   LINE      ECODE    ---       #543
      00FCE00CH   LINE      ECODE    ---       #545
      00FCE010H   LINE      ECODE    ---       #546
      00FCE01EH   LINE      ECODE    ---       #547
      00FCE021H   LINE      ECODE    ---       #548
      00FCE03DH   LINE      ECODE    ---       #550
      00FCE040H   LINE      ECODE    ---       #551
      00FCE04EH   LINE      ECODE    ---       #552
      00FCE051H   LINE      ECODE    ---       #553
      00FCE06DH   LINE      ECODE    ---       #555
      00FCE071H   LINE      ECODE    ---       #556
      00FCE083H   LINE      ECODE    ---       #557
      00FCE086H   LINE      ECODE    ---       #558
      00FCE0A8H   LINE      ECODE    ---       #560
      00FCE0ABH   LINE      ECODE    ---       #561
      00FCE0BDH   LINE      ECODE    ---       #562
      00FCE0BDH   LINE      ECODE    ---       #566
      00FCE0C0H   LINE      ECODE    ---       #569
      00FCE0C0H   LINE      ECODE    ---       #572
      00FCE0CEH   LINE      ECODE    ---       #574
      00FCE0D6H   LINE      ECODE    ---       #575
      00FCE0E2H   LINE      ECODE    ---       #576
      00FCE0E5H   LINE      ECODE    ---       #577
      00FCE0F7H   LINE      ECODE    ---       #578
      00FCE0F9H   LINE      ECODE    ---       #579
      00FCE107H   LINE      ECODE    ---       #581
      00FCE118H   LINE      ECODE    ---       #582
      00FCE12DH   LINE      ECODE    ---       #583
      00FCE13FH   LINE      ECODE    ---       #584
      00FCE151H   LINE      ECODE    ---       #585
      00FCE151H   LINE      ECODE    ---       #587
      00FCE163H   LINE      ECODE    ---       #588
      00FCE175H   LINE      ECODE    ---       #590
      00FCE191H   LINE      ECODE    ---       #592
      00FCE19FH   LINE      ECODE    ---       #593
      00FCE1A2H   LINE      ECODE    ---       #594
      00FCE1BEH   LINE      ECODE    ---       #596
      00FCE1D0H   LINE      ECODE    ---       #597
      00FCE1D3H   LINE      ECODE    ---       #598
      00FCE1EFH   LINE      ECODE    ---       #600
      00FCE201H   LINE      ECODE    ---       #601
      00FCE204H   LINE      ECODE    ---       #602
      00FCE226H   LINE      ECODE    ---       #604
      00FCE238H   LINE      ECODE    ---       #605
      00FCE238H   LINE      ECODE    ---       #606
      00FCE23BH   LINE      ECODE    ---       #609
      00FCE23BH   LINE      ECODE    ---       #611
      00FCE249H   LINE      ECODE    ---       #613
      00FCE251H   LINE      ECODE    ---       #614
      00FCE25DH   LINE      ECODE    ---       #615
      00FCE260H   LINE      ECODE    ---       #616
      00FCE272H   LINE      ECODE    ---       #617
      00FCE274H   LINE      ECODE    ---       #618
      00FCE282H   LINE      ECODE    ---       #620
      00FCE293H   LINE      ECODE    ---       #621
      00FCE2A8H   LINE      ECODE    ---       #622
      00FCE2BAH   LINE      ECODE    ---       #623
      00FCE2CCH   LINE      ECODE    ---       #624
      00FCE2CCH   LINE      ECODE    ---       #626
      00FCE2DEH   LINE      ECODE    ---       #627
      00FCE2F0H   LINE      ECODE    ---       #629
      00FCE30CH   LINE      ECODE    ---       #631
      00FCE31AH   LINE      ECODE    ---       #632
L251 LINKER/LOCATER V4.66.93.0                                                        05/01/2026  15:28:45  PAGE 112


      00FCE31DH   LINE      ECODE    ---       #633
      00FCE339H   LINE      ECODE    ---       #635
      00FCE34BH   LINE      ECODE    ---       #636
      00FCE34EH   LINE      ECODE    ---       #637
      00FCE36AH   LINE      ECODE    ---       #639
      00FCE37CH   LINE      ECODE    ---       #640
      00FCE37FH   LINE      ECODE    ---       #641
      00FCE3A1H   LINE      ECODE    ---       #643
      00FCE3B3H   LINE      ECODE    ---       #644
      00FCE3B3H   LINE      ECODE    ---       #645
      00FCE3B6H   LINE      ECODE    ---       #648
      00FCE3B6H   LINE      ECODE    ---       #651
      00FCE3C4H   LINE      ECODE    ---       #653
      00FCE3CCH   LINE      ECODE    ---       #654
      00FCE3D8H   LINE      ECODE    ---       #655
      00FCE3DBH   LINE      ECODE    ---       #656
      00FCE3EDH   LINE      ECODE    ---       #657
      00FCE3EFH   LINE      ECODE    ---       #658
      00FCE3FDH   LINE      ECODE    ---       #660
      00FCE40EH   LINE      ECODE    ---       #661
      00FCE423H   LINE      ECODE    ---       #662
      00FCE435H   LINE      ECODE    ---       #663
      00FCE447H   LINE      ECODE    ---       #664
      00FCE447H   LINE      ECODE    ---       #666
      00FCE459H   LINE      ECODE    ---       #667
      00FCE46BH   LINE      ECODE    ---       #668
      00FCE487H   LINE      ECODE    ---       #670
      00FCE495H   LINE      ECODE    ---       #671
      00FCE498H   LINE      ECODE    ---       #672
      00FCE4B4H   LINE      ECODE    ---       #674
      00FCE4C6H   LINE      ECODE    ---       #675
      00FCE4C9H   LINE      ECODE    ---       #676
      00FCE4E5H   LINE      ECODE    ---       #678
      00FCE4F7H   LINE      ECODE    ---       #679
      00FCE4FAH   LINE      ECODE    ---       #680
      00FCE51CH   LINE      ECODE    ---       #682
      00FCE52EH   LINE      ECODE    ---       #683
      00FCE52EH   LINE      ECODE    ---       #684
      00FCE531H   LINE      ECODE    ---       #687
      00FCE531H   LINE      ECODE    ---       #689
      00FCE53FH   LINE      ECODE    ---       #691
      00FCE547H   LINE      ECODE    ---       #692
      00FCE553H   LINE      ECODE    ---       #693
      00FCE556H   LINE      ECODE    ---       #694
      00FCE568H   LINE      ECODE    ---       #695
      00FCE56AH   LINE      ECODE    ---       #696
      00FCE578H   LINE      ECODE    ---       #698
      00FCE589H   LINE      ECODE    ---       #699
      00FCE59EH   LINE      ECODE    ---       #700
      00FCE5B0H   LINE      ECODE    ---       #701
      00FCE5C2H   LINE      ECODE    ---       #702
      00FCE5C2H   LINE      ECODE    ---       #704
      00FCE5D4H   LINE      ECODE    ---       #705
      00FCE5E6H   LINE      ECODE    ---       #706
      00FCE602H   LINE      ECODE    ---       #708
      00FCE610H   LINE      ECODE    ---       #709
      00FCE613H   LINE      ECODE    ---       #710
      00FCE62FH   LINE      ECODE    ---       #712
      00FCE641H   LINE      ECODE    ---       #713
      00FCE643H   LINE      ECODE    ---       #714
      00FCE65FH   LINE      ECODE    ---       #716
      00FCE671H   LINE      ECODE    ---       #717
      00FCE673H   LINE      ECODE    ---       #718
      00FCE68FH   LINE      ECODE    ---       #720
      00FCE6A1H   LINE      ECODE    ---       #721
L251 LINKER/LOCATER V4.66.93.0                                                        05/01/2026  15:28:45  PAGE 113


      00FCE6A1H   LINE      ECODE    ---       #722
      00FCE6A1H   LINE      ECODE    ---       #724
      00FCE6A1H   LINE      ECODE    ---       #727
      00FCE6ABH   LINE      ECODE    ---       #729
      ---         BLOCKEND  ---      ---       LVL=0

      00FCE6ACH   BLOCK     ECODE    ---       LVL=0
      000120D2H   SYMBOL    XDATA    INT       uart_n
      000120D4H   SYMBOL    XDATA    DWORD     baud
      000120D8H   SYMBOL    XDATA    INT       tx_pin
      000120DAH   SYMBOL    XDATA    INT       rx_pin
      00FCE6C2H   BLOCK     ECODE    NEAR LAB  LVL=1
      000120DCH   SYMBOL    XDATA    ---       tim_index_map
      000120E4H   SYMBOL    XDATA    BYTE      tim_index
      ---         BLOCKEND  ---      ---       LVL=1
      00FCE6ACH   LINE      ECODE    ---       #731
      00FCE6C2H   LINE      ECODE    ---       #732
      00FCE6C2H   LINE      ECODE    ---       #734
      00FCE6D8H   LINE      ECODE    ---       #736
      00FCE6EFH   LINE      ECODE    ---       #739
      00FCE71EH   LINE      ECODE    ---       #741
      00FCE750H   LINE      ECODE    ---       #742
      ---         BLOCKEND  ---      ---       LVL=0

      ---         MODULE    ---      ---       zf_driver_usb_cdc
      00FCFE64H   PUBLIC    ECODE    ---       usb_cdc_write_buffer?
      00FCFF94H   PUBLIC    ECODE    ---       usb_cdc_write_string?
      00FCFE5FH   PUBLIC    ECODE    ---       usb_cdc_init?
      00FCFFC7H   PUBLIC    ECODE    ---       usb_cdc_rx_interrupt?
      00FCFF7FH   PUBLIC    ECODE    ---       usb_cdc_write_byte?
      00012A2FH   PUBLIC    XDATA    ---       usb_cdc_read_buffer_handler
      000000D0H   SFRSYM    DATA     BYTE      PSW
      0000009DH   SFRSYM    DATA     BYTE      IRCBAND
      00000097H   SFRSYM    DATA     BYTE      AUXR2
      000000EAH   SFRSYM    DATA     BYTE      CKCON
      000000EFH   SFRSYM    DATA     BYTE      AUXINTIF
      000000FDH   SFRSYM    DATA     BYTE      S4CON
      000000ACH   SFRSYM    DATA     BYTE      S3CON
      0000009AH   SFRSYM    DATA     BYTE      S2CON
      000000B7H   SFRSYM    DATA     BYTE      IPH
      000000CDH   SFRSYM    DATA     BYTE      SPSTAT
      000000DDH   SFRSYM    DATA     BYTE      T4T3M
      000000C1H   SFRSYM    DATA     BYTE      WDT_CONTR
      000000DFH   SFRSYM    DATA     BYTE      IP3
      000000F4H   SFRSYM    DATA     BYTE      USBCON
      000000B5H   SFRSYM    DATA     BYTE      IP2
      000000FFH   SFRSYM    DATA     BYTE      RSTCFG
      000000E0H   SFRSYM    DATA     BYTE      ACC
      000000C7H   SFRSYM    DATA     BYTE      IAP_CONTR
      000000F9H   SFRSYM    DATA     BYTE      LINICR
      0000008EH   SFRSYM    DATA     BYTE      AUXR
      000000F0H   SFRSYM    DATA     BYTE      B
      000000AFH   SFRSYM    DATA     BYTE      IE2
      00000088H   SFRSYM    DATA     BYTE      TCON
      00000089H   SFRSYM    DATA     BYTE      TMOD
      00000098H   SFRSYM    DATA     BYTE      SCON
      00000087H   SFRSYM    DATA     BYTE      PCON
      000000BCH   SFRSYM    DATA     BYTE      ADC_CONTR
      000000AFH.7 SFRSYM    DATA     BIT       EUSB
      000000D1H   SFRSYM    DATA     BYTE      PSW1
      000000E7H   SFRSYM    DATA     BYTE      CMPCR2
      000000E6H   SFRSYM    DATA     BYTE      CMPCR1
      000000DEH   SFRSYM    DATA     BYTE      ADCCFG
      000000B8H   SFRSYM    DATA     BYTE      IP
      0000008FH   SFRSYM    DATA     BYTE      INTCLKO
L251 LINKER/LOCATER V4.66.93.0                                                        05/01/2026  15:28:45  PAGE 114


      000000EEH   SFRSYM    DATA     BYTE      IP3H
      000000B6H   SFRSYM    DATA     BYTE      IP2H
      000000BFH   SFRSYM    DATA     BYTE      P_SW4
      000000A8H   SFRSYM    DATA     BYTE      IE
      000000BBH   SFRSYM    DATA     BYTE      P_SW3
      000000BAH   SFRSYM    DATA     BYTE      P_SW2
      000000A2H   SFRSYM    DATA     BYTE      P_SW1
      000000CEH   SFRSYM    DATA     BYTE      SPCTL
      000000F8H   SFRSYM    DATA     BYTE      P7
      000000E8H   SFRSYM    DATA     BYTE      P6
      000000C8H   SFRSYM    DATA     BYTE      P5
      000000C0H   SFRSYM    DATA     BYTE      P4
      000000ABH   SFRSYM    DATA     BYTE      WKTCH
      000000B0H   SFRSYM    DATA     BYTE      P3
      000000A0H   SFRSYM    DATA     BYTE      P2
      00000090H   SFRSYM    DATA     BYTE      P1
      00000080H   SFRSYM    DATA     BYTE      P0

      00FCFE5FH   BLOCK     ECODE    ---       LVL=0
      00FCFE5FH   LINE      ECODE    ---       #45
      00FCFE5FH   LINE      ECODE    ---       #47
      00FCFE63H   LINE      ECODE    ---       #48
      ---         BLOCKEND  ---      ---       LVL=0

      00FCFE64H   BLOCK     ECODE    ---       LVL=0
      000124A1H   SYMBOL    XDATA    ---       buff
      000124A5H   SYMBOL    XDATA    WORD      len
      00FCFE74H   BLOCK     ECODE    NEAR LAB  LVL=1
      000124A7H   SYMBOL    XDATA    LONG      timeout
      000124ABH   SYMBOL    XDATA    BYTE      tmp_len
      000124ACH   SYMBOL    XDATA    BYTE      idx
      ---         BLOCKEND  ---      ---       LVL=1
      00FCFE64H   LINE      ECODE    ---       #52
      00FCFE74H   LINE      ECODE    ---       #53
      00FCFE74H   LINE      ECODE    ---       #54
      00FCFE82H   LINE      ECODE    ---       #55
      00FCFE87H   LINE      ECODE    ---       #56
      00FCFE8CH   LINE      ECODE    ---       #59
      00FCFE95H   LINE      ECODE    ---       #60
      00FCFE9EH   LINE      ECODE    ---       #62
      00FCFEA1H   LINE      ECODE    ---       #64
      00FCFEAFH   LINE      ECODE    ---       #65
      00FCFECBH   LINE      ECODE    ---       #67
      00FCFECEH   LINE      ECODE    ---       #69
      00FCFED2H   LINE      ECODE    ---       #71
      00FCFEDBH   LINE      ECODE    ---       #74
      00FCFEE2H   LINE      ECODE    ---       #76
      00FCFEFEH   LINE      ECODE    ---       #77
      00FCFF17H   LINE      ECODE    ---       #80
      00FCFF20H   LINE      ECODE    ---       #82
      00FCFF24H   LINE      ECODE    ---       #85
      00FCFF44H   LINE      ECODE    ---       #88
      00FCFF54H   LINE      ECODE    ---       #90
      00FCFF5CH   LINE      ECODE    ---       #91
      00FCFF5CH   LINE      ECODE    ---       #94
      00FCFF6DH   LINE      ECODE    ---       #95
      00FCFF6DH   LINE      ECODE    ---       #96
      00FCFF7CH   LINE      ECODE    ---       #98
      00FCFF7EH   LINE      ECODE    ---       #99
      ---         BLOCKEND  ---      ---       LVL=0

      00FCFF7FH   BLOCK     ECODE    ---       LVL=0
      00012AFEH   SYMBOL    XDATA    BYTE      dat
      00FCFF7FH   LINE      ECODE    ---       #101
      00FCFF83H   LINE      ECODE    ---       #103
L251 LINKER/LOCATER V4.66.93.0                                                        05/01/2026  15:28:45  PAGE 115


      00FCFF93H   LINE      ECODE    ---       #104
      ---         BLOCKEND  ---      ---       LVL=0

      00FCFF94H   BLOCK     ECODE    ---       LVL=0
      00012915H   SYMBOL    XDATA    ---       str
      00FCFF9EH   BLOCK     ECODE    NEAR LAB  LVL=1
      00012919H   SYMBOL    XDATA    WORD      len
      ---         BLOCKEND  ---      ---       LVL=1
      00FCFF94H   LINE      ECODE    ---       #106
      00FCFF9EH   LINE      ECODE    ---       #107
      00FCFF9EH   LINE      ECODE    ---       #108
      00FCFFB2H   LINE      ECODE    ---       #109
      00FCFFC6H   LINE      ECODE    ---       #110
      ---         BLOCKEND  ---      ---       LVL=0

      00FCFFC7H   BLOCK     ECODE    ---       LVL=0
      00012A33H   SYMBOL    XDATA    ---       handler
      00FCFFC7H   LINE      ECODE    ---       #115
      00FCFFD1H   LINE      ECODE    ---       #118
      00FCFFE5H   LINE      ECODE    ---       #119
      ---         BLOCKEND  ---      ---       LVL=0

      ---         MODULE    ---      ---       zf_device_type
      00FE2B9AH   PUBLIC    ECODE    ---       set_tof_type?
      00FE2A74H   PUBLIC    ECODE    ---       set_camera_type?
      00FE2B15H   PUBLIC    ECODE    ---       set_wireless_type?
      00011E69H   PUBLIC    XDATA    INT       camera_type
      00011E6BH   PUBLIC    XDATA    ---       tof_module_exti_handler
      00011E6FH   PUBLIC    XDATA    INT       wireless_type
      00011E71H   PUBLIC    XDATA    ---       wireless_module_uart_handler
      00011E75H   PUBLIC    XDATA    ---       camera_dma_handler
      00011E79H   PUBLIC    XDATA    ---       camera_vsync_handler
      00011E7DH   PUBLIC    XDATA    ---       camera_uart_handler
      00011E81H   PUBLIC    XDATA    ---       wireless_module_spi_handler
      00011E85H   PUBLIC    XDATA    INT       tof_type
      0001237AH   PUBLIC    XDATA    BYTE      ?set_camera_type??BYTE
      000000D0H   SFRSYM    DATA     BYTE      PSW
      0000009DH   SFRSYM    DATA     BYTE      IRCBAND
      00000097H   SFRSYM    DATA     BYTE      AUXR2
      000000EAH   SFRSYM    DATA     BYTE      CKCON
      000000EFH   SFRSYM    DATA     BYTE      AUXINTIF
      000000FDH   SFRSYM    DATA     BYTE      S4CON
      000000ACH   SFRSYM    DATA     BYTE      S3CON
      0000009AH   SFRSYM    DATA     BYTE      S2CON
      000000B7H   SFRSYM    DATA     BYTE      IPH
      000000CDH   SFRSYM    DATA     BYTE      SPSTAT
      000000DDH   SFRSYM    DATA     BYTE      T4T3M
      000000C1H   SFRSYM    DATA     BYTE      WDT_CONTR
      000000DFH   SFRSYM    DATA     BYTE      IP3
      000000F4H   SFRSYM    DATA     BYTE      USBCON
      000000B5H   SFRSYM    DATA     BYTE      IP2
      000000FFH   SFRSYM    DATA     BYTE      RSTCFG
      000000E0H   SFRSYM    DATA     BYTE      ACC
      000000C7H   SFRSYM    DATA     BYTE      IAP_CONTR
      000000F9H   SFRSYM    DATA     BYTE      LINICR
      0000008EH   SFRSYM    DATA     BYTE      AUXR
      000000F0H   SFRSYM    DATA     BYTE      B
      000000AFH   SFRSYM    DATA     BYTE      IE2
      00000088H   SFRSYM    DATA     BYTE      TCON
      00000089H   SFRSYM    DATA     BYTE      TMOD
      00000098H   SFRSYM    DATA     BYTE      SCON
      00000087H   SFRSYM    DATA     BYTE      PCON
      000000BCH   SFRSYM    DATA     BYTE      ADC_CONTR
      000000D1H   SFRSYM    DATA     BYTE      PSW1
      000000E7H   SFRSYM    DATA     BYTE      CMPCR2
L251 LINKER/LOCATER V4.66.93.0                                                        05/01/2026  15:28:45  PAGE 116


      000000E6H   SFRSYM    DATA     BYTE      CMPCR1
      000000DEH   SFRSYM    DATA     BYTE      ADCCFG
      000000B8H   SFRSYM    DATA     BYTE      IP
      0000008FH   SFRSYM    DATA     BYTE      INTCLKO
      000000EEH   SFRSYM    DATA     BYTE      IP3H
      000000B6H   SFRSYM    DATA     BYTE      IP2H
      000000BFH   SFRSYM    DATA     BYTE      P_SW4
      000000A8H   SFRSYM    DATA     BYTE      IE
      000000BBH   SFRSYM    DATA     BYTE      P_SW3
      000000BAH   SFRSYM    DATA     BYTE      P_SW2
      000000A2H   SFRSYM    DATA     BYTE      P_SW1
      000000CEH   SFRSYM    DATA     BYTE      SPCTL
      000000F8H   SFRSYM    DATA     BYTE      P7
      000000E8H   SFRSYM    DATA     BYTE      P6
      000000C8H   SFRSYM    DATA     BYTE      P5
      000000C0H   SFRSYM    DATA     BYTE      P4
      000000ABH   SFRSYM    DATA     BYTE      WKTCH
      000000B0H   SFRSYM    DATA     BYTE      P3
      000000A0H   SFRSYM    DATA     BYTE      P2
      00000090H   SFRSYM    DATA     BYTE      P1
      00000080H   SFRSYM    DATA     BYTE      P0
      00FE2A73H   SYMBOL    ECODE    ---       type_default_callback?

      00FE2A73H   BLOCK     ECODE    ---       LVL=0
      00FE2A73H   LINE      ECODE    ---       #59
      00FE2A73H   LINE      ECODE    ---       #62
      ---         BLOCKEND  ---      ---       LVL=0

      00FE2A74H   BLOCK     ECODE    ---       LVL=0
      0001237AH   SYMBOL    XDATA    INT       type_set
      0001237CH   SYMBOL    XDATA    ---       vsync_callback
      00012380H   SYMBOL    XDATA    ---       dma_callback
      00012384H   SYMBOL    XDATA    ---       uart_callback
      00FE2A74H   LINE      ECODE    ---       #74
      00FE2A84H   LINE      ECODE    ---       #76
      00FE2A90H   LINE      ECODE    ---       #77
      00FE2ABCH   LINE      ECODE    ---       #78
      00FE2AE8H   LINE      ECODE    ---       #79
      00FE2B14H   LINE      ECODE    ---       #80
      ---         BLOCKEND  ---      ---       LVL=0

      00FE2B15H   BLOCK     ECODE    ---       LVL=0
      0001291BH   SYMBOL    XDATA    INT       type_set
      0001291DH   SYMBOL    XDATA    ---       wireless_callback
      00FE2B15H   LINE      ECODE    ---       #90
      00FE2B25H   LINE      ECODE    ---       #92
      00FE2B31H   LINE      ECODE    ---       #93
      00FE2B3FH   LINE      ECODE    ---       #95
      00FE2B6BH   LINE      ECODE    ---       #96
      00FE2B6DH   LINE      ECODE    ---       #99
      00FE2B99H   LINE      ECODE    ---       #100
      00FE2B99H   LINE      ECODE    ---       #101
      ---         BLOCKEND  ---      ---       LVL=0

      00FE2B9AH   BLOCK     ECODE    ---       LVL=0
      00012921H   SYMBOL    XDATA    INT       type_set
      00012923H   SYMBOL    XDATA    ---       exti_callback
      00FE2B9AH   LINE      ECODE    ---       #111
      00FE2BAAH   LINE      ECODE    ---       #113
      00FE2BB6H   LINE      ECODE    ---       #114
      00FE2BE2H   LINE      ECODE    ---       #115
      ---         BLOCKEND  ---      ---       LVL=0

      ---         MODULE    ---      ---       zf_device_mt9v03x
      00FE2770H   PUBLIC    ECODE    ---       mt9v03x_sccb_init?
L251 LINKER/LOCATER V4.66.93.0                                                        05/01/2026  15:28:45  PAGE 117


      00FE27BFH   PUBLIC    ECODE    ---       mt9v03x_init?
      00FE2736H   PUBLIC    ECODE    ---       mt9v03x_set_exposure_time?
      00FE274FH   PUBLIC    ECODE    ---       mt9v03x_set_reg?
      00FE6B76H   PUBLIC    HCONST   ---       mt9v03x_set_confing_buffer
      000000D0H   SFRSYM    DATA     BYTE      PSW
      0000009DH   SFRSYM    DATA     BYTE      IRCBAND
      00000097H   SFRSYM    DATA     BYTE      AUXR2
      000000EAH   SFRSYM    DATA     BYTE      CKCON
      000000EFH   SFRSYM    DATA     BYTE      AUXINTIF
      000000FDH   SFRSYM    DATA     BYTE      S4CON
      000000ACH   SFRSYM    DATA     BYTE      S3CON
      0000009AH   SFRSYM    DATA     BYTE      S2CON
      000000B7H   SFRSYM    DATA     BYTE      IPH
      000000CDH   SFRSYM    DATA     BYTE      SPSTAT
      000000DDH   SFRSYM    DATA     BYTE      T4T3M
      000000C1H   SFRSYM    DATA     BYTE      WDT_CONTR
      000000DFH   SFRSYM    DATA     BYTE      IP3
      000000F4H   SFRSYM    DATA     BYTE      USBCON
      000000B5H   SFRSYM    DATA     BYTE      IP2
      000000FFH   SFRSYM    DATA     BYTE      RSTCFG
      000000E0H   SFRSYM    DATA     BYTE      ACC
      000000C7H   SFRSYM    DATA     BYTE      IAP_CONTR
      000000F9H   SFRSYM    DATA     BYTE      LINICR
      0000008EH   SFRSYM    DATA     BYTE      AUXR
      000000F0H   SFRSYM    DATA     BYTE      B
      000000AFH   SFRSYM    DATA     BYTE      IE2
      00000088H   SFRSYM    DATA     BYTE      TCON
      00000089H   SFRSYM    DATA     BYTE      TMOD
      00000098H   SFRSYM    DATA     BYTE      SCON
      00000087H   SFRSYM    DATA     BYTE      PCON
      000000BCH   SFRSYM    DATA     BYTE      ADC_CONTR
      000000D1H   SFRSYM    DATA     BYTE      PSW1
      000000E7H   SFRSYM    DATA     BYTE      CMPCR2
      000000E6H   SFRSYM    DATA     BYTE      CMPCR1
      000000DEH   SFRSYM    DATA     BYTE      ADCCFG
      000000B8H   SFRSYM    DATA     BYTE      IP
      0000008FH   SFRSYM    DATA     BYTE      INTCLKO
      000000EEH   SFRSYM    DATA     BYTE      IP3H
      000000B6H   SFRSYM    DATA     BYTE      IP2H
      000000BFH   SFRSYM    DATA     BYTE      P_SW4
      000000A8H   SFRSYM    DATA     BYTE      IE
      000000BBH   SFRSYM    DATA     BYTE      P_SW3
      000000BAH   SFRSYM    DATA     BYTE      P_SW2
      000000A2H   SFRSYM    DATA     BYTE      P_SW1
      000000CEH   SFRSYM    DATA     BYTE      SPCTL
      000000F8H   SFRSYM    DATA     BYTE      P7
      000000E8H   SFRSYM    DATA     BYTE      P6
      000000C8H   SFRSYM    DATA     BYTE      P5
      000000C0H   SFRSYM    DATA     BYTE      P4
      000000ABH   SFRSYM    DATA     BYTE      WKTCH
      000000B0H   SFRSYM    DATA     BYTE      P3
      000000A0H   SFRSYM    DATA     BYTE      P2
      00000090H   SFRSYM    DATA     BYTE      P1
      00000080H   SFRSYM    DATA     BYTE      P0

      00FE2736H   BLOCK     ECODE    ---       LVL=0
      00012AABH   SYMBOL    XDATA    WORD      light
      00FE273CH   BLOCK     ECODE    NEAR LAB  LVL=1
      00012AADH   SYMBOL    XDATA    BYTE      return_state
      ---         BLOCKEND  ---      ---       LVL=1
      00FE2736H   LINE      ECODE    ---       #80
      00FE273CH   LINE      ECODE    ---       #81
      00FE273CH   LINE      ECODE    ---       #82
      00FE274AH   LINE      ECODE    ---       #83
      00FE274EH   LINE      ECODE    ---       #84
L251 LINKER/LOCATER V4.66.93.0                                                        05/01/2026  15:28:45  PAGE 118


      ---         BLOCKEND  ---      ---       LVL=0

      00FE274FH   BLOCK     ECODE    ---       LVL=0
      00012A37H   SYMBOL    XDATA    BYTE      addr
      00012A38H   SYMBOL    XDATA    WORD      dat
      00FE2759H   BLOCK     ECODE    NEAR LAB  LVL=1
      00012A3AH   SYMBOL    XDATA    BYTE      return_state
      ---         BLOCKEND  ---      ---       LVL=1
      00FE274FH   LINE      ECODE    ---       #94
      00FE2759H   LINE      ECODE    ---       #95
      00FE2759H   LINE      ECODE    ---       #96
      00FE276BH   LINE      ECODE    ---       #97
      00FE276FH   LINE      ECODE    ---       #98
      ---         BLOCKEND  ---      ---       LVL=0

      00FE2770H   BLOCK     ECODE    ---       LVL=0
      00012655H   SYMBOL    XDATA    BYTE      return_state
      00012656H   SYMBOL    XDATA    ---       mt9v03x_iic_struct
      00FE2770H   LINE      ECODE    ---       #107
      00FE2770H   LINE      ECODE    ---       #108
      00FE2770H   LINE      ECODE    ---       #109
      00FE2776H   LINE      ECODE    ---       #113
      00FE2799H   LINE      ECODE    ---       #119
      00FE27AAH   LINE      ECODE    ---       #122
      00FE27BAH   LINE      ECODE    ---       #123
      00FE27BAH   LINE      ECODE    ---       #125
      00FE27BEH   LINE      ECODE    ---       #126
      ---         BLOCKEND  ---      ---       LVL=0

      00FE27BFH   BLOCK     ECODE    ---       LVL=0
      00012AD6H   SYMBOL    XDATA    BYTE      loop_count
      00012AD7H   SYMBOL    XDATA    BYTE      return_state
      00FE27BFH   LINE      ECODE    ---       #136
      00FE27BFH   LINE      ECODE    ---       #137
      00FE27BFH   LINE      ECODE    ---       #138
      00FE27C4H   LINE      ECODE    ---       #139
      00FE27C9H   LINE      ECODE    ---       #141
      00FE27C9H   LINE      ECODE    ---       #143
      00FE27D1H   LINE      ECODE    ---       #145
      00FE27DDH   LINE      ECODE    ---       #147
      00FE27ECH   LINE      ECODE    ---       #148
      00FE27FBH   LINE      ECODE    ---       #149
      00FE280AH   LINE      ECODE    ---       #150
      00FE2819H   LINE      ECODE    ---       #151
      00FE2828H   LINE      ECODE    ---       #152
      00FE2837H   LINE      ECODE    ---       #153
      00FE2846H   LINE      ECODE    ---       #154
      00FE2855H   LINE      ECODE    ---       #156
      00FE2866H   LINE      ECODE    ---       #157
      00FE2878H   LINE      ECODE    ---       #158
      00FE288AH   LINE      ECODE    ---       #159
      00FE289BH   LINE      ECODE    ---       #160
      00FE28ADH   LINE      ECODE    ---       #161
      00FE28BDH   LINE      ECODE    ---       #164
      00FE28DAH   LINE      ECODE    ---       #166
      00FE28E4H   LINE      ECODE    ---       #168
      00FE28EEH   LINE      ECODE    ---       #170
      00FE28EEH   LINE      ECODE    ---       #171
      00FE28EEH   LINE      ECODE    ---       #174
      00FE28F2H   LINE      ECODE    ---       #175
      ---         BLOCKEND  ---      ---       LVL=0

      ---         MODULE    ---      ---       zf_device_mt9v03x_dma
      00FDA521H   PUBLIC    ECODE    ---       mt9v03x_sccb_set_exposure_time?
      00FDA640H   PUBLIC    ECODE    ---       mt9v03x_dma_init?
L251 LINKER/LOCATER V4.66.93.0                                                        05/01/2026  15:28:45  PAGE 119


      00FDA5A3H   PUBLIC    ECODE    ---       mt9v03x_sccb_set_reg?
      00FDA5DBH   PUBLIC    ECODE    ---       mt9v03x_dma_handler?
      00FDA5F5H   PUBLIC    ECODE    ---       mt9v03x_vsync_handler?
      00FD9B42H   PUBLIC    ECODE    ---       mt9v03x_sccb_set_config?
      00FD9A85H   PUBLIC    ECODE    ---       mt9v03x_sccb_check_id?
      00012B14H   PUBLIC    HDATA    ---       mt9v03x_image
      00018334H   PUBLIC    HDATA    BYTE      mt9v03x_finish_flag
      000125A5H   PUBLIC    XDATA    BYTE      ?mt9v03x_dma_init??BYTE
      000000D0H   SFRSYM    DATA     BYTE      PSW
      0000009DH   SFRSYM    DATA     BYTE      IRCBAND
      00000097H   SFRSYM    DATA     BYTE      AUXR2
      000000EAH   SFRSYM    DATA     BYTE      CKCON
      000000EFH   SFRSYM    DATA     BYTE      AUXINTIF
      000000FDH   SFRSYM    DATA     BYTE      S4CON
      000000ACH   SFRSYM    DATA     BYTE      S3CON
      0000009AH   SFRSYM    DATA     BYTE      S2CON
      000000B7H   SFRSYM    DATA     BYTE      IPH
      000000CDH   SFRSYM    DATA     BYTE      SPSTAT
      000000DDH   SFRSYM    DATA     BYTE      T4T3M
      000000C1H   SFRSYM    DATA     BYTE      WDT_CONTR
      000000DFH   SFRSYM    DATA     BYTE      IP3
      000000F4H   SFRSYM    DATA     BYTE      USBCON
      000000B5H   SFRSYM    DATA     BYTE      IP2
      000000FFH   SFRSYM    DATA     BYTE      RSTCFG
      000000E0H   SFRSYM    DATA     BYTE      ACC
      000000C7H   SFRSYM    DATA     BYTE      IAP_CONTR
      000000F9H   SFRSYM    DATA     BYTE      LINICR
      0000008EH   SFRSYM    DATA     BYTE      AUXR
      000000F0H   SFRSYM    DATA     BYTE      B
      000000AFH   SFRSYM    DATA     BYTE      IE2
      000000B0H.7 SFRSYM    DATA     BIT       P37
      000000F8H.3 SFRSYM    DATA     BIT       P73
      000000C0H.3 SFRSYM    DATA     BIT       P43
      000000B0H.3 SFRSYM    DATA     BIT       P33
      00000088H   SFRSYM    DATA     BYTE      TCON
      00000089H   SFRSYM    DATA     BYTE      TMOD
      000000C0H.1 SFRSYM    DATA     BIT       P41
      00000098H   SFRSYM    DATA     BYTE      SCON
      00000087H   SFRSYM    DATA     BYTE      PCON
      000000BCH   SFRSYM    DATA     BYTE      ADC_CONTR
      000000D1H   SFRSYM    DATA     BYTE      PSW1
      000000E7H   SFRSYM    DATA     BYTE      CMPCR2
      000000E6H   SFRSYM    DATA     BYTE      CMPCR1
      000000DEH   SFRSYM    DATA     BYTE      ADCCFG
      000000B8H   SFRSYM    DATA     BYTE      IP
      0000008FH   SFRSYM    DATA     BYTE      INTCLKO
      000000EEH   SFRSYM    DATA     BYTE      IP3H
      000000B6H   SFRSYM    DATA     BYTE      IP2H
      000000BFH   SFRSYM    DATA     BYTE      P_SW4
      000000A8H   SFRSYM    DATA     BYTE      IE
      000000BBH   SFRSYM    DATA     BYTE      P_SW3
      000000BAH   SFRSYM    DATA     BYTE      P_SW2
      000000A2H   SFRSYM    DATA     BYTE      P_SW1
      000000CEH   SFRSYM    DATA     BYTE      SPCTL
      000000F8H   SFRSYM    DATA     BYTE      P7
      000000E8H   SFRSYM    DATA     BYTE      P6
      000000C8H   SFRSYM    DATA     BYTE      P5
      000000C0H   SFRSYM    DATA     BYTE      P4
      000000ABH   SFRSYM    DATA     BYTE      WKTCH
      000000B0H   SFRSYM    DATA     BYTE      P3
      000000A0H   SFRSYM    DATA     BYTE      P2
      00000090H   SFRSYM    DATA     BYTE      P1
      00000080H   SFRSYM    DATA     BYTE      P0
      00FD9A48H   SYMBOL    ECODE    ---       mt9v03x_read_word_sccb
      00FD997DH   SYMBOL    ECODE    ---       mt9v03x_write_and_check_word_sccb
L251 LINKER/LOCATER V4.66.93.0                                                        05/01/2026  15:28:45  PAGE 120


      00FD9946H   SYMBOL    ECODE    ---       mt9v03x_write_word_sccb
      000120AAH   SYMBOL    XDATA    INT       mt9v03x_h_blank
      000120ACH   SYMBOL    XDATA    INT       mt9v03x_row
      000120AEH   SYMBOL    XDATA    ---       mt9v03x_iic_inf_struct
      000120B7H   SYMBOL    XDATA    INT       mt9v03x_exp_time
      000120B9H   SYMBOL    XDATA    INT       mt9v03x_v_blank
      000120BBH   SYMBOL    XDATA    INT       mt9v03x_auto_exp

      00FD9946H   BLOCK     ECODE    ---       LVL=0
      00012AAEH   SYMBOL    XDATA    BYTE      reg
      00012AAFH   SYMBOL    XDATA    WORD      dat
      00FD9946H   LINE      ECODE    ---       #187
      00FD9950H   LINE      ECODE    ---       #189
      00FD9968H   LINE      ECODE    ---       #190
      00FD997CH   LINE      ECODE    ---       #191
      ---         BLOCKEND  ---      ---       LVL=0

      00FD997DH   BLOCK     ECODE    ---       LVL=0
      00012884H   SYMBOL    XDATA    BYTE      reg
      00012885H   SYMBOL    XDATA    WORD      dat
      00FD9987H   BLOCK     ECODE    NEAR LAB  LVL=1
      00012887H   SYMBOL    XDATA    BYTE      return_state
      00012888H   SYMBOL    XDATA    BYTE      temp1
      00012889H   SYMBOL    XDATA    BYTE      temp2
      0001288AH   SYMBOL    XDATA    CHAR      loop_cout
      ---         BLOCKEND  ---      ---       LVL=1
      00FD997DH   LINE      ECODE    ---       #199
      00FD9987H   LINE      ECODE    ---       #200
      00FD9987H   LINE      ECODE    ---       #201
      00FD998DH   LINE      ECODE    ---       #202
      00FD9992H   LINE      ECODE    ---       #203
      00FD9997H   LINE      ECODE    ---       #204
      00FD999DH   LINE      ECODE    ---       #206
      00FD99A0H   LINE      ECODE    ---       #208
      00FD99B4H   LINE      ECODE    ---       #210
      00FD99CCH   LINE      ECODE    ---       #211
      00FD99E0H   LINE      ECODE    ---       #212
      00FD99E0H   LINE      ECODE    ---       #213
      00FD99F4H   LINE      ECODE    ---       #214
      00FD9A06H   LINE      ECODE    ---       #215
      00FD9A22H   LINE      ECODE    ---       #217
      00FD9A27H   LINE      ECODE    ---       #218
      00FD9A29H   LINE      ECODE    ---       #219
      00FD9A29H   LINE      ECODE    ---       #220
      00FD9A37H   LINE      ECODE    ---       #221
      00FD9A43H   LINE      ECODE    ---       #223
      00FD9A47H   LINE      ECODE    ---       #224
      ---         BLOCKEND  ---      ---       LVL=0

      00FD9A48H   BLOCK     ECODE    ---       LVL=0
      00012AB1H   SYMBOL    XDATA    BYTE      reg
      00FD9A4CH   BLOCK     ECODE    NEAR LAB  LVL=1
      00012AB2H   SYMBOL    XDATA    BYTE      temp1
      00012AB3H   SYMBOL    XDATA    BYTE      temp2
      ---         BLOCKEND  ---      ---       LVL=1
      00FD9A48H   LINE      ECODE    ---       #232
      00FD9A4CH   LINE      ECODE    ---       #233
      00FD9A4CH   LINE      ECODE    ---       #235
      00FD9A60H   LINE      ECODE    ---       #236
      00FD9A72H   LINE      ECODE    ---       #237
      00FD9A84H   LINE      ECODE    ---       #238
      ---         BLOCKEND  ---      ---       LVL=0

      00FD9A85H   BLOCK     ECODE    ---       LVL=0
      000127E8H   SYMBOL    XDATA    ---       soft_iic_obj
L251 LINKER/LOCATER V4.66.93.0                                                        05/01/2026  15:28:45  PAGE 121


      00FD9A8FH   BLOCK     ECODE    NEAR LAB  LVL=1
      000127ECH   SYMBOL    XDATA    BYTE      delay_num
      000127EDH   SYMBOL    XDATA    WORD      camera_id
      000127EFH   SYMBOL    XDATA    BYTE      return_state
      ---         BLOCKEND  ---      ---       LVL=1
      00FD9A85H   LINE      ECODE    ---       #246
      00FD9A8FH   LINE      ECODE    ---       #247
      00FD9A8FH   LINE      ECODE    ---       #248
      00FD9A94H   LINE      ECODE    ---       #249
      00FD9A9CH   LINE      ECODE    ---       #250
      00FD9AA2H   LINE      ECODE    ---       #252
      00FD9AA8H   LINE      ECODE    ---       #253
      00FD9AC7H   LINE      ECODE    ---       #254
      00FD9ADAH   LINE      ECODE    ---       #255
      00FD9AEFH   LINE      ECODE    ---       #257
      00FD9AEFH   LINE      ECODE    ---       #259
      00FD9AF9H   LINE      ECODE    ---       #260
      00FD9B23H   LINE      ECODE    ---       #264
      00FD9B28H   LINE      ECODE    ---       #265
      00FD9B2AH   LINE      ECODE    ---       #266
      00FD9B3DH   LINE      ECODE    ---       #268
      00FD9B41H   LINE      ECODE    ---       #269
      ---         BLOCKEND  ---      ---       LVL=0

      00FD9B42H   BLOCK     ECODE    ---       LVL=0
      00011BFEH   SYMBOL    XDATA    ---       buff
      00FD9B4CH   BLOCK     ECODE    NEAR LAB  LVL=1
      00011C02H   SYMBOL    XDATA    WORD      temp_bin
      00011C04H   SYMBOL    XDATA    WORD      max_fps
      00011C06H   SYMBOL    XDATA    INT       temp_data
      00011C08H   SYMBOL    XDATA    WORD      set_col
      00011C0AH   SYMBOL    XDATA    WORD      set_row
      00011C0CH   SYMBOL    XDATA    WORD      lr_off
      00011C0EH   SYMBOL    XDATA    WORD      ud_off
      00011C10H   SYMBOL    XDATA    BYTE      return_state
      00011C11H   SYMBOL    XDATA    BYTE      delay_num
      00011C12H   SYMBOL    XDATA    WORD      camera_id
      00011C14H   SYMBOL    XDATA    ---       mt9v03x_init_config
      ---         BLOCKEND  ---      ---       LVL=1
      00FD9B42H   LINE      ECODE    ---       #278
      00FD9B4CH   LINE      ECODE    ---       #279
      00FD9B4CH   LINE      ECODE    ---       #280
      00FD9B54H   LINE      ECODE    ---       #281
      00FD9B5CH   LINE      ECODE    ---       #282
      00FD9B64H   LINE      ECODE    ---       #283
      00FD9B6CH   LINE      ECODE    ---       #284
      00FD9B74H   LINE      ECODE    ---       #285
      00FD9B7CH   LINE      ECODE    ---       #286
      00FD9B84H   LINE      ECODE    ---       #288
      00FD9B89H   LINE      ECODE    ---       #289
      00FD9B8EH   LINE      ECODE    ---       #290
      00FD9B96H   LINE      ECODE    ---       #294
      00FD9BADH   LINE      ECODE    ---       #295
      00FD9BC4H   LINE      ECODE    ---       #296
      00FD9BDBH   LINE      ECODE    ---       #297
      00FD9BF2H   LINE      ECODE    ---       #298
      00FD9C09H   LINE      ECODE    ---       #299
      00FD9C20H   LINE      ECODE    ---       #300
      00FD9C37H   LINE      ECODE    ---       #301
      00FD9C4EH   LINE      ECODE    ---       #303
      00FD9C57H   LINE      ECODE    ---       #306
      00FD9C60H   LINE      ECODE    ---       #307
      00FD9C60H   LINE      ECODE    ---       #309
      00FD9C6AH   LINE      ECODE    ---       #310
      00FD9C94H   LINE      ECODE    ---       #314
L251 LINKER/LOCATER V4.66.93.0                                                        05/01/2026  15:28:45  PAGE 122


      00FD9C94H   LINE      ECODE    ---       #315
      00FD9C94H   LINE      ECODE    ---       #316
      00FD9CA7H   LINE      ECODE    ---       #319
      00FD9CADH   LINE      ECODE    ---       #320
      00FD9CADH   LINE      ECODE    ---       #321
      00FD9CADH   LINE      ECODE    ---       #324
      00FD9CB0H   LINE      ECODE    ---       #327
      00FD9CBEH   LINE      ECODE    ---       #329
      00FD9CCEH   LINE      ECODE    ---       #330
      00FD9CDEH   LINE      ECODE    ---       #331
      00FD9CE0H   LINE      ECODE    ---       #332
      00FD9CEEH   LINE      ECODE    ---       #334
      00FD9CFCH   LINE      ECODE    ---       #335
      00FD9D0CH   LINE      ECODE    ---       #336
      00FD9D0EH   LINE      ECODE    ---       #337
      00FD9D1CH   LINE      ECODE    ---       #339
      00FD9D28H   LINE      ECODE    ---       #340
      00FD9D2EH   LINE      ECODE    ---       #341
      00FD9D2EH   LINE      ECODE    ---       #343
      00FD9D3CH   LINE      ECODE    ---       #345
      00FD9D4CH   LINE      ECODE    ---       #346
      00FD9D5CH   LINE      ECODE    ---       #347
      00FD9D5EH   LINE      ECODE    ---       #348
      00FD9D6CH   LINE      ECODE    ---       #350
      00FD9D7AH   LINE      ECODE    ---       #351
      00FD9D8AH   LINE      ECODE    ---       #352
      00FD9D8CH   LINE      ECODE    ---       #353
      00FD9D9AH   LINE      ECODE    ---       #355
      00FD9DA6H   LINE      ECODE    ---       #356
      00FD9DACH   LINE      ECODE    ---       #357
      00FD9DACH   LINE      ECODE    ---       #361
      00FD9DBEH   LINE      ECODE    ---       #363
      00FD9DCFH   LINE      ECODE    ---       #365
      00FD9DE1H   LINE      ECODE    ---       #367
      00FD9E15H   LINE      ECODE    ---       #368
      00FD9E23H   LINE      ECODE    ---       #370
      00FD9E2DH   LINE      ECODE    ---       #371
      00FD9E2DH   LINE      ECODE    ---       #372
      00FD9E3DH   LINE      ECODE    ---       #374
      00FD9E49H   LINE      ECODE    ---       #375
      00FD9E49H   LINE      ECODE    ---       #378
      00FD9E85H   LINE      ECODE    ---       #379
      00FD9EA1H   LINE      ECODE    ---       #381
      00FD9ED5H   LINE      ECODE    ---       #382
      00FD9ED5H   LINE      ECODE    ---       #384
      00FD9F11H   LINE      ECODE    ---       #385
      00FD9F45H   LINE      ECODE    ---       #387
      00FD9F48H   LINE      ECODE    ---       #390
      00FD9F7CH   LINE      ECODE    ---       #391
      00FD9F8AH   LINE      ECODE    ---       #393
      00FD9F94H   LINE      ECODE    ---       #394
      00FD9F94H   LINE      ECODE    ---       #395
      00FD9FA4H   LINE      ECODE    ---       #397
      00FD9FB0H   LINE      ECODE    ---       #398
      00FD9FB0H   LINE      ECODE    ---       #401
      00FD9FECH   LINE      ECODE    ---       #402
      00FDA008H   LINE      ECODE    ---       #404
      00FDA03CH   LINE      ECODE    ---       #405
      00FDA03CH   LINE      ECODE    ---       #407
      00FDA078H   LINE      ECODE    ---       #408
      00FDA0ACH   LINE      ECODE    ---       #410
      00FDA0ACH   LINE      ECODE    ---       #413
      00FDA0CAH   LINE      ECODE    ---       #415
      00FDA0E4H   LINE      ECODE    ---       #416
      00FDA0E4H   LINE      ECODE    ---       #419
L251 LINKER/LOCATER V4.66.93.0                                                        05/01/2026  15:28:45  PAGE 123


      00FDA0F8H   LINE      ECODE    ---       #421
      00FDA13EH   LINE      ECODE    ---       #422
      00FDA14DH   LINE      ECODE    ---       #423
      00FDA165H   LINE      ECODE    ---       #426
      00FDA179H   LINE      ECODE    ---       #428
      00FDA1BFH   LINE      ECODE    ---       #429
      00FDA1CEH   LINE      ECODE    ---       #430
      00FDA1E2H   LINE      ECODE    ---       #432
      00FDA1F4H   LINE      ECODE    ---       #433
      00FDA208H   LINE      ECODE    ---       #434
      00FDA21CH   LINE      ECODE    ---       #435
      00FDA230H   LINE      ECODE    ---       #436
      00FDA244H   LINE      ECODE    ---       #437
      00FDA258H   LINE      ECODE    ---       #438
      00FDA26CH   LINE      ECODE    ---       #439
      00FDA27EH   LINE      ECODE    ---       #440
      00FDA290H   LINE      ECODE    ---       #441
      00FDA2A2H   LINE      ECODE    ---       #443
      00FDA2AEH   LINE      ECODE    ---       #445
      00FDA2C2H   LINE      ECODE    ---       #446
      00FDA2C2H   LINE      ECODE    ---       #447
      00FDA2DCH   LINE      ECODE    ---       #448
      00FDA2EEH   LINE      ECODE    ---       #449
      00FDA300H   LINE      ECODE    ---       #450
      00FDA312H   LINE      ECODE    ---       #451
      00FDA326H   LINE      ECODE    ---       #455
      00FDA334H   LINE      ECODE    ---       #458
      00FDA360H   LINE      ECODE    ---       #459
      00FDA372H   LINE      ECODE    ---       #460
      00FDA384H   LINE      ECODE    ---       #461
      00FDA396H   LINE      ECODE    ---       #462
      00FDA398H   LINE      ECODE    ---       #465
      00FDA3AAH   LINE      ECODE    ---       #466
      00FDA3BCH   LINE      ECODE    ---       #467
      00FDA3CEH   LINE      ECODE    ---       #468
      00FDA3CEH   LINE      ECODE    ---       #470
      00FDA3E0H   LINE      ECODE    ---       #471
      00FDA3F2H   LINE      ECODE    ---       #472
      00FDA404H   LINE      ECODE    ---       #475
      00FDA410H   LINE      ECODE    ---       #477
      00FDA420H   LINE      ECODE    ---       #478
      00FDA423H   LINE      ECODE    ---       #481
      00FDA437H   LINE      ECODE    ---       #482
      00FDA449H   LINE      ECODE    ---       #483
      00FDA45BH   LINE      ECODE    ---       #487
      00FDA4A9H   LINE      ECODE    ---       #489
      00FDA4BBH   LINE      ECODE    ---       #490
      00FDA4CDH   LINE      ECODE    ---       #491
      00FDA4E1H   LINE      ECODE    ---       #492
      00FDA4E1H   LINE      ECODE    ---       #493
      00FDA4EDH   LINE      ECODE    ---       #494
      00FDA4F9H   LINE      ECODE    ---       #495
      00FDA505H   LINE      ECODE    ---       #497
      00FDA50EH   LINE      ECODE    ---       #499
      00FDA510H   LINE      ECODE    ---       #500
      00FDA51CH   LINE      ECODE    ---       #501
      00FDA520H   LINE      ECODE    ---       #502
      ---         BLOCKEND  ---      ---       LVL=0

      00FDA521H   BLOCK     ECODE    ---       LVL=0
      00012AB4H   SYMBOL    XDATA    WORD      light
      00FDA527H   BLOCK     ECODE    NEAR LAB  LVL=1
      00012AB6H   SYMBOL    XDATA    BYTE      return_state
      ---         BLOCKEND  ---      ---       LVL=1
      00FDA521H   LINE      ECODE    ---       #511
L251 LINKER/LOCATER V4.66.93.0                                                        05/01/2026  15:28:45  PAGE 124


      00FDA527H   LINE      ECODE    ---       #512
      00FDA527H   LINE      ECODE    ---       #513
      00FDA52DH   LINE      ECODE    ---       #516
      00FDA56DH   LINE      ECODE    ---       #518
      00FDA576H   LINE      ECODE    ---       #519
      00FDA595H   LINE      ECODE    ---       #520
      00FDA59EH   LINE      ECODE    ---       #522
      00FDA5A2H   LINE      ECODE    ---       #523
      ---         BLOCKEND  ---      ---       LVL=0

      00FDA5A3H   BLOCK     ECODE    ---       LVL=0
      00012A3BH   SYMBOL    XDATA    BYTE      reg
      00012A3CH   SYMBOL    XDATA    WORD      dat
      00FDA5ADH   BLOCK     ECODE    NEAR LAB  LVL=1
      00012A3EH   SYMBOL    XDATA    BYTE      return_state
      ---         BLOCKEND  ---      ---       LVL=1
      00FDA5A3H   LINE      ECODE    ---       #533
      00FDA5ADH   LINE      ECODE    ---       #534
      00FDA5ADH   LINE      ECODE    ---       #535
      00FDA5B3H   LINE      ECODE    ---       #537
      00FDA5BCH   LINE      ECODE    ---       #538
      00FDA5CDH   LINE      ECODE    ---       #539
      00FDA5D6H   LINE      ECODE    ---       #541
      00FDA5DAH   LINE      ECODE    ---       #542
      ---         BLOCKEND  ---      ---       LVL=0

      00FDA5DBH   BLOCK     ECODE    ---       LVL=0
      00FDA5DBH   LINE      ECODE    ---       #557
      00FDA5DBH   LINE      ECODE    ---       #559
      00FDA5E7H   LINE      ECODE    ---       #560
      00FDA5F4H   LINE      ECODE    ---       #561
      ---         BLOCKEND  ---      ---       LVL=0

      00FDA5F5H   BLOCK     ECODE    ---       LVL=0
      000120BDH   SYMBOL    XDATA    BYTE      get_sensor_flag
      00FDA5F5H   LINE      ECODE    ---       #564
      00FDA5F5H   LINE      ECODE    ---       #565
      00FDA5F5H   LINE      ECODE    ---       #568
      00FDA5FEH   LINE      ECODE    ---       #571
      00FDA601H   LINE      ECODE    ---       #572
      00FDA604H   LINE      ECODE    ---       #575
      00FDA607H   LINE      ECODE    ---       #576
      00FDA60AH   LINE      ECODE    ---       #577
      00FDA60DH   LINE      ECODE    ---       #578
      00FDA610H   LINE      ECODE    ---       #579
      00FDA613H   LINE      ECODE    ---       #580
      00FDA616H   LINE      ECODE    ---       #582
      00FDA61CH   LINE      ECODE    ---       #583
      00FDA61EH   LINE      ECODE    ---       #586
      00FDA627H   LINE      ECODE    ---       #589
      00FDA62AH   LINE      ECODE    ---       #592
      00FDA637H   LINE      ECODE    ---       #595
      00FDA63AH   LINE      ECODE    ---       #596
      00FDA63AH   LINE      ECODE    ---       #599
      00FDA63FH   LINE      ECODE    ---       #600
      00FDA63FH   LINE      ECODE    ---       #601
      ---         BLOCKEND  ---      ---       LVL=0

      00FDA640H   BLOCK     ECODE    ---       LVL=0
      000125A5H   SYMBOL    XDATA    ---       image_addr
      000125A9H   SYMBOL    XDATA    DWORD     image_size
      000125ADH   SYMBOL    XDATA    BYTE      value
      000125AEH   SYMBOL    XDATA    BYTE      isr_priority
      000125AFH   SYMBOL    XDATA    BYTE      dma_priority
      00FDA640H   LINE      ECODE    ---       #607
L251 LINKER/LOCATER V4.66.93.0                                                        05/01/2026  15:28:45  PAGE 125


      00FDA658H   LINE      ECODE    ---       #610
      00FDA664H   LINE      ECODE    ---       #612
      00FDA672H   LINE      ECODE    ---       #614
      00FDA67EH   LINE      ECODE    ---       #615
      00FDA690H   LINE      ECODE    ---       #616
      00FDA69EH   LINE      ECODE    ---       #617
      00FDA6ACH   LINE      ECODE    ---       #619
      00FDA6B8H   LINE      ECODE    ---       #620
      00FDA6C5H   LINE      ECODE    ---       #622
      00FDA6D4H   LINE      ECODE    ---       #626
      00FDA6F6H   LINE      ECODE    ---       #628
      00FDA702H   LINE      ECODE    ---       #629
      00FDA721H   LINE      ECODE    ---       #630
      00FDA73CH   LINE      ECODE    ---       #631
      00FDA755H   LINE      ECODE    ---       #632
      00FDA76CH   LINE      ECODE    ---       #634
      00FDA778H   LINE      ECODE    ---       #635
      00FDA784H   LINE      ECODE    ---       #637
      ---         BLOCKEND  ---      ---       LVL=0

      ---         MODULE    ---      ---       zf_device_ips114
      00FD0C15H   PUBLIC    ECODE    ---       ips114_show_float?
      00FD038BH   PUBLIC    ECODE    ---       ips114_draw_point?
      00FD0530H   PUBLIC    ECODE    ---       ips114_show_string?
      00FD1051H   PUBLIC    ECODE    ---       ips114_show_gray_image?
      00FD0411H   PUBLIC    ECODE    ---       ips114_show_char?
      00FD0996H   PUBLIC    ECODE    ---       ips114_show_uint16?
      00FD0366H   PUBLIC    ECODE    ---       ips114_set_color?
      00FD0AB2H   PUBLIC    ECODE    ---       ips114_show_int32?
      00FD081CH   PUBLIC    ECODE    ---       ips114_show_int16?
      00FD0E37H   PUBLIC    ECODE    ---       ips114_show_wave?
      00FD032BH   PUBLIC    ECODE    ---       ips114_set_dir?
      00FD1323H   PUBLIC    ECODE    ---       ips114_show_chinese?
      00FD027CH   PUBLIC    ECODE    ---       ips114_clear?
      00FD072EH   PUBLIC    ECODE    ---       ips114_show_uint8?
      00FD05F7H   PUBLIC    ECODE    ---       ips114_show_int8?
      00FD1527H   PUBLIC    ECODE    ---       ips114_init?
      000127F0H   PUBLIC    XDATA    WORD      ips114_pencolor
      000127F2H   PUBLIC    XDATA    WORD      ips114_bgcolor
      000127F4H   PUBLIC    XDATA    INT       ips114_display_dir
      000127F6H   PUBLIC    XDATA    BYTE      ips114_x_max
      000127F7H   PUBLIC    XDATA    BYTE      ips114_y_max
      0001192BH   PUBLIC    XDATA    BYTE      ?ips114_show_float??BYTE
      00011D8DH   PUBLIC    XDATA    BYTE      ?ips114_show_wave??BYTE
      000108FDH   PUBLIC    XDATA    BYTE      ?ips114_show_gray_image??BYTE
      00011F7DH   PUBLIC    XDATA    BYTE      ?ips114_show_chinese??BYTE
      000000D0H   SFRSYM    DATA     BYTE      PSW
      0000009DH   SFRSYM    DATA     BYTE      IRCBAND
      00000097H   SFRSYM    DATA     BYTE      AUXR2
      000000EAH   SFRSYM    DATA     BYTE      CKCON
      000000EFH   SFRSYM    DATA     BYTE      AUXINTIF
      000000FDH   SFRSYM    DATA     BYTE      S4CON
      000000ACH   SFRSYM    DATA     BYTE      S3CON
      0000009AH   SFRSYM    DATA     BYTE      S2CON
      000000B7H   SFRSYM    DATA     BYTE      IPH
      000000CDH   SFRSYM    DATA     BYTE      SPSTAT
      000000DDH   SFRSYM    DATA     BYTE      T4T3M
      000000C1H   SFRSYM    DATA     BYTE      WDT_CONTR
      000000DFH   SFRSYM    DATA     BYTE      IP3
      000000F4H   SFRSYM    DATA     BYTE      USBCON
      000000B5H   SFRSYM    DATA     BYTE      IP2
      000000FFH   SFRSYM    DATA     BYTE      RSTCFG
      000000E0H   SFRSYM    DATA     BYTE      ACC
      000000C7H   SFRSYM    DATA     BYTE      IAP_CONTR
      000000F9H   SFRSYM    DATA     BYTE      LINICR
L251 LINKER/LOCATER V4.66.93.0                                                        05/01/2026  15:28:45  PAGE 126


      0000008EH   SFRSYM    DATA     BYTE      AUXR
      000000F0H   SFRSYM    DATA     BYTE      B
      000000AFH   SFRSYM    DATA     BYTE      IE2
      000000B0H.5 SFRSYM    DATA     BIT       P35
      000000F8H.1 SFRSYM    DATA     BIT       P71
      000000F8H.0 SFRSYM    DATA     BIT       P70
      00000088H   SFRSYM    DATA     BYTE      TCON
      00000089H   SFRSYM    DATA     BYTE      TMOD
      00000098H   SFRSYM    DATA     BYTE      SCON
      00000087H   SFRSYM    DATA     BYTE      PCON
      000000BCH   SFRSYM    DATA     BYTE      ADC_CONTR
      000000D1H   SFRSYM    DATA     BYTE      PSW1
      000000E7H   SFRSYM    DATA     BYTE      CMPCR2
      000000E6H   SFRSYM    DATA     BYTE      CMPCR1
      000000DEH   SFRSYM    DATA     BYTE      ADCCFG
      000000B8H   SFRSYM    DATA     BYTE      IP
      0000008FH   SFRSYM    DATA     BYTE      INTCLKO
      000000EEH   SFRSYM    DATA     BYTE      IP3H
      000000B6H   SFRSYM    DATA     BYTE      IP2H
      000000BFH   SFRSYM    DATA     BYTE      P_SW4
      000000A8H   SFRSYM    DATA     BYTE      IE
      000000BBH   SFRSYM    DATA     BYTE      P_SW3
      000000BAH   SFRSYM    DATA     BYTE      P_SW2
      000000A2H   SFRSYM    DATA     BYTE      P_SW1
      000000CEH   SFRSYM    DATA     BYTE      SPCTL
      000000F8H   SFRSYM    DATA     BYTE      P7
      000000E8H   SFRSYM    DATA     BYTE      P6
      000000C8H   SFRSYM    DATA     BYTE      P5
      000000C0H   SFRSYM    DATA     BYTE      P4
      000000ABH   SFRSYM    DATA     BYTE      WKTCH
      000000B0H   SFRSYM    DATA     BYTE      P3
      000000A0H   SFRSYM    DATA     BYTE      P2
      00000090H   SFRSYM    DATA     BYTE      P1
      00000080H   SFRSYM    DATA     BYTE      P0
      00FD0000H   SYMBOL    ECODE    ---       ips114_write_index
      00FD0023H   SYMBOL    ECODE    ---       ips114_set_region

      00FD0000H   BLOCK     ECODE    ---       LVL=0
      00012AFFH   SYMBOL    XDATA    BYTE      dat
      00FD0000H   LINE      ECODE    ---       #84
      00FD0004H   LINE      ECODE    ---       #86
      00FD0007H   LINE      ECODE    ---       #87
      00FD000AH   LINE      ECODE    ---       #88
      00FD000DH   LINE      ECODE    ---       #89
      00FD0019H   LINE      ECODE    ---       #90
      00FD001CH   LINE      ECODE    ---       #91
      00FD001FH   LINE      ECODE    ---       #92
      00FD0022H   LINE      ECODE    ---       #93
      ---         BLOCKEND  ---      ---       LVL=0

      00FD0023H   BLOCK     ECODE    ---       LVL=0
      000127F8H   SYMBOL    XDATA    WORD      x1
      000127FAH   SYMBOL    XDATA    WORD      y1
      000127FCH   SYMBOL    XDATA    WORD      x2
      000127FEH   SYMBOL    XDATA    WORD      y2
      00FD0023H   LINE      ECODE    ---       #104
      00FD003BH   LINE      ECODE    ---       #106
      00FD0060H   LINE      ECODE    ---       #107
      00FD0085H   LINE      ECODE    ---       #108
      00FD00AAH   LINE      ECODE    ---       #109
      00FD00CFH   LINE      ECODE    ---       #111
      00FD00DBH   LINE      ECODE    ---       #113
      00FD00E0H   LINE      ECODE    ---       #114
      00FD00F4H   LINE      ECODE    ---       #115
      00FD0108H   LINE      ECODE    ---       #116
L251 LINKER/LOCATER V4.66.93.0                                                        05/01/2026  15:28:45  PAGE 127


      00FD010DH   LINE      ECODE    ---       #117
      00FD0121H   LINE      ECODE    ---       #118
      00FD0135H   LINE      ECODE    ---       #119
      00FD013AH   LINE      ECODE    ---       #120
      00FD013DH   LINE      ECODE    ---       #121
      00FD014BH   LINE      ECODE    ---       #123
      00FD0150H   LINE      ECODE    ---       #124
      00FD0164H   LINE      ECODE    ---       #125
      00FD0178H   LINE      ECODE    ---       #126
      00FD017DH   LINE      ECODE    ---       #127
      00FD0191H   LINE      ECODE    ---       #128
      00FD01A5H   LINE      ECODE    ---       #129
      00FD01AAH   LINE      ECODE    ---       #130
      00FD01ADH   LINE      ECODE    ---       #131
      00FD01BBH   LINE      ECODE    ---       #133
      00FD01C0H   LINE      ECODE    ---       #134
      00FD01D4H   LINE      ECODE    ---       #135
      00FD01E8H   LINE      ECODE    ---       #136
      00FD01EDH   LINE      ECODE    ---       #137
      00FD0201H   LINE      ECODE    ---       #138
      00FD0215H   LINE      ECODE    ---       #139
      00FD021AH   LINE      ECODE    ---       #140
      00FD021CH   LINE      ECODE    ---       #143
      00FD0221H   LINE      ECODE    ---       #144
      00FD0235H   LINE      ECODE    ---       #145
      00FD0249H   LINE      ECODE    ---       #146
      00FD024EH   LINE      ECODE    ---       #147
      00FD0262H   LINE      ECODE    ---       #148
      00FD0276H   LINE      ECODE    ---       #149
      00FD027BH   LINE      ECODE    ---       #150
      00FD027BH   LINE      ECODE    ---       #151
      ---         BLOCKEND  ---      ---       LVL=0

      00FD027CH   BLOCK     ECODE    ---       LVL=0
      00010AFEH   SYMBOL    XDATA    WORD      color
      00FD0282H   BLOCK     ECODE    NEAR LAB  LVL=1
      00010B00H   SYMBOL    XDATA    WORD      i
      00010B02H   SYMBOL    XDATA    ---       tmp
      ---         BLOCKEND  ---      ---       LVL=1
      00FD027CH   LINE      ECODE    ---       #159
      00FD0282H   LINE      ECODE    ---       #160
      00FD0282H   LINE      ECODE    ---       #163
      00FD02A1H   LINE      ECODE    ---       #165
      00FD02ABH   LINE      ECODE    ---       #167
      00FD02C8H   LINE      ECODE    ---       #168
      00FD02E5H   LINE      ECODE    ---       #169
      00FD02EFH   LINE      ECODE    ---       #171
      00FD030DH   LINE      ECODE    ---       #172
      00FD032AH   LINE      ECODE    ---       #173
      ---         BLOCKEND  ---      ---       LVL=0

      00FD032BH   BLOCK     ECODE    ---       LVL=0
      00012AD8H   SYMBOL    XDATA    INT       dir
      00FD032BH   LINE      ECODE    ---       #181
      00FD0331H   LINE      ECODE    ---       #183
      00FD033DH   LINE      ECODE    ---       #184
      00FD034BH   LINE      ECODE    ---       #186
      00FD0351H   LINE      ECODE    ---       #187
      00FD0357H   LINE      ECODE    ---       #188
      00FD0359H   LINE      ECODE    ---       #191
      00FD035FH   LINE      ECODE    ---       #192
      00FD0365H   LINE      ECODE    ---       #193
      00FD0365H   LINE      ECODE    ---       #194
      ---         BLOCKEND  ---      ---       LVL=0

L251 LINKER/LOCATER V4.66.93.0                                                        05/01/2026  15:28:45  PAGE 128


      00FD0366H   BLOCK     ECODE    ---       LVL=0
      00012A3FH   SYMBOL    XDATA    WORD      pen
      00012A41H   SYMBOL    XDATA    WORD      bgcolor
      00FD0366H   LINE      ECODE    ---       #203
      00FD0372H   LINE      ECODE    ---       #205
      00FD037EH   LINE      ECODE    ---       #206
      00FD038AH   LINE      ECODE    ---       #207
      ---         BLOCKEND  ---      ---       LVL=0

      00FD038BH   BLOCK     ECODE    ---       LVL=0
      00012927H   SYMBOL    XDATA    WORD      x
      00012929H   SYMBOL    XDATA    WORD      y
      0001292BH   SYMBOL    XDATA    WORD      color
      00FD038BH   LINE      ECODE    ---       #217
      00FD039DH   LINE      ECODE    ---       #219
      00FD03C2H   LINE      ECODE    ---       #220
      00FD03E7H   LINE      ECODE    ---       #222
      00FD0402H   LINE      ECODE    ---       #223
      00FD0410H   LINE      ECODE    ---       #224
      ---         BLOCKEND  ---      ---       LVL=0

      00FD0411H   BLOCK     ECODE    ---       LVL=0
      00012800H   SYMBOL    XDATA    WORD      x
      00012802H   SYMBOL    XDATA    WORD      y
      00012804H   SYMBOL    XDATA    CHAR      dat
      00FD0421H   BLOCK     ECODE    NEAR LAB  LVL=1
      00012805H   SYMBOL    XDATA    BYTE      i
      00012806H   SYMBOL    XDATA    BYTE      j
      00012807H   SYMBOL    XDATA    BYTE      temp
      ---         BLOCKEND  ---      ---       LVL=1
      00FD0411H   LINE      ECODE    ---       #234
      00FD0421H   LINE      ECODE    ---       #235
      00FD0421H   LINE      ECODE    ---       #239
      00FD0446H   LINE      ECODE    ---       #240
      00FD046BH   LINE      ECODE    ---       #242
      00FD0473H   LINE      ECODE    ---       #244
      00FD04A4H   LINE      ECODE    ---       #245
      00FD04CBH   LINE      ECODE    ---       #246
      00FD04D2H   LINE      ECODE    ---       #248
      00FD04D9H   LINE      ECODE    ---       #249
      00FD04E9H   LINE      ECODE    ---       #251
      00FD04F7H   LINE      ECODE    ---       #252
      00FD04FEH   LINE      ECODE    ---       #253
      00FD0515H   LINE      ECODE    ---       #254
      00FD052FH   LINE      ECODE    ---       #255
      ---         BLOCKEND  ---      ---       LVL=0

      00FD0530H   BLOCK     ECODE    ---       LVL=0
      0001265FH   SYMBOL    XDATA    WORD      x
      00012661H   SYMBOL    XDATA    WORD      y
      00012663H   SYMBOL    XDATA    ---       dat
      00FD0546H   BLOCK     ECODE    NEAR LAB  LVL=1
      00012667H   SYMBOL    XDATA    WORD      j
      ---         BLOCKEND  ---      ---       LVL=1
      00FD0530H   LINE      ECODE    ---       #265
      00FD0546H   LINE      ECODE    ---       #266
      00FD0546H   LINE      ECODE    ---       #267
      00FD054EH   LINE      ECODE    ---       #269
      00FD0573H   LINE      ECODE    ---       #270
      00FD0598H   LINE      ECODE    ---       #272
      00FD059AH   LINE      ECODE    ---       #274
      00FD05CDH   LINE      ECODE    ---       #275
      00FD05DCH   LINE      ECODE    ---       #276
      00FD05F6H   LINE      ECODE    ---       #277
      ---         BLOCKEND  ---      ---       LVL=0
L251 LINKER/LOCATER V4.66.93.0                                                        05/01/2026  15:28:45  PAGE 129



      00FD05F7H   BLOCK     ECODE    ---       LVL=0
      000126C1H   SYMBOL    XDATA    WORD      x
      000126C3H   SYMBOL    XDATA    WORD      y
      000126C5H   SYMBOL    XDATA    CHAR      dat
      00FD0607H   BLOCK     ECODE    NEAR LAB  LVL=1
      000126C6H   SYMBOL    XDATA    ---       a
      000126C9H   SYMBOL    XDATA    BYTE      i
      ---         BLOCKEND  ---      ---       LVL=1
      00FD05F7H   LINE      ECODE    ---       #287
      00FD0607H   LINE      ECODE    ---       #288
      00FD0607H   LINE      ECODE    ---       #292
      00FD062CH   LINE      ECODE    ---       #293
      00FD0651H   LINE      ECODE    ---       #295
      00FD065BH   LINE      ECODE    ---       #297
      00FD066DH   LINE      ECODE    ---       #298
      00FD0678H   LINE      ECODE    ---       #299
      00FD067AH   LINE      ECODE    ---       #301
      00FD068CH   LINE      ECODE    ---       #303
      00FD06A0H   LINE      ECODE    ---       #304
      00FD06BCH   LINE      ECODE    ---       #305
      00FD06D0H   LINE      ECODE    ---       #306
      00FD06D5H   LINE      ECODE    ---       #307
      00FD06D7H   LINE      ECODE    ---       #309
      00FD0716H   LINE      ECODE    ---       #310
      00FD0721H   LINE      ECODE    ---       #311
      00FD072DH   LINE      ECODE    ---       #312
      ---         BLOCKEND  ---      ---       LVL=0

      00FD072EH   BLOCK     ECODE    ---       LVL=0
      000126CAH   SYMBOL    XDATA    WORD      x
      000126CCH   SYMBOL    XDATA    WORD      y
      000126CEH   SYMBOL    XDATA    BYTE      dat
      00FD073EH   BLOCK     ECODE    NEAR LAB  LVL=1
      000126CFH   SYMBOL    XDATA    ---       a
      000126D2H   SYMBOL    XDATA    BYTE      i
      ---         BLOCKEND  ---      ---       LVL=1
      00FD072EH   LINE      ECODE    ---       #322
      00FD073EH   LINE      ECODE    ---       #323
      00FD073EH   LINE      ECODE    ---       #327
      00FD0763H   LINE      ECODE    ---       #328
      00FD0788H   LINE      ECODE    ---       #330
      00FD0798H   LINE      ECODE    ---       #331
      00FD07B2H   LINE      ECODE    ---       #332
      00FD07C6H   LINE      ECODE    ---       #333
      00FD07CBH   LINE      ECODE    ---       #334
      00FD07CDH   LINE      ECODE    ---       #336
      00FD0804H   LINE      ECODE    ---       #337
      00FD080FH   LINE      ECODE    ---       #338
      00FD081BH   LINE      ECODE    ---       #340
      ---         BLOCKEND  ---      ---       LVL=0

      00FD081CH   BLOCK     ECODE    ---       LVL=0
      000124ADH   SYMBOL    XDATA    WORD      x
      000124AFH   SYMBOL    XDATA    WORD      y
      000124B1H   SYMBOL    XDATA    INT       dat
      00FD082EH   BLOCK     ECODE    NEAR LAB  LVL=1
      000124B3H   SYMBOL    XDATA    ---       a
      000124B8H   SYMBOL    XDATA    BYTE      i
      ---         BLOCKEND  ---      ---       LVL=1
      00FD081CH   LINE      ECODE    ---       #350
      00FD082EH   LINE      ECODE    ---       #351
      00FD082EH   LINE      ECODE    ---       #355
      00FD0853H   LINE      ECODE    ---       #356
      00FD0878H   LINE      ECODE    ---       #358
L251 LINKER/LOCATER V4.66.93.0                                                        05/01/2026  15:28:45  PAGE 130


      00FD0884H   LINE      ECODE    ---       #360
      00FD0896H   LINE      ECODE    ---       #361
      00FD08A8H   LINE      ECODE    ---       #362
      00FD08AAH   LINE      ECODE    ---       #363
      00FD08BCH   LINE      ECODE    ---       #365
      00FD08D0H   LINE      ECODE    ---       #366
      00FD08ECH   LINE      ECODE    ---       #367
      00FD0908H   LINE      ECODE    ---       #368
      00FD0924H   LINE      ECODE    ---       #369
      00FD0938H   LINE      ECODE    ---       #371
      00FD093DH   LINE      ECODE    ---       #372
      00FD093FH   LINE      ECODE    ---       #374
      00FD097EH   LINE      ECODE    ---       #375
      00FD0989H   LINE      ECODE    ---       #376
      00FD0995H   LINE      ECODE    ---       #377
      ---         BLOCKEND  ---      ---       LVL=0

      00FD0996H   BLOCK     ECODE    ---       LVL=0
      000124B9H   SYMBOL    XDATA    WORD      x
      000124BBH   SYMBOL    XDATA    WORD      y
      000124BDH   SYMBOL    XDATA    WORD      dat
      00FD09A8H   BLOCK     ECODE    NEAR LAB  LVL=1
      000124BFH   SYMBOL    XDATA    ---       a
      000124C4H   SYMBOL    XDATA    BYTE      i
      ---         BLOCKEND  ---      ---       LVL=1
      00FD0996H   LINE      ECODE    ---       #387
      00FD09A8H   LINE      ECODE    ---       #388
      00FD09A8H   LINE      ECODE    ---       #392
      00FD09CDH   LINE      ECODE    ---       #393
      00FD09F2H   LINE      ECODE    ---       #395
      00FD0A02H   LINE      ECODE    ---       #396
      00FD0A1AH   LINE      ECODE    ---       #397
      00FD0A32H   LINE      ECODE    ---       #398
      00FD0A4AH   LINE      ECODE    ---       #399
      00FD0A5CH   LINE      ECODE    ---       #401
      00FD0A61H   LINE      ECODE    ---       #402
      00FD0A63H   LINE      ECODE    ---       #404
      00FD0A9AH   LINE      ECODE    ---       #405
      00FD0AA5H   LINE      ECODE    ---       #406
      00FD0AB1H   LINE      ECODE    ---       #407
      ---         BLOCKEND  ---      ---       LVL=0

      00FD0AB2H   BLOCK     ECODE    ---       LVL=0
      00011A86H   SYMBOL    XDATA    WORD      x
      00011A88H   SYMBOL    XDATA    WORD      y
      00011A8AH   SYMBOL    XDATA    LONG      dat
      00011A8EH   SYMBOL    XDATA    BYTE      num
      00FD0ACCH   BLOCK     ECODE    NEAR LAB  LVL=1
      00011A8FH   SYMBOL    XDATA    ---       buff
      00011AB1H   SYMBOL    XDATA    BYTE      length
      ---         BLOCKEND  ---      ---       LVL=1
      00FD0AB2H   LINE      ECODE    ---       #419
      00FD0ACCH   LINE      ECODE    ---       #420
      00FD0ACCH   LINE      ECODE    ---       #425
      00FD0AF1H   LINE      ECODE    ---       #426
      00FD0B16H   LINE      ECODE    ---       #428
      00FD0B28H   LINE      ECODE    ---       #430
      00FD0B33H   LINE      ECODE    ---       #431
      00FD0B73H   LINE      ECODE    ---       #434
      00FD0B79H   LINE      ECODE    ---       #435
      00FD0BA7H   LINE      ECODE    ---       #436
      00FD0BB2H   LINE      ECODE    ---       #437
      00FD0BB2H   LINE      ECODE    ---       #438
      00FD0BB4H   LINE      ECODE    ---       #440
      00FD0BCCH   LINE      ECODE    ---       #441
L251 LINKER/LOCATER V4.66.93.0                                                        05/01/2026  15:28:45  PAGE 131


      00FD0BD7H   LINE      ECODE    ---       #442
      00FD0BE5H   LINE      ECODE    ---       #443
      00FD0BFCH   LINE      ECODE    ---       #445
      00FD0C14H   LINE      ECODE    ---       #446
      ---         BLOCKEND  ---      ---       LVL=0

      00FD0C15H   BLOCK     ECODE    ---       LVL=0
      0001192BH   SYMBOL    XDATA    WORD      x
      0001192DH   SYMBOL    XDATA    WORD      y
      0001192FH   SYMBOL    XDATA    DOUBLE    dat
      00011937H   SYMBOL    XDATA    BYTE      num
      00011938H   SYMBOL    XDATA    BYTE      pointnum
      00FD0C2BH   BLOCK     ECODE    NEAR LAB  LVL=1
      00011939H   SYMBOL    XDATA    BYTE      length
      0001193AH   SYMBOL    XDATA    ---       buff
      0001195CH   SYMBOL    XDATA    CHAR      start
      0001195DH   SYMBOL    XDATA    CHAR      end
      0001195EH   SYMBOL    XDATA    CHAR      point
      ---         BLOCKEND  ---      ---       LVL=1
      00FD0C15H   LINE      ECODE    ---       #462
      00FD0C2BH   LINE      ECODE    ---       #463
      00FD0C2BH   LINE      ECODE    ---       #468
      00FD0C50H   LINE      ECODE    ---       #469
      00FD0C75H   LINE      ECODE    ---       #471
      00FD0C87H   LINE      ECODE    ---       #472
      00FD0C99H   LINE      ECODE    ---       #474
      00FD0CF5H   LINE      ECODE    ---       #477
      00FD0D33H   LINE      ECODE    ---       #478
      00FD0D3EH   LINE      ECODE    ---       #479
      00FD0D3EH   LINE      ECODE    ---       #480
      00FD0D4EH   LINE      ECODE    ---       #481
      00FD0D66H   LINE      ECODE    ---       #482
      00FD0D7EH   LINE      ECODE    ---       #483
      00FD0D80H   LINE      ECODE    ---       #485
      00FD0D98H   LINE      ECODE    ---       #486
      00FD0DA3H   LINE      ECODE    ---       #487
      00FD0DAEH   LINE      ECODE    ---       #488
      00FD0DB9H   LINE      ECODE    ---       #490
      00FD0DEFH   LINE      ECODE    ---       #491
      00FD0E07H   LINE      ECODE    ---       #493
      00FD0E1EH   LINE      ECODE    ---       #495
      00FD0E36H   LINE      ECODE    ---       #496
      ---         BLOCKEND  ---      ---       LVL=0

      00FD0E37H   BLOCK     ECODE    ---       LVL=0
      00011D8DH   SYMBOL    XDATA    WORD      x
      00011D8FH   SYMBOL    XDATA    WORD      y
      00011D91H   SYMBOL    XDATA    ---       p
      00011D95H   SYMBOL    XDATA    WORD      width
      00011D97H   SYMBOL    XDATA    WORD      value_max
      00011D99H   SYMBOL    XDATA    WORD      dis_width
      00011D9BH   SYMBOL    XDATA    WORD      dis_value_max
      00FD0E4DH   BLOCK     ECODE    NEAR LAB  LVL=1
      00011D9DH   SYMBOL    XDATA    DWORD     i
      00011DA1H   SYMBOL    XDATA    DWORD     j
      00011DA5H   SYMBOL    XDATA    DWORD     width_index
      00011DA9H   SYMBOL    XDATA    DWORD     value_max_index
      ---         BLOCKEND  ---      ---       LVL=1
      00FD0E37H   LINE      ECODE    ---       #511
      00FD0E4DH   LINE      ECODE    ---       #512
      00FD0E4DH   LINE      ECODE    ---       #513
      00FD0E65H   LINE      ECODE    ---       #516
      00FD0E8AH   LINE      ECODE    ---       #517
      00FD0EAFH   LINE      ECODE    ---       #519
      00FD0EE6H   LINE      ECODE    ---       #520
L251 LINKER/LOCATER V4.66.93.0                                                        05/01/2026  15:28:45  PAGE 132


      00FD0EF4H   LINE      ECODE    ---       #522
      00FD0F02H   LINE      ECODE    ---       #524
      00FD0F10H   LINE      ECODE    ---       #525
      00FD0F3DH   LINE      ECODE    ---       #526
      00FD0F6AH   LINE      ECODE    ---       #528
      00FD0F79H   LINE      ECODE    ---       #530
      00FD0FA1H   LINE      ECODE    ---       #531
      00FD0FE0H   LINE      ECODE    ---       #532
      00FD1020H   LINE      ECODE    ---       #533
      00FD1050H   LINE      ECODE    ---       #534
      ---         BLOCKEND  ---      ---       LVL=0

      00FD1051H   BLOCK     ECODE    ---       LVL=0
      000108FDH   SYMBOL    XDATA    WORD      x
      000108FFH   SYMBOL    XDATA    WORD      y
      00010901H   SYMBOL    XDATA    ---       image
      00010905H   SYMBOL    XDATA    WORD      width
      00010907H   SYMBOL    XDATA    WORD      height
      00010909H   SYMBOL    XDATA    WORD      dis_width
      0001090BH   SYMBOL    XDATA    WORD      dis_height
      0001090DH   SYMBOL    XDATA    BYTE      threshold
      00FD106BH   BLOCK     ECODE    NEAR LAB  LVL=1
      0001090EH   SYMBOL    XDATA    DWORD     i
      00010912H   SYMBOL    XDATA    DWORD     j
      00010916H   SYMBOL    XDATA    WORD      color
      00010918H   SYMBOL    XDATA    WORD      temp
      0001091AH   SYMBOL    XDATA    ---       data_buffer
      00010AFAH   SYMBOL    XDATA    ---       image_temp
      ---         BLOCKEND  ---      ---       LVL=1
      00FD1051H   LINE      ECODE    ---       #553
      00FD106BH   LINE      ECODE    ---       #554
      00FD106BH   LINE      ECODE    ---       #555
      00FD1083H   LINE      ECODE    ---       #562
      00FD10A8H   LINE      ECODE    ---       #563
      00FD10CDH   LINE      ECODE    ---       #564
      00FD10F0H   LINE      ECODE    ---       #566
      00FD10F3H   LINE      ECODE    ---       #567
      00FD112AH   LINE      ECODE    ---       #569
      00FD1139H   LINE      ECODE    ---       #571
      00FD1179H   LINE      ECODE    ---       #572
      00FD1188H   LINE      ECODE    ---       #574
      00FD11BFH   LINE      ECODE    ---       #575
      00FD11CBH   LINE      ECODE    ---       #577
      00FD11EDH   LINE      ECODE    ---       #578
      00FD120FH   LINE      ECODE    ---       #579
      00FD122CH   LINE      ECODE    ---       #580
      00FD124DH   LINE      ECODE    ---       #581
      00FD124FH   LINE      ECODE    ---       #582
      00FD125FH   LINE      ECODE    ---       #584
      00FD127CH   LINE      ECODE    ---       #585
      00FD127EH   LINE      ECODE    ---       #588
      00FD129DH   LINE      ECODE    ---       #589
      00FD129DH   LINE      ECODE    ---       #590
      00FD12CDH   LINE      ECODE    ---       #591
      00FD12EFH   LINE      ECODE    ---       #592
      00FD131FH   LINE      ECODE    ---       #593
      00FD1322H   LINE      ECODE    ---       #594
      ---         BLOCKEND  ---      ---       LVL=0

      00FD1323H   BLOCK     ECODE    ---       LVL=0
      00011F7DH   SYMBOL    XDATA    WORD      x
      00011F7FH   SYMBOL    XDATA    WORD      y
      00011F81H   SYMBOL    XDATA    BYTE      siz
      00011F82H   SYMBOL    XDATA    ---       p
      00011F86H   SYMBOL    XDATA    BYTE      number
L251 LINKER/LOCATER V4.66.93.0                                                        05/01/2026  15:28:45  PAGE 133


      00011F87H   SYMBOL    XDATA    WORD      color
      00FD133DH   BLOCK     ECODE    NEAR LAB  LVL=1
      00011F89H   SYMBOL    XDATA    INT       i
      00011F8BH   SYMBOL    XDATA    INT       j
      00011F8DH   SYMBOL    XDATA    INT       k
      00011F8FH   SYMBOL    XDATA    BYTE      temp
      00011F90H   SYMBOL    XDATA    BYTE      temp1
      00011F91H   SYMBOL    XDATA    BYTE      temp2
      00011F92H   SYMBOL    XDATA    ---       p_data
      ---         BLOCKEND  ---      ---       LVL=1
      00FD1323H   LINE      ECODE    ---       #608
      00FD133DH   LINE      ECODE    ---       #609
      00FD133DH   LINE      ECODE    ---       #615
      00FD1362H   LINE      ECODE    ---       #616
      00FD1387H   LINE      ECODE    ---       #618
      00FD1397H   LINE      ECODE    ---       #620
      00FD13D4H   LINE      ECODE    ---       #622
      00FD13DFH   LINE      ECODE    ---       #624
      00FD13E7H   LINE      ECODE    ---       #625
      00FD140BH   LINE      ECODE    ---       #626
      00FD140EH   LINE      ECODE    ---       #628
      00FD1419H   LINE      ECODE    ---       #630
      00FD1425H   LINE      ECODE    ---       #632
      00FD144DH   LINE      ECODE    ---       #633
      00FD1466H   LINE      ECODE    ---       #634
      00FD1474H   LINE      ECODE    ---       #635
      00FD148FH   LINE      ECODE    ---       #636
      00FD14A2H   LINE      ECODE    ---       #637
      00FD14C4H   LINE      ECODE    ---       #638
      00FD14EEH   LINE      ECODE    ---       #639
      00FD1504H   LINE      ECODE    ---       #640
      00FD1526H   LINE      ECODE    ---       #641
      ---         BLOCKEND  ---      ---       LVL=0

      00FD1527H   BLOCK     ECODE    ---       LVL=0
      00FD1527H   LINE      ECODE    ---       #648
      00FD1527H   LINE      ECODE    ---       #653
      00FD1539H   LINE      ECODE    ---       #654
      00FD154AH   LINE      ECODE    ---       #655
      00FD1584H   LINE      ECODE    ---       #658
      00FD1595H   LINE      ECODE    ---       #659
      00FD15A6H   LINE      ECODE    ---       #660
      00FD15B7H   LINE      ECODE    ---       #661
      00FD15C9H   LINE      ECODE    ---       #663
      00FD15D3H   LINE      ECODE    ---       #664
      00FD15E3H   LINE      ECODE    ---       #666
      00FD15E6H   LINE      ECODE    ---       #667
      00FD1604H   LINE      ECODE    ---       #669
      00FD1607H   LINE      ECODE    ---       #670
      00FD1625H   LINE      ECODE    ---       #672
      00FD162AH   LINE      ECODE    ---       #673
      00FD1648H   LINE      ECODE    ---       #674
      00FD165FH   LINE      ECODE    ---       #675
      00FD1679H   LINE      ECODE    ---       #676
      00FD1693H   LINE      ECODE    ---       #677
      00FD169DH   LINE      ECODE    ---       #679
      00FD16A2H   LINE      ECODE    ---       #680
      00FD16ACH   LINE      ECODE    ---       #682
      00FD16B1H   LINE      ECODE    ---       #683
      00FD16BBH   LINE      ECODE    ---       #684
      00FD16C5H   LINE      ECODE    ---       #685
      00FD16CEH   LINE      ECODE    ---       #686
      00FD16D8H   LINE      ECODE    ---       #687
      00FD16E2H   LINE      ECODE    ---       #689
      00FD16E7H   LINE      ECODE    ---       #690
L251 LINKER/LOCATER V4.66.93.0                                                        05/01/2026  15:28:45  PAGE 134


      00FD16F1H   LINE      ECODE    ---       #692
      00FD16F6H   LINE      ECODE    ---       #693
      00FD1700H   LINE      ECODE    ---       #695
      00FD1705H   LINE      ECODE    ---       #696
      00FD170FH   LINE      ECODE    ---       #698
      00FD1714H   LINE      ECODE    ---       #699
      00FD171EH   LINE      ECODE    ---       #701
      00FD1723H   LINE      ECODE    ---       #702
      00FD172DH   LINE      ECODE    ---       #704
      00FD1732H   LINE      ECODE    ---       #705
      00FD173CH   LINE      ECODE    ---       #707
      00FD1741H   LINE      ECODE    ---       #708
      00FD174BH   LINE      ECODE    ---       #710
      00FD1750H   LINE      ECODE    ---       #711
      00FD175AH   LINE      ECODE    ---       #712
      00FD1764H   LINE      ECODE    ---       #714
      00FD1769H   LINE      ECODE    ---       #715
      00FD1773H   LINE      ECODE    ---       #716
      00FD177DH   LINE      ECODE    ---       #717
      00FD1787H   LINE      ECODE    ---       #718
      00FD1791H   LINE      ECODE    ---       #719
      00FD179BH   LINE      ECODE    ---       #720
      00FD17A5H   LINE      ECODE    ---       #721
      00FD17AFH   LINE      ECODE    ---       #722
      00FD17B9H   LINE      ECODE    ---       #723
      00FD17C3H   LINE      ECODE    ---       #724
      00FD17CDH   LINE      ECODE    ---       #725
      00FD17D7H   LINE      ECODE    ---       #726
      00FD17E1H   LINE      ECODE    ---       #727
      00FD17EBH   LINE      ECODE    ---       #728
      00FD17F5H   LINE      ECODE    ---       #730
      00FD17FAH   LINE      ECODE    ---       #731
      00FD1804H   LINE      ECODE    ---       #732
      00FD180EH   LINE      ECODE    ---       #733
      00FD1818H   LINE      ECODE    ---       #734
      00FD1822H   LINE      ECODE    ---       #735
      00FD182CH   LINE      ECODE    ---       #736
      00FD1836H   LINE      ECODE    ---       #737
      00FD1840H   LINE      ECODE    ---       #738
      00FD184AH   LINE      ECODE    ---       #739
      00FD1854H   LINE      ECODE    ---       #740
      00FD185EH   LINE      ECODE    ---       #741
      00FD1868H   LINE      ECODE    ---       #742
      00FD1872H   LINE      ECODE    ---       #743
      00FD187CH   LINE      ECODE    ---       #744
      00FD1886H   LINE      ECODE    ---       #746
      00FD188BH   LINE      ECODE    ---       #748
      00FD1890H   LINE      ECODE    ---       #749
      00FD18AEH   LINE      ECODE    ---       #751
      00FD18B3H   LINE      ECODE    ---       #753
      00FD18BDH   LINE      ECODE    ---       #754
      ---         BLOCKEND  ---      ---       LVL=0

      ---         MODULE    ---      ---       zf_device_tft180
      00FD2AC0H   PUBLIC    ECODE    ---       tft180_init?
      00FD23FCH   PUBLIC    ECODE    ---       tft180_show_float?
      00FD1B72H   PUBLIC    ECODE    ---       tft180_draw_point?
      00FD1D17H   PUBLIC    ECODE    ---       tft180_show_string?
      00FD261EH   PUBLIC    ECODE    ---       tft180_show_gray_image?
      00FD1BF8H   PUBLIC    ECODE    ---       tft180_show_char?
      00FD217DH   PUBLIC    ECODE    ---       tft180_show_uint16?
      00FD1B4DH   PUBLIC    ECODE    ---       tft180_set_color?
      00FD2299H   PUBLIC    ECODE    ---       tft180_show_int32?
      00FD2003H   PUBLIC    ECODE    ---       tft180_show_int16?
      00FD28A6H   PUBLIC    ECODE    ---       tft180_show_wave?
L251 LINKER/LOCATER V4.66.93.0                                                        05/01/2026  15:28:45  PAGE 135


      00FD1B12H   PUBLIC    ECODE    ---       tft180_set_dir?
      00FD1A63H   PUBLIC    ECODE    ---       tft180_clear?
      00FD1F15H   PUBLIC    ECODE    ---       tft180_show_uint8?
      00FD1DDEH   PUBLIC    ECODE    ---       tft180_show_int8?
      00012808H   PUBLIC    XDATA    WORD      tft180_pencolor
      0001280AH   PUBLIC    XDATA    WORD      tft180_bgcolor
      0001280CH   PUBLIC    XDATA    INT       tft180_display_dir
      0001280EH   PUBLIC    XDATA    BYTE      tft180_x_max
      0001280FH   PUBLIC    XDATA    BYTE      tft180_y_max
      0001195FH   PUBLIC    XDATA    BYTE      ?tft180_show_float??BYTE
      00011C49H   PUBLIC    XDATA    BYTE      ?tft180_show_gray_image??BYTE
      00011DADH   PUBLIC    XDATA    BYTE      ?tft180_show_wave??BYTE
      000000D0H   SFRSYM    DATA     BYTE      PSW
      0000009DH   SFRSYM    DATA     BYTE      IRCBAND
      00000097H   SFRSYM    DATA     BYTE      AUXR2
      000000EAH   SFRSYM    DATA     BYTE      CKCON
      000000EFH   SFRSYM    DATA     BYTE      AUXINTIF
      000000FDH   SFRSYM    DATA     BYTE      S4CON
      000000ACH   SFRSYM    DATA     BYTE      S3CON
      0000009AH   SFRSYM    DATA     BYTE      S2CON
      000000B7H   SFRSYM    DATA     BYTE      IPH
      000000CDH   SFRSYM    DATA     BYTE      SPSTAT
      000000DDH   SFRSYM    DATA     BYTE      T4T3M
      000000C1H   SFRSYM    DATA     BYTE      WDT_CONTR
      000000DFH   SFRSYM    DATA     BYTE      IP3
      000000F4H   SFRSYM    DATA     BYTE      USBCON
      000000B5H   SFRSYM    DATA     BYTE      IP2
      000000FFH   SFRSYM    DATA     BYTE      RSTCFG
      000000E0H   SFRSYM    DATA     BYTE      ACC
      000000C7H   SFRSYM    DATA     BYTE      IAP_CONTR
      000000F9H   SFRSYM    DATA     BYTE      LINICR
      0000008EH   SFRSYM    DATA     BYTE      AUXR
      000000F0H   SFRSYM    DATA     BYTE      B
      000000AFH   SFRSYM    DATA     BYTE      IE2
      000000F8H.2 SFRSYM    DATA     BIT       P72
      000000B0H.5 SFRSYM    DATA     BIT       P35
      000000F8H.0 SFRSYM    DATA     BIT       P70
      00000088H   SFRSYM    DATA     BYTE      TCON
      00000089H   SFRSYM    DATA     BYTE      TMOD
      00000098H   SFRSYM    DATA     BYTE      SCON
      00000087H   SFRSYM    DATA     BYTE      PCON
      000000BCH   SFRSYM    DATA     BYTE      ADC_CONTR
      000000D1H   SFRSYM    DATA     BYTE      PSW1
      000000E7H   SFRSYM    DATA     BYTE      CMPCR2
      000000E6H   SFRSYM    DATA     BYTE      CMPCR1
      000000DEH   SFRSYM    DATA     BYTE      ADCCFG
      000000B8H   SFRSYM    DATA     BYTE      IP
      0000008FH   SFRSYM    DATA     BYTE      INTCLKO
      000000EEH   SFRSYM    DATA     BYTE      IP3H
      000000B6H   SFRSYM    DATA     BYTE      IP2H
      000000BFH   SFRSYM    DATA     BYTE      P_SW4
      000000A8H   SFRSYM    DATA     BYTE      IE
      000000BBH   SFRSYM    DATA     BYTE      P_SW3
      000000BAH   SFRSYM    DATA     BYTE      P_SW2
      000000A2H   SFRSYM    DATA     BYTE      P_SW1
      000000CEH   SFRSYM    DATA     BYTE      SPCTL
      000000F8H   SFRSYM    DATA     BYTE      P7
      000000E8H   SFRSYM    DATA     BYTE      P6
      000000C8H   SFRSYM    DATA     BYTE      P5
      000000C0H   SFRSYM    DATA     BYTE      P4
      000000ABH   SFRSYM    DATA     BYTE      WKTCH
      000000B0H   SFRSYM    DATA     BYTE      P3
      000000A0H   SFRSYM    DATA     BYTE      P2
      00000090H   SFRSYM    DATA     BYTE      P1
      00000080H   SFRSYM    DATA     BYTE      P0
L251 LINKER/LOCATER V4.66.93.0                                                        05/01/2026  15:28:45  PAGE 136


      00FD18E1H   SYMBOL    ECODE    ---       tft180_set_region
      00FD18BEH   SYMBOL    ECODE    ---       tft180_write_index

      00FD18BEH   BLOCK     ECODE    ---       LVL=0
      00012B00H   SYMBOL    XDATA    BYTE      dat
      00FD18BEH   LINE      ECODE    ---       #84
      00FD18C2H   LINE      ECODE    ---       #86
      00FD18C5H   LINE      ECODE    ---       #87
      00FD18C8H   LINE      ECODE    ---       #88
      00FD18CBH   LINE      ECODE    ---       #89
      00FD18D7H   LINE      ECODE    ---       #90
      00FD18DAH   LINE      ECODE    ---       #91
      00FD18DDH   LINE      ECODE    ---       #92
      00FD18E0H   LINE      ECODE    ---       #93
      ---         BLOCKEND  ---      ---       LVL=0

      00FD18E1H   BLOCK     ECODE    ---       LVL=0
      00012810H   SYMBOL    XDATA    WORD      x1
      00012812H   SYMBOL    XDATA    WORD      y1
      00012814H   SYMBOL    XDATA    WORD      x2
      00012816H   SYMBOL    XDATA    WORD      y2
      00FD18E1H   LINE      ECODE    ---       #104
      00FD18F9H   LINE      ECODE    ---       #106
      00FD191EH   LINE      ECODE    ---       #107
      00FD1943H   LINE      ECODE    ---       #108
      00FD1968H   LINE      ECODE    ---       #109
      00FD198DH   LINE      ECODE    ---       #111
      00FD19A7H   LINE      ECODE    ---       #113
      00FD19ACH   LINE      ECODE    ---       #114
      00FD19C0H   LINE      ECODE    ---       #115
      00FD19D4H   LINE      ECODE    ---       #117
      00FD19D9H   LINE      ECODE    ---       #118
      00FD19EDH   LINE      ECODE    ---       #119
      00FD1A01H   LINE      ECODE    ---       #120
      00FD1A03H   LINE      ECODE    ---       #123
      00FD1A08H   LINE      ECODE    ---       #124
      00FD1A1CH   LINE      ECODE    ---       #125
      00FD1A30H   LINE      ECODE    ---       #127
      00FD1A35H   LINE      ECODE    ---       #128
      00FD1A49H   LINE      ECODE    ---       #129
      00FD1A5DH   LINE      ECODE    ---       #130
      00FD1A5DH   LINE      ECODE    ---       #131
      00FD1A62H   LINE      ECODE    ---       #132
      ---         BLOCKEND  ---      ---       LVL=0

      00FD1A63H   BLOCK     ECODE    ---       LVL=0
      00010CE2H   SYMBOL    XDATA    WORD      color
      00FD1A69H   BLOCK     ECODE    NEAR LAB  LVL=1
      00010CE4H   SYMBOL    XDATA    WORD      i
      00010CE6H   SYMBOL    XDATA    ---       tmp
      ---         BLOCKEND  ---      ---       LVL=1
      00FD1A63H   LINE      ECODE    ---       #142
      00FD1A69H   LINE      ECODE    ---       #143
      00FD1A69H   LINE      ECODE    ---       #146
      00FD1A88H   LINE      ECODE    ---       #148
      00FD1A92H   LINE      ECODE    ---       #150
      00FD1AAFH   LINE      ECODE    ---       #151
      00FD1ACCH   LINE      ECODE    ---       #152
      00FD1AD6H   LINE      ECODE    ---       #154
      00FD1AF4H   LINE      ECODE    ---       #155
      00FD1B11H   LINE      ECODE    ---       #156
      ---         BLOCKEND  ---      ---       LVL=0

      00FD1B12H   BLOCK     ECODE    ---       LVL=0
      00012ADAH   SYMBOL    XDATA    INT       dir
L251 LINKER/LOCATER V4.66.93.0                                                        05/01/2026  15:28:45  PAGE 137


      00FD1B12H   LINE      ECODE    ---       #164
      00FD1B18H   LINE      ECODE    ---       #166
      00FD1B24H   LINE      ECODE    ---       #167
      00FD1B32H   LINE      ECODE    ---       #169
      00FD1B38H   LINE      ECODE    ---       #170
      00FD1B3EH   LINE      ECODE    ---       #171
      00FD1B40H   LINE      ECODE    ---       #174
      00FD1B46H   LINE      ECODE    ---       #175
      00FD1B4CH   LINE      ECODE    ---       #176
      00FD1B4CH   LINE      ECODE    ---       #177
      ---         BLOCKEND  ---      ---       LVL=0

      00FD1B4DH   BLOCK     ECODE    ---       LVL=0
      00012A43H   SYMBOL    XDATA    WORD      pen
      00012A45H   SYMBOL    XDATA    WORD      bgcolor
      00FD1B4DH   LINE      ECODE    ---       #186
      00FD1B59H   LINE      ECODE    ---       #188
      00FD1B65H   LINE      ECODE    ---       #189
      00FD1B71H   LINE      ECODE    ---       #190
      ---         BLOCKEND  ---      ---       LVL=0

      00FD1B72H   BLOCK     ECODE    ---       LVL=0
      0001292DH   SYMBOL    XDATA    WORD      x
      0001292FH   SYMBOL    XDATA    WORD      y
      00012931H   SYMBOL    XDATA    WORD      color
      00FD1B72H   LINE      ECODE    ---       #200
      00FD1B84H   LINE      ECODE    ---       #202
      00FD1BA9H   LINE      ECODE    ---       #203
      00FD1BCEH   LINE      ECODE    ---       #205
      00FD1BE9H   LINE      ECODE    ---       #206
      00FD1BF7H   LINE      ECODE    ---       #207
      ---         BLOCKEND  ---      ---       LVL=0

      00FD1BF8H   BLOCK     ECODE    ---       LVL=0
      00012818H   SYMBOL    XDATA    WORD      x
      0001281AH   SYMBOL    XDATA    WORD      y
      0001281CH   SYMBOL    XDATA    CHAR      dat
      00FD1C08H   BLOCK     ECODE    NEAR LAB  LVL=1
      0001281DH   SYMBOL    XDATA    BYTE      i
      0001281EH   SYMBOL    XDATA    BYTE      j
      0001281FH   SYMBOL    XDATA    BYTE      temp
      ---         BLOCKEND  ---      ---       LVL=1
      00FD1BF8H   LINE      ECODE    ---       #217
      00FD1C08H   LINE      ECODE    ---       #218
      00FD1C08H   LINE      ECODE    ---       #222
      00FD1C2DH   LINE      ECODE    ---       #223
      00FD1C52H   LINE      ECODE    ---       #225
      00FD1C5AH   LINE      ECODE    ---       #227
      00FD1C8BH   LINE      ECODE    ---       #228
      00FD1CB2H   LINE      ECODE    ---       #229
      00FD1CB9H   LINE      ECODE    ---       #231
      00FD1CC0H   LINE      ECODE    ---       #232
      00FD1CD0H   LINE      ECODE    ---       #234
      00FD1CDEH   LINE      ECODE    ---       #235
      00FD1CE5H   LINE      ECODE    ---       #236
      00FD1CFCH   LINE      ECODE    ---       #237
      00FD1D16H   LINE      ECODE    ---       #238
      ---         BLOCKEND  ---      ---       LVL=0

      00FD1D17H   BLOCK     ECODE    ---       LVL=0
      00012669H   SYMBOL    XDATA    WORD      x
      0001266BH   SYMBOL    XDATA    WORD      y
      0001266DH   SYMBOL    XDATA    ---       dat
      00FD1D2DH   BLOCK     ECODE    NEAR LAB  LVL=1
      00012671H   SYMBOL    XDATA    WORD      j
L251 LINKER/LOCATER V4.66.93.0                                                        05/01/2026  15:28:45  PAGE 138


      ---         BLOCKEND  ---      ---       LVL=1
      00FD1D17H   LINE      ECODE    ---       #248
      00FD1D2DH   LINE      ECODE    ---       #249
      00FD1D2DH   LINE      ECODE    ---       #250
      00FD1D35H   LINE      ECODE    ---       #252
      00FD1D5AH   LINE      ECODE    ---       #253
      00FD1D7FH   LINE      ECODE    ---       #256
      00FD1D81H   LINE      ECODE    ---       #258
      00FD1DB4H   LINE      ECODE    ---       #259
      00FD1DC3H   LINE      ECODE    ---       #260
      00FD1DDDH   LINE      ECODE    ---       #261
      ---         BLOCKEND  ---      ---       LVL=0

      00FD1DDEH   BLOCK     ECODE    ---       LVL=0
      000126D3H   SYMBOL    XDATA    WORD      x
      000126D5H   SYMBOL    XDATA    WORD      y
      000126D7H   SYMBOL    XDATA    CHAR      dat
      00FD1DEEH   BLOCK     ECODE    NEAR LAB  LVL=1
      000126D8H   SYMBOL    XDATA    ---       a
      000126DBH   SYMBOL    XDATA    BYTE      i
      ---         BLOCKEND  ---      ---       LVL=1
      00FD1DDEH   LINE      ECODE    ---       #271
      00FD1DEEH   LINE      ECODE    ---       #272
      00FD1DEEH   LINE      ECODE    ---       #276
      00FD1E13H   LINE      ECODE    ---       #277
      00FD1E38H   LINE      ECODE    ---       #280
      00FD1E42H   LINE      ECODE    ---       #282
      00FD1E54H   LINE      ECODE    ---       #283
      00FD1E5FH   LINE      ECODE    ---       #284
      00FD1E61H   LINE      ECODE    ---       #286
      00FD1E73H   LINE      ECODE    ---       #288
      00FD1E87H   LINE      ECODE    ---       #289
      00FD1EA3H   LINE      ECODE    ---       #290
      00FD1EB7H   LINE      ECODE    ---       #291
      00FD1EBCH   LINE      ECODE    ---       #292
      00FD1EBEH   LINE      ECODE    ---       #294
      00FD1EFDH   LINE      ECODE    ---       #295
      00FD1F08H   LINE      ECODE    ---       #296
      00FD1F14H   LINE      ECODE    ---       #297
      ---         BLOCKEND  ---      ---       LVL=0

      00FD1F15H   BLOCK     ECODE    ---       LVL=0
      000126DCH   SYMBOL    XDATA    WORD      x
      000126DEH   SYMBOL    XDATA    WORD      y
      000126E0H   SYMBOL    XDATA    BYTE      dat
      00FD1F25H   BLOCK     ECODE    NEAR LAB  LVL=1
      000126E1H   SYMBOL    XDATA    ---       a
      000126E4H   SYMBOL    XDATA    BYTE      i
      ---         BLOCKEND  ---      ---       LVL=1
      00FD1F15H   LINE      ECODE    ---       #307
      00FD1F25H   LINE      ECODE    ---       #308
      00FD1F25H   LINE      ECODE    ---       #312
      00FD1F4AH   LINE      ECODE    ---       #313
      00FD1F6FH   LINE      ECODE    ---       #315
      00FD1F7FH   LINE      ECODE    ---       #316
      00FD1F99H   LINE      ECODE    ---       #317
      00FD1FADH   LINE      ECODE    ---       #318
      00FD1FB2H   LINE      ECODE    ---       #319
      00FD1FB4H   LINE      ECODE    ---       #321
      00FD1FEBH   LINE      ECODE    ---       #322
      00FD1FF6H   LINE      ECODE    ---       #323
      00FD2002H   LINE      ECODE    ---       #325
      ---         BLOCKEND  ---      ---       LVL=0

      00FD2003H   BLOCK     ECODE    ---       LVL=0
L251 LINKER/LOCATER V4.66.93.0                                                        05/01/2026  15:28:45  PAGE 139


      000124C5H   SYMBOL    XDATA    WORD      x
      000124C7H   SYMBOL    XDATA    WORD      y
      000124C9H   SYMBOL    XDATA    INT       dat
      00FD2015H   BLOCK     ECODE    NEAR LAB  LVL=1
      000124CBH   SYMBOL    XDATA    ---       a
      000124D0H   SYMBOL    XDATA    BYTE      i
      ---         BLOCKEND  ---      ---       LVL=1
      00FD2003H   LINE      ECODE    ---       #335
      00FD2015H   LINE      ECODE    ---       #336
      00FD2015H   LINE      ECODE    ---       #340
      00FD203AH   LINE      ECODE    ---       #341
      00FD205FH   LINE      ECODE    ---       #343
      00FD206BH   LINE      ECODE    ---       #345
      00FD207DH   LINE      ECODE    ---       #346
      00FD208FH   LINE      ECODE    ---       #347
      00FD2091H   LINE      ECODE    ---       #348
      00FD20A3H   LINE      ECODE    ---       #350
      00FD20B7H   LINE      ECODE    ---       #351
      00FD20D3H   LINE      ECODE    ---       #352
      00FD20EFH   LINE      ECODE    ---       #353
      00FD210BH   LINE      ECODE    ---       #354
      00FD211FH   LINE      ECODE    ---       #356
      00FD2124H   LINE      ECODE    ---       #357
      00FD2126H   LINE      ECODE    ---       #359
      00FD2165H   LINE      ECODE    ---       #360
      00FD2170H   LINE      ECODE    ---       #361
      00FD217CH   LINE      ECODE    ---       #362
      ---         BLOCKEND  ---      ---       LVL=0

      00FD217DH   BLOCK     ECODE    ---       LVL=0
      000124D1H   SYMBOL    XDATA    WORD      x
      000124D3H   SYMBOL    XDATA    WORD      y
      000124D5H   SYMBOL    XDATA    WORD      dat
      00FD218FH   BLOCK     ECODE    NEAR LAB  LVL=1
      000124D7H   SYMBOL    XDATA    ---       a
      000124DCH   SYMBOL    XDATA    BYTE      i
      ---         BLOCKEND  ---      ---       LVL=1
      00FD217DH   LINE      ECODE    ---       #372
      00FD218FH   LINE      ECODE    ---       #373
      00FD218FH   LINE      ECODE    ---       #377
      00FD21B4H   LINE      ECODE    ---       #378
      00FD21D9H   LINE      ECODE    ---       #380
      00FD21E9H   LINE      ECODE    ---       #381
      00FD2201H   LINE      ECODE    ---       #382
      00FD2219H   LINE      ECODE    ---       #383
      00FD2231H   LINE      ECODE    ---       #384
      00FD2243H   LINE      ECODE    ---       #386
      00FD2248H   LINE      ECODE    ---       #387
      00FD224AH   LINE      ECODE    ---       #389
      00FD2281H   LINE      ECODE    ---       #390
      00FD228CH   LINE      ECODE    ---       #391
      00FD2298H   LINE      ECODE    ---       #392
      ---         BLOCKEND  ---      ---       LVL=0

      00FD2299H   BLOCK     ECODE    ---       LVL=0
      00011AB2H   SYMBOL    XDATA    WORD      x
      00011AB4H   SYMBOL    XDATA    WORD      y
      00011AB6H   SYMBOL    XDATA    LONG      dat
      00011ABAH   SYMBOL    XDATA    BYTE      num
      00FD22B3H   BLOCK     ECODE    NEAR LAB  LVL=1
      00011ABBH   SYMBOL    XDATA    ---       buff
      00011ADDH   SYMBOL    XDATA    BYTE      length
      ---         BLOCKEND  ---      ---       LVL=1
      00FD2299H   LINE      ECODE    ---       #404
      00FD22B3H   LINE      ECODE    ---       #405
L251 LINKER/LOCATER V4.66.93.0                                                        05/01/2026  15:28:45  PAGE 140


      00FD22B3H   LINE      ECODE    ---       #409
      00FD22D8H   LINE      ECODE    ---       #410
      00FD22FDH   LINE      ECODE    ---       #412
      00FD230FH   LINE      ECODE    ---       #414
      00FD231AH   LINE      ECODE    ---       #415
      00FD235AH   LINE      ECODE    ---       #418
      00FD2360H   LINE      ECODE    ---       #419
      00FD238EH   LINE      ECODE    ---       #420
      00FD2399H   LINE      ECODE    ---       #421
      00FD2399H   LINE      ECODE    ---       #422
      00FD239BH   LINE      ECODE    ---       #424
      00FD23B3H   LINE      ECODE    ---       #425
      00FD23BEH   LINE      ECODE    ---       #426
      00FD23CCH   LINE      ECODE    ---       #427
      00FD23E3H   LINE      ECODE    ---       #429
      00FD23FBH   LINE      ECODE    ---       #430
      ---         BLOCKEND  ---      ---       LVL=0

      00FD23FCH   BLOCK     ECODE    ---       LVL=0
      0001195FH   SYMBOL    XDATA    WORD      x
      00011961H   SYMBOL    XDATA    WORD      y
      00011963H   SYMBOL    XDATA    DOUBLE    dat
      0001196BH   SYMBOL    XDATA    BYTE      num
      0001196CH   SYMBOL    XDATA    BYTE      pointnum
      00FD2412H   BLOCK     ECODE    NEAR LAB  LVL=1
      0001196DH   SYMBOL    XDATA    BYTE      length
      0001196EH   SYMBOL    XDATA    ---       buff
      00011990H   SYMBOL    XDATA    CHAR      start
      00011991H   SYMBOL    XDATA    CHAR      end
      00011992H   SYMBOL    XDATA    CHAR      point
      ---         BLOCKEND  ---      ---       LVL=1
      00FD23FCH   LINE      ECODE    ---       #446
      00FD2412H   LINE      ECODE    ---       #447
      00FD2412H   LINE      ECODE    ---       #452
      00FD2437H   LINE      ECODE    ---       #453
      00FD245CH   LINE      ECODE    ---       #455
      00FD246EH   LINE      ECODE    ---       #456
      00FD2480H   LINE      ECODE    ---       #458
      00FD24DCH   LINE      ECODE    ---       #461
      00FD251AH   LINE      ECODE    ---       #462
      00FD2525H   LINE      ECODE    ---       #463
      00FD2525H   LINE      ECODE    ---       #464
      00FD2535H   LINE      ECODE    ---       #465
      00FD254DH   LINE      ECODE    ---       #466
      00FD2565H   LINE      ECODE    ---       #467
      00FD2567H   LINE      ECODE    ---       #469
      00FD257FH   LINE      ECODE    ---       #470
      00FD258AH   LINE      ECODE    ---       #471
      00FD2595H   LINE      ECODE    ---       #472
      00FD25A0H   LINE      ECODE    ---       #474
      00FD25D6H   LINE      ECODE    ---       #475
      00FD25EEH   LINE      ECODE    ---       #477
      00FD2605H   LINE      ECODE    ---       #479
      00FD261DH   LINE      ECODE    ---       #480
      ---         BLOCKEND  ---      ---       LVL=0

      00FD261EH   BLOCK     ECODE    ---       LVL=0
      00011C49H   SYMBOL    XDATA    WORD      x
      00011C4BH   SYMBOL    XDATA    WORD      y
      00011C4DH   SYMBOL    XDATA    ---       image
      00011C51H   SYMBOL    XDATA    WORD      width
      00011C53H   SYMBOL    XDATA    WORD      height
      00011C55H   SYMBOL    XDATA    WORD      dis_width
      00011C57H   SYMBOL    XDATA    WORD      dis_height
      00011C59H   SYMBOL    XDATA    BYTE      threshold
L251 LINKER/LOCATER V4.66.93.0                                                        05/01/2026  15:28:45  PAGE 141


      00FD2638H   BLOCK     ECODE    NEAR LAB  LVL=1
      00011C5AH   SYMBOL    XDATA    DWORD     i
      00011C5EH   SYMBOL    XDATA    DWORD     j
      00011C62H   SYMBOL    XDATA    WORD      color
      00011C64H   SYMBOL    XDATA    WORD      temp
      00011C66H   SYMBOL    XDATA    DWORD     width_index
      00011C6AH   SYMBOL    XDATA    DWORD     height_index
      ---         BLOCKEND  ---      ---       LVL=1
      00FD261EH   LINE      ECODE    ---       #499
      00FD2638H   LINE      ECODE    ---       #500
      00FD2638H   LINE      ECODE    ---       #501
      00FD2650H   LINE      ECODE    ---       #507
      00FD2675H   LINE      ECODE    ---       #508
      00FD269AH   LINE      ECODE    ---       #509
      00FD26BDH   LINE      ECODE    ---       #511
      00FD26C0H   LINE      ECODE    ---       #512
      00FD26F7H   LINE      ECODE    ---       #514
      00FD2706H   LINE      ECODE    ---       #516
      00FD272EH   LINE      ECODE    ---       #517
      00FD273DH   LINE      ECODE    ---       #519
      00FD2765H   LINE      ECODE    ---       #520
      00FD27A0H   LINE      ECODE    ---       #521
      00FD27A9H   LINE      ECODE    ---       #523
      00FD27CBH   LINE      ECODE    ---       #524
      00FD27EDH   LINE      ECODE    ---       #525
      00FD280AH   LINE      ECODE    ---       #526
      00FD2818H   LINE      ECODE    ---       #527
      00FD281AH   LINE      ECODE    ---       #528
      00FD282AH   LINE      ECODE    ---       #530
      00FD2834H   LINE      ECODE    ---       #531
      00FD2836H   LINE      ECODE    ---       #534
      00FD2842H   LINE      ECODE    ---       #535
      00FD2842H   LINE      ECODE    ---       #536
      00FD2872H   LINE      ECODE    ---       #537
      00FD28A2H   LINE      ECODE    ---       #538
      00FD28A5H   LINE      ECODE    ---       #539
      ---         BLOCKEND  ---      ---       LVL=0

      00FD28A6H   BLOCK     ECODE    ---       LVL=0
      00011DADH   SYMBOL    XDATA    WORD      x
      00011DAFH   SYMBOL    XDATA    WORD      y
      00011DB1H   SYMBOL    XDATA    ---       p
      00011DB5H   SYMBOL    XDATA    WORD      width
      00011DB7H   SYMBOL    XDATA    WORD      value_max
      00011DB9H   SYMBOL    XDATA    WORD      dis_width
      00011DBBH   SYMBOL    XDATA    WORD      dis_value_max
      00FD28BCH   BLOCK     ECODE    NEAR LAB  LVL=1
      00011DBDH   SYMBOL    XDATA    DWORD     i
      00011DC1H   SYMBOL    XDATA    DWORD     j
      00011DC5H   SYMBOL    XDATA    DWORD     width_index
      00011DC9H   SYMBOL    XDATA    DWORD     value_max_index
      ---         BLOCKEND  ---      ---       LVL=1
      00FD28A6H   LINE      ECODE    ---       #553
      00FD28BCH   LINE      ECODE    ---       #554
      00FD28BCH   LINE      ECODE    ---       #555
      00FD28D4H   LINE      ECODE    ---       #558
      00FD28F9H   LINE      ECODE    ---       #559
      00FD291EH   LINE      ECODE    ---       #561
      00FD2955H   LINE      ECODE    ---       #562
      00FD2963H   LINE      ECODE    ---       #564
      00FD2971H   LINE      ECODE    ---       #566
      00FD297FH   LINE      ECODE    ---       #567
      00FD29ACH   LINE      ECODE    ---       #568
      00FD29D9H   LINE      ECODE    ---       #570
      00FD29E8H   LINE      ECODE    ---       #572
L251 LINKER/LOCATER V4.66.93.0                                                        05/01/2026  15:28:45  PAGE 142


      00FD2A10H   LINE      ECODE    ---       #573
      00FD2A4FH   LINE      ECODE    ---       #574
      00FD2A8FH   LINE      ECODE    ---       #575
      00FD2ABFH   LINE      ECODE    ---       #576
      ---         BLOCKEND  ---      ---       LVL=0

      00FD2AC0H   BLOCK     ECODE    ---       LVL=0
      00FD2AC0H   LINE      ECODE    ---       #583
      00FD2AC0H   LINE      ECODE    ---       #588
      00FD2AFAH   LINE      ECODE    ---       #591
      00FD2B0BH   LINE      ECODE    ---       #592
      00FD2B1CH   LINE      ECODE    ---       #593
      00FD2B2DH   LINE      ECODE    ---       #594
      00FD2B3FH   LINE      ECODE    ---       #596
      00FD2B49H   LINE      ECODE    ---       #597
      00FD2B59H   LINE      ECODE    ---       #599
      00FD2B5CH   LINE      ECODE    ---       #600
      00FD2B7AH   LINE      ECODE    ---       #602
      00FD2B7DH   LINE      ECODE    ---       #603
      00FD2B9BH   LINE      ECODE    ---       #605
      00FD2BA0H   LINE      ECODE    ---       #606
      00FD2BBEH   LINE      ECODE    ---       #608
      00FD2BC3H   LINE      ECODE    ---       #609
      00FD2BCDH   LINE      ECODE    ---       #610
      00FD2BD7H   LINE      ECODE    ---       #611
      00FD2BE1H   LINE      ECODE    ---       #613
      00FD2BE6H   LINE      ECODE    ---       #614
      00FD2BF0H   LINE      ECODE    ---       #615
      00FD2BFAH   LINE      ECODE    ---       #616
      00FD2C04H   LINE      ECODE    ---       #618
      00FD2C09H   LINE      ECODE    ---       #619
      00FD2C13H   LINE      ECODE    ---       #620
      00FD2C1DH   LINE      ECODE    ---       #621
      00FD2C27H   LINE      ECODE    ---       #622
      00FD2C31H   LINE      ECODE    ---       #623
      00FD2C3BH   LINE      ECODE    ---       #624
      00FD2C45H   LINE      ECODE    ---       #626
      00FD2C4AH   LINE      ECODE    ---       #627
      00FD2C54H   LINE      ECODE    ---       #629
      00FD2C59H   LINE      ECODE    ---       #630
      00FD2C63H   LINE      ECODE    ---       #631
      00FD2C6DH   LINE      ECODE    ---       #632
      00FD2C77H   LINE      ECODE    ---       #633
      00FD2C7CH   LINE      ECODE    ---       #634
      00FD2C86H   LINE      ECODE    ---       #636
      00FD2C8BH   LINE      ECODE    ---       #637
      00FD2C95H   LINE      ECODE    ---       #638
      00FD2C9EH   LINE      ECODE    ---       #640
      00FD2CA3H   LINE      ECODE    ---       #641
      00FD2CADH   LINE      ECODE    ---       #642
      00FD2CB7H   LINE      ECODE    ---       #643
      00FD2CBCH   LINE      ECODE    ---       #644
      00FD2CC6H   LINE      ECODE    ---       #645
      00FD2CD0H   LINE      ECODE    ---       #647
      00FD2CD5H   LINE      ECODE    ---       #648
      00FD2CDFH   LINE      ECODE    ---       #650
      00FD2CE4H   LINE      ECODE    ---       #651
      00FD2CFCH   LINE      ECODE    ---       #653
      00FD2D08H   LINE      ECODE    ---       #654
      00FD2D13H   LINE      ECODE    ---       #655
      00FD2D1FH   LINE      ECODE    ---       #656
      00FD2D29H   LINE      ECODE    ---       #657
      00FD2D29H   LINE      ECODE    ---       #659
      00FD2D2EH   LINE      ECODE    ---       #660
      00FD2D38H   LINE      ECODE    ---       #661
L251 LINKER/LOCATER V4.66.93.0                                                        05/01/2026  15:28:45  PAGE 143


      00FD2D42H   LINE      ECODE    ---       #662
      00FD2D4CH   LINE      ECODE    ---       #663
      00FD2D56H   LINE      ECODE    ---       #664
      00FD2D60H   LINE      ECODE    ---       #665
      00FD2D6AH   LINE      ECODE    ---       #666
      00FD2D74H   LINE      ECODE    ---       #667
      00FD2D7EH   LINE      ECODE    ---       #668
      00FD2D88H   LINE      ECODE    ---       #669
      00FD2D92H   LINE      ECODE    ---       #670
      00FD2D9CH   LINE      ECODE    ---       #671
      00FD2DA6H   LINE      ECODE    ---       #672
      00FD2DAFH   LINE      ECODE    ---       #673
      00FD2DB9H   LINE      ECODE    ---       #674
      00FD2DC3H   LINE      ECODE    ---       #675
      00FD2DCDH   LINE      ECODE    ---       #677
      00FD2DD2H   LINE      ECODE    ---       #678
      00FD2DDCH   LINE      ECODE    ---       #679
      00FD2DE6H   LINE      ECODE    ---       #680
      00FD2DF0H   LINE      ECODE    ---       #681
      00FD2DFAH   LINE      ECODE    ---       #682
      00FD2E04H   LINE      ECODE    ---       #683
      00FD2E0EH   LINE      ECODE    ---       #684
      00FD2E18H   LINE      ECODE    ---       #685
      00FD2E22H   LINE      ECODE    ---       #686
      00FD2E2CH   LINE      ECODE    ---       #687
      00FD2E36H   LINE      ECODE    ---       #688
      00FD2E40H   LINE      ECODE    ---       #689
      00FD2E4AH   LINE      ECODE    ---       #690
      00FD2E53H   LINE      ECODE    ---       #691
      00FD2E5DH   LINE      ECODE    ---       #692
      00FD2E67H   LINE      ECODE    ---       #693
      00FD2E71H   LINE      ECODE    ---       #695
      00FD2E76H   LINE      ECODE    ---       #696
      00FD2E7FH   LINE      ECODE    ---       #697
      00FD2E89H   LINE      ECODE    ---       #698
      00FD2E92H   LINE      ECODE    ---       #699
      00FD2E9CH   LINE      ECODE    ---       #701
      00FD2EA1H   LINE      ECODE    ---       #702
      00FD2EAAH   LINE      ECODE    ---       #703
      00FD2EB4H   LINE      ECODE    ---       #704
      00FD2EBDH   LINE      ECODE    ---       #705
      00FD2EC7H   LINE      ECODE    ---       #707
      00FD2ECCH   LINE      ECODE    ---       #708
      00FD2ED6H   LINE      ECODE    ---       #709
      00FD2EDBH   LINE      ECODE    ---       #710
      00FD2EE4H   LINE      ECODE    ---       #712
      00FD2EE9H   LINE      ECODE    ---       #713
      00FD2EF3H   LINE      ECODE    ---       #714
      00FD2EF8H   LINE      ECODE    ---       #716
      00FD2F02H   LINE      ECODE    ---       #717
      ---         BLOCKEND  ---      ---       LVL=0

      ---         MODULE    ---      ---       zf_device_ips200
      00FCF1D9H   PUBLIC    ECODE    ---       ips200_show_float?
      00FCE94FH   PUBLIC    ECODE    ---       ips200_draw_point?
      00FCEAF4H   PUBLIC    ECODE    ---       ips200_show_string?
      00FCF819H   PUBLIC    ECODE    ---       ips200_show_gray_image?
      00FCE9D5H   PUBLIC    ECODE    ---       ips200_show_char?
      00FCEF5AH   PUBLIC    ECODE    ---       ips200_show_uint16?
      00FCE92AH   PUBLIC    ECODE    ---       ips200_set_color?
      00FCF076H   PUBLIC    ECODE    ---       ips200_show_int32?
      00FCEDE0H   PUBLIC    ECODE    ---       ips200_show_int16?
      00FCF3FBH   PUBLIC    ECODE    ---       ips200_show_wave?
      00FCE917H   PUBLIC    ECODE    ---       ips200_set_dir?
      00FCF615H   PUBLIC    ECODE    ---       ips200_show_chinese?
L251 LINKER/LOCATER V4.66.93.0                                                        05/01/2026  15:28:45  PAGE 144


      00FCE868H   PUBLIC    ECODE    ---       ips200_clear?
      00FCECF2H   PUBLIC    ECODE    ---       ips200_show_uint8?
      00FCEBBBH   PUBLIC    ECODE    ---       ips200_show_int8?
      00FCFAEBH   PUBLIC    ECODE    ---       ips200_init?
      00012673H   PUBLIC    XDATA    WORD      ips200_pencolor
      00012675H   PUBLIC    XDATA    WORD      ips200_bgcolor
      00012677H   PUBLIC    XDATA    INT       ips200_display_dir
      00012679H   PUBLIC    XDATA    WORD      ips200_x_max
      0001267BH   PUBLIC    XDATA    WORD      ips200_y_max
      00011993H   PUBLIC    XDATA    BYTE      ?ips200_show_float??BYTE
      00011DCDH   PUBLIC    XDATA    BYTE      ?ips200_show_wave??BYTE
      00011F96H   PUBLIC    XDATA    BYTE      ?ips200_show_chinese??BYTE
      00010452H   PUBLIC    XDATA    BYTE      ?ips200_show_gray_image??BYTE
      000000D0H   SFRSYM    DATA     BYTE      PSW
      0000009DH   SFRSYM    DATA     BYTE      IRCBAND
      00000097H   SFRSYM    DATA     BYTE      AUXR2
      000000EAH   SFRSYM    DATA     BYTE      CKCON
      000000EFH   SFRSYM    DATA     BYTE      AUXINTIF
      000000FDH   SFRSYM    DATA     BYTE      S4CON
      000000ACH   SFRSYM    DATA     BYTE      S3CON
      0000009AH   SFRSYM    DATA     BYTE      S2CON
      000000B7H   SFRSYM    DATA     BYTE      IPH
      000000CDH   SFRSYM    DATA     BYTE      SPSTAT
      000000DDH   SFRSYM    DATA     BYTE      T4T3M
      000000C1H   SFRSYM    DATA     BYTE      WDT_CONTR
      000000DFH   SFRSYM    DATA     BYTE      IP3
      000000F4H   SFRSYM    DATA     BYTE      USBCON
      000000B5H   SFRSYM    DATA     BYTE      IP2
      000000FFH   SFRSYM    DATA     BYTE      RSTCFG
      000000E0H   SFRSYM    DATA     BYTE      ACC
      000000C7H   SFRSYM    DATA     BYTE      IAP_CONTR
      000000F9H   SFRSYM    DATA     BYTE      LINICR
      0000008EH   SFRSYM    DATA     BYTE      AUXR
      000000F0H   SFRSYM    DATA     BYTE      B
      000000AFH   SFRSYM    DATA     BYTE      IE2
      000000B0H.5 SFRSYM    DATA     BIT       P35
      000000F8H.1 SFRSYM    DATA     BIT       P71
      000000F8H.0 SFRSYM    DATA     BIT       P70
      00000088H   SFRSYM    DATA     BYTE      TCON
      00000089H   SFRSYM    DATA     BYTE      TMOD
      00000098H   SFRSYM    DATA     BYTE      SCON
      00000087H   SFRSYM    DATA     BYTE      PCON
      000000BCH   SFRSYM    DATA     BYTE      ADC_CONTR
      000000D1H   SFRSYM    DATA     BYTE      PSW1
      000000E7H   SFRSYM    DATA     BYTE      CMPCR2
      000000E6H   SFRSYM    DATA     BYTE      CMPCR1
      000000DEH   SFRSYM    DATA     BYTE      ADCCFG
      000000B8H   SFRSYM    DATA     BYTE      IP
      0000008FH   SFRSYM    DATA     BYTE      INTCLKO
      000000EEH   SFRSYM    DATA     BYTE      IP3H
      000000B6H   SFRSYM    DATA     BYTE      IP2H
      000000BFH   SFRSYM    DATA     BYTE      P_SW4
      000000A8H   SFRSYM    DATA     BYTE      IE
      000000BBH   SFRSYM    DATA     BYTE      P_SW3
      000000BAH   SFRSYM    DATA     BYTE      P_SW2
      000000A2H   SFRSYM    DATA     BYTE      P_SW1
      000000CEH   SFRSYM    DATA     BYTE      SPCTL
      000000F8H   SFRSYM    DATA     BYTE      P7
      000000E8H   SFRSYM    DATA     BYTE      P6
      000000C8H   SFRSYM    DATA     BYTE      P5
      000000C0H   SFRSYM    DATA     BYTE      P4
      000000ABH   SFRSYM    DATA     BYTE      WKTCH
      000000B0H   SFRSYM    DATA     BYTE      P3
      000000A0H   SFRSYM    DATA     BYTE      P2
      00000090H   SFRSYM    DATA     BYTE      P1
L251 LINKER/LOCATER V4.66.93.0                                                        05/01/2026  15:28:45  PAGE 145


      00000080H   SFRSYM    DATA     BYTE      P0
      00FCE751H   SYMBOL    ECODE    ---       ips200_write_index
      00FCE774H   SYMBOL    ECODE    ---       ips200_set_region

      00FCE751H   BLOCK     ECODE    ---       LVL=0
      00012B01H   SYMBOL    XDATA    BYTE      dat
      00FCE751H   LINE      ECODE    ---       #85
      00FCE755H   LINE      ECODE    ---       #87
      00FCE758H   LINE      ECODE    ---       #88
      00FCE75BH   LINE      ECODE    ---       #89
      00FCE75EH   LINE      ECODE    ---       #90
      00FCE76AH   LINE      ECODE    ---       #91
      00FCE76DH   LINE      ECODE    ---       #92
      00FCE770H   LINE      ECODE    ---       #93
      00FCE773H   LINE      ECODE    ---       #94
      ---         BLOCKEND  ---      ---       LVL=0

      00FCE774H   BLOCK     ECODE    ---       LVL=0
      00012820H   SYMBOL    XDATA    WORD      x1
      00012822H   SYMBOL    XDATA    WORD      y1
      00012824H   SYMBOL    XDATA    WORD      x2
      00012826H   SYMBOL    XDATA    WORD      y2
      00FCE774H   LINE      ECODE    ---       #105
      00FCE78CH   LINE      ECODE    ---       #107
      00FCE7B1H   LINE      ECODE    ---       #108
      00FCE7D6H   LINE      ECODE    ---       #109
      00FCE7FBH   LINE      ECODE    ---       #110
      00FCE820H   LINE      ECODE    ---       #113
      00FCE825H   LINE      ECODE    ---       #114
      00FCE833H   LINE      ECODE    ---       #115
      00FCE841H   LINE      ECODE    ---       #116
      00FCE846H   LINE      ECODE    ---       #117
      00FCE854H   LINE      ECODE    ---       #118
      00FCE862H   LINE      ECODE    ---       #119
      00FCE867H   LINE      ECODE    ---       #121
      ---         BLOCKEND  ---      ---       LVL=0

      00FCE868H   BLOCK     ECODE    ---       LVL=0
      00010EC6H   SYMBOL    XDATA    WORD      color
      00FCE86EH   BLOCK     ECODE    NEAR LAB  LVL=1
      00010EC8H   SYMBOL    XDATA    WORD      i
      00010ECAH   SYMBOL    XDATA    ---       tmp
      ---         BLOCKEND  ---      ---       LVL=1
      00FCE868H   LINE      ECODE    ---       #129
      00FCE86EH   LINE      ECODE    ---       #130
      00FCE86EH   LINE      ECODE    ---       #133
      00FCE88DH   LINE      ECODE    ---       #135
      00FCE897H   LINE      ECODE    ---       #137
      00FCE8B4H   LINE      ECODE    ---       #138
      00FCE8D1H   LINE      ECODE    ---       #140
      00FCE8DBH   LINE      ECODE    ---       #142
      00FCE8F9H   LINE      ECODE    ---       #143
      00FCE916H   LINE      ECODE    ---       #145
      ---         BLOCKEND  ---      ---       LVL=0

      00FCE917H   BLOCK     ECODE    ---       LVL=0
      00012ADCH   SYMBOL    XDATA    INT       dir
      00FCE917H   LINE      ECODE    ---       #153
      00FCE91DH   LINE      ECODE    ---       #155
      00FCE929H   LINE      ECODE    ---       #166
      ---         BLOCKEND  ---      ---       LVL=0

      00FCE92AH   BLOCK     ECODE    ---       LVL=0
      00012A47H   SYMBOL    XDATA    WORD      pen
      00012A49H   SYMBOL    XDATA    WORD      bgcolor
L251 LINKER/LOCATER V4.66.93.0                                                        05/01/2026  15:28:45  PAGE 146


      00FCE92AH   LINE      ECODE    ---       #175
      00FCE936H   LINE      ECODE    ---       #177
      00FCE942H   LINE      ECODE    ---       #178
      00FCE94EH   LINE      ECODE    ---       #179
      ---         BLOCKEND  ---      ---       LVL=0

      00FCE94FH   BLOCK     ECODE    ---       LVL=0
      00012933H   SYMBOL    XDATA    WORD      x
      00012935H   SYMBOL    XDATA    WORD      y
      00012937H   SYMBOL    XDATA    WORD      color
      00FCE94FH   LINE      ECODE    ---       #189
      00FCE961H   LINE      ECODE    ---       #191
      00FCE986H   LINE      ECODE    ---       #192
      00FCE9ABH   LINE      ECODE    ---       #194
      00FCE9C6H   LINE      ECODE    ---       #195
      00FCE9D4H   LINE      ECODE    ---       #196
      ---         BLOCKEND  ---      ---       LVL=0

      00FCE9D5H   BLOCK     ECODE    ---       LVL=0
      00012828H   SYMBOL    XDATA    WORD      x
      0001282AH   SYMBOL    XDATA    WORD      y
      0001282CH   SYMBOL    XDATA    CHAR      dat
      00FCE9E5H   BLOCK     ECODE    NEAR LAB  LVL=1
      0001282DH   SYMBOL    XDATA    BYTE      i
      0001282EH   SYMBOL    XDATA    BYTE      j
      0001282FH   SYMBOL    XDATA    BYTE      temp
      ---         BLOCKEND  ---      ---       LVL=1
      00FCE9D5H   LINE      ECODE    ---       #206
      00FCE9E5H   LINE      ECODE    ---       #207
      00FCE9E5H   LINE      ECODE    ---       #211
      00FCEA0AH   LINE      ECODE    ---       #212
      00FCEA2FH   LINE      ECODE    ---       #214
      00FCEA37H   LINE      ECODE    ---       #216
      00FCEA68H   LINE      ECODE    ---       #217
      00FCEA8FH   LINE      ECODE    ---       #218
      00FCEA96H   LINE      ECODE    ---       #220
      00FCEA9DH   LINE      ECODE    ---       #221
      00FCEAADH   LINE      ECODE    ---       #223
      00FCEABBH   LINE      ECODE    ---       #224
      00FCEAC2H   LINE      ECODE    ---       #225
      00FCEAD9H   LINE      ECODE    ---       #226
      00FCEAF3H   LINE      ECODE    ---       #227
      ---         BLOCKEND  ---      ---       LVL=0

      00FCEAF4H   BLOCK     ECODE    ---       LVL=0
      0001267DH   SYMBOL    XDATA    WORD      x
      0001267FH   SYMBOL    XDATA    WORD      y
      00012681H   SYMBOL    XDATA    ---       dat
      00FCEB0AH   BLOCK     ECODE    NEAR LAB  LVL=1
      00012685H   SYMBOL    XDATA    WORD      j
      ---         BLOCKEND  ---      ---       LVL=1
      00FCEAF4H   LINE      ECODE    ---       #237
      00FCEB0AH   LINE      ECODE    ---       #238
      00FCEB0AH   LINE      ECODE    ---       #239
      00FCEB12H   LINE      ECODE    ---       #241
      00FCEB37H   LINE      ECODE    ---       #242
      00FCEB5CH   LINE      ECODE    ---       #244
      00FCEB5EH   LINE      ECODE    ---       #246
      00FCEB91H   LINE      ECODE    ---       #247
      00FCEBA0H   LINE      ECODE    ---       #248
      00FCEBBAH   LINE      ECODE    ---       #249
      ---         BLOCKEND  ---      ---       LVL=0

      00FCEBBBH   BLOCK     ECODE    ---       LVL=0
      000126E5H   SYMBOL    XDATA    WORD      x
L251 LINKER/LOCATER V4.66.93.0                                                        05/01/2026  15:28:45  PAGE 147


      000126E7H   SYMBOL    XDATA    WORD      y
      000126E9H   SYMBOL    XDATA    CHAR      dat
      00FCEBCBH   BLOCK     ECODE    NEAR LAB  LVL=1
      000126EAH   SYMBOL    XDATA    ---       a
      000126EDH   SYMBOL    XDATA    BYTE      i
      ---         BLOCKEND  ---      ---       LVL=1
      00FCEBBBH   LINE      ECODE    ---       #259
      00FCEBCBH   LINE      ECODE    ---       #260
      00FCEBCBH   LINE      ECODE    ---       #264
      00FCEBF0H   LINE      ECODE    ---       #265
      00FCEC15H   LINE      ECODE    ---       #267
      00FCEC1FH   LINE      ECODE    ---       #269
      00FCEC31H   LINE      ECODE    ---       #270
      00FCEC3CH   LINE      ECODE    ---       #271
      00FCEC3EH   LINE      ECODE    ---       #273
      00FCEC50H   LINE      ECODE    ---       #275
      00FCEC64H   LINE      ECODE    ---       #276
      00FCEC80H   LINE      ECODE    ---       #277
      00FCEC94H   LINE      ECODE    ---       #278
      00FCEC99H   LINE      ECODE    ---       #279
      00FCEC9BH   LINE      ECODE    ---       #281
      00FCECDAH   LINE      ECODE    ---       #282
      00FCECE5H   LINE      ECODE    ---       #283
      00FCECF1H   LINE      ECODE    ---       #284
      ---         BLOCKEND  ---      ---       LVL=0

      00FCECF2H   BLOCK     ECODE    ---       LVL=0
      000126EEH   SYMBOL    XDATA    WORD      x
      000126F0H   SYMBOL    XDATA    WORD      y
      000126F2H   SYMBOL    XDATA    BYTE      dat
      00FCED02H   BLOCK     ECODE    NEAR LAB  LVL=1
      000126F3H   SYMBOL    XDATA    ---       a
      000126F6H   SYMBOL    XDATA    BYTE      i
      ---         BLOCKEND  ---      ---       LVL=1
      00FCECF2H   LINE      ECODE    ---       #294
      00FCED02H   LINE      ECODE    ---       #295
      00FCED02H   LINE      ECODE    ---       #300
      00FCED27H   LINE      ECODE    ---       #301
      00FCED4CH   LINE      ECODE    ---       #303
      00FCED5CH   LINE      ECODE    ---       #304
      00FCED76H   LINE      ECODE    ---       #305
      00FCED8AH   LINE      ECODE    ---       #306
      00FCED8FH   LINE      ECODE    ---       #307
      00FCED91H   LINE      ECODE    ---       #309
      00FCEDC8H   LINE      ECODE    ---       #310
      00FCEDD3H   LINE      ECODE    ---       #311
      00FCEDDFH   LINE      ECODE    ---       #313
      ---         BLOCKEND  ---      ---       LVL=0

      00FCEDE0H   BLOCK     ECODE    ---       LVL=0
      000124DDH   SYMBOL    XDATA    WORD      x
      000124DFH   SYMBOL    XDATA    WORD      y
      000124E1H   SYMBOL    XDATA    INT       dat
      00FCEDF2H   BLOCK     ECODE    NEAR LAB  LVL=1
      000124E3H   SYMBOL    XDATA    ---       a
      000124E8H   SYMBOL    XDATA    BYTE      i
      ---         BLOCKEND  ---      ---       LVL=1
      00FCEDE0H   LINE      ECODE    ---       #323
      00FCEDF2H   LINE      ECODE    ---       #324
      00FCEDF2H   LINE      ECODE    ---       #328
      00FCEE17H   LINE      ECODE    ---       #329
      00FCEE3CH   LINE      ECODE    ---       #331
      00FCEE48H   LINE      ECODE    ---       #333
      00FCEE5AH   LINE      ECODE    ---       #334
      00FCEE6CH   LINE      ECODE    ---       #335
L251 LINKER/LOCATER V4.66.93.0                                                        05/01/2026  15:28:45  PAGE 148


      00FCEE6EH   LINE      ECODE    ---       #336
      00FCEE80H   LINE      ECODE    ---       #338
      00FCEE94H   LINE      ECODE    ---       #339
      00FCEEB0H   LINE      ECODE    ---       #340
      00FCEECCH   LINE      ECODE    ---       #341
      00FCEEE8H   LINE      ECODE    ---       #342
      00FCEEFCH   LINE      ECODE    ---       #344
      00FCEF01H   LINE      ECODE    ---       #345
      00FCEF03H   LINE      ECODE    ---       #347
      00FCEF42H   LINE      ECODE    ---       #348
      00FCEF4DH   LINE      ECODE    ---       #349
      00FCEF59H   LINE      ECODE    ---       #350
      ---         BLOCKEND  ---      ---       LVL=0

      00FCEF5AH   BLOCK     ECODE    ---       LVL=0
      000124E9H   SYMBOL    XDATA    WORD      x
      000124EBH   SYMBOL    XDATA    WORD      y
      000124EDH   SYMBOL    XDATA    WORD      dat
      00FCEF6CH   BLOCK     ECODE    NEAR LAB  LVL=1
      000124EFH   SYMBOL    XDATA    ---       a
      000124F4H   SYMBOL    XDATA    BYTE      i
      ---         BLOCKEND  ---      ---       LVL=1
      00FCEF5AH   LINE      ECODE    ---       #360
      00FCEF6CH   LINE      ECODE    ---       #361
      00FCEF6CH   LINE      ECODE    ---       #365
      00FCEF91H   LINE      ECODE    ---       #366
      00FCEFB6H   LINE      ECODE    ---       #368
      00FCEFC6H   LINE      ECODE    ---       #369
      00FCEFDEH   LINE      ECODE    ---       #370
      00FCEFF6H   LINE      ECODE    ---       #371
      00FCF00EH   LINE      ECODE    ---       #372
      00FCF020H   LINE      ECODE    ---       #374
      00FCF025H   LINE      ECODE    ---       #375
      00FCF027H   LINE      ECODE    ---       #377
      00FCF05EH   LINE      ECODE    ---       #378
      00FCF069H   LINE      ECODE    ---       #379
      00FCF075H   LINE      ECODE    ---       #380
      ---         BLOCKEND  ---      ---       LVL=0

      00FCF076H   BLOCK     ECODE    ---       LVL=0
      00011ADEH   SYMBOL    XDATA    WORD      x
      00011AE0H   SYMBOL    XDATA    WORD      y
      00011AE2H   SYMBOL    XDATA    LONG      dat
      00011AE6H   SYMBOL    XDATA    BYTE      num
      00FCF090H   BLOCK     ECODE    NEAR LAB  LVL=1
      00011AE7H   SYMBOL    XDATA    ---       buff
      00011B09H   SYMBOL    XDATA    BYTE      length
      ---         BLOCKEND  ---      ---       LVL=1
      00FCF076H   LINE      ECODE    ---       #392
      00FCF090H   LINE      ECODE    ---       #393
      00FCF090H   LINE      ECODE    ---       #397
      00FCF0B5H   LINE      ECODE    ---       #398
      00FCF0DAH   LINE      ECODE    ---       #400
      00FCF0ECH   LINE      ECODE    ---       #402
      00FCF0F7H   LINE      ECODE    ---       #403
      00FCF137H   LINE      ECODE    ---       #406
      00FCF13DH   LINE      ECODE    ---       #407
      00FCF16BH   LINE      ECODE    ---       #408
      00FCF176H   LINE      ECODE    ---       #409
      00FCF176H   LINE      ECODE    ---       #410
      00FCF178H   LINE      ECODE    ---       #412
      00FCF190H   LINE      ECODE    ---       #413
      00FCF19BH   LINE      ECODE    ---       #414
      00FCF1A9H   LINE      ECODE    ---       #415
      00FCF1C0H   LINE      ECODE    ---       #417
L251 LINKER/LOCATER V4.66.93.0                                                        05/01/2026  15:28:45  PAGE 149


      00FCF1D8H   LINE      ECODE    ---       #418
      ---         BLOCKEND  ---      ---       LVL=0

      00FCF1D9H   BLOCK     ECODE    ---       LVL=0
      00011993H   SYMBOL    XDATA    WORD      x
      00011995H   SYMBOL    XDATA    WORD      y
      00011997H   SYMBOL    XDATA    DOUBLE    dat
      0001199FH   SYMBOL    XDATA    BYTE      num
      000119A0H   SYMBOL    XDATA    BYTE      pointnum
      00FCF1EFH   BLOCK     ECODE    NEAR LAB  LVL=1
      000119A1H   SYMBOL    XDATA    BYTE      length
      000119A2H   SYMBOL    XDATA    ---       buff
      000119C4H   SYMBOL    XDATA    CHAR      start
      000119C5H   SYMBOL    XDATA    CHAR      end
      000119C6H   SYMBOL    XDATA    CHAR      point
      ---         BLOCKEND  ---      ---       LVL=1
      00FCF1D9H   LINE      ECODE    ---       #434
      00FCF1EFH   LINE      ECODE    ---       #435
      00FCF1EFH   LINE      ECODE    ---       #440
      00FCF214H   LINE      ECODE    ---       #441
      00FCF239H   LINE      ECODE    ---       #443
      00FCF24BH   LINE      ECODE    ---       #444
      00FCF25DH   LINE      ECODE    ---       #446
      00FCF2B9H   LINE      ECODE    ---       #449
      00FCF2F7H   LINE      ECODE    ---       #450
      00FCF302H   LINE      ECODE    ---       #451
      00FCF302H   LINE      ECODE    ---       #452
      00FCF312H   LINE      ECODE    ---       #453
      00FCF32AH   LINE      ECODE    ---       #454
      00FCF342H   LINE      ECODE    ---       #455
      00FCF344H   LINE      ECODE    ---       #457
      00FCF35CH   LINE      ECODE    ---       #458
      00FCF367H   LINE      ECODE    ---       #459
      00FCF372H   LINE      ECODE    ---       #460
      00FCF37DH   LINE      ECODE    ---       #462
      00FCF3B3H   LINE      ECODE    ---       #463
      00FCF3CBH   LINE      ECODE    ---       #465
      00FCF3E2H   LINE      ECODE    ---       #467
      00FCF3FAH   LINE      ECODE    ---       #468
      ---         BLOCKEND  ---      ---       LVL=0

      00FCF3FBH   BLOCK     ECODE    ---       LVL=0
      00011DCDH   SYMBOL    XDATA    WORD      x
      00011DCFH   SYMBOL    XDATA    WORD      y
      00011DD1H   SYMBOL    XDATA    ---       p
      00011DD5H   SYMBOL    XDATA    WORD      width
      00011DD7H   SYMBOL    XDATA    WORD      value_max
      00011DD9H   SYMBOL    XDATA    WORD      dis_width
      00011DDBH   SYMBOL    XDATA    WORD      dis_value_max
      00FCF411H   BLOCK     ECODE    NEAR LAB  LVL=1
      00011DDDH   SYMBOL    XDATA    DWORD     i
      00011DE1H   SYMBOL    XDATA    DWORD     j
      00011DE5H   SYMBOL    XDATA    DWORD     width_index
      00011DE9H   SYMBOL    XDATA    DWORD     value_max_index
      ---         BLOCKEND  ---      ---       LVL=1
      00FCF3FBH   LINE      ECODE    ---       #483
      00FCF411H   LINE      ECODE    ---       #484
      00FCF411H   LINE      ECODE    ---       #485
      00FCF429H   LINE      ECODE    ---       #488
      00FCF44EH   LINE      ECODE    ---       #489
      00FCF473H   LINE      ECODE    ---       #491
      00FCF4AAH   LINE      ECODE    ---       #492
      00FCF4B8H   LINE      ECODE    ---       #494
      00FCF4C6H   LINE      ECODE    ---       #496
      00FCF4D4H   LINE      ECODE    ---       #497
L251 LINKER/LOCATER V4.66.93.0                                                        05/01/2026  15:28:45  PAGE 150


      00FCF501H   LINE      ECODE    ---       #498
      00FCF52EH   LINE      ECODE    ---       #500
      00FCF53DH   LINE      ECODE    ---       #502
      00FCF565H   LINE      ECODE    ---       #503
      00FCF5A4H   LINE      ECODE    ---       #504
      00FCF5E4H   LINE      ECODE    ---       #505
      00FCF614H   LINE      ECODE    ---       #506
      ---         BLOCKEND  ---      ---       LVL=0

      00FCF615H   BLOCK     ECODE    ---       LVL=0
      00011F96H   SYMBOL    XDATA    WORD      x
      00011F98H   SYMBOL    XDATA    WORD      y
      00011F9AH   SYMBOL    XDATA    BYTE      siz
      00011F9BH   SYMBOL    XDATA    ---       p
      00011F9FH   SYMBOL    XDATA    BYTE      number
      00011FA0H   SYMBOL    XDATA    WORD      color
      00FCF62FH   BLOCK     ECODE    NEAR LAB  LVL=1
      00011FA2H   SYMBOL    XDATA    INT       i
      00011FA4H   SYMBOL    XDATA    INT       j
      00011FA6H   SYMBOL    XDATA    INT       k
      00011FA8H   SYMBOL    XDATA    BYTE      temp
      00011FA9H   SYMBOL    XDATA    BYTE      temp1
      00011FAAH   SYMBOL    XDATA    BYTE      temp2
      00011FABH   SYMBOL    XDATA    ---       p_data
      ---         BLOCKEND  ---      ---       LVL=1
      00FCF615H   LINE      ECODE    ---       #520
      00FCF62FH   LINE      ECODE    ---       #521
      00FCF62FH   LINE      ECODE    ---       #526
      00FCF654H   LINE      ECODE    ---       #527
      00FCF679H   LINE      ECODE    ---       #529
      00FCF689H   LINE      ECODE    ---       #531
      00FCF6C6H   LINE      ECODE    ---       #533
      00FCF6D1H   LINE      ECODE    ---       #535
      00FCF6D9H   LINE      ECODE    ---       #536
      00FCF6FDH   LINE      ECODE    ---       #537
      00FCF700H   LINE      ECODE    ---       #539
      00FCF70BH   LINE      ECODE    ---       #541
      00FCF717H   LINE      ECODE    ---       #543
      00FCF73FH   LINE      ECODE    ---       #544
      00FCF758H   LINE      ECODE    ---       #545
      00FCF766H   LINE      ECODE    ---       #546
      00FCF781H   LINE      ECODE    ---       #547
      00FCF794H   LINE      ECODE    ---       #548
      00FCF7B6H   LINE      ECODE    ---       #549
      00FCF7E0H   LINE      ECODE    ---       #550
      00FCF7F6H   LINE      ECODE    ---       #551
      00FCF818H   LINE      ECODE    ---       #552
      ---         BLOCKEND  ---      ---       LVL=0

      00FCF819H   BLOCK     ECODE    ---       LVL=0
      00010452H   SYMBOL    XDATA    WORD      x
      00010454H   SYMBOL    XDATA    WORD      y
      00010456H   SYMBOL    XDATA    ---       image
      0001045AH   SYMBOL    XDATA    WORD      width
      0001045CH   SYMBOL    XDATA    WORD      height
      0001045EH   SYMBOL    XDATA    WORD      dis_width
      00010460H   SYMBOL    XDATA    WORD      dis_height
      00010462H   SYMBOL    XDATA    BYTE      threshold
      00FCF833H   BLOCK     ECODE    NEAR LAB  LVL=1
      00010463H   SYMBOL    XDATA    DWORD     i
      00010467H   SYMBOL    XDATA    DWORD     j
      0001046BH   SYMBOL    XDATA    WORD      color
      0001046DH   SYMBOL    XDATA    WORD      temp
      0001046FH   SYMBOL    XDATA    ---       data_buffer
      000106EFH   SYMBOL    XDATA    ---       image_temp
L251 LINKER/LOCATER V4.66.93.0                                                        05/01/2026  15:28:45  PAGE 151


      ---         BLOCKEND  ---      ---       LVL=1
      00FCF819H   LINE      ECODE    ---       #572
      00FCF833H   LINE      ECODE    ---       #573
      00FCF833H   LINE      ECODE    ---       #574
      00FCF84BH   LINE      ECODE    ---       #581
      00FCF870H   LINE      ECODE    ---       #582
      00FCF895H   LINE      ECODE    ---       #583
      00FCF8B8H   LINE      ECODE    ---       #585
      00FCF8BBH   LINE      ECODE    ---       #587
      00FCF8F2H   LINE      ECODE    ---       #589
      00FCF901H   LINE      ECODE    ---       #591
      00FCF941H   LINE      ECODE    ---       #592
      00FCF950H   LINE      ECODE    ---       #594
      00FCF987H   LINE      ECODE    ---       #595
      00FCF993H   LINE      ECODE    ---       #597
      00FCF9B5H   LINE      ECODE    ---       #598
      00FCF9D7H   LINE      ECODE    ---       #599
      00FCF9F4H   LINE      ECODE    ---       #600
      00FCFA15H   LINE      ECODE    ---       #601
      00FCFA17H   LINE      ECODE    ---       #602
      00FCFA27H   LINE      ECODE    ---       #604
      00FCFA44H   LINE      ECODE    ---       #605
      00FCFA46H   LINE      ECODE    ---       #608
      00FCFA65H   LINE      ECODE    ---       #609
      00FCFA65H   LINE      ECODE    ---       #610
      00FCFA95H   LINE      ECODE    ---       #611
      00FCFAB7H   LINE      ECODE    ---       #612
      00FCFAE7H   LINE      ECODE    ---       #614
      00FCFAEAH   LINE      ECODE    ---       #616
      ---         BLOCKEND  ---      ---       LVL=0

      00FCFAEBH   BLOCK     ECODE    ---       LVL=0
      00FCFAEBH   LINE      ECODE    ---       #623
      00FCFAEBH   LINE      ECODE    ---       #628
      00FCFB25H   LINE      ECODE    ---       #631
      00FCFB36H   LINE      ECODE    ---       #632
      00FCFB47H   LINE      ECODE    ---       #633
      00FCFB58H   LINE      ECODE    ---       #634
      00FCFB6AH   LINE      ECODE    ---       #636
      00FCFB74H   LINE      ECODE    ---       #637
      00FCFB84H   LINE      ECODE    ---       #639
      00FCFB87H   LINE      ECODE    ---       #640
      00FCFBA5H   LINE      ECODE    ---       #642
      00FCFBA8H   LINE      ECODE    ---       #643
      00FCFBC6H   LINE      ECODE    ---       #645
      00FCFBCBH   LINE      ECODE    ---       #646
      00FCFBE9H   LINE      ECODE    ---       #647
      00FCFC00H   LINE      ECODE    ---       #648
      00FCFC1AH   LINE      ECODE    ---       #649
      00FCFC34H   LINE      ECODE    ---       #650
      00FCFC3EH   LINE      ECODE    ---       #652
      00FCFC43H   LINE      ECODE    ---       #653
      00FCFC4DH   LINE      ECODE    ---       #655
      00FCFC52H   LINE      ECODE    ---       #656
      00FCFC5CH   LINE      ECODE    ---       #657
      00FCFC66H   LINE      ECODE    ---       #658
      00FCFC6FH   LINE      ECODE    ---       #659
      00FCFC79H   LINE      ECODE    ---       #660
      00FCFC83H   LINE      ECODE    ---       #662
      00FCFC88H   LINE      ECODE    ---       #663
      00FCFC92H   LINE      ECODE    ---       #665
      00FCFC97H   LINE      ECODE    ---       #666
      00FCFCA1H   LINE      ECODE    ---       #668
      00FCFCA6H   LINE      ECODE    ---       #669
      00FCFCB0H   LINE      ECODE    ---       #671
L251 LINKER/LOCATER V4.66.93.0                                                        05/01/2026  15:28:45  PAGE 152


      00FCFCB5H   LINE      ECODE    ---       #672
      00FCFCBFH   LINE      ECODE    ---       #674
      00FCFCC4H   LINE      ECODE    ---       #675
      00FCFCCEH   LINE      ECODE    ---       #677
      00FCFCD3H   LINE      ECODE    ---       #678
      00FCFCDDH   LINE      ECODE    ---       #680
      00FCFCE2H   LINE      ECODE    ---       #681
      00FCFCECH   LINE      ECODE    ---       #683
      00FCFCF1H   LINE      ECODE    ---       #684
      00FCFCFBH   LINE      ECODE    ---       #685
      00FCFD05H   LINE      ECODE    ---       #687
      00FCFD0AH   LINE      ECODE    ---       #688
      00FCFD14H   LINE      ECODE    ---       #689
      00FCFD1EH   LINE      ECODE    ---       #690
      00FCFD28H   LINE      ECODE    ---       #691
      00FCFD32H   LINE      ECODE    ---       #692
      00FCFD3CH   LINE      ECODE    ---       #693
      00FCFD46H   LINE      ECODE    ---       #694
      00FCFD50H   LINE      ECODE    ---       #695
      00FCFD5AH   LINE      ECODE    ---       #696
      00FCFD64H   LINE      ECODE    ---       #697
      00FCFD6EH   LINE      ECODE    ---       #698
      00FCFD78H   LINE      ECODE    ---       #699
      00FCFD82H   LINE      ECODE    ---       #700
      00FCFD8CH   LINE      ECODE    ---       #701
      00FCFD96H   LINE      ECODE    ---       #703
      00FCFD9BH   LINE      ECODE    ---       #704
      00FCFDA5H   LINE      ECODE    ---       #705
      00FCFDAFH   LINE      ECODE    ---       #706
      00FCFDB9H   LINE      ECODE    ---       #707
      00FCFDC3H   LINE      ECODE    ---       #708
      00FCFDCDH   LINE      ECODE    ---       #709
      00FCFDD7H   LINE      ECODE    ---       #710
      00FCFDE1H   LINE      ECODE    ---       #711
      00FCFDEBH   LINE      ECODE    ---       #712
      00FCFDF5H   LINE      ECODE    ---       #713
      00FCFDFFH   LINE      ECODE    ---       #714
      00FCFE09H   LINE      ECODE    ---       #715
      00FCFE13H   LINE      ECODE    ---       #716
      00FCFE1DH   LINE      ECODE    ---       #717
      00FCFE27H   LINE      ECODE    ---       #719
      00FCFE2CH   LINE      ECODE    ---       #721
      00FCFE31H   LINE      ECODE    ---       #722
      00FCFE4FH   LINE      ECODE    ---       #724
      00FCFE54H   LINE      ECODE    ---       #726
      00FCFE5EH   LINE      ECODE    ---       #727
      ---         BLOCKEND  ---      ---       LVL=0

      ---         MODULE    ---      ---       zf_device_ips200pro
      00FCA805H   PUBLIC    ECODE    ---       ips200pro_progress_bar_create?
      00FC9A75H   PUBLIC    ECODE    ---       ips200pro_set_crc_state?
      00FCA607H   PUBLIC    ECODE    ---       ips200pro_table_select?
      00FCA07CH   PUBLIC    ECODE    ---       ips200pro_page_hidden?
      00FC9A1FH   PUBLIC    ECODE    ---       ips200pro_set_direction?
      00FC9F7BH   PUBLIC    ECODE    ---       ips200pro_page_create?
      00FCAA7EH   PUBLIC    ECODE    ---       ips200pro_waveform_add_value?
      00FCA678H   PUBLIC    ECODE    ---       ips200pro_meter_create?
      00FCA221H   PUBLIC    ECODE    ---       ips200pro_label_printf?
      00FCAB8BH   PUBLIC    ECODE    ---       ips200pro_waveform_line_state?
      00FCA480H   PUBLIC    ECODE    ---       ips200pro_table_cell_printf?
      00FC94B4H   PUBLIC    ECODE    ---       ips200pro_write_packet?
      00FC9377H   PUBLIC    ECODE    ---       ips200pro_send_buffer?
      00FCA389H   PUBLIC    ECODE    ---       ips200pro_label_mode?
      00FCA01BH   PUBLIC    ECODE    ---       ips200pro_page_switch?
      00FCA90CH   PUBLIC    ECODE    ---       ips200pro_calendar_create?
L251 LINKER/LOCATER V4.66.93.0                                                        05/01/2026  15:28:45  PAGE 153


      00FCA960H   PUBLIC    ECODE    ---       ips200pro_calendar_display?
      00FCABFEH   PUBLIC    ECODE    ---       ips200pro_waveform_line_type?
      00FC9F18H   PUBLIC    ECODE    ---       ips200pro_set_hidden?
      00FCB0ABH   PUBLIC    ECODE    ---       ips200pro_container_create?
      00FCAF02H   PUBLIC    ECODE    ---       ips200pro_image_draw_line?
      00FCA306H   PUBLIC    ECODE    ---       ips200pro_label_show_string?
      00FC9B1FH   PUBLIC    ECODE    ---       ips200pro_set_optimize?
      00FC9EA1H   PUBLIC    ECODE    ---       ips200pro_set_position?
      00FC9AC9H   PUBLIC    ECODE    ---       ips200pro_set_default_font?
      00FCA124H   PUBLIC    ECODE    ---       ips200pro_page_set_title_position_width?
      00FCAFE9H   PUBLIC    ECODE    ---       ips200pro_image_draw_rectangle?
      00FCB1B4H   PUBLIC    ECODE    ---       ips200pro_init?
      00FCB141H   PUBLIC    ECODE    ---       ips200pro_container_radius?
      00FC9975H   PUBLIC    ECODE    ---       ips200pro_set_format?
      00FC990DH   PUBLIC    ECODE    ---       ips200pro_set_parent?
      00FCA89BH   PUBLIC    ECODE    ---       ips200pro_progress_bar_set_value?
      00FC9B73H   PUBLIC    ECODE    ---       ips200pro_get_date?
      00FCA9E8H   PUBLIC    ECODE    ---       ips200pro_waveform_create?
      00FC973CH   PUBLIC    ECODE    ---       ips200pro_read_parameter?
      00FC9412H   PUBLIC    ECODE    ---       ips200pro_receive_buffer?
      00FC97F4H   PUBLIC    ECODE    ---       ips200pro_set_date?
      00FCA70EH   PUBLIC    ECODE    ---       ips200pro_meter_set_value?
      00FC9E2AH   PUBLIC    ECODE    ---       ips200pro_set_color?
      00FC9C0DH   PUBLIC    ECODE    ---       ips200pro_get_information?
      00FC9D72H   PUBLIC    ECODE    ---       ips200pro_delete_widgets?
      00FC9BBFH   PUBLIC    ECODE    ---       ips200pro_get_time?
      00FC9CBCH   PUBLIC    ECODE    ---       ips200pro_create_widgets?
      00FCAC5DH   PUBLIC    ECODE    ---       ips200pro_waveform_clear?
      00FCA0B3H   PUBLIC    ECODE    ---       ips200pro_page_set_title_name?
      00FCA18BH   PUBLIC    ECODE    ---       ips200pro_label_create?
      00FCA596H   PUBLIC    ECODE    ---       ips200pro_table_set_col_width?
      00FC99CBH   PUBLIC    ECODE    ---       ips200pro_set_backlight?
      00FCACACH   PUBLIC    ECODE    ---       ips200pro_image_create?
      00FC9C6EH   PUBLIC    ECODE    ---       ips200pro_get_free_stack_size?
      00FC987BH   PUBLIC    ECODE    ---       ips200pro_set_time?
      00FCAD42H   PUBLIC    ECODE    ---       ips200pro_image_display?
      00FCA3EAH   PUBLIC    ECODE    ---       ips200pro_table_create?
      00FCA76FH   PUBLIC    ECODE    ---       ips200pro_clock_create?
      00FC9DC5H   PUBLIC    ECODE    ---       ips200pro_set_font?
      000115FEH   PUBLIC    XDATA    ---       ips200pro_information
      00011607H   PUBLIC    XDATA    ---       ips200pro_time
      00012388H   PUBLIC    XDATA    BYTE      ?ips200pro_send_buffer??BYTE
      000123E6H   PUBLIC    XDATA    BYTE      ?ips200pro_receive_buffer??BYTE
      00011DEDH   PUBLIC    XDATA    BYTE      ?ips200pro_write_packet??BYTE
      00011EFBH   PUBLIC    XDATA    BYTE      ?ips200pro_create_widgets??BYTE
      000117F2H   PUBLIC    XDATA    BYTE      ?ips200pro_label_printf??BYTE
      0001176AH   PUBLIC    XDATA    BYTE      ?ips200pro_table_cell_printf??BYTE
      00011F16H   PUBLIC    XDATA    BYTE      ?ips200pro_waveform_add_value??BYTE
      00011B86H   PUBLIC    XDATA    BYTE      ?ips200pro_image_display??BYTE
      00011F30H   PUBLIC    XDATA    BYTE      ?ips200pro_image_draw_line??BYTE
      00011D4AH   PUBLIC    XDATA    BYTE      ?ips200pro_image_draw_rectangle??BYTE
      000000D0H   SFRSYM    DATA     BYTE      PSW
      0000009DH   SFRSYM    DATA     BYTE      IRCBAND
      00000097H   SFRSYM    DATA     BYTE      AUXR2
      000000EAH   SFRSYM    DATA     BYTE      CKCON
      000000EFH   SFRSYM    DATA     BYTE      AUXINTIF
      000000FDH   SFRSYM    DATA     BYTE      S4CON
      000000ACH   SFRSYM    DATA     BYTE      S3CON
      0000009AH   SFRSYM    DATA     BYTE      S2CON
      000000B7H   SFRSYM    DATA     BYTE      IPH
      000000CDH   SFRSYM    DATA     BYTE      SPSTAT
      000000DDH   SFRSYM    DATA     BYTE      T4T3M
      000000C1H   SFRSYM    DATA     BYTE      WDT_CONTR
      000000DFH   SFRSYM    DATA     BYTE      IP3
      000000F4H   SFRSYM    DATA     BYTE      USBCON
L251 LINKER/LOCATER V4.66.93.0                                                        05/01/2026  15:28:45  PAGE 154


      000000B5H   SFRSYM    DATA     BYTE      IP2
      000000FFH   SFRSYM    DATA     BYTE      RSTCFG
      000000E0H   SFRSYM    DATA     BYTE      ACC
      000000C7H   SFRSYM    DATA     BYTE      IAP_CONTR
      000000F9H   SFRSYM    DATA     BYTE      LINICR
      0000008EH   SFRSYM    DATA     BYTE      AUXR
      000000F0H   SFRSYM    DATA     BYTE      B
      000000AFH   SFRSYM    DATA     BYTE      IE2
      000000B0H.5 SFRSYM    DATA     BIT       P35
      000000F8H.1 SFRSYM    DATA     BIT       P71
      00000088H   SFRSYM    DATA     BYTE      TCON
      00000089H   SFRSYM    DATA     BYTE      TMOD
      00000098H   SFRSYM    DATA     BYTE      SCON
      00000087H   SFRSYM    DATA     BYTE      PCON
      000000BCH   SFRSYM    DATA     BYTE      ADC_CONTR
      000000D1H   SFRSYM    DATA     BYTE      PSW1
      000000E7H   SFRSYM    DATA     BYTE      CMPCR2
      000000E6H   SFRSYM    DATA     BYTE      CMPCR1
      000000DEH   SFRSYM    DATA     BYTE      ADCCFG
      000000B8H   SFRSYM    DATA     BYTE      IP
      0000008FH   SFRSYM    DATA     BYTE      INTCLKO
      000000EEH   SFRSYM    DATA     BYTE      IP3H
      000000B6H   SFRSYM    DATA     BYTE      IP2H
      000000BFH   SFRSYM    DATA     BYTE      P_SW4
      000000A8H   SFRSYM    DATA     BYTE      IE
      000000BBH   SFRSYM    DATA     BYTE      P_SW3
      000000BAH   SFRSYM    DATA     BYTE      P_SW2
      000000A2H   SFRSYM    DATA     BYTE      P_SW1
      000000CEH   SFRSYM    DATA     BYTE      SPCTL
      000000F8H   SFRSYM    DATA     BYTE      P7
      000000E8H   SFRSYM    DATA     BYTE      P6
      000000C8H   SFRSYM    DATA     BYTE      P5
      000000C0H   SFRSYM    DATA     BYTE      P4
      000000ABH   SFRSYM    DATA     BYTE      WKTCH
      000000B0H   SFRSYM    DATA     BYTE      P3
      000000A0H   SFRSYM    DATA     BYTE      P2
      00000090H   SFRSYM    DATA     BYTE      P1
      00000080H   SFRSYM    DATA     BYTE      P0
      00FC9308H   SYMBOL    ECODE    ---       ips200pro_wait_idle
      000115CBH   SYMBOL    XDATA    ---       ips200pro_printf_buffer
      0001160FH   SYMBOL    XDATA    BYTE      ips200pro_page_num

      00FC9308H   BLOCK     ECODE    ---       LVL=0
      00012A4BH   SYMBOL    XDATA    DWORD     wait_time
      00FC9308H   LINE      ECODE    ---       #197
      00FC9312H   LINE      ECODE    ---       #199
      00FC932BH   LINE      ECODE    ---       #201
      00FC932DH   LINE      ECODE    ---       #203
      00FC9335H   LINE      ECODE    ---       #204
      00FC934CH   LINE      ECODE    ---       #205
      00FC9363H   LINE      ECODE    ---       #206
      00FC9376H   LINE      ECODE    ---       #207
      ---         BLOCKEND  ---      ---       LVL=0

      00FC9377H   BLOCK     ECODE    ---       LVL=0
      00012388H   SYMBOL    XDATA    ---       buffer
      0001238CH   SYMBOL    XDATA    DWORD     length
      00012390H   SYMBOL    XDATA    DWORD     time_out
      00012394H   SYMBOL    XDATA    BYTE      end_flag
      00FC938FH   BLOCK     ECODE    NEAR LAB  LVL=1
      00012395H   SYMBOL    XDATA    BYTE      return_state
      ---         BLOCKEND  ---      ---       LVL=1
      00FC9377H   LINE      ECODE    ---       #225
      00FC938FH   LINE      ECODE    ---       #226
      00FC938FH   LINE      ECODE    ---       #227
L251 LINKER/LOCATER V4.66.93.0                                                        05/01/2026  15:28:45  PAGE 155


      00FC9395H   LINE      ECODE    ---       #229
      00FC93D3H   LINE      ECODE    ---       #233
      00FC93D6H   LINE      ECODE    ---       #234
      00FC93FCH   LINE      ECODE    ---       #235
      00FC9405H   LINE      ECODE    ---       #237
      00FC9408H   LINE      ECODE    ---       #238
      00FC9408H   LINE      ECODE    ---       #239
      00FC940DH   LINE      ECODE    ---       #240
      00FC940DH   LINE      ECODE    ---       #241
      00FC9411H   LINE      ECODE    ---       #242
      ---         BLOCKEND  ---      ---       LVL=0

      00FC9412H   BLOCK     ECODE    ---       LVL=0
      000123E6H   SYMBOL    XDATA    ---       buffer
      000123EAH   SYMBOL    XDATA    DWORD     length
      000123EEH   SYMBOL    XDATA    DWORD     time_out
      00FC9426H   BLOCK     ECODE    NEAR LAB  LVL=1
      000123F2H   SYMBOL    XDATA    BYTE      return_state
      ---         BLOCKEND  ---      ---       LVL=1
      00FC9412H   LINE      ECODE    ---       #245
      00FC9426H   LINE      ECODE    ---       #246
      00FC9426H   LINE      ECODE    ---       #247
      00FC942CH   LINE      ECODE    ---       #249
      00FC946AH   LINE      ECODE    ---       #253
      00FC946DH   LINE      ECODE    ---       #254
      00FC94A7H   LINE      ECODE    ---       #255
      00FC94AAH   LINE      ECODE    ---       #256
      00FC94AFH   LINE      ECODE    ---       #257
      00FC94AFH   LINE      ECODE    ---       #259
      00FC94B3H   LINE      ECODE    ---       #260
      ---         BLOCKEND  ---      ---       LVL=0

      00FC94B4H   BLOCK     ECODE    ---       LVL=0
      00011DEDH   SYMBOL    XDATA    INT       command1
      00011DEFH   SYMBOL    XDATA    INT       command2
      00011DF1H   SYMBOL    XDATA    BYTE      widgets_id
      00011DF2H   SYMBOL    XDATA    ---       temp
      00011DF6H   SYMBOL    XDATA    DWORD     length
      00011DFAH   SYMBOL    XDATA    ---       buffer
      00011DFEH   SYMBOL    XDATA    DWORD     buffer_length
      00FC94CEH   BLOCK     ECODE    NEAR LAB  LVL=1
      00011E02H   SYMBOL    XDATA    BYTE      return_state
      00011E03H   SYMBOL    XDATA    ---       p
      00011E07H   SYMBOL    XDATA    BYTE      tmp
      00011E08H   SYMBOL    XDATA    WORD      i
      00011E0AH   SYMBOL    XDATA    WORD      struct_len
      ---         BLOCKEND  ---      ---       LVL=1
      00FC94B4H   LINE      ECODE    ---       #262
      00FC94CEH   LINE      ECODE    ---       #263
      00FC94CEH   LINE      ECODE    ---       #264
      00FC94D4H   LINE      ECODE    ---       #265
      00FC94E8H   LINE      ECODE    ---       #266
      00FC94EDH   LINE      ECODE    ---       #267
      00FC94F5H   LINE      ECODE    ---       #268
      00FC94FFH   LINE      ECODE    ---       #270
      00FC9512H   LINE      ECODE    ---       #271
      00FC9527H   LINE      ECODE    ---       #272
      00FC953CH   LINE      ECODE    ---       #273
      00FC9565H   LINE      ECODE    ---       #281
      00FC9610H   LINE      ECODE    ---       #287
      00FC961EH   LINE      ECODE    ---       #289
      00FC9637H   LINE      ECODE    ---       #290
      00FC9663H   LINE      ECODE    ---       #291
      00FC967EH   LINE      ECODE    ---       #292
      00FC96A6H   LINE      ECODE    ---       #294
L251 LINKER/LOCATER V4.66.93.0                                                        05/01/2026  15:28:45  PAGE 156


      00FC96E3H   LINE      ECODE    ---       #295
      00FC9708H   LINE      ECODE    ---       #297
      00FC9732H   LINE      ECODE    ---       #298
      00FC9734H   LINE      ECODE    ---       #301
      00FC9737H   LINE      ECODE    ---       #302
      00FC9737H   LINE      ECODE    ---       #303
      00FC973BH   LINE      ECODE    ---       #304
      ---         BLOCKEND  ---      ---       LVL=0

      00FC973CH   BLOCK     ECODE    ---       LVL=0
      00012830H   SYMBOL    XDATA    INT       command2
      00012832H   SYMBOL    XDATA    ---       temp
      00012836H   SYMBOL    XDATA    BYTE      length
      00FC9750H   BLOCK     ECODE    NEAR LAB  LVL=1
      00012837H   SYMBOL    XDATA    BYTE      return_state
      ---         BLOCKEND  ---      ---       LVL=1
      00FC973CH   LINE      ECODE    ---       #306
      00FC9750H   LINE      ECODE    ---       #307
      00FC9750H   LINE      ECODE    ---       #310
      00FC975FH   LINE      ECODE    ---       #311
      00FC9774H   LINE      ECODE    ---       #312
      00FC978FH   LINE      ECODE    ---       #314
      00FC97B9H   LINE      ECODE    ---       #316
      00FC97C7H   LINE      ECODE    ---       #317
      00FC97EFH   LINE      ECODE    ---       #319
      00FC97F3H   LINE      ECODE    ---       #320
      ---         BLOCKEND  ---      ---       LVL=0

      00FC97F4H   BLOCK     ECODE    ---       LVL=0
      000121AFH   SYMBOL    XDATA    WORD      year
      000121B1H   SYMBOL    XDATA    BYTE      month
      000121B2H   SYMBOL    XDATA    BYTE      day
      00FC9804H   BLOCK     ECODE    NEAR LAB  LVL=1
      000121B3H   SYMBOL    XDATA    BYTE      return_state
      000121B4H   SYMBOL    XDATA    ---       temp
      ---         BLOCKEND  ---      ---       LVL=1
      00FC97F4H   LINE      ECODE    ---       #324
      00FC9804H   LINE      ECODE    ---       #325
      00FC9804H   LINE      ECODE    ---       #329
      00FC9810H   LINE      ECODE    ---       #330
      00FC9837H   LINE      ECODE    ---       #332
      00FC9876H   LINE      ECODE    ---       #333
      00FC987AH   LINE      ECODE    ---       #334
      ---         BLOCKEND  ---      ---       LVL=0

      00FC987BH   BLOCK     ECODE    ---       LVL=0
      00012248H   SYMBOL    XDATA    BYTE      hour
      00012249H   SYMBOL    XDATA    BYTE      minute
      0001224AH   SYMBOL    XDATA    BYTE      second
      00FC988BH   BLOCK     ECODE    NEAR LAB  LVL=1
      0001224BH   SYMBOL    XDATA    BYTE      return_state
      0001224CH   SYMBOL    XDATA    ---       temp
      ---         BLOCKEND  ---      ---       LVL=1
      00FC987BH   LINE      ECODE    ---       #336
      00FC988BH   LINE      ECODE    ---       #337
      00FC988BH   LINE      ECODE    ---       #341
      00FC98B2H   LINE      ECODE    ---       #342
      00FC98C9H   LINE      ECODE    ---       #344
      00FC9908H   LINE      ECODE    ---       #345
      00FC990CH   LINE      ECODE    ---       #346
      ---         BLOCKEND  ---      ---       LVL=0

      00FC990DH   BLOCK     ECODE    ---       LVL=0
      000121C0H   SYMBOL    XDATA    WORD      child_id
      000121C2H   SYMBOL    XDATA    WORD      parent_id
L251 LINKER/LOCATER V4.66.93.0                                                        05/01/2026  15:28:45  PAGE 157


      00FC9919H   BLOCK     ECODE    NEAR LAB  LVL=1
      000121C4H   SYMBOL    XDATA    BYTE      return_state
      000121C5H   SYMBOL    XDATA    ---       temp
      ---         BLOCKEND  ---      ---       LVL=1
      00FC990DH   LINE      ECODE    ---       #348
      00FC9919H   LINE      ECODE    ---       #349
      00FC9919H   LINE      ECODE    ---       #353
      00FC9925H   LINE      ECODE    ---       #354
      00FC9931H   LINE      ECODE    ---       #356
      00FC9970H   LINE      ECODE    ---       #357
      00FC9974H   LINE      ECODE    ---       #358
      ---         BLOCKEND  ---      ---       LVL=0

      00FC9975H   BLOCK     ECODE    ---       LVL=0
      000123F3H   SYMBOL    XDATA    INT       format
      00FC997BH   BLOCK     ECODE    NEAR LAB  LVL=1
      000123F5H   SYMBOL    XDATA    BYTE      return_state
      000123F6H   SYMBOL    XDATA    ---       temp
      ---         BLOCKEND  ---      ---       LVL=1
      00FC9975H   LINE      ECODE    ---       #360
      00FC997BH   LINE      ECODE    ---       #361
      00FC997BH   LINE      ECODE    ---       #365
      00FC9987H   LINE      ECODE    ---       #367
      00FC99C6H   LINE      ECODE    ---       #368
      00FC99CAH   LINE      ECODE    ---       #369
      ---         BLOCKEND  ---      ---       LVL=0

      00FC99CBH   BLOCK     ECODE    ---       LVL=0
      000124F5H   SYMBOL    XDATA    BYTE      backlight
      00FC99CFH   BLOCK     ECODE    NEAR LAB  LVL=1
      000124F6H   SYMBOL    XDATA    BYTE      return_state
      000124F7H   SYMBOL    XDATA    ---       temp
      ---         BLOCKEND  ---      ---       LVL=1
      00FC99CBH   LINE      ECODE    ---       #371
      00FC99CFH   LINE      ECODE    ---       #372
      00FC99CFH   LINE      ECODE    ---       #376
      00FC99DBH   LINE      ECODE    ---       #378
      00FC9A1AH   LINE      ECODE    ---       #379
      00FC9A1EH   LINE      ECODE    ---       #380
      ---         BLOCKEND  ---      ---       LVL=0

      00FC9A1FH   BLOCK     ECODE    ---       LVL=0
      00012400H   SYMBOL    XDATA    INT       dir
      00FC9A25H   BLOCK     ECODE    NEAR LAB  LVL=1
      00012402H   SYMBOL    XDATA    BYTE      return_state
      00012403H   SYMBOL    XDATA    ---       temp
      ---         BLOCKEND  ---      ---       LVL=1
      00FC9A1FH   LINE      ECODE    ---       #382
      00FC9A25H   LINE      ECODE    ---       #383
      00FC9A25H   LINE      ECODE    ---       #387
      00FC9A31H   LINE      ECODE    ---       #389
      00FC9A70H   LINE      ECODE    ---       #390
      00FC9A74H   LINE      ECODE    ---       #391
      ---         BLOCKEND  ---      ---       LVL=0

      00FC9A75H   BLOCK     ECODE    ---       LVL=0
      00012501H   SYMBOL    XDATA    BYTE      crc_state
      00FC9A79H   BLOCK     ECODE    NEAR LAB  LVL=1
      00012502H   SYMBOL    XDATA    BYTE      return_state
      00012503H   SYMBOL    XDATA    ---       temp
      ---         BLOCKEND  ---      ---       LVL=1
      00FC9A75H   LINE      ECODE    ---       #393
      00FC9A79H   LINE      ECODE    ---       #394
      00FC9A79H   LINE      ECODE    ---       #398
      00FC9A85H   LINE      ECODE    ---       #400
L251 LINKER/LOCATER V4.66.93.0                                                        05/01/2026  15:28:45  PAGE 158


      00FC9AC4H   LINE      ECODE    ---       #401
      00FC9AC8H   LINE      ECODE    ---       #402
      ---         BLOCKEND  ---      ---       LVL=0

      00FC9AC9H   BLOCK     ECODE    ---       LVL=0
      0001240DH   SYMBOL    XDATA    INT       font
      00FC9ACFH   BLOCK     ECODE    NEAR LAB  LVL=1
      0001240FH   SYMBOL    XDATA    BYTE      return_state
      00012410H   SYMBOL    XDATA    ---       temp
      ---         BLOCKEND  ---      ---       LVL=1
      00FC9AC9H   LINE      ECODE    ---       #404
      00FC9ACFH   LINE      ECODE    ---       #405
      00FC9ACFH   LINE      ECODE    ---       #409
      00FC9ADBH   LINE      ECODE    ---       #411
      00FC9B1AH   LINE      ECODE    ---       #412
      00FC9B1EH   LINE      ECODE    ---       #413
      ---         BLOCKEND  ---      ---       LVL=0

      00FC9B1FH   BLOCK     ECODE    ---       LVL=0
      0001250DH   SYMBOL    XDATA    BYTE      state
      00FC9B23H   BLOCK     ECODE    NEAR LAB  LVL=1
      0001250EH   SYMBOL    XDATA    BYTE      return_state
      0001250FH   SYMBOL    XDATA    ---       temp
      ---         BLOCKEND  ---      ---       LVL=1
      00FC9B1FH   LINE      ECODE    ---       #415
      00FC9B23H   LINE      ECODE    ---       #416
      00FC9B23H   LINE      ECODE    ---       #420
      00FC9B2FH   LINE      ECODE    ---       #422
      00FC9B6EH   LINE      ECODE    ---       #423
      00FC9B72H   LINE      ECODE    ---       #424
      ---         BLOCKEND  ---      ---       LVL=0

      00FC9B73H   BLOCK     ECODE    ---       LVL=0
      000121D1H   SYMBOL    XDATA    ---       time
      00FC9B7DH   BLOCK     ECODE    NEAR LAB  LVL=1
      000121D5H   SYMBOL    XDATA    BYTE      return_state
      000121D6H   SYMBOL    XDATA    ---       temp
      ---         BLOCKEND  ---      ---       LVL=1
      00FC9B73H   LINE      ECODE    ---       #426
      00FC9B7DH   LINE      ECODE    ---       #427
      00FC9B7DH   LINE      ECODE    ---       #431
      00FC9B93H   LINE      ECODE    ---       #432
      00FC9B9CH   LINE      ECODE    ---       #434
      00FC9BBAH   LINE      ECODE    ---       #435
      00FC9BBAH   LINE      ECODE    ---       #436
      00FC9BBEH   LINE      ECODE    ---       #437
      ---         BLOCKEND  ---      ---       LVL=0

      00FC9BBFH   BLOCK     ECODE    ---       LVL=0
      000121E2H   SYMBOL    XDATA    ---       time
      00FC9BC9H   BLOCK     ECODE    NEAR LAB  LVL=1
      000121E6H   SYMBOL    XDATA    BYTE      return_state
      000121E7H   SYMBOL    XDATA    ---       temp
      ---         BLOCKEND  ---      ---       LVL=1
      00FC9BBFH   LINE      ECODE    ---       #439
      00FC9BC9H   LINE      ECODE    ---       #440
      00FC9BC9H   LINE      ECODE    ---       #444
      00FC9BDFH   LINE      ECODE    ---       #445
      00FC9BE8H   LINE      ECODE    ---       #447
      00FC9C08H   LINE      ECODE    ---       #448
      00FC9C08H   LINE      ECODE    ---       #449
      00FC9C0CH   LINE      ECODE    ---       #450
      ---         BLOCKEND  ---      ---       LVL=0

      00FC9C0DH   BLOCK     ECODE    ---       LVL=0
L251 LINKER/LOCATER V4.66.93.0                                                        05/01/2026  15:28:45  PAGE 159


      00011FF5H   SYMBOL    XDATA    ---       information
      00FC9C17H   BLOCK     ECODE    NEAR LAB  LVL=1
      00011FF9H   SYMBOL    XDATA    BYTE      return_state
      00011FFAH   SYMBOL    XDATA    ---       temp
      ---         BLOCKEND  ---      ---       LVL=1
      00FC9C0DH   LINE      ECODE    ---       #452
      00FC9C17H   LINE      ECODE    ---       #453
      00FC9C17H   LINE      ECODE    ---       #457
      00FC9C2DH   LINE      ECODE    ---       #458
      00FC9C36H   LINE      ECODE    ---       #460
      00FC9C4BH   LINE      ECODE    ---       #461
      00FC9C69H   LINE      ECODE    ---       #462
      00FC9C69H   LINE      ECODE    ---       #463
      00FC9C6DH   LINE      ECODE    ---       #464
      ---         BLOCKEND  ---      ---       LVL=0

      00FC9C6EH   BLOCK     ECODE    ---       LVL=0
      000121F3H   SYMBOL    XDATA    ---       stack_size
      00FC9C78H   BLOCK     ECODE    NEAR LAB  LVL=1
      000121F7H   SYMBOL    XDATA    BYTE      return_state
      000121F8H   SYMBOL    XDATA    ---       temp
      ---         BLOCKEND  ---      ---       LVL=1
      00FC9C6EH   LINE      ECODE    ---       #466
      00FC9C78H   LINE      ECODE    ---       #467
      00FC9C78H   LINE      ECODE    ---       #471
      00FC9C8EH   LINE      ECODE    ---       #472
      00FC9C97H   LINE      ECODE    ---       #474
      00FC9CB7H   LINE      ECODE    ---       #475
      00FC9CB7H   LINE      ECODE    ---       #476
      00FC9CBBH   LINE      ECODE    ---       #477
      ---         BLOCKEND  ---      ---       LVL=0

      00FC9CBCH   BLOCK     ECODE    ---       LVL=0
      00011EFBH   SYMBOL    XDATA    WORD      widgets_id
      00011EFDH   SYMBOL    XDATA    INT       x
      00011EFFH   SYMBOL    XDATA    INT       y
      00011F01H   SYMBOL    XDATA    WORD      width
      00011F03H   SYMBOL    XDATA    WORD      height
      00FC9CD4H   BLOCK     ECODE    NEAR LAB  LVL=1
      00011F05H   SYMBOL    XDATA    BYTE      return_state
      00011F06H   SYMBOL    XDATA    ---       temp
      ---         BLOCKEND  ---      ---       LVL=1
      00FC9CBCH   LINE      ECODE    ---       #479
      00FC9CD4H   LINE      ECODE    ---       #480
      00FC9CD4H   LINE      ECODE    ---       #481
      00FC9CDAH   LINE      ECODE    ---       #484
      00FC9CE6H   LINE      ECODE    ---       #485
      00FC9CF2H   LINE      ECODE    ---       #486
      00FC9CFEH   LINE      ECODE    ---       #487
      00FC9D0AH   LINE      ECODE    ---       #489
      00FC9D25H   LINE      ECODE    ---       #492
      00FC9D6DH   LINE      ECODE    ---       #493
      00FC9D6DH   LINE      ECODE    ---       #495
      00FC9D71H   LINE      ECODE    ---       #496
      ---         BLOCKEND  ---      ---       LVL=0

      00FC9D72H   BLOCK     ECODE    ---       LVL=0
      000125B0H   SYMBOL    XDATA    WORD      widgets_id
      00FC9D78H   BLOCK     ECODE    NEAR LAB  LVL=1
      000125B2H   SYMBOL    XDATA    BYTE      return_state
      000125B3H   SYMBOL    XDATA    ---       temp
      ---         BLOCKEND  ---      ---       LVL=1
      00FC9D72H   LINE      ECODE    ---       #498
      00FC9D78H   LINE      ECODE    ---       #499
      00FC9D78H   LINE      ECODE    ---       #503
L251 LINKER/LOCATER V4.66.93.0                                                        05/01/2026  15:28:45  PAGE 160


      00FC9DC0H   LINE      ECODE    ---       #504
      00FC9DC4H   LINE      ECODE    ---       #505
      ---         BLOCKEND  ---      ---       LVL=0

      00FC9DC5H   BLOCK     ECODE    ---       LVL=0
      00012277H   SYMBOL    XDATA    WORD      widgets_id
      00012279H   SYMBOL    XDATA    INT       font_size
      00FC9DD1H   BLOCK     ECODE    NEAR LAB  LVL=1
      0001227BH   SYMBOL    XDATA    BYTE      return_state
      0001227CH   SYMBOL    XDATA    ---       temp
      ---         BLOCKEND  ---      ---       LVL=1
      00FC9DC5H   LINE      ECODE    ---       #507
      00FC9DD1H   LINE      ECODE    ---       #508
      00FC9DD1H   LINE      ECODE    ---       #512
      00FC9DDDH   LINE      ECODE    ---       #513
      00FC9E25H   LINE      ECODE    ---       #514
      00FC9E29H   LINE      ECODE    ---       #515
      ---         BLOCKEND  ---      ---       LVL=0

      00FC9E2AH   BLOCK     ECODE    ---       LVL=0
      000120E5H   SYMBOL    XDATA    WORD      widgets_id
      000120E7H   SYMBOL    XDATA    INT       color_type
      000120E9H   SYMBOL    XDATA    WORD      color
      00FC9E3CH   BLOCK     ECODE    NEAR LAB  LVL=1
      000120EBH   SYMBOL    XDATA    BYTE      return_state
      000120ECH   SYMBOL    XDATA    ---       temp
      ---         BLOCKEND  ---      ---       LVL=1
      00FC9E2AH   LINE      ECODE    ---       #517
      00FC9E3CH   LINE      ECODE    ---       #518
      00FC9E3CH   LINE      ECODE    ---       #522
      00FC9E48H   LINE      ECODE    ---       #523
      00FC9E54H   LINE      ECODE    ---       #524
      00FC9E9CH   LINE      ECODE    ---       #525
      00FC9EA0H   LINE      ECODE    ---       #526
      ---         BLOCKEND  ---      ---       LVL=0

      00FC9EA1H   BLOCK     ECODE    ---       LVL=0
      000120F8H   SYMBOL    XDATA    WORD      widgets_id
      000120FAH   SYMBOL    XDATA    INT       x
      000120FCH   SYMBOL    XDATA    INT       y
      00FC9EB3H   BLOCK     ECODE    NEAR LAB  LVL=1
      000120FEH   SYMBOL    XDATA    BYTE      return_state
      000120FFH   SYMBOL    XDATA    ---       temp
      ---         BLOCKEND  ---      ---       LVL=1
      00FC9EA1H   LINE      ECODE    ---       #528
      00FC9EB3H   LINE      ECODE    ---       #529
      00FC9EB3H   LINE      ECODE    ---       #533
      00FC9EBFH   LINE      ECODE    ---       #534
      00FC9ECBH   LINE      ECODE    ---       #535
      00FC9F13H   LINE      ECODE    ---       #536
      00FC9F17H   LINE      ECODE    ---       #537
      ---         BLOCKEND  ---      ---       LVL=0

      00FC9F18H   BLOCK     ECODE    ---       LVL=0
      00012396H   SYMBOL    XDATA    WORD      widgets_id
      00012398H   SYMBOL    XDATA    BYTE      state
      00FC9F22H   BLOCK     ECODE    NEAR LAB  LVL=1
      00012399H   SYMBOL    XDATA    BYTE      return_state
      0001239AH   SYMBOL    XDATA    ---       temp
      ---         BLOCKEND  ---      ---       LVL=1
      00FC9F18H   LINE      ECODE    ---       #539
      00FC9F22H   LINE      ECODE    ---       #540
      00FC9F22H   LINE      ECODE    ---       #544
      00FC9F2EH   LINE      ECODE    ---       #545
      00FC9F76H   LINE      ECODE    ---       #546
L251 LINKER/LOCATER V4.66.93.0                                                        05/01/2026  15:28:45  PAGE 161


      00FC9F7AH   LINE      ECODE    ---       #547
      ---         BLOCKEND  ---      ---       LVL=0

      00FC9F7BH   BLOCK     ECODE    ---       LVL=0
      000129ADH   SYMBOL    XDATA    ---       str
      00FC9F85H   BLOCK     ECODE    NEAR LAB  LVL=1
      000129B1H   SYMBOL    XDATA    BYTE      return_state
      ---         BLOCKEND  ---      ---       LVL=1
      00FC9F7BH   LINE      ECODE    ---       #550
      00FC9F85H   LINE      ECODE    ---       #551
      00FC9F85H   LINE      ECODE    ---       #552
      00FC9F8BH   LINE      ECODE    ---       #554
      00FC9F97H   LINE      ECODE    ---       #556
      00FC9FC2H   LINE      ECODE    ---       #557
      00FC9FCBH   LINE      ECODE    ---       #559
      00FC9FD9H   LINE      ECODE    ---       #560
      00FC9FDBH   LINE      ECODE    ---       #561
      00FC9FE9H   LINE      ECODE    ---       #563
      00FCA001H   LINE      ECODE    ---       #564
      00FCA001H   LINE      ECODE    ---       #566
      00FCA01AH   LINE      ECODE    ---       #567
      ---         BLOCKEND  ---      ---       LVL=0

      00FCA01BH   BLOCK     ECODE    ---       LVL=0
      00012286H   SYMBOL    XDATA    WORD      page_id
      00012288H   SYMBOL    XDATA    INT       anim_en
      00FCA027H   BLOCK     ECODE    NEAR LAB  LVL=1
      0001228AH   SYMBOL    XDATA    BYTE      return_state
      0001228BH   SYMBOL    XDATA    ---       temp
      ---         BLOCKEND  ---      ---       LVL=1
      00FCA01BH   LINE      ECODE    ---       #569
      00FCA027H   LINE      ECODE    ---       #570
      00FCA027H   LINE      ECODE    ---       #574
      00FCA033H   LINE      ECODE    ---       #575
      00FCA077H   LINE      ECODE    ---       #576
      00FCA07BH   LINE      ECODE    ---       #577
      ---         BLOCKEND  ---      ---       LVL=0

      00FCA07CH   BLOCK     ECODE    ---       LVL=0
      00012A4FH   SYMBOL    XDATA    WORD      page_id
      00012A51H   SYMBOL    XDATA    BYTE      state
      00FCA086H   BLOCK     ECODE    NEAR LAB  LVL=1
      00012A52H   SYMBOL    XDATA    BYTE      return_state
      ---         BLOCKEND  ---      ---       LVL=1
      00FCA07CH   LINE      ECODE    ---       #579
      00FCA086H   LINE      ECODE    ---       #580
      00FCA086H   LINE      ECODE    ---       #582
      00FCA092H   LINE      ECODE    ---       #584
      00FCA09CH   LINE      ECODE    ---       #585
      00FCA09CH   LINE      ECODE    ---       #586
      00FCA0AEH   LINE      ECODE    ---       #587
      00FCA0B2H   LINE      ECODE    ---       #588
      ---         BLOCKEND  ---      ---       LVL=0

      00FCA0B3H   BLOCK     ECODE    ---       LVL=0
      00012295H   SYMBOL    XDATA    WORD      page_id
      00012297H   SYMBOL    XDATA    ---       str
      00FCA0C3H   BLOCK     ECODE    NEAR LAB  LVL=1
      0001229BH   SYMBOL    XDATA    BYTE      return_state
      0001229CH   SYMBOL    XDATA    ---       temp
      ---         BLOCKEND  ---      ---       LVL=1
      00FCA0B3H   LINE      ECODE    ---       #590
      00FCA0C3H   LINE      ECODE    ---       #591
      00FCA0C3H   LINE      ECODE    ---       #595
      00FCA11FH   LINE      ECODE    ---       #596
L251 LINKER/LOCATER V4.66.93.0                                                        05/01/2026  15:28:45  PAGE 162


      00FCA123H   LINE      ECODE    ---       #597
      ---         BLOCKEND  ---      ---       LVL=0

      00FCA124H   BLOCK     ECODE    ---       LVL=0
      00012258H   SYMBOL    XDATA    INT       title_position
      0001225AH   SYMBOL    XDATA    BYTE      title_width
      00FCA12EH   BLOCK     ECODE    NEAR LAB  LVL=1
      0001225BH   SYMBOL    XDATA    BYTE      return_state
      0001225CH   SYMBOL    XDATA    ---       temp
      ---         BLOCKEND  ---      ---       LVL=1
      00FCA124H   LINE      ECODE    ---       #599
      00FCA12EH   LINE      ECODE    ---       #600
      00FCA12EH   LINE      ECODE    ---       #604
      00FCA13AH   LINE      ECODE    ---       #605
      00FCA146H   LINE      ECODE    ---       #606
      00FCA186H   LINE      ECODE    ---       #607
      00FCA18AH   LINE      ECODE    ---       #608
      ---         BLOCKEND  ---      ---       LVL=0

      00FCA18BH   BLOCK     ECODE    ---       LVL=0
      000126F7H   SYMBOL    XDATA    INT       x
      000126F9H   SYMBOL    XDATA    INT       y
      000126FBH   SYMBOL    XDATA    WORD      width
      000126FDH   SYMBOL    XDATA    WORD      height
      00FCA1A3H   BLOCK     ECODE    NEAR LAB  LVL=1
      000126FFH   SYMBOL    XDATA    BYTE      return_state
      00011610H   SYMBOL    XDATA    BYTE      lebel_num
      ---         BLOCKEND  ---      ---       LVL=1
      00FCA18BH   LINE      ECODE    ---       #610
      00FCA1A3H   LINE      ECODE    ---       #611
      00FCA1A3H   LINE      ECODE    ---       #612
      00FCA1A9H   LINE      ECODE    ---       #615
      00FCA1B5H   LINE      ECODE    ---       #617
      00FCA1F0H   LINE      ECODE    ---       #618
      00FCA1F9H   LINE      ECODE    ---       #620
      00FCA207H   LINE      ECODE    ---       #621
      00FCA207H   LINE      ECODE    ---       #623
      00FCA220H   LINE      ECODE    ---       #624
      ---         BLOCKEND  ---      ---       LVL=0

      00FCA221H   BLOCK     ECODE    ---       LVL=0
      000117F2H   SYMBOL    XDATA    WORD      label_id
      000117F4H   SYMBOL    XDATA    ---       format
      00FCA231H   BLOCK     ECODE    NEAR LAB  LVL=1
      000117F8H   SYMBOL    XDATA    LONG      str_length
      000117FCH   SYMBOL    XDATA    BYTE      return_state
      000117FDH   SYMBOL    XDATA    ---       temp
      00011805H   SYMBOL    XDATA    ---       arg
      ---         BLOCKEND  ---      ---       LVL=1
      00FCA221H   LINE      ECODE    ---       #626
      00FCA231H   LINE      ECODE    ---       #627
      00FCA231H   LINE      ECODE    ---       #629
      00FCA237H   LINE      ECODE    ---       #633
      00FCA249H   LINE      ECODE    ---       #635
      00FCA28BH   LINE      ECODE    ---       #636
      00FCA29BH   LINE      ECODE    ---       #638
      00FCA2AFH   LINE      ECODE    ---       #639
      00FCA301H   LINE      ECODE    ---       #640
      00FCA301H   LINE      ECODE    ---       #643
      00FCA305H   LINE      ECODE    ---       #644
      ---         BLOCKEND  ---      ---       LVL=0

      00FCA306H   BLOCK     ECODE    ---       LVL=0
      000122A4H   SYMBOL    XDATA    WORD      label_id
      000122A6H   SYMBOL    XDATA    ---       str
L251 LINKER/LOCATER V4.66.93.0                                                        05/01/2026  15:28:45  PAGE 163


      00FCA316H   BLOCK     ECODE    NEAR LAB  LVL=1
      000122AAH   SYMBOL    XDATA    BYTE      return_state
      000122ABH   SYMBOL    XDATA    ---       temp
      ---         BLOCKEND  ---      ---       LVL=1
      00FCA306H   LINE      ECODE    ---       #646
      00FCA316H   LINE      ECODE    ---       #647
      00FCA316H   LINE      ECODE    ---       #651
      00FCA330H   LINE      ECODE    ---       #652
      00FCA384H   LINE      ECODE    ---       #654
      00FCA388H   LINE      ECODE    ---       #655
      ---         BLOCKEND  ---      ---       LVL=0

      00FCA389H   BLOCK     ECODE    ---       LVL=0
      000122B3H   SYMBOL    XDATA    WORD      label_id
      000122B5H   SYMBOL    XDATA    INT       mode
      00FCA395H   BLOCK     ECODE    NEAR LAB  LVL=1
      000122B7H   SYMBOL    XDATA    BYTE      return_state
      000122B8H   SYMBOL    XDATA    ---       temp
      ---         BLOCKEND  ---      ---       LVL=1
      00FCA389H   LINE      ECODE    ---       #657
      00FCA395H   LINE      ECODE    ---       #658
      00FCA395H   LINE      ECODE    ---       #662
      00FCA3A1H   LINE      ECODE    ---       #663
      00FCA3E5H   LINE      ECODE    ---       #664
      00FCA3E9H   LINE      ECODE    ---       #665
      ---         BLOCKEND  ---      ---       LVL=0

      00FCA3EAH   BLOCK     ECODE    ---       LVL=0
      00012700H   SYMBOL    XDATA    INT       x
      00012702H   SYMBOL    XDATA    INT       y
      00012704H   SYMBOL    XDATA    WORD      row_num
      00012706H   SYMBOL    XDATA    WORD      col_num
      00FCA402H   BLOCK     ECODE    NEAR LAB  LVL=1
      00012708H   SYMBOL    XDATA    BYTE      return_state
      00011611H   SYMBOL    XDATA    BYTE      table_num
      ---         BLOCKEND  ---      ---       LVL=1
      00FCA3EAH   LINE      ECODE    ---       #668
      00FCA402H   LINE      ECODE    ---       #669
      00FCA402H   LINE      ECODE    ---       #670
      00FCA408H   LINE      ECODE    ---       #672
      00FCA414H   LINE      ECODE    ---       #674
      00FCA44FH   LINE      ECODE    ---       #675
      00FCA458H   LINE      ECODE    ---       #677
      00FCA466H   LINE      ECODE    ---       #678
      00FCA466H   LINE      ECODE    ---       #680
      00FCA47FH   LINE      ECODE    ---       #681
      ---         BLOCKEND  ---      ---       LVL=0

      00FCA480H   BLOCK     ECODE    ---       LVL=0
      0001176AH   SYMBOL    XDATA    WORD      table_id
      0001176CH   SYMBOL    XDATA    BYTE      row
      0001176DH   SYMBOL    XDATA    BYTE      col
      0001176EH   SYMBOL    XDATA    ---       format
      00FCA49AH   BLOCK     ECODE    NEAR LAB  LVL=1
      00011772H   SYMBOL    XDATA    LONG      str_length
      00011776H   SYMBOL    XDATA    BYTE      return_state
      00011777H   SYMBOL    XDATA    ---       arg
      0001177BH   SYMBOL    XDATA    ---       temp
      ---         BLOCKEND  ---      ---       LVL=1
      00FCA480H   LINE      ECODE    ---       #683
      00FCA49AH   LINE      ECODE    ---       #684
      00FCA49AH   LINE      ECODE    ---       #685
      00FCA4A6H   LINE      ECODE    ---       #686
      00FCA4ACH   LINE      ECODE    ---       #690
      00FCA4BEH   LINE      ECODE    ---       #692
L251 LINKER/LOCATER V4.66.93.0                                                        05/01/2026  15:28:45  PAGE 164


      00FCA500H   LINE      ECODE    ---       #693
      00FCA513H   LINE      ECODE    ---       #695
      00FCA527H   LINE      ECODE    ---       #696
      00FCA533H   LINE      ECODE    ---       #697
      00FCA53FH   LINE      ECODE    ---       #698
      00FCA591H   LINE      ECODE    ---       #699
      00FCA591H   LINE      ECODE    ---       #702
      00FCA595H   LINE      ECODE    ---       #703
      ---         BLOCKEND  ---      ---       LVL=0

      00FCA596H   BLOCK     ECODE    ---       LVL=0
      00012168H   SYMBOL    XDATA    WORD      table_id
      0001216AH   SYMBOL    XDATA    BYTE      col
      0001216BH   SYMBOL    XDATA    WORD      width
      00FCA5A6H   BLOCK     ECODE    NEAR LAB  LVL=1
      0001216DH   SYMBOL    XDATA    BYTE      return_state
      0001216EH   SYMBOL    XDATA    ---       temp
      ---         BLOCKEND  ---      ---       LVL=1
      00FCA596H   LINE      ECODE    ---       #706
      00FCA5A6H   LINE      ECODE    ---       #707
      00FCA5A6H   LINE      ECODE    ---       #711
      00FCA5B2H   LINE      ECODE    ---       #712
      00FCA5BEH   LINE      ECODE    ---       #713
      00FCA602H   LINE      ECODE    ---       #714
      00FCA606H   LINE      ECODE    ---       #715
      ---         BLOCKEND  ---      ---       LVL=0

      00FCA607H   BLOCK     ECODE    ---       LVL=0
      00012204H   SYMBOL    XDATA    WORD      table_id
      00012206H   SYMBOL    XDATA    BYTE      row
      00012207H   SYMBOL    XDATA    BYTE      col
      00FCA617H   BLOCK     ECODE    NEAR LAB  LVL=1
      00012208H   SYMBOL    XDATA    BYTE      return_state
      00012209H   SYMBOL    XDATA    ---       temp
      ---         BLOCKEND  ---      ---       LVL=1
      00FCA607H   LINE      ECODE    ---       #717
      00FCA617H   LINE      ECODE    ---       #718
      00FCA617H   LINE      ECODE    ---       #722
      00FCA623H   LINE      ECODE    ---       #723
      00FCA62FH   LINE      ECODE    ---       #724
      00FCA673H   LINE      ECODE    ---       #725
      00FCA677H   LINE      ECODE    ---       #726
      ---         BLOCKEND  ---      ---       LVL=0

      00FCA678H   BLOCK     ECODE    ---       LVL=0
      00012709H   SYMBOL    XDATA    INT       x
      0001270BH   SYMBOL    XDATA    INT       y
      0001270DH   SYMBOL    XDATA    WORD      siz
      0001270FH   SYMBOL    XDATA    INT       style
      00FCA690H   BLOCK     ECODE    NEAR LAB  LVL=1
      00012711H   SYMBOL    XDATA    BYTE      return_state
      00011612H   SYMBOL    XDATA    BYTE      meter_num
      ---         BLOCKEND  ---      ---       LVL=1
      00FCA678H   LINE      ECODE    ---       #728
      00FCA690H   LINE      ECODE    ---       #729
      00FCA690H   LINE      ECODE    ---       #730
      00FCA696H   LINE      ECODE    ---       #732
      00FCA6A2H   LINE      ECODE    ---       #734
      00FCA6DDH   LINE      ECODE    ---       #735
      00FCA6E6H   LINE      ECODE    ---       #737
      00FCA6F4H   LINE      ECODE    ---       #738
      00FCA6F4H   LINE      ECODE    ---       #740
      00FCA70DH   LINE      ECODE    ---       #741
      ---         BLOCKEND  ---      ---       LVL=0

L251 LINKER/LOCATER V4.66.93.0                                                        05/01/2026  15:28:45  PAGE 165


      00FCA70EH   BLOCK     ECODE    ---       LVL=0
      000122C2H   SYMBOL    XDATA    WORD      meter_id
      000122C4H   SYMBOL    XDATA    INT       value
      00FCA71AH   BLOCK     ECODE    NEAR LAB  LVL=1
      000122C6H   SYMBOL    XDATA    BYTE      return_state
      000122C7H   SYMBOL    XDATA    ---       temp
      ---         BLOCKEND  ---      ---       LVL=1
      00FCA70EH   LINE      ECODE    ---       #743
      00FCA71AH   LINE      ECODE    ---       #744
      00FCA71AH   LINE      ECODE    ---       #748
      00FCA726H   LINE      ECODE    ---       #749
      00FCA76AH   LINE      ECODE    ---       #750
      00FCA76EH   LINE      ECODE    ---       #751
      ---         BLOCKEND  ---      ---       LVL=0

      00FCA76FH   BLOCK     ECODE    ---       LVL=0
      00012712H   SYMBOL    XDATA    INT       x
      00012714H   SYMBOL    XDATA    INT       y
      00012716H   SYMBOL    XDATA    WORD      clock_size
      00012718H   SYMBOL    XDATA    INT       clock_type
      00FCA787H   BLOCK     ECODE    NEAR LAB  LVL=1
      0001271AH   SYMBOL    XDATA    BYTE      return_state
      00011613H   SYMBOL    XDATA    BYTE      clock_num
      ---         BLOCKEND  ---      ---       LVL=1
      00FCA76FH   LINE      ECODE    ---       #753
      00FCA787H   LINE      ECODE    ---       #754
      00FCA787H   LINE      ECODE    ---       #755
      00FCA78DH   LINE      ECODE    ---       #757
      00FCA799H   LINE      ECODE    ---       #759
      00FCA7D4H   LINE      ECODE    ---       #760
      00FCA7DDH   LINE      ECODE    ---       #762
      00FCA7EBH   LINE      ECODE    ---       #763
      00FCA7EBH   LINE      ECODE    ---       #765
      00FCA804H   LINE      ECODE    ---       #766
      ---         BLOCKEND  ---      ---       LVL=0

      00FCA805H   BLOCK     ECODE    ---       LVL=0
      0001271BH   SYMBOL    XDATA    INT       x
      0001271DH   SYMBOL    XDATA    INT       y
      0001271FH   SYMBOL    XDATA    WORD      width
      00012721H   SYMBOL    XDATA    WORD      height
      00FCA81DH   BLOCK     ECODE    NEAR LAB  LVL=1
      00012723H   SYMBOL    XDATA    BYTE      return_state
      00011614H   SYMBOL    XDATA    BYTE      progress_bar_num
      ---         BLOCKEND  ---      ---       LVL=1
      00FCA805H   LINE      ECODE    ---       #769
      00FCA81DH   LINE      ECODE    ---       #770
      00FCA81DH   LINE      ECODE    ---       #771
      00FCA823H   LINE      ECODE    ---       #773
      00FCA82FH   LINE      ECODE    ---       #775
      00FCA86AH   LINE      ECODE    ---       #776
      00FCA873H   LINE      ECODE    ---       #778
      00FCA881H   LINE      ECODE    ---       #779
      00FCA881H   LINE      ECODE    ---       #781
      00FCA89AH   LINE      ECODE    ---       #782
      ---         BLOCKEND  ---      ---       LVL=0

      00FCA89BH   BLOCK     ECODE    ---       LVL=0
      00012215H   SYMBOL    XDATA    WORD      progress_bar_id
      00012217H   SYMBOL    XDATA    BYTE      start_value
      00012218H   SYMBOL    XDATA    BYTE      end_value
      00FCA8ABH   BLOCK     ECODE    NEAR LAB  LVL=1
      00012219H   SYMBOL    XDATA    BYTE      return_state
      0001221AH   SYMBOL    XDATA    ---       temp
      ---         BLOCKEND  ---      ---       LVL=1
L251 LINKER/LOCATER V4.66.93.0                                                        05/01/2026  15:28:45  PAGE 166


      00FCA89BH   LINE      ECODE    ---       #784
      00FCA8ABH   LINE      ECODE    ---       #785
      00FCA8ABH   LINE      ECODE    ---       #789
      00FCA8B7H   LINE      ECODE    ---       #790
      00FCA8C3H   LINE      ECODE    ---       #791
      00FCA907H   LINE      ECODE    ---       #792
      00FCA90BH   LINE      ECODE    ---       #793
      ---         BLOCKEND  ---      ---       LVL=0

      00FCA90CH   BLOCK     ECODE    ---       LVL=0
      00012724H   SYMBOL    XDATA    INT       x
      00012726H   SYMBOL    XDATA    INT       y
      00012728H   SYMBOL    XDATA    WORD      width
      0001272AH   SYMBOL    XDATA    WORD      height
      00FCA924H   BLOCK     ECODE    NEAR LAB  LVL=1
      0001272CH   SYMBOL    XDATA    BYTE      return_state
      ---         BLOCKEND  ---      ---       LVL=1
      00FCA90CH   LINE      ECODE    ---       #795
      00FCA924H   LINE      ECODE    ---       #796
      00FCA924H   LINE      ECODE    ---       #799
      00FCA94EH   LINE      ECODE    ---       #800
      00FCA95FH   LINE      ECODE    ---       #801
      ---         BLOCKEND  ---      ---       LVL=0

      00FCA960H   BLOCK     ECODE    ---       LVL=0
      0001217AH   SYMBOL    XDATA    WORD      year
      0001217CH   SYMBOL    XDATA    BYTE      month
      0001217DH   SYMBOL    XDATA    INT       mode
      00FCA970H   BLOCK     ECODE    NEAR LAB  LVL=1
      0001217FH   SYMBOL    XDATA    BYTE      return_state
      00012180H   SYMBOL    XDATA    ---       temp
      ---         BLOCKEND  ---      ---       LVL=1
      00FCA960H   LINE      ECODE    ---       #803
      00FCA970H   LINE      ECODE    ---       #804
      00FCA970H   LINE      ECODE    ---       #808
      00FCA97CH   LINE      ECODE    ---       #809
      00FCA9A3H   LINE      ECODE    ---       #811
      00FCA9E3H   LINE      ECODE    ---       #812
      00FCA9E7H   LINE      ECODE    ---       #813
      ---         BLOCKEND  ---      ---       LVL=0

      00FCA9E8H   BLOCK     ECODE    ---       LVL=0
      0001272DH   SYMBOL    XDATA    INT       x
      0001272FH   SYMBOL    XDATA    INT       y
      00012731H   SYMBOL    XDATA    WORD      width
      00012733H   SYMBOL    XDATA    WORD      height
      00FCAA00H   BLOCK     ECODE    NEAR LAB  LVL=1
      00012735H   SYMBOL    XDATA    BYTE      return_state
      00011615H   SYMBOL    XDATA    BYTE      waveform_num
      ---         BLOCKEND  ---      ---       LVL=1
      00FCA9E8H   LINE      ECODE    ---       #815
      00FCAA00H   LINE      ECODE    ---       #816
      00FCAA00H   LINE      ECODE    ---       #817
      00FCAA06H   LINE      ECODE    ---       #819
      00FCAA12H   LINE      ECODE    ---       #821
      00FCAA4DH   LINE      ECODE    ---       #822
      00FCAA56H   LINE      ECODE    ---       #824
      00FCAA64H   LINE      ECODE    ---       #825
      00FCAA64H   LINE      ECODE    ---       #827
      00FCAA7DH   LINE      ECODE    ---       #828
      ---         BLOCKEND  ---      ---       LVL=0

      00FCAA7EH   BLOCK     ECODE    ---       LVL=0
      00011F16H   SYMBOL    XDATA    WORD      waveform_id
      00011F18H   SYMBOL    XDATA    BYTE      line_id
L251 LINKER/LOCATER V4.66.93.0                                                        05/01/2026  15:28:45  PAGE 167


      00011F19H   SYMBOL    XDATA    ---       dat
      00011F1DH   SYMBOL    XDATA    WORD      length
      00011F1FH   SYMBOL    XDATA    WORD      color
      00FCAA98H   BLOCK     ECODE    NEAR LAB  LVL=1
      00011F21H   SYMBOL    XDATA    BYTE      return_state
      00011F22H   SYMBOL    XDATA    WORD      i
      00011F24H   SYMBOL    XDATA    ---       temp
      ---         BLOCKEND  ---      ---       LVL=1
      00FCAA7EH   LINE      ECODE    ---       #830
      00FCAA98H   LINE      ECODE    ---       #831
      00FCAA98H   LINE      ECODE    ---       #838
      00FCAAA4H   LINE      ECODE    ---       #839
      00FCAAB0H   LINE      ECODE    ---       #842
      00FCAABAH   LINE      ECODE    ---       #844
      00FCAB13H   LINE      ECODE    ---       #845
      00FCAB32H   LINE      ECODE    ---       #847
      00FCAB86H   LINE      ECODE    ---       #848
      00FCAB8AH   LINE      ECODE    ---       #849
      ---         BLOCKEND  ---      ---       LVL=0

      00FCAB8BH   BLOCK     ECODE    ---       LVL=0
      0001210BH   SYMBOL    XDATA    WORD      waveform_id
      0001210DH   SYMBOL    XDATA    WORD      line_id
      0001210FH   SYMBOL    XDATA    WORD      line_state
      00FCAB9DH   BLOCK     ECODE    NEAR LAB  LVL=1
      00012111H   SYMBOL    XDATA    BYTE      return_state
      00012112H   SYMBOL    XDATA    ---       temp
      ---         BLOCKEND  ---      ---       LVL=1
      00FCAB8BH   LINE      ECODE    ---       #851
      00FCAB9DH   LINE      ECODE    ---       #852
      00FCAB9DH   LINE      ECODE    ---       #856
      00FCABA9H   LINE      ECODE    ---       #857
      00FCABB5H   LINE      ECODE    ---       #858
      00FCABF9H   LINE      ECODE    ---       #859
      00FCABFDH   LINE      ECODE    ---       #860
      ---         BLOCKEND  ---      ---       LVL=0

      00FCABFEH   BLOCK     ECODE    ---       LVL=0
      000123A4H   SYMBOL    XDATA    WORD      waveform_id
      000123A6H   SYMBOL    XDATA    BYTE      line_type
      00FCAC08H   BLOCK     ECODE    NEAR LAB  LVL=1
      000123A7H   SYMBOL    XDATA    BYTE      return_state
      000123A8H   SYMBOL    XDATA    ---       temp
      ---         BLOCKEND  ---      ---       LVL=1
      00FCABFEH   LINE      ECODE    ---       #862
      00FCAC08H   LINE      ECODE    ---       #863
      00FCAC08H   LINE      ECODE    ---       #867
      00FCAC14H   LINE      ECODE    ---       #868
      00FCAC58H   LINE      ECODE    ---       #869
      00FCAC5CH   LINE      ECODE    ---       #870
      ---         BLOCKEND  ---      ---       LVL=0

      00FCAC5DH   BLOCK     ECODE    ---       LVL=0
      000125BBH   SYMBOL    XDATA    WORD      waveform_id
      00FCAC63H   BLOCK     ECODE    NEAR LAB  LVL=1
      000125BDH   SYMBOL    XDATA    BYTE      return_state
      000125BEH   SYMBOL    XDATA    ---       temp
      ---         BLOCKEND  ---      ---       LVL=1
      00FCAC5DH   LINE      ECODE    ---       #872
      00FCAC63H   LINE      ECODE    ---       #873
      00FCAC63H   LINE      ECODE    ---       #877
      00FCACA7H   LINE      ECODE    ---       #878
      00FCACABH   LINE      ECODE    ---       #879
      ---         BLOCKEND  ---      ---       LVL=0

L251 LINKER/LOCATER V4.66.93.0                                                        05/01/2026  15:28:45  PAGE 168


      00FCACACH   BLOCK     ECODE    ---       LVL=0
      00012736H   SYMBOL    XDATA    INT       x
      00012738H   SYMBOL    XDATA    INT       y
      0001273AH   SYMBOL    XDATA    WORD      width
      0001273CH   SYMBOL    XDATA    WORD      height
      00FCACC4H   BLOCK     ECODE    NEAR LAB  LVL=1
      0001273EH   SYMBOL    XDATA    BYTE      return_state
      00011616H   SYMBOL    XDATA    BYTE      image_num
      ---         BLOCKEND  ---      ---       LVL=1
      00FCACACH   LINE      ECODE    ---       #881
      00FCACC4H   LINE      ECODE    ---       #882
      00FCACC4H   LINE      ECODE    ---       #883
      00FCACCAH   LINE      ECODE    ---       #885
      00FCACD6H   LINE      ECODE    ---       #887
      00FCAD11H   LINE      ECODE    ---       #888
      00FCAD1AH   LINE      ECODE    ---       #890
      00FCAD28H   LINE      ECODE    ---       #891
      00FCAD28H   LINE      ECODE    ---       #893
      00FCAD41H   LINE      ECODE    ---       #894
      ---         BLOCKEND  ---      ---       LVL=0

      00FCAD42H   BLOCK     ECODE    ---       LVL=0
      00011B86H   SYMBOL    XDATA    WORD      image_id
      00011B88H   SYMBOL    XDATA    ---       image
      00011B8CH   SYMBOL    XDATA    WORD      width
      00011B8EH   SYMBOL    XDATA    WORD      height
      00011B90H   SYMBOL    XDATA    INT       image_type
      00011B92H   SYMBOL    XDATA    BYTE      threshold
      00FCAD5CH   BLOCK     ECODE    NEAR LAB  LVL=1
      00011B93H   SYMBOL    XDATA    BYTE      return_state
      00011B94H   SYMBOL    XDATA    WORD      send_length
      00011B96H   SYMBOL    XDATA    DWORD     image_size
      00011B9AH   SYMBOL    XDATA    ---       image_data
      00011B9EH   SYMBOL    XDATA    ---       temp
      ---         BLOCKEND  ---      ---       LVL=1
      00FCAD42H   LINE      ECODE    ---       #896
      00FCAD5CH   LINE      ECODE    ---       #897
      00FCAD5CH   LINE      ECODE    ---       #898
      00FCAD61H   LINE      ECODE    ---       #904
      00FCAD75H   LINE      ECODE    ---       #905
      00FCADA9H   LINE      ECODE    ---       #907
      00FCADDBH   LINE      ECODE    ---       #909
      00FCADE3H   LINE      ECODE    ---       #910
      00FCADEBH   LINE      ECODE    ---       #911
      00FCADF3H   LINE      ECODE    ---       #912
      00FCADF5H   LINE      ECODE    ---       #915
      00FCAE01H   LINE      ECODE    ---       #916
      00FCAE0DH   LINE      ECODE    ---       #917
      00FCAE1DH   LINE      ECODE    ---       #918
      00FCAE1DH   LINE      ECODE    ---       #919
      00FCAE27H   LINE      ECODE    ---       #920
      00FCAE33H   LINE      ECODE    ---       #922
      00FCAE33H   LINE      ECODE    ---       #925
      00FCAE59H   LINE      ECODE    ---       #926
      00FCAEB0H   LINE      ECODE    ---       #927
      00FCAEC9H   LINE      ECODE    ---       #928
      00FCAEE4H   LINE      ECODE    ---       #929
      00FCAEECH   LINE      ECODE    ---       #930
      00FCAEFDH   LINE      ECODE    ---       #932
      00FCAF01H   LINE      ECODE    ---       #933
      ---         BLOCKEND  ---      ---       LVL=0

      00FCAF02H   BLOCK     ECODE    ---       LVL=0
      00011F30H   SYMBOL    XDATA    WORD      image_id
      00011F32H   SYMBOL    XDATA    BYTE      line_id
L251 LINKER/LOCATER V4.66.93.0                                                        05/01/2026  15:28:45  PAGE 169


      00011F33H   SYMBOL    XDATA    ---       line_data
      00011F37H   SYMBOL    XDATA    WORD      line_length
      00011F39H   SYMBOL    XDATA    INT       data_type
      00011F3BH   SYMBOL    XDATA    WORD      color
      00FCAF1CH   BLOCK     ECODE    NEAR LAB  LVL=1
      00011F3DH   SYMBOL    XDATA    BYTE      return_state
      00011F3EH   SYMBOL    XDATA    ---       temp
      ---         BLOCKEND  ---      ---       LVL=1
      00FCAF02H   LINE      ECODE    ---       #935
      00FCAF1CH   LINE      ECODE    ---       #936
      00FCAF1CH   LINE      ECODE    ---       #937
      00FCAF22H   LINE      ECODE    ---       #940
      00FCAF31H   LINE      ECODE    ---       #942
      00FCAF55H   LINE      ECODE    ---       #943
      00FCAF7CH   LINE      ECODE    ---       #944
      00FCAF88H   LINE      ECODE    ---       #945
      00FCAFE4H   LINE      ECODE    ---       #946
      00FCAFE4H   LINE      ECODE    ---       #947
      00FCAFE8H   LINE      ECODE    ---       #948
      ---         BLOCKEND  ---      ---       LVL=0

      00FCAFE9H   BLOCK     ECODE    ---       LVL=0
      00011D4AH   SYMBOL    XDATA    WORD      image_id
      00011D4CH   SYMBOL    XDATA    BYTE      rectangle_id
      00011D4DH   SYMBOL    XDATA    INT       x
      00011D4FH   SYMBOL    XDATA    INT       y
      00011D51H   SYMBOL    XDATA    WORD      rectangle_width
      00011D53H   SYMBOL    XDATA    WORD      rectangle_height
      00011D55H   SYMBOL    XDATA    WORD      color
      00FCB005H   BLOCK     ECODE    NEAR LAB  LVL=1
      00011D57H   SYMBOL    XDATA    BYTE      return_state
      00011D58H   SYMBOL    XDATA    ---       temp
      ---         BLOCKEND  ---      ---       LVL=1
      00FCAFE9H   LINE      ECODE    ---       #950
      00FCB005H   LINE      ECODE    ---       #951
      00FCB005H   LINE      ECODE    ---       #952
      00FCB00BH   LINE      ECODE    ---       #954
      00FCB01AH   LINE      ECODE    ---       #956
      00FCB026H   LINE      ECODE    ---       #957
      00FCB032H   LINE      ECODE    ---       #958
      00FCB03EH   LINE      ECODE    ---       #959
      00FCB04AH   LINE      ECODE    ---       #960
      00FCB056H   LINE      ECODE    ---       #961
      00FCB062H   LINE      ECODE    ---       #962
      00FCB0A6H   LINE      ECODE    ---       #963
      00FCB0A6H   LINE      ECODE    ---       #964
      00FCB0AAH   LINE      ECODE    ---       #965
      ---         BLOCKEND  ---      ---       LVL=0

      00FCB0ABH   BLOCK     ECODE    ---       LVL=0
      0001273FH   SYMBOL    XDATA    INT       x
      00012741H   SYMBOL    XDATA    INT       y
      00012743H   SYMBOL    XDATA    WORD      width
      00012745H   SYMBOL    XDATA    WORD      height
      00FCB0C3H   BLOCK     ECODE    NEAR LAB  LVL=1
      00012747H   SYMBOL    XDATA    BYTE      return_state
      00011617H   SYMBOL    XDATA    BYTE      container_num
      ---         BLOCKEND  ---      ---       LVL=1
      00FCB0ABH   LINE      ECODE    ---       #967
      00FCB0C3H   LINE      ECODE    ---       #968
      00FCB0C3H   LINE      ECODE    ---       #969
      00FCB0C9H   LINE      ECODE    ---       #971
      00FCB0D5H   LINE      ECODE    ---       #973
      00FCB110H   LINE      ECODE    ---       #974
      00FCB119H   LINE      ECODE    ---       #976
L251 LINKER/LOCATER V4.66.93.0                                                        05/01/2026  15:28:45  PAGE 170


      00FCB127H   LINE      ECODE    ---       #977
      00FCB127H   LINE      ECODE    ---       #979
      00FCB140H   LINE      ECODE    ---       #980
      ---         BLOCKEND  ---      ---       LVL=0

      00FCB141H   BLOCK     ECODE    ---       LVL=0
      0001211EH   SYMBOL    XDATA    WORD      container_id
      00012120H   SYMBOL    XDATA    WORD      border_width
      00012122H   SYMBOL    XDATA    WORD      radius
      00FCB153H   BLOCK     ECODE    NEAR LAB  LVL=1
      00012124H   SYMBOL    XDATA    BYTE      return_state
      00012125H   SYMBOL    XDATA    ---       temp
      ---         BLOCKEND  ---      ---       LVL=1
      00FCB141H   LINE      ECODE    ---       #982
      00FCB153H   LINE      ECODE    ---       #983
      00FCB153H   LINE      ECODE    ---       #987
      00FCB15FH   LINE      ECODE    ---       #988
      00FCB16BH   LINE      ECODE    ---       #989
      00FCB1AFH   LINE      ECODE    ---       #990
      00FCB1B3H   LINE      ECODE    ---       #991
      ---         BLOCKEND  ---      ---       LVL=0

      00FCB1B4H   BLOCK     ECODE    ---       LVL=0
      00012748H   SYMBOL    XDATA    ---       str
      0001274CH   SYMBOL    XDATA    INT       title_position
      0001274EH   SYMBOL    XDATA    BYTE      title_size
      00FCB1C8H   BLOCK     ECODE    NEAR LAB  LVL=1
      0001274FH   SYMBOL    XDATA    WORD      page_id
      ---         BLOCKEND  ---      ---       LVL=1
      00FCB1B4H   LINE      ECODE    ---       #993
      00FCB1C8H   LINE      ECODE    ---       #994
      00FCB1C8H   LINE      ECODE    ---       #995
      00FCB1D0H   LINE      ECODE    ---       #996
      00FCB20AH   LINE      ECODE    ---       #997
      00FCB21CH   LINE      ECODE    ---       #998
      00FCB22EH   LINE      ECODE    ---       #1000
      00FCB23EH   LINE      ECODE    ---       #1002
      00FCB247H   LINE      ECODE    ---       #1003
      00FCB265H   LINE      ECODE    ---       #1004
      00FCB26FH   LINE      ECODE    ---       #1005
      00FCB28DH   LINE      ECODE    ---       #1021
      00FCB29BH   LINE      ECODE    ---       #1023
      00FCB2A3H   LINE      ECODE    ---       #1024
      00FCB2ABH   LINE      ECODE    ---       #1025
      00FCB2B1H   LINE      ECODE    ---       #1030
      00FCB2BFH   LINE      ECODE    ---       #1032
      00FCB2D3H   LINE      ECODE    ---       #1033
      00FCB2D3H   LINE      ECODE    ---       #1039
      00FCB2D9H   LINE      ECODE    ---       #1040
      ---         BLOCKEND  ---      ---       LVL=0

      ---         MODULE    ---      ---       zf_device_ble6a20
      00FE1658H   PUBLIC    ECODE    ---       ble6a20_read_buffer?
      00FE14D6H   PUBLIC    ECODE    ---       ble6a20_send_buffer?
      00FE15F8H   PUBLIC    ECODE    ---       ble6a20_send_string?
      00FE16DEH   PUBLIC    ECODE    ---       ble6a20_callback?
      00FE1705H   PUBLIC    ECODE    ---       ble6a20_init?
      00FE1458H   PUBLIC    ECODE    ---       ble6a20_send_byte?
      000000D0H   SFRSYM    DATA     BYTE      PSW
      0000009DH   SFRSYM    DATA     BYTE      IRCBAND
      00000097H   SFRSYM    DATA     BYTE      AUXR2
      000000EAH   SFRSYM    DATA     BYTE      CKCON
      000000EFH   SFRSYM    DATA     BYTE      AUXINTIF
      000000FDH   SFRSYM    DATA     BYTE      S4CON
      000000ACH   SFRSYM    DATA     BYTE      S3CON
L251 LINKER/LOCATER V4.66.93.0                                                        05/01/2026  15:28:45  PAGE 171


      0000009AH   SFRSYM    DATA     BYTE      S2CON
      000000B7H   SFRSYM    DATA     BYTE      IPH
      000000CDH   SFRSYM    DATA     BYTE      SPSTAT
      000000DDH   SFRSYM    DATA     BYTE      T4T3M
      000000C1H   SFRSYM    DATA     BYTE      WDT_CONTR
      000000DFH   SFRSYM    DATA     BYTE      IP3
      000000F4H   SFRSYM    DATA     BYTE      USBCON
      000000B5H   SFRSYM    DATA     BYTE      IP2
      000000FFH   SFRSYM    DATA     BYTE      RSTCFG
      000000E0H   SFRSYM    DATA     BYTE      ACC
      000000C7H   SFRSYM    DATA     BYTE      IAP_CONTR
      000000F9H   SFRSYM    DATA     BYTE      LINICR
      0000008EH   SFRSYM    DATA     BYTE      AUXR
      000000F0H   SFRSYM    DATA     BYTE      B
      000000AFH   SFRSYM    DATA     BYTE      IE2
      00000088H   SFRSYM    DATA     BYTE      TCON
      00000089H   SFRSYM    DATA     BYTE      TMOD
      00000098H   SFRSYM    DATA     BYTE      SCON
      00000087H   SFRSYM    DATA     BYTE      PCON
      000000BCH   SFRSYM    DATA     BYTE      ADC_CONTR
      000000D1H   SFRSYM    DATA     BYTE      PSW1
      000000E7H   SFRSYM    DATA     BYTE      CMPCR2
      000000E6H   SFRSYM    DATA     BYTE      CMPCR1
      000000DEH   SFRSYM    DATA     BYTE      ADCCFG
      000000B8H   SFRSYM    DATA     BYTE      IP
      0000008FH   SFRSYM    DATA     BYTE      INTCLKO
      000000EEH   SFRSYM    DATA     BYTE      IP3H
      000000B6H   SFRSYM    DATA     BYTE      IP2H
      000000BFH   SFRSYM    DATA     BYTE      P_SW4
      000000A8H   SFRSYM    DATA     BYTE      IE
      000000BBH   SFRSYM    DATA     BYTE      P_SW3
      000000BAH   SFRSYM    DATA     BYTE      P_SW2
      000000A2H   SFRSYM    DATA     BYTE      P_SW1
      000000CEH   SFRSYM    DATA     BYTE      SPCTL
      000000F8H   SFRSYM    DATA     BYTE      P7
      000000E8H   SFRSYM    DATA     BYTE      P6
      000000C8H   SFRSYM    DATA     BYTE      P5
      000000C0H   SFRSYM    DATA     BYTE      P4
      000000ABH   SFRSYM    DATA     BYTE      WKTCH
      000000B0H   SFRSYM    DATA     BYTE      P3
      000000A0H   SFRSYM    DATA     BYTE      P2
      00000090H   SFRSYM    DATA     BYTE      P1
      00000080H   SFRSYM    DATA     BYTE      P0
      00011478H   SYMBOL    XDATA    ---       ble6a20_buffer
      000114B8H   SYMBOL    XDATA    ---       ble6a20_fifo

      00FE1458H   BLOCK     ECODE    ---       LVL=0
      00012AB7H   SYMBOL    XDATA    BYTE      dat
      00FE145CH   BLOCK     ECODE    NEAR LAB  LVL=1
      00012AB8H   SYMBOL    XDATA    WORD      time_cnt
      ---         BLOCKEND  ---      ---       LVL=1
      00FE1458H   LINE      ECODE    ---       #71
      00FE145CH   LINE      ECODE    ---       #72
      00FE145CH   LINE      ECODE    ---       #73
      00FE1466H   LINE      ECODE    ---       #75
      00FE1468H   LINE      ECODE    ---       #77
      00FE147EH   LINE      ECODE    ---       #78
      00FE148DH   LINE      ECODE    ---       #79
      00FE14A9H   LINE      ECODE    ---       #81
      00FE14B5H   LINE      ECODE    ---       #83
      00FE14C1H   LINE      ECODE    ---       #84
      00FE14C1H   LINE      ECODE    ---       #86
      00FE14D5H   LINE      ECODE    ---       #87
      ---         BLOCKEND  ---      ---       LVL=0

L251 LINKER/LOCATER V4.66.93.0                                                        05/01/2026  15:28:45  PAGE 172


      00FE14D6H   BLOCK     ECODE    ---       LVL=0
      00012519H   SYMBOL    XDATA    ---       buff
      0001251DH   SYMBOL    XDATA    DWORD     len
      00FE14EAH   BLOCK     ECODE    NEAR LAB  LVL=1
      00012521H   SYMBOL    XDATA    WORD      time_cnt
      00012523H   SYMBOL    XDATA    WORD      send_len
      ---         BLOCKEND  ---      ---       LVL=1
      00FE14D6H   LINE      ECODE    ---       #97
      00FE14EAH   LINE      ECODE    ---       #98
      00FE14EAH   LINE      ECODE    ---       #102
      00FE14F2H   LINE      ECODE    ---       #103
      00FE14FAH   LINE      ECODE    ---       #104
      00FE151DH   LINE      ECODE    ---       #106
      00FE1520H   LINE      ECODE    ---       #108
      00FE152DH   LINE      ECODE    ---       #110
      00FE1553H   LINE      ECODE    ---       #111
      00FE156BH   LINE      ECODE    ---       #112
      00FE1584H   LINE      ECODE    ---       #113
      00FE159FH   LINE      ECODE    ---       #114
      00FE15A7H   LINE      ECODE    ---       #115
      00FE15A9H   LINE      ECODE    ---       #118
      00FE15BFH   LINE      ECODE    ---       #119
      00FE15CEH   LINE      ECODE    ---       #120
      00FE15CEH   LINE      ECODE    ---       #121
      00FE15EDH   LINE      ECODE    ---       #123
      00FE15F7H   LINE      ECODE    ---       #124
      ---         BLOCKEND  ---      ---       LVL=0

      00FE15F8H   BLOCK     ECODE    ---       LVL=0
      00012838H   SYMBOL    XDATA    ---       str
      00FE1602H   BLOCK     ECODE    NEAR LAB  LVL=1
      0001283CH   SYMBOL    XDATA    DWORD     len
      ---         BLOCKEND  ---      ---       LVL=1
      00FE15F8H   LINE      ECODE    ---       #133
      00FE1602H   LINE      ECODE    ---       #134
      00FE1602H   LINE      ECODE    ---       #135
      00FE161CH   LINE      ECODE    ---       #136
      00FE163FH   LINE      ECODE    ---       #138
      00FE1657H   LINE      ECODE    ---       #139
      ---         BLOCKEND  ---      ---       LVL=0

      00FE1658H   BLOCK     ECODE    ---       LVL=0
      00012525H   SYMBOL    XDATA    ---       buff
      00012529H   SYMBOL    XDATA    DWORD     len
      00FE166CH   BLOCK     ECODE    NEAR LAB  LVL=1
      0001252DH   SYMBOL    XDATA    DWORD     data_len
      ---         BLOCKEND  ---      ---       LVL=1
      00FE1658H   LINE      ECODE    ---       #150
      00FE166CH   LINE      ECODE    ---       #151
      00FE166CH   LINE      ECODE    ---       #152
      00FE1680H   LINE      ECODE    ---       #153
      00FE16A3H   LINE      ECODE    ---       #154
      00FE16D3H   LINE      ECODE    ---       #155
      00FE16DDH   LINE      ECODE    ---       #156
      ---         BLOCKEND  ---      ---       LVL=0

      00FE16DEH   BLOCK     ECODE    ---       LVL=0
      00012B02H   SYMBOL    XDATA    BYTE      uart_dat
      00FE16DEH   LINE      ECODE    ---       #167
      00FE16E2H   LINE      ECODE    ---       #170
      00FE1704H   LINE      ECODE    ---       #171
      ---         BLOCKEND  ---      ---       LVL=0

      00FE1705H   BLOCK     ECODE    ---       LVL=0
      00012B03H   SYMBOL    XDATA    BYTE      return_state
L251 LINKER/LOCATER V4.66.93.0                                                        05/01/2026  15:28:45  PAGE 173


      00FE1705H   LINE      ECODE    ---       #180
      00FE1705H   LINE      ECODE    ---       #181
      00FE1705H   LINE      ECODE    ---       #182
      00FE170AH   LINE      ECODE    ---       #185
      00FE1728H   LINE      ECODE    ---       #189
      00FE1756H   LINE      ECODE    ---       #190
      00FE1766H   LINE      ECODE    ---       #193
      00FE1784H   LINE      ECODE    ---       #194
      00FE1796H   LINE      ECODE    ---       #196
      00FE179AH   LINE      ECODE    ---       #197
      ---         BLOCKEND  ---      ---       LVL=0

      ---         MODULE    ---      ---       zf_device_wifi_spi
      00FD6F38H   PUBLIC    ECODE    ---       wifi_spi_get_time?
      00FD71B9H   PUBLIC    ECODE    ---       wifi_spi_socket_connect?
      00FD7568H   PUBLIC    ECODE    ---       wifi_spi_read_buffer?
      00FD70F6H   PUBLIC    ECODE    ---       wifi_spi_wifi_connect?
      00FD73A5H   PUBLIC    ECODE    ---       wifi_spi_send_buffer?
      00FD72D0H   PUBLIC    ECODE    ---       wifi_spi_udp_send_now?
      00FD7266H   PUBLIC    ECODE    ---       wifi_spi_socket_disconnect?
      00FD7284H   PUBLIC    ECODE    ---       wifi_spi_reset?
      00FD753FH   PUBLIC    ECODE    ---       wifi_spi_send_string?
      00FD7873H   PUBLIC    ECODE    ---       wifi_spi_init?
      00FD705BH   PUBLIC    ECODE    ---       wifi_spi_wifi_scan?
      00010400H   PUBLIC    XDATA    ---       wifi_spi_ip_addr_port
      00010419H   PUBLIC    XDATA    ---       wifi_spi_version
      0001043CH   PUBLIC    XDATA    ---       wifi_spi_mac_addr
      00011881H   PUBLIC    XDATA    BYTE      ?wifi_spi_socket_connect??BYTE
      000000D0H   SFRSYM    DATA     BYTE      PSW
      0000009DH   SFRSYM    DATA     BYTE      IRCBAND
      00000097H   SFRSYM    DATA     BYTE      AUXR2
      000000EAH   SFRSYM    DATA     BYTE      CKCON
      000000EFH   SFRSYM    DATA     BYTE      AUXINTIF
      000000FDH   SFRSYM    DATA     BYTE      S4CON
      000000ACH   SFRSYM    DATA     BYTE      S3CON
      0000009AH   SFRSYM    DATA     BYTE      S2CON
      000000B7H   SFRSYM    DATA     BYTE      IPH
      000000CDH   SFRSYM    DATA     BYTE      SPSTAT
      000000DDH   SFRSYM    DATA     BYTE      T4T3M
      000000C1H   SFRSYM    DATA     BYTE      WDT_CONTR
      000000DFH   SFRSYM    DATA     BYTE      IP3
      000000F4H   SFRSYM    DATA     BYTE      USBCON
      000000B5H   SFRSYM    DATA     BYTE      IP2
      000000FFH   SFRSYM    DATA     BYTE      RSTCFG
      000000E0H   SFRSYM    DATA     BYTE      ACC
      000000C7H   SFRSYM    DATA     BYTE      IAP_CONTR
      000000F9H   SFRSYM    DATA     BYTE      LINICR
      0000008EH   SFRSYM    DATA     BYTE      AUXR
      000000F0H   SFRSYM    DATA     BYTE      B
      000000AFH   SFRSYM    DATA     BYTE      IE2
      00000088H   SFRSYM    DATA     BYTE      TCON
      00000089H   SFRSYM    DATA     BYTE      TMOD
      00000098H   SFRSYM    DATA     BYTE      SCON
      000000A0H.2 SFRSYM    DATA     BIT       P22
      00000087H   SFRSYM    DATA     BYTE      PCON
      000000BCH   SFRSYM    DATA     BYTE      ADC_CONTR
      000000D1H   SFRSYM    DATA     BYTE      PSW1
      000000E7H   SFRSYM    DATA     BYTE      CMPCR2
      000000E6H   SFRSYM    DATA     BYTE      CMPCR1
      000000DEH   SFRSYM    DATA     BYTE      ADCCFG
      000000B8H   SFRSYM    DATA     BYTE      IP
      0000008FH   SFRSYM    DATA     BYTE      INTCLKO
      000000EEH   SFRSYM    DATA     BYTE      IP3H
      000000B6H   SFRSYM    DATA     BYTE      IP2H
      000000BFH   SFRSYM    DATA     BYTE      P_SW4
L251 LINKER/LOCATER V4.66.93.0                                                        05/01/2026  15:28:45  PAGE 174


      000000A8H   SFRSYM    DATA     BYTE      IE
      000000BBH   SFRSYM    DATA     BYTE      P_SW3
      000000BAH   SFRSYM    DATA     BYTE      P_SW2
      000000A2H   SFRSYM    DATA     BYTE      P_SW1
      000000CEH   SFRSYM    DATA     BYTE      SPCTL
      000000F8H   SFRSYM    DATA     BYTE      P7
      000000E8H   SFRSYM    DATA     BYTE      P6
      000000C8H   SFRSYM    DATA     BYTE      P5
      000000C0H   SFRSYM    DATA     BYTE      P4
      000000ABH   SFRSYM    DATA     BYTE      WKTCH
      000000B0H   SFRSYM    DATA     BYTE      P3
      000000A0H   SFRSYM    DATA     BYTE      P2
      00000090H   SFRSYM    DATA     BYTE      P1
      00000080H   SFRSYM    DATA     BYTE      P0
      00FE66ECH   SYMBOL    HCONST   ---       ?tpl?0001
      00FD69AAH   SYMBOL    ECODE    ---       wifi_spi_dma_write
      00FD6A2BH   SYMBOL    ECODE    ---       wifi_spi_dma_transfer_command
      00FD6E8CH   SYMBOL    ECODE    ---       wifi_spi_get_mac_addr
      00FD6D79H   SYMBOL    ECODE    ---       wifi_spi_get_parameter
      00FD6CA3H   SYMBOL    ECODE    ---       wifi_spi_set_parameter
      00FD6B01H   SYMBOL    ECODE    ---       wifi_spi_dma_transfer_data
      00FD6EE2H   SYMBOL    ECODE    ---       wifi_spi_get_ip_addr_port
      00FD6E20H   SYMBOL    ECODE    ---       wifi_spi_get_version
      00FD68FDH   SYMBOL    ECODE    ---       wifi_spi_wait_idle
      00010000H   SYMBOL    XDATA    ---       wifi_spi_buffer
      00010425H   SYMBOL    XDATA    ---       wifi_spi_fifo
      00010450H   SYMBOL    XDATA    INT       wifi_spi_mutex

      00FD68FDH   BLOCK     ECODE    ---       LVL=0
      00012840H   SYMBOL    XDATA    DWORD     wait_time
      00FD6907H   BLOCK     ECODE    NEAR LAB  LVL=1
      00012844H   SYMBOL    XDATA    DWORD     time
      ---         BLOCKEND  ---      ---       LVL=1
      00FD68FDH   LINE      ECODE    ---       #95
      00FD6907H   LINE      ECODE    ---       #96
      00FD6907H   LINE      ECODE    ---       #97
      00FD6913H   LINE      ECODE    ---       #99
      00FD692CH   LINE      ECODE    ---       #100
      00FD692EH   LINE      ECODE    ---       #102
      00FD6950H   LINE      ECODE    ---       #103
      00FD6967H   LINE      ECODE    ---       #104
      00FD697FH   LINE      ECODE    ---       #106
      00FD697FH   LINE      ECODE    ---       #107
      00FD698CH   LINE      ECODE    ---       #109
      00FD69A9H   LINE      ECODE    ---       #110
      ---         BLOCKEND  ---      ---       LVL=0

      00FD69AAH   BLOCK     ECODE    ---       LVL=0
      00012531H   SYMBOL    XDATA    ---       buffer1
      00012535H   SYMBOL    XDATA    WORD      length1
      00012537H   SYMBOL    XDATA    ---       buffer2
      0001253BH   SYMBOL    XDATA    WORD      length2
      00FD69AAH   LINE      ECODE    ---       #122
      00FD69C0H   LINE      ECODE    ---       #124
      00FD69C3H   LINE      ECODE    ---       #125
      00FD69D1H   LINE      ECODE    ---       #127
      00FD69F5H   LINE      ECODE    ---       #128
      00FD69F5H   LINE      ECODE    ---       #129
      00FD6A03H   LINE      ECODE    ---       #131
      00FD6A27H   LINE      ECODE    ---       #132
      00FD6A27H   LINE      ECODE    ---       #133
      00FD6A2AH   LINE      ECODE    ---       #134
      ---         BLOCKEND  ---      ---       LVL=0

      00FD6A2BH   BLOCK     ECODE    ---       LVL=0
L251 LINKER/LOCATER V4.66.93.0                                                        05/01/2026  15:28:45  PAGE 175


      00012939H   SYMBOL    XDATA    ---       packets
      0001293DH   SYMBOL    XDATA    WORD      length
      00FD6A2BH   LINE      ECODE    ---       #144
      00FD6A3BH   LINE      ECODE    ---       #146
      00FD6A3EH   LINE      ECODE    ---       #148
      00FD6A72H   LINE      ECODE    ---       #150
      00FD6A7EH   LINE      ECODE    ---       #152
      00FD6ABAH   LINE      ECODE    ---       #153
      00FD6ABAH   LINE      ECODE    ---       #155
      00FD6AFDH   LINE      ECODE    ---       #157
      00FD6B00H   LINE      ECODE    ---       #158
      ---         BLOCKEND  ---      ---       LVL=0

      00FD6B01H   BLOCK     ECODE    ---       LVL=0
      00012687H   SYMBOL    XDATA    ---       write_data
      0001268BH   SYMBOL    XDATA    ---       read_data
      0001268FH   SYMBOL    XDATA    WORD      length
      00FD6B01H   LINE      ECODE    ---       #169
      00FD6B15H   LINE      ECODE    ---       #171
      00FD6B18H   LINE      ECODE    ---       #173
      00FD6B27H   LINE      ECODE    ---       #175
      00FD6B58H   LINE      ECODE    ---       #177
      00FD6B8CH   LINE      ECODE    ---       #179
      00FD6B9AH   LINE      ECODE    ---       #181
      00FD6BD0H   LINE      ECODE    ---       #182
      00FD6BFEH   LINE      ECODE    ---       #183
      00FD6C00H   LINE      ECODE    ---       #187
      00FD6C24H   LINE      ECODE    ---       #188
      00FD6C5CH   LINE      ECODE    ---       #189
      00FD6C5CH   LINE      ECODE    ---       #192
      00FD6C9FH   LINE      ECODE    ---       #194
      00FD6CA2H   LINE      ECODE    ---       #195
      ---         BLOCKEND  ---      ---       LVL=0

      00FD6CA3H   BLOCK     ECODE    ---       LVL=0
      00012226H   SYMBOL    XDATA    INT       command
      00012228H   SYMBOL    XDATA    ---       buffer
      0001222CH   SYMBOL    XDATA    WORD      length
      0001222EH   SYMBOL    XDATA    DWORD     wait_time
      00FD6CB9H   BLOCK     ECODE    NEAR LAB  LVL=1
      00012232H   SYMBOL    XDATA    BYTE      return_state
      00012233H   SYMBOL    XDATA    ---       head
      ---         BLOCKEND  ---      ---       LVL=1
      00FD6CA3H   LINE      ECODE    ---       #207
      00FD6CB9H   LINE      ECODE    ---       #208
      00FD6CB9H   LINE      ECODE    ---       #211
      00FD6CBFH   LINE      ECODE    ---       #212
      00FD6CBFH   LINE      ECODE    ---       #214
      00FD6CC9H   LINE      ECODE    ---       #215
      00FD6CD5H   LINE      ECODE    ---       #218
      00FD6CEAH   LINE      ECODE    ---       #220
      00FD6CEAH   LINE      ECODE    ---       #221
      00FD6CEAH   LINE      ECODE    ---       #223
      00FD6D13H   LINE      ECODE    ---       #224
      00FD6D25H   LINE      ECODE    ---       #226
      00FD6D25H   LINE      ECODE    ---       #227
      00FD6D25H   LINE      ECODE    ---       #230
      00FD6D2BH   LINE      ECODE    ---       #231
      00FD6D33H   LINE      ECODE    ---       #232
      00FD6D44H   LINE      ECODE    ---       #233
      00FD6D66H   LINE      ECODE    ---       #234
      00FD6D6FH   LINE      ECODE    ---       #236
      00FD6D74H   LINE      ECODE    ---       #237
      00FD6D74H   LINE      ECODE    ---       #240
      00FD6D78H   LINE      ECODE    ---       #241
L251 LINKER/LOCATER V4.66.93.0                                                        05/01/2026  15:28:45  PAGE 176


      ---         BLOCKEND  ---      ---       LVL=0

      00FD6D79H   BLOCK     ECODE    ---       LVL=0
      000125C6H   SYMBOL    XDATA    INT       command
      000125C8H   SYMBOL    XDATA    ---       read_data
      000125CCH   SYMBOL    XDATA    DWORD     wait_time
      00FD6D89H   BLOCK     ECODE    NEAR LAB  LVL=1
      000125D0H   SYMBOL    XDATA    BYTE      return_state
      ---         BLOCKEND  ---      ---       LVL=1
      00FD6D79H   LINE      ECODE    ---       #252
      00FD6D89H   LINE      ECODE    ---       #253
      00FD6D89H   LINE      ECODE    ---       #256
      00FD6D8FH   LINE      ECODE    ---       #257
      00FD6D8FH   LINE      ECODE    ---       #260
      00FD6DA1H   LINE      ECODE    ---       #262
      00FD6DA1H   LINE      ECODE    ---       #263
      00FD6DA1H   LINE      ECODE    ---       #264
      00FD6DB4H   LINE      ECODE    ---       #265
      00FD6DD3H   LINE      ECODE    ---       #267
      00FD6DE5H   LINE      ECODE    ---       #269
      00FD6DE5H   LINE      ECODE    ---       #270
      00FD6DE5H   LINE      ECODE    ---       #271
      00FD6DF4H   LINE      ECODE    ---       #272
      00FD6E05H   LINE      ECODE    ---       #273
      00FD6E16H   LINE      ECODE    ---       #274
      00FD6E1BH   LINE      ECODE    ---       #275
      00FD6E1BH   LINE      ECODE    ---       #276
      00FD6E1FH   LINE      ECODE    ---       #277
      ---         BLOCKEND  ---      ---       LVL=0

      00FD6E20H   BLOCK     ECODE    ---       LVL=0
      00011C6EH   SYMBOL    XDATA    BYTE      return_state
      00011C6FH   SYMBOL    XDATA    ---       temp_packets
      00FD6E20H   LINE      ECODE    ---       #286
      00FD6E20H   LINE      ECODE    ---       #287
      00FD6E20H   LINE      ECODE    ---       #289
      00FD6E36H   LINE      ECODE    ---       #291
      00FD6E57H   LINE      ECODE    ---       #292
      00FD6E69H   LINE      ECODE    ---       #294
      00FD6E87H   LINE      ECODE    ---       #295
      00FD6E87H   LINE      ECODE    ---       #296
      00FD6E8BH   LINE      ECODE    ---       #297
      ---         BLOCKEND  ---      ---       LVL=0

      00FD6E8CH   BLOCK     ECODE    ---       LVL=0
      00011C93H   SYMBOL    XDATA    BYTE      return_state
      00011C94H   SYMBOL    XDATA    ---       temp_packets
      00FD6E8CH   LINE      ECODE    ---       #306
      00FD6E8CH   LINE      ECODE    ---       #307
      00FD6E8CH   LINE      ECODE    ---       #311
      00FD6EADH   LINE      ECODE    ---       #312
      00FD6EBFH   LINE      ECODE    ---       #314
      00FD6EDDH   LINE      ECODE    ---       #315
      00FD6EDDH   LINE      ECODE    ---       #316
      00FD6EE1H   LINE      ECODE    ---       #317
      ---         BLOCKEND  ---      ---       LVL=0

      00FD6EE2H   BLOCK     ECODE    ---       LVL=0
      00011CB8H   SYMBOL    XDATA    BYTE      return_state
      00011CB9H   SYMBOL    XDATA    ---       temp_packets
      00FD6EE2H   LINE      ECODE    ---       #327
      00FD6EE2H   LINE      ECODE    ---       #328
      00FD6EE2H   LINE      ECODE    ---       #332
      00FD6F03H   LINE      ECODE    ---       #333
      00FD6F15H   LINE      ECODE    ---       #335
L251 LINKER/LOCATER V4.66.93.0                                                        05/01/2026  15:28:45  PAGE 177


      00FD6F33H   LINE      ECODE    ---       #336
      00FD6F33H   LINE      ECODE    ---       #337
      00FD6F37H   LINE      ECODE    ---       #338
      ---         BLOCKEND  ---      ---       LVL=0

      00FD6F38H   BLOCK     ECODE    ---       LVL=0
      00011A2AH   SYMBOL    XDATA    INT       time_format
      00011A2CH   SYMBOL    XDATA    ---       buffer
      00011A30H   SYMBOL    XDATA    BYTE      buffer_size
      00FD6F4CH   BLOCK     ECODE    NEAR LAB  LVL=1
      00011A31H   SYMBOL    XDATA    BYTE      return_state
      00011A32H   SYMBOL    XDATA    ---       temp_packets
      00011A56H   SYMBOL    XDATA    BYTE      send_cmd
      00011A57H   SYMBOL    XDATA    BYTE      receive_cmd
      ---         BLOCKEND  ---      ---       LVL=1
      00FD6F38H   LINE      ECODE    ---       #351
      00FD6F4CH   LINE      ECODE    ---       #352
      00FD6F4CH   LINE      ECODE    ---       #353
      00FD6F52H   LINE      ECODE    ---       #359
      00FD6F85H   LINE      ECODE    ---       #361
      00FD6F9BH   LINE      ECODE    ---       #362
      00FD6FB1H   LINE      ECODE    ---       #364
      00FD6FD4H   LINE      ECODE    ---       #365
      00FD6FEBH   LINE      ECODE    ---       #367
      00FD700BH   LINE      ECODE    ---       #368
      00FD7014H   LINE      ECODE    ---       #370
      00FD703AH   LINE      ECODE    ---       #371
      00FD7056H   LINE      ECODE    ---       #372
      00FD7056H   LINE      ECODE    ---       #374
      00FD7056H   LINE      ECODE    ---       #375
      00FD705AH   LINE      ECODE    ---       #376
      ---         BLOCKEND  ---      ---       LVL=0

      00FD705BH   BLOCK     ECODE    ---       LVL=0
      0001288BH   SYMBOL    XDATA    ---       buffer
      0001288FH   SYMBOL    XDATA    WORD      buffer_size
      00FD706BH   BLOCK     ECODE    NEAR LAB  LVL=1
      00012891H   SYMBOL    XDATA    BYTE      return_state
      ---         BLOCKEND  ---      ---       LVL=1
      00FD705BH   LINE      ECODE    ---       #388
      00FD706BH   LINE      ECODE    ---       #389
      00FD706BH   LINE      ECODE    ---       #390
      00FD7070H   LINE      ECODE    ---       #394
      00FD7091H   LINE      ECODE    ---       #396
      00FD70AEH   LINE      ECODE    ---       #398
      00FD70B7H   LINE      ECODE    ---       #403
      00FD70B9H   LINE      ECODE    ---       #405
      00FD70D7H   LINE      ECODE    ---       #406
      00FD70F1H   LINE      ECODE    ---       #407
      00FD70F1H   LINE      ECODE    ---       #410
      00FD70F5H   LINE      ECODE    ---       #411
      ---         BLOCKEND  ---      ---       LVL=0

      00FD70F6H   BLOCK     ECODE    ---       LVL=0
      00011664H   SYMBOL    XDATA    ---       wifi_ssid
      00011668H   SYMBOL    XDATA    ---       pass_word
      00FD710AH   BLOCK     ECODE    NEAR LAB  LVL=1
      0001166CH   SYMBOL    XDATA    BYTE      return_state
      0001166DH   SYMBOL    XDATA    ---       temp_buffer
      000116ADH   SYMBOL    XDATA    WORD      length
      ---         BLOCKEND  ---      ---       LVL=1
      00FD70F6H   LINE      ECODE    ---       #421
      00FD710AH   LINE      ECODE    ---       #422
      00FD710AH   LINE      ECODE    ---       #427
      00FD7118H   LINE      ECODE    ---       #430
L251 LINKER/LOCATER V4.66.93.0                                                        05/01/2026  15:28:45  PAGE 178


      00FD715AH   LINE      ECODE    ---       #431
      00FD715CH   LINE      ECODE    ---       #435
      00FD718AH   LINE      ECODE    ---       #436
      00FD718AH   LINE      ECODE    ---       #438
      00FD71B1H   LINE      ECODE    ---       #441
      00FD71B4H   LINE      ECODE    ---       #443
      00FD71B8H   LINE      ECODE    ---       #444
      ---         BLOCKEND  ---      ---       LVL=0

      00FD71B9H   BLOCK     ECODE    ---       LVL=0
      00011881H   SYMBOL    XDATA    ---       transport_type
      00011885H   SYMBOL    XDATA    ---       ip_addr
      00011889H   SYMBOL    XDATA    ---       port
      0001188DH   SYMBOL    XDATA    ---       local_port
      00FD71CDH   BLOCK     ECODE    NEAR LAB  LVL=1
      00011891H   SYMBOL    XDATA    BYTE      return_state
      00011892H   SYMBOL    XDATA    ---       temp_buffer
      000118BBH   SYMBOL    XDATA    WORD      length
      ---         BLOCKEND  ---      ---       LVL=1
      00FD71B9H   LINE      ECODE    ---       #456
      00FD71CDH   LINE      ECODE    ---       #457
      00FD71CDH   LINE      ECODE    ---       #462
      00FD7237H   LINE      ECODE    ---       #464
      00FD725EH   LINE      ECODE    ---       #467
      00FD7261H   LINE      ECODE    ---       #469
      00FD7265H   LINE      ECODE    ---       #470
      ---         BLOCKEND  ---      ---       LVL=0

      00FD7266H   BLOCK     ECODE    ---       LVL=0
      00011D02H   SYMBOL    XDATA    ---       temp_packets
      00FD7266H   LINE      ECODE    ---       #479
      00FD7266H   LINE      ECODE    ---       #480
      00FD7266H   LINE      ECODE    ---       #483
      00FD7283H   LINE      ECODE    ---       #484
      ---         BLOCKEND  ---      ---       LVL=0

      00FD7284H   BLOCK     ECODE    ---       LVL=0
      000129B2H   SYMBOL    XDATA    BYTE      return_state
      000129B3H   SYMBOL    XDATA    ---       head
      00FD7284H   LINE      ECODE    ---       #493
      00FD7284H   LINE      ECODE    ---       #494
      00FD7284H   LINE      ECODE    ---       #497
      00FD728AH   LINE      ECODE    ---       #498
      00FD728AH   LINE      ECODE    ---       #500
      00FD7290H   LINE      ECODE    ---       #501
      00FD729AH   LINE      ECODE    ---       #502
      00FD72A5H   LINE      ECODE    ---       #503
      00FD72AEH   LINE      ECODE    ---       #505
      00FD72AEH   LINE      ECODE    ---       #506
      00FD72AEH   LINE      ECODE    ---       #507
      00FD72CBH   LINE      ECODE    ---       #508
      00FD72CBH   LINE      ECODE    ---       #510
      00FD72CFH   LINE      ECODE    ---       #511
      ---         BLOCKEND  ---      ---       LVL=0

      00FD72D0H   BLOCK     ECODE    ---       LVL=0
      00011CDDH   SYMBOL    XDATA    BYTE      return_state
      00011CDEH   SYMBOL    XDATA    ---       temp_packets
      00FD72D0H   LINE      ECODE    ---       #520
      00FD72D0H   LINE      ECODE    ---       #521
      00FD72D0H   LINE      ECODE    ---       #522
      00FD72D6H   LINE      ECODE    ---       #525
      00FD72E5H   LINE      ECODE    ---       #528
      00FD72EFH   LINE      ECODE    ---       #529
      00FD72EFH   LINE      ECODE    ---       #531
L251 LINKER/LOCATER V4.66.93.0                                                        05/01/2026  15:28:45  PAGE 179


      00FD72FEH   LINE      ECODE    ---       #533
      00FD72FEH   LINE      ECODE    ---       #534
      00FD72FEH   LINE      ECODE    ---       #537
      00FD7304H   LINE      ECODE    ---       #538
      00FD730CH   LINE      ECODE    ---       #539
      00FD731BH   LINE      ECODE    ---       #542
      00FD732DH   LINE      ECODE    ---       #545
      00FD7339H   LINE      ECODE    ---       #547
      00FD735FH   LINE      ECODE    ---       #548
      00FD735FH   LINE      ECODE    ---       #552
      00FD736BH   LINE      ECODE    ---       #554
      00FD736BH   LINE      ECODE    ---       #555
      00FD736BH   LINE      ECODE    ---       #558
      00FD7371H   LINE      ECODE    ---       #559
      00FD7379H   LINE      ECODE    ---       #560
      00FD738AH   LINE      ECODE    ---       #562
      00FD7393H   LINE      ECODE    ---       #564
      00FD7398H   LINE      ECODE    ---       #565
      00FD7398H   LINE      ECODE    ---       #570
      00FD73A0H   LINE      ECODE    ---       #571
      00FD73A0H   LINE      ECODE    ---       #573
      00FD73A4H   LINE      ECODE    ---       #574
      ---         BLOCKEND  ---      ---       LVL=0

      00FD73A5H   BLOCK     ECODE    ---       LVL=0
      00011A58H   SYMBOL    XDATA    ---       buffer
      00011A5CH   SYMBOL    XDATA    DWORD     length
      00FD73B9H   BLOCK     ECODE    NEAR LAB  LVL=1
      00011A60H   SYMBOL    XDATA    WORD      send_length
      00011A62H   SYMBOL    XDATA    ---       temp_packets
      ---         BLOCKEND  ---      ---       LVL=1
      00FD73A5H   LINE      ECODE    ---       #584
      00FD73B9H   LINE      ECODE    ---       #585
      00FD73B9H   LINE      ECODE    ---       #590
      00FD73C8H   LINE      ECODE    ---       #593
      00FD73D2H   LINE      ECODE    ---       #595
      00FD73D5H   LINE      ECODE    ---       #597
      00FD73FBH   LINE      ECODE    ---       #599
      00FD740AH   LINE      ECODE    ---       #601
      00FD740AH   LINE      ECODE    ---       #602
      00FD740AH   LINE      ECODE    ---       #604
      00FD742BH   LINE      ECODE    ---       #607
      00FD743DH   LINE      ECODE    ---       #610
      00FD7449H   LINE      ECODE    ---       #612
      00FD746FH   LINE      ECODE    ---       #613
      00FD746FH   LINE      ECODE    ---       #616
      00FD748AH   LINE      ECODE    ---       #617
      00FD74A3H   LINE      ECODE    ---       #618
      00FD74B4H   LINE      ECODE    ---       #621
      00FD74B6H   LINE      ECODE    ---       #623
      00FD74C2H   LINE      ECODE    ---       #625
      00FD74C2H   LINE      ECODE    ---       #626
      00FD74C2H   LINE      ECODE    ---       #629
      00FD74C8H   LINE      ECODE    ---       #630
      00FD74D0H   LINE      ECODE    ---       #631
      00FD74DFH   LINE      ECODE    ---       #633
      00FD74F1H   LINE      ECODE    ---       #636
      00FD74FDH   LINE      ECODE    ---       #638
      00FD7523H   LINE      ECODE    ---       #639
      00FD7523H   LINE      ECODE    ---       #641
      00FD752CH   LINE      ECODE    ---       #642
      00FD7534H   LINE      ECODE    ---       #643
      00FD7534H   LINE      ECODE    ---       #644
      00FD753EH   LINE      ECODE    ---       #645
      ---         BLOCKEND  ---      ---       LVL=0
L251 LINKER/LOCATER V4.66.93.0                                                        05/01/2026  15:28:45  PAGE 180



      00FD753FH   BLOCK     ECODE    ---       LVL=0
      00012A53H   SYMBOL    XDATA    ---       string
      00FD753FH   LINE      ECODE    ---       #654
      00FD7549H   LINE      ECODE    ---       #656
      00FD7567H   LINE      ECODE    ---       #657
      ---         BLOCKEND  ---      ---       LVL=0

      00FD7568H   BLOCK     ECODE    ---       LVL=0
      000119C7H   SYMBOL    XDATA    ---       buffer
      000119CBH   SYMBOL    XDATA    DWORD     length
      00FD757CH   BLOCK     ECODE    NEAR LAB  LVL=1
      000119CFH   SYMBOL    XDATA    DWORD     fifo_read_length
      000119D3H   SYMBOL    XDATA    DWORD     write_length
      000119D7H   SYMBOL    XDATA    ---       temp_packets
      ---         BLOCKEND  ---      ---       LVL=1
      00FD7568H   LINE      ECODE    ---       #667
      00FD757CH   LINE      ECODE    ---       #668
      00FD757CH   LINE      ECODE    ---       #670
      00FD7588H   LINE      ECODE    ---       #673
      00FD75ABH   LINE      ECODE    ---       #676
      00FD75BEH   LINE      ECODE    ---       #678
      00FD75D4H   LINE      ECODE    ---       #679
      00FD760CH   LINE      ECODE    ---       #680
      00FD763CH   LINE      ECODE    ---       #682
      00FD765BH   LINE      ECODE    ---       #683
      00FD7678H   LINE      ECODE    ---       #684
      00FD7695H   LINE      ECODE    ---       #685
      00FD7695H   LINE      ECODE    ---       #688
      00FD76A4H   LINE      ECODE    ---       #690
      00FD76AEH   LINE      ECODE    ---       #692
      00FD76AEH   LINE      ECODE    ---       #694
      00FD76D3H   LINE      ECODE    ---       #698
      00FD76D3H   LINE      ECODE    ---       #699
      00FD76D3H   LINE      ECODE    ---       #701
      00FD76D9H   LINE      ECODE    ---       #702
      00FD76E1H   LINE      ECODE    ---       #703
      00FD76F0H   LINE      ECODE    ---       #705
      00FD7714H   LINE      ECODE    ---       #709
      00FD7725H   LINE      ECODE    ---       #711
      00FD7759H   LINE      ECODE    ---       #712
      00FD777DH   LINE      ECODE    ---       #713
      00FD779CH   LINE      ECODE    ---       #714
      00FD77B9H   LINE      ECODE    ---       #715
      00FD77D6H   LINE      ECODE    ---       #716
      00FD77ECH   LINE      ECODE    ---       #718
      00FD782CH   LINE      ECODE    ---       #719
      00FD782EH   LINE      ECODE    ---       #723
      00FD7854H   LINE      ECODE    ---       #724
      00FD7854H   LINE      ECODE    ---       #725
      00FD7860H   LINE      ECODE    ---       #727
      00FD7868H   LINE      ECODE    ---       #728
      00FD7868H   LINE      ECODE    ---       #731
      00FD7872H   LINE      ECODE    ---       #732
      ---         BLOCKEND  ---      ---       LVL=0

      00FD7873H   BLOCK     ECODE    ---       LVL=0
      00012751H   SYMBOL    XDATA    ---       wifi_ssid
      00012755H   SYMBOL    XDATA    ---       pass_word
      00FD7887H   BLOCK     ECODE    NEAR LAB  LVL=1
      00012759H   SYMBOL    XDATA    BYTE      return_state
      ---         BLOCKEND  ---      ---       LVL=1
      00FD7873H   LINE      ECODE    ---       #742
      00FD7887H   LINE      ECODE    ---       #743
      00FD7887H   LINE      ECODE    ---       #744
L251 LINKER/LOCATER V4.66.93.0                                                        05/01/2026  15:28:45  PAGE 181


      00FD788CH   LINE      ECODE    ---       #747
      00FD78BAH   LINE      ECODE    ---       #748
      00FD78F6H   LINE      ECODE    ---       #750
      00FD7908H   LINE      ECODE    ---       #751
      00FD791AH   LINE      ECODE    ---       #752
      00FD7929H   LINE      ECODE    ---       #755
      00FD7932H   LINE      ECODE    ---       #756
      00FD7950H   LINE      ECODE    ---       #757
      00FD795AH   LINE      ECODE    ---       #760
      00FD7978H   LINE      ECODE    ---       #761
      00FD7980H   LINE      ECODE    ---       #763
      00FD7980H   LINE      ECODE    ---       #766
      00FD7987H   LINE      ECODE    ---       #767
      00FD7990H   LINE      ECODE    ---       #769
      00FD7990H   LINE      ECODE    ---       #770
      00FD7990H   LINE      ECODE    ---       #773
      00FD7993H   LINE      ECODE    ---       #775
      00FD79A1H   LINE      ECODE    ---       #778
      00FD79A1H   LINE      ECODE    ---       #779
      00FD79A1H   LINE      ECODE    ---       #780
      00FD79BDH   LINE      ECODE    ---       #781
      00FD79BDH   LINE      ECODE    ---       #783
      00FD79BDH   LINE      ECODE    ---       #784
      00FD79BDH   LINE      ECODE    ---       #803
      00FD79C1H   LINE      ECODE    ---       #804
      ---         BLOCKEND  ---      ---       LVL=0

      ---         MODULE    ---      ---       zf_device_wireless_uart
      00FE1819H   PUBLIC    ECODE    ---       wireless_uart_send_buffer?
      00FE193BH   PUBLIC    ECODE    ---       wireless_uart_send_string?
      00FE1A21H   PUBLIC    ECODE    ---       wireless_uart_callback?
      00FE1A48H   PUBLIC    ECODE    ---       wireless_uart_init?
      00FE179BH   PUBLIC    ECODE    ---       wireless_uart_send_byte?
      00FE199BH   PUBLIC    ECODE    ---       wireless_uart_read_buffer?
      000000D0H   SFRSYM    DATA     BYTE      PSW
      0000009DH   SFRSYM    DATA     BYTE      IRCBAND
      00000097H   SFRSYM    DATA     BYTE      AUXR2
      000000EAH   SFRSYM    DATA     BYTE      CKCON
      000000EFH   SFRSYM    DATA     BYTE      AUXINTIF
      000000FDH   SFRSYM    DATA     BYTE      S4CON
      000000ACH   SFRSYM    DATA     BYTE      S3CON
      0000009AH   SFRSYM    DATA     BYTE      S2CON
      000000B7H   SFRSYM    DATA     BYTE      IPH
      000000CDH   SFRSYM    DATA     BYTE      SPSTAT
      000000DDH   SFRSYM    DATA     BYTE      T4T3M
      000000C1H   SFRSYM    DATA     BYTE      WDT_CONTR
      000000DFH   SFRSYM    DATA     BYTE      IP3
      000000F4H   SFRSYM    DATA     BYTE      USBCON
      000000B5H   SFRSYM    DATA     BYTE      IP2
      000000FFH   SFRSYM    DATA     BYTE      RSTCFG
      000000E0H   SFRSYM    DATA     BYTE      ACC
      000000C7H   SFRSYM    DATA     BYTE      IAP_CONTR
      000000F9H   SFRSYM    DATA     BYTE      LINICR
      0000008EH   SFRSYM    DATA     BYTE      AUXR
      000000F0H   SFRSYM    DATA     BYTE      B
      000000AFH   SFRSYM    DATA     BYTE      IE2
      00000088H   SFRSYM    DATA     BYTE      TCON
      00000089H   SFRSYM    DATA     BYTE      TMOD
      00000098H   SFRSYM    DATA     BYTE      SCON
      00000087H   SFRSYM    DATA     BYTE      PCON
      000000BCH   SFRSYM    DATA     BYTE      ADC_CONTR
      000000D1H   SFRSYM    DATA     BYTE      PSW1
      000000E7H   SFRSYM    DATA     BYTE      CMPCR2
      000000E6H   SFRSYM    DATA     BYTE      CMPCR1
      000000DEH   SFRSYM    DATA     BYTE      ADCCFG
L251 LINKER/LOCATER V4.66.93.0                                                        05/01/2026  15:28:45  PAGE 182


      000000B8H   SFRSYM    DATA     BYTE      IP
      0000008FH   SFRSYM    DATA     BYTE      INTCLKO
      000000EEH   SFRSYM    DATA     BYTE      IP3H
      000000B6H   SFRSYM    DATA     BYTE      IP2H
      000000BFH   SFRSYM    DATA     BYTE      P_SW4
      000000A8H   SFRSYM    DATA     BYTE      IE
      000000BBH   SFRSYM    DATA     BYTE      P_SW3
      000000BAH   SFRSYM    DATA     BYTE      P_SW2
      000000A2H   SFRSYM    DATA     BYTE      P_SW1
      000000CEH   SFRSYM    DATA     BYTE      SPCTL
      000000F8H   SFRSYM    DATA     BYTE      P7
      000000E8H   SFRSYM    DATA     BYTE      P6
      000000C8H   SFRSYM    DATA     BYTE      P5
      000000C0H   SFRSYM    DATA     BYTE      P4
      000000ABH   SFRSYM    DATA     BYTE      WKTCH
      000000B0H   SFRSYM    DATA     BYTE      P3
      000000A0H   SFRSYM    DATA     BYTE      P2
      00000090H   SFRSYM    DATA     BYTE      P1
      00000080H   SFRSYM    DATA     BYTE      P0
      000114CFH   SYMBOL    XDATA    ---       wireless_uart_fifo
      000114E6H   SYMBOL    XDATA    ---       wireless_uart_buffer

      00FE179BH   BLOCK     ECODE    ---       LVL=0
      00012ABAH   SYMBOL    XDATA    BYTE      dat
      00FE179FH   BLOCK     ECODE    NEAR LAB  LVL=1
      00012ABBH   SYMBOL    XDATA    WORD      time_cnt
      ---         BLOCKEND  ---      ---       LVL=1
      00FE179BH   LINE      ECODE    ---       #77
      00FE179FH   LINE      ECODE    ---       #78
      00FE179FH   LINE      ECODE    ---       #79
      00FE17A9H   LINE      ECODE    ---       #81
      00FE17ABH   LINE      ECODE    ---       #83
      00FE17C1H   LINE      ECODE    ---       #84
      00FE17D0H   LINE      ECODE    ---       #85
      00FE17ECH   LINE      ECODE    ---       #87
      00FE17F8H   LINE      ECODE    ---       #89
      00FE1804H   LINE      ECODE    ---       #90
      00FE1804H   LINE      ECODE    ---       #92
      00FE1818H   LINE      ECODE    ---       #93
      ---         BLOCKEND  ---      ---       LVL=0

      00FE1819H   BLOCK     ECODE    ---       LVL=0
      0001253DH   SYMBOL    XDATA    ---       buff
      00012541H   SYMBOL    XDATA    DWORD     len
      00FE182DH   BLOCK     ECODE    NEAR LAB  LVL=1
      00012545H   SYMBOL    XDATA    WORD      time_cnt
      00012547H   SYMBOL    XDATA    WORD      send_len
      ---         BLOCKEND  ---      ---       LVL=1
      00FE1819H   LINE      ECODE    ---       #103
      00FE182DH   LINE      ECODE    ---       #104
      00FE182DH   LINE      ECODE    ---       #108
      00FE1835H   LINE      ECODE    ---       #109
      00FE183DH   LINE      ECODE    ---       #110
      00FE1860H   LINE      ECODE    ---       #112
      00FE1863H   LINE      ECODE    ---       #114
      00FE1870H   LINE      ECODE    ---       #116
      00FE1896H   LINE      ECODE    ---       #117
      00FE18AEH   LINE      ECODE    ---       #118
      00FE18C7H   LINE      ECODE    ---       #119
      00FE18E2H   LINE      ECODE    ---       #120
      00FE18EAH   LINE      ECODE    ---       #121
      00FE18ECH   LINE      ECODE    ---       #124
      00FE1902H   LINE      ECODE    ---       #125
      00FE1911H   LINE      ECODE    ---       #126
      00FE1911H   LINE      ECODE    ---       #127
L251 LINKER/LOCATER V4.66.93.0                                                        05/01/2026  15:28:45  PAGE 183


      00FE1930H   LINE      ECODE    ---       #129
      00FE193AH   LINE      ECODE    ---       #130
      ---         BLOCKEND  ---      ---       LVL=0

      00FE193BH   BLOCK     ECODE    ---       LVL=0
      00012848H   SYMBOL    XDATA    ---       str
      00FE1945H   BLOCK     ECODE    NEAR LAB  LVL=1
      0001284CH   SYMBOL    XDATA    DWORD     len
      ---         BLOCKEND  ---      ---       LVL=1
      00FE193BH   LINE      ECODE    ---       #139
      00FE1945H   LINE      ECODE    ---       #140
      00FE1945H   LINE      ECODE    ---       #141
      00FE195FH   LINE      ECODE    ---       #142
      00FE1982H   LINE      ECODE    ---       #144
      00FE199AH   LINE      ECODE    ---       #145
      ---         BLOCKEND  ---      ---       LVL=0

      00FE199BH   BLOCK     ECODE    ---       LVL=0
      00012549H   SYMBOL    XDATA    ---       buff
      0001254DH   SYMBOL    XDATA    DWORD     len
      00FE19AFH   BLOCK     ECODE    NEAR LAB  LVL=1
      00012551H   SYMBOL    XDATA    DWORD     data_len
      ---         BLOCKEND  ---      ---       LVL=1
      00FE199BH   LINE      ECODE    ---       #156
      00FE19AFH   LINE      ECODE    ---       #157
      00FE19AFH   LINE      ECODE    ---       #158
      00FE19C3H   LINE      ECODE    ---       #159
      00FE19E6H   LINE      ECODE    ---       #160
      00FE1A16H   LINE      ECODE    ---       #161
      00FE1A20H   LINE      ECODE    ---       #162
      ---         BLOCKEND  ---      ---       LVL=0

      00FE1A21H   BLOCK     ECODE    ---       LVL=0
      00012B04H   SYMBOL    XDATA    BYTE      uart_dat
      00FE1A21H   LINE      ECODE    ---       #173
      00FE1A25H   LINE      ECODE    ---       #176
      00FE1A47H   LINE      ECODE    ---       #187
      ---         BLOCKEND  ---      ---       LVL=0

      00FE1A48H   BLOCK     ECODE    ---       LVL=0
      00012B05H   SYMBOL    XDATA    BYTE      return_state
      00FE1A48H   LINE      ECODE    ---       #196
      00FE1A48H   LINE      ECODE    ---       #197
      00FE1A48H   LINE      ECODE    ---       #198
      00FE1A4DH   LINE      ECODE    ---       #201
      00FE1A7BH   LINE      ECODE    ---       #202
      00FE1A8BH   LINE      ECODE    ---       #205
      00FE1AA9H   LINE      ECODE    ---       #206
      00FE1ABBH   LINE      ECODE    ---       #259
      00FE1ABFH   LINE      ECODE    ---       #260
      ---         BLOCKEND  ---      ---       LVL=0

      ---         MODULE    ---      ---       zf_device_dl1a
      00FD501CH   PUBLIC    ECODE    ---       dl1a_get_distance?
      00FD50F4H   PUBLIC    ECODE    ---       dl1a_int_handler?
      00FD50F5H   PUBLIC    ECODE    ---       dl1a_init?
      00012423H   PUBLIC    XDATA    WORD      dl1a_distance_mm
      00012425H   PUBLIC    XDATA    BYTE      dl1a_finsh_flag
      000000D0H   SFRSYM    DATA     BYTE      PSW
      0000009DH   SFRSYM    DATA     BYTE      IRCBAND
      00000097H   SFRSYM    DATA     BYTE      AUXR2
      000000EAH   SFRSYM    DATA     BYTE      CKCON
      000000EFH   SFRSYM    DATA     BYTE      AUXINTIF
      000000FDH   SFRSYM    DATA     BYTE      S4CON
      000000ACH   SFRSYM    DATA     BYTE      S3CON
L251 LINKER/LOCATER V4.66.93.0                                                        05/01/2026  15:28:45  PAGE 184


      0000009AH   SFRSYM    DATA     BYTE      S2CON
      000000B7H   SFRSYM    DATA     BYTE      IPH
      000000CDH   SFRSYM    DATA     BYTE      SPSTAT
      000000DDH   SFRSYM    DATA     BYTE      T4T3M
      000000C1H   SFRSYM    DATA     BYTE      WDT_CONTR
      000000DFH   SFRSYM    DATA     BYTE      IP3
      000000F4H   SFRSYM    DATA     BYTE      USBCON
      000000B5H   SFRSYM    DATA     BYTE      IP2
      000000FFH   SFRSYM    DATA     BYTE      RSTCFG
      000000E0H   SFRSYM    DATA     BYTE      ACC
      000000C7H   SFRSYM    DATA     BYTE      IAP_CONTR
      000000F9H   SFRSYM    DATA     BYTE      LINICR
      0000008EH   SFRSYM    DATA     BYTE      AUXR
      000000F0H   SFRSYM    DATA     BYTE      B
      000000AFH   SFRSYM    DATA     BYTE      IE2
      00000088H   SFRSYM    DATA     BYTE      TCON
      00000089H   SFRSYM    DATA     BYTE      TMOD
      00000098H   SFRSYM    DATA     BYTE      SCON
      00000087H   SFRSYM    DATA     BYTE      PCON
      000000BCH   SFRSYM    DATA     BYTE      ADC_CONTR
      000000D1H   SFRSYM    DATA     BYTE      PSW1
      000000E7H   SFRSYM    DATA     BYTE      CMPCR2
      000000E6H   SFRSYM    DATA     BYTE      CMPCR1
      000000DEH   SFRSYM    DATA     BYTE      ADCCFG
      000000B8H   SFRSYM    DATA     BYTE      IP
      0000008FH   SFRSYM    DATA     BYTE      INTCLKO
      000000EEH   SFRSYM    DATA     BYTE      IP3H
      000000B6H   SFRSYM    DATA     BYTE      IP2H
      000000BFH   SFRSYM    DATA     BYTE      P_SW4
      000000A8H   SFRSYM    DATA     BYTE      IE
      000000BBH   SFRSYM    DATA     BYTE      P_SW3
      000000BAH   SFRSYM    DATA     BYTE      P_SW2
      000000A2H   SFRSYM    DATA     BYTE      P_SW1
      000000CEH   SFRSYM    DATA     BYTE      SPCTL
      000000F8H   SFRSYM    DATA     BYTE      P7
      000000E8H   SFRSYM    DATA     BYTE      P6
      000000C8H   SFRSYM    DATA     BYTE      P5
      000000C0H   SFRSYM    DATA     BYTE      P4
      000000ABH   SFRSYM    DATA     BYTE      WKTCH
      000000B0H   SFRSYM    DATA     BYTE      P3
      000000A0H   SFRSYM    DATA     BYTE      P2
      00000090H   SFRSYM    DATA     BYTE      P1
      00000080H   SFRSYM    DATA     BYTE      P0
      00FD469EH   SYMBOL    ECODE    ---       dl1a_timeout_microseconds_to_mclks
      00FD4630H   SYMBOL    ECODE    ---       dl1a_timeout_mclks_to_microseconds
      00FD4F64H   SYMBOL    ECODE    ---       dl1a_set_signal_rate_limit
      00FD4712H   SYMBOL    ECODE    ---       dl1a_decode_timeout
      00FD43B2H   SYMBOL    ECODE    ---       dl1a_get_spad_info
      00FD4742H   SYMBOL    ECODE    ---       dl1a_encode_timeout
      00FD47C7H   SYMBOL    ECODE    ---       dl1a_get_sequence_step_enables
      00FD4B50H   SYMBOL    ECODE    ---       dl1a_perform_single_ref_calibration
      00FD4933H   SYMBOL    ECODE    ---       dl1a_get_sequence_step_timeouts
      00FD4E4BH   SYMBOL    ECODE    ---       dl1a_get_measurement_timing_budget
      00FD4C3AH   SYMBOL    ECODE    ---       dl1a_set_measurement_timing_budget
      00FD4893H   SYMBOL    ECODE    ---       dl1a_get_vcsel_pulse_period
      0001241AH   SYMBOL    XDATA    ---       dl1a_iic_struct
      00012426H   SYMBOL    XDATA    BYTE      dl1a_init_flag

      00FD43B2H   BLOCK     ECODE    ---       LVL=0
      00012555H   SYMBOL    XDATA    ---       index
      00012559H   SYMBOL    XDATA    ---       type_is_aperture
      00FD43C6H   BLOCK     ECODE    NEAR LAB  LVL=1
      0001255DH   SYMBOL    XDATA    BYTE      tmp
      0001255EH   SYMBOL    XDATA    BYTE      return_state
      0001255FH   SYMBOL    XDATA    WORD      loop_count
L251 LINKER/LOCATER V4.66.93.0                                                        05/01/2026  15:28:45  PAGE 185


      ---         BLOCKEND  ---      ---       LVL=1
      00FD43B2H   LINE      ECODE    ---       #96
      00FD43C6H   LINE      ECODE    ---       #97
      00FD43C6H   LINE      ECODE    ---       #98
      00FD43CBH   LINE      ECODE    ---       #99
      00FD43D0H   LINE      ECODE    ---       #100
      00FD43D8H   LINE      ECODE    ---       #102
      00FD43D8H   LINE      ECODE    ---       #104
      00FD43E9H   LINE      ECODE    ---       #105
      00FD43FAH   LINE      ECODE    ---       #106
      00FD4409H   LINE      ECODE    ---       #108
      00FD441AH   LINE      ECODE    ---       #109
      00FD443EH   LINE      ECODE    ---       #110
      00FD4457H   LINE      ECODE    ---       #111
      00FD4468H   LINE      ECODE    ---       #112
      00FD4479H   LINE      ECODE    ---       #114
      00FD448AH   LINE      ECODE    ---       #116
      00FD449BH   LINE      ECODE    ---       #117
      00FD44ABH   LINE      ECODE    ---       #119
      00FD44B0H   LINE      ECODE    ---       #121
      00FD44B2H   LINE      ECODE    ---       #123
      00FD44C8H   LINE      ECODE    ---       #124
      00FD44ECH   LINE      ECODE    ---       #126
      00FD4503H   LINE      ECODE    ---       #128
      00FD4509H   LINE      ECODE    ---       #129
      00FD450BH   LINE      ECODE    ---       #130
      00FD451DH   LINE      ECODE    ---       #134
      00FD4529H   LINE      ECODE    ---       #136
      00FD4529H   LINE      ECODE    ---       #137
      00FD4529H   LINE      ECODE    ---       #139
      00FD453AH   LINE      ECODE    ---       #140
      00FD455EH   LINE      ECODE    ---       #142
      00FD4575H   LINE      ECODE    ---       #143
      00FD4591H   LINE      ECODE    ---       #145
      00FD45A1H   LINE      ECODE    ---       #146
      00FD45B2H   LINE      ECODE    ---       #147
      00FD45D6H   LINE      ECODE    ---       #148
      00FD45EAH   LINE      ECODE    ---       #149
      00FD45FBH   LINE      ECODE    ---       #150
      00FD460BH   LINE      ECODE    ---       #152
      00FD461BH   LINE      ECODE    ---       #153
      00FD462BH   LINE      ECODE    ---       #154
      00FD462BH   LINE      ECODE    ---       #157
      00FD462FH   LINE      ECODE    ---       #158
      ---         BLOCKEND  ---      ---       LVL=0

      00FD4630H   BLOCK     ECODE    ---       LVL=0
      00012892H   SYMBOL    XDATA    WORD      timeout_period_mclks
      00012894H   SYMBOL    XDATA    BYTE      vcsel_period_pclks
      00FD463AH   BLOCK     ECODE    NEAR LAB  LVL=1
      00012895H   SYMBOL    XDATA    DWORD     macro_period_ns
      ---         BLOCKEND  ---      ---       LVL=1
      00FD4630H   LINE      ECODE    ---       #168
      00FD463AH   LINE      ECODE    ---       #169
      00FD463AH   LINE      ECODE    ---       #170
      00FD466AH   LINE      ECODE    ---       #172
      00FD469DH   LINE      ECODE    ---       #173
      ---         BLOCKEND  ---      ---       LVL=0

      00FD469EH   BLOCK     ECODE    ---       LVL=0
      0001275AH   SYMBOL    XDATA    DWORD     timeout_period_us
      0001275EH   SYMBOL    XDATA    BYTE      vcsel_period_pclks
      00FD46ACH   BLOCK     ECODE    NEAR LAB  LVL=1
      0001275FH   SYMBOL    XDATA    DWORD     macro_period_ns
      ---         BLOCKEND  ---      ---       LVL=1
L251 LINKER/LOCATER V4.66.93.0                                                        05/01/2026  15:28:45  PAGE 186


      00FD469EH   LINE      ECODE    ---       #183
      00FD46ACH   LINE      ECODE    ---       #184
      00FD46ACH   LINE      ECODE    ---       #185
      00FD46DCH   LINE      ECODE    ---       #187
      00FD4711H   LINE      ECODE    ---       #188
      ---         BLOCKEND  ---      ---       LVL=0

      00FD4712H   BLOCK     ECODE    ---       LVL=0
      00012ADEH   SYMBOL    XDATA    WORD      reg_val
      00FD4712H   LINE      ECODE    ---       #197
      00FD4718H   LINE      ECODE    ---       #200
      00FD4741H   LINE      ECODE    ---       #202
      ---         BLOCKEND  ---      ---       LVL=0

      00FD4742H   BLOCK     ECODE    ---       LVL=0
      00012AE0H   SYMBOL    XDATA    WORD      timeout_mclks
      00FD4748H   BLOCK     ECODE    NEAR LAB  LVL=1
      00000008H   SYMBOL    EDATA    DWORD     ls_byte
      0000000CH   SYMBOL    EDATA    WORD      ms_byte
      0000000EH   SYMBOL    EDATA    WORD      return_data
      ---         BLOCKEND  ---      ---       LVL=1
      00FD4742H   LINE      ECODE    ---       #211
      00FD4748H   LINE      ECODE    ---       #212
      00FD4748H   LINE      ECODE    ---       #213
      00FD474EH   LINE      ECODE    ---       #214
      00FD4754H   LINE      ECODE    ---       #215
      00FD475AH   LINE      ECODE    ---       #217
      00FD4766H   LINE      ECODE    ---       #220
      00FD4778H   LINE      ECODE    ---       #222
      00FD477AH   LINE      ECODE    ---       #224
      00FD478BH   LINE      ECODE    ---       #225
      00FD4799H   LINE      ECODE    ---       #226
      00FD47AAH   LINE      ECODE    ---       #228
      00FD47C2H   LINE      ECODE    ---       #229
      00FD47C2H   LINE      ECODE    ---       #231
      00FD47C6H   LINE      ECODE    ---       #232
      ---         BLOCKEND  ---      ---       LVL=0

      00FD47C7H   BLOCK     ECODE    ---       LVL=0
      000129B7H   SYMBOL    XDATA    ---       enables
      00FD47D1H   BLOCK     ECODE    NEAR LAB  LVL=1
      000129BBH   SYMBOL    XDATA    BYTE      sequence_config
      ---         BLOCKEND  ---      ---       LVL=1
      00FD47C7H   LINE      ECODE    ---       #241
      00FD47D1H   LINE      ECODE    ---       #242
      00FD47D1H   LINE      ECODE    ---       #243
      00FD47D6H   LINE      ECODE    ---       #244
      00FD47FAH   LINE      ECODE    ---       #246
      00FD4816H   LINE      ECODE    ---       #247
      00FD4835H   LINE      ECODE    ---       #248
      00FD4853H   LINE      ECODE    ---       #249
      00FD4874H   LINE      ECODE    ---       #250
      00FD4892H   LINE      ECODE    ---       #251
      ---         BLOCKEND  ---      ---       LVL=0

      00FD4893H   BLOCK     ECODE    ---       LVL=0
      00012ABDH   SYMBOL    XDATA    INT       type
      00FD4899H   BLOCK     ECODE    NEAR LAB  LVL=1
      00012ABFH   SYMBOL    XDATA    BYTE      data_buffer
      ---         BLOCKEND  ---      ---       LVL=1
      00FD4893H   LINE      ECODE    ---       #260
      00FD4899H   LINE      ECODE    ---       #261
      00FD4899H   LINE      ECODE    ---       #262
      00FD489EH   LINE      ECODE    ---       #264
      00FD48AAH   LINE      ECODE    ---       #266
L251 LINKER/LOCATER V4.66.93.0                                                        05/01/2026  15:28:45  PAGE 187


      00FD48CEH   LINE      ECODE    ---       #267
      00FD48E0H   LINE      ECODE    ---       #268
      00FD48E2H   LINE      ECODE    ---       #269
      00FD48F0H   LINE      ECODE    ---       #271
      00FD4914H   LINE      ECODE    ---       #272
      00FD4926H   LINE      ECODE    ---       #273
      00FD4928H   LINE      ECODE    ---       #276
      00FD492EH   LINE      ECODE    ---       #277
      00FD492EH   LINE      ECODE    ---       #279
      00FD4932H   LINE      ECODE    ---       #280
      ---         BLOCKEND  ---      ---       LVL=0

      00FD4933H   BLOCK     ECODE    ---       LVL=0
      00012561H   SYMBOL    XDATA    ---       enables
      00012565H   SYMBOL    XDATA    ---       timeouts
      00FD4947H   BLOCK     ECODE    NEAR LAB  LVL=1
      00012569H   SYMBOL    XDATA    ---       reg_buffer
      0001256BH   SYMBOL    XDATA    WORD      reg16_buffer
      ---         BLOCKEND  ---      ---       LVL=1
      00FD4933H   LINE      ECODE    ---       #290
      00FD4947H   LINE      ECODE    ---       #291
      00FD4947H   LINE      ECODE    ---       #293
      00FD494FH   LINE      ECODE    ---       #295
      00FD4963H   LINE      ECODE    ---       #297
      00FD4987H   LINE      ECODE    ---       #298
      00FD49A2H   LINE      ECODE    ---       #299
      00FD49D8H   LINE      ECODE    ---       #301
      00FD49FCH   LINE      ECODE    ---       #302
      00FD4A14H   LINE      ECODE    ---       #303
      00FD4A30H   LINE      ECODE    ---       #304
      00FD4A68H   LINE      ECODE    ---       #306
      00FD4A80H   LINE      ECODE    ---       #308
      00FD4AA4H   LINE      ECODE    ---       #309
      00FD4ABCH   LINE      ECODE    ---       #310
      00FD4AD8H   LINE      ECODE    ---       #312
      00FD4AEEH   LINE      ECODE    ---       #314
      00FD4B15H   LINE      ECODE    ---       #315
      00FD4B15H   LINE      ECODE    ---       #317
      00FD4B4FH   LINE      ECODE    ---       #318
      ---         BLOCKEND  ---      ---       LVL=0

      00FD4B50H   BLOCK     ECODE    ---       LVL=0
      000129BCH   SYMBOL    XDATA    BYTE      vhv_init_byte
      00FD4B54H   BLOCK     ECODE    NEAR LAB  LVL=1
      000129BDH   SYMBOL    XDATA    BYTE      return_state
      000129BEH   SYMBOL    XDATA    BYTE      data_buffer
      000129BFH   SYMBOL    XDATA    WORD      loop_count
      ---         BLOCKEND  ---      ---       LVL=1
      00FD4B50H   LINE      ECODE    ---       #327
      00FD4B54H   LINE      ECODE    ---       #328
      00FD4B54H   LINE      ECODE    ---       #329
      00FD4B59H   LINE      ECODE    ---       #330
      00FD4B5EH   LINE      ECODE    ---       #331
      00FD4B66H   LINE      ECODE    ---       #333
      00FD4B66H   LINE      ECODE    ---       #335
      00FD4B7EH   LINE      ECODE    ---       #336
      00FD4BA2H   LINE      ECODE    ---       #338
      00FD4BA4H   LINE      ECODE    ---       #340
      00FD4BBAH   LINE      ECODE    ---       #341
      00FD4BDEH   LINE      ECODE    ---       #343
      00FD4BF5H   LINE      ECODE    ---       #345
      00FD4BFBH   LINE      ECODE    ---       #346
      00FD4BFDH   LINE      ECODE    ---       #347
      00FD4C0CH   LINE      ECODE    ---       #350
      00FD4C15H   LINE      ECODE    ---       #352
L251 LINKER/LOCATER V4.66.93.0                                                        05/01/2026  15:28:45  PAGE 188


      00FD4C15H   LINE      ECODE    ---       #353
      00FD4C15H   LINE      ECODE    ---       #355
      00FD4C26H   LINE      ECODE    ---       #356
      00FD4C35H   LINE      ECODE    ---       #357
      00FD4C35H   LINE      ECODE    ---       #360
      00FD4C39H   LINE      ECODE    ---       #361
      ---         BLOCKEND  ---      ---       LVL=0

      00FD4C3AH   BLOCK     ECODE    ---       LVL=0
      000119FBH   SYMBOL    XDATA    DWORD     budget_us
      00FD4C44H   BLOCK     ECODE    NEAR LAB  LVL=1
      000119FFH   SYMBOL    XDATA    BYTE      return_state
      00011A00H   SYMBOL    XDATA    ---       data_buffer
      00011A03H   SYMBOL    XDATA    WORD      dat
      00011A05H   SYMBOL    XDATA    DWORD     final_range_timeout_us
      00011A09H   SYMBOL    XDATA    WORD      final_range_timeout_mclks
      00011A0BH   SYMBOL    XDATA    ---       enables
      00011A10H   SYMBOL    XDATA    ---       timeouts
      00FD4C65H   BLOCK     ECODE    NEAR LAB  LVL=2
      00011A26H   SYMBOL    XDATA    DWORD     used_budget_us
      ---         BLOCKEND  ---      ---       LVL=2
      ---         BLOCKEND  ---      ---       LVL=1
      00FD4C3AH   LINE      ECODE    ---       #374
      00FD4C44H   LINE      ECODE    ---       #375
      00FD4C44H   LINE      ECODE    ---       #376
      00FD4C49H   LINE      ECODE    ---       #378
      00FD4C51H   LINE      ECODE    ---       #380
      00FD4C5DH   LINE      ECODE    ---       #381
      00FD4C65H   LINE      ECODE    ---       #386
      00FD4C65H   LINE      ECODE    ---       #387
      00FD4C65H   LINE      ECODE    ---       #388
      00FD4C73H   LINE      ECODE    ---       #390
      00FD4C83H   LINE      ECODE    ---       #392
      00FD4C89H   LINE      ECODE    ---       #393
      00FD4C8CH   LINE      ECODE    ---       #394
      00FD4C8CH   LINE      ECODE    ---       #396
      00FD4C97H   LINE      ECODE    ---       #397
      00FD4CAAH   LINE      ECODE    ---       #399
      00FD4CB3H   LINE      ECODE    ---       #401
      00FD4CD6H   LINE      ECODE    ---       #402
      00FD4CD6H   LINE      ECODE    ---       #404
      00FD4CDFH   LINE      ECODE    ---       #406
      00FD4D06H   LINE      ECODE    ---       #407
      00FD4D08H   LINE      ECODE    ---       #408
      00FD4D11H   LINE      ECODE    ---       #410
      00FD4D34H   LINE      ECODE    ---       #411
      00FD4D34H   LINE      ECODE    ---       #413
      00FD4D3DH   LINE      ECODE    ---       #415
      00FD4D60H   LINE      ECODE    ---       #416
      00FD4D60H   LINE      ECODE    ---       #418
      00FD4D6CH   LINE      ECODE    ---       #423
      00FD4D83H   LINE      ECODE    ---       #425
      00FD4D9BH   LINE      ECODE    ---       #428
      00FD4DA1H   LINE      ECODE    ---       #429
      00FD4DA4H   LINE      ECODE    ---       #430
      00FD4DA4H   LINE      ECODE    ---       #435
      00FD4DC4H   LINE      ECODE    ---       #436
      00FD4DDDH   LINE      ECODE    ---       #440
      00FD4DE6H   LINE      ECODE    ---       #442
      00FD4DF7H   LINE      ECODE    ---       #443
      00FD4DF7H   LINE      ECODE    ---       #445
      00FD4E06H   LINE      ECODE    ---       #446
      00FD4E0CH   LINE      ECODE    ---       #447
      00FD4E1AH   LINE      ECODE    ---       #448
      00FD4E24H   LINE      ECODE    ---       #449
L251 LINKER/LOCATER V4.66.93.0                                                        05/01/2026  15:28:45  PAGE 189


      00FD4E46H   LINE      ECODE    ---       #450
      00FD4E46H   LINE      ECODE    ---       #454
      00FD4E4AH   LINE      ECODE    ---       #455
      ---         BLOCKEND  ---      ---       LVL=0

      00FD4E4BH   BLOCK     ECODE    ---       LVL=0
      00011E0CH   SYMBOL    XDATA    ---       enables
      00011E11H   SYMBOL    XDATA    ---       timeouts
      00011E27H   SYMBOL    XDATA    DWORD     budget_us
      00FD4E4BH   LINE      ECODE    ---       #464
      00FD4E4BH   LINE      ECODE    ---       #465
      00FD4E4BH   LINE      ECODE    ---       #470
      00FD4E59H   LINE      ECODE    ---       #472
      00FD4E64H   LINE      ECODE    ---       #473
      00FD4E77H   LINE      ECODE    ---       #475
      00FD4E80H   LINE      ECODE    ---       #477
      00FD4EA3H   LINE      ECODE    ---       #478
      00FD4EA3H   LINE      ECODE    ---       #480
      00FD4EACH   LINE      ECODE    ---       #482
      00FD4ED3H   LINE      ECODE    ---       #483
      00FD4ED5H   LINE      ECODE    ---       #484
      00FD4EDEH   LINE      ECODE    ---       #486
      00FD4F01H   LINE      ECODE    ---       #487
      00FD4F01H   LINE      ECODE    ---       #489
      00FD4F0AH   LINE      ECODE    ---       #491
      00FD4F2DH   LINE      ECODE    ---       #492
      00FD4F2DH   LINE      ECODE    ---       #494
      00FD4F36H   LINE      ECODE    ---       #496
      00FD4F59H   LINE      ECODE    ---       #497
      00FD4F59H   LINE      ECODE    ---       #499
      00FD4F63H   LINE      ECODE    ---       #500
      ---         BLOCKEND  ---      ---       LVL=0

      00FD4F64H   BLOCK     ECODE    ---       LVL=0
      00012763H   SYMBOL    XDATA    FLOAT     limit_mcps
      00FD4F6EH   BLOCK     ECODE    NEAR LAB  LVL=1
      00012767H   SYMBOL    XDATA    ---       data_buffer
      0001276AH   SYMBOL    XDATA    WORD      limit_mcps_16bit
      ---         BLOCKEND  ---      ---       LVL=1
      00FD4F64H   LINE      ECODE    ---       #513
      00FD4F6EH   LINE      ECODE    ---       #514
      00FD4F6EH   LINE      ECODE    ---       #516
      00FD4F8CH   LINE      ECODE    ---       #518
      00FD4FDBH   LINE      ECODE    ---       #520
      00FD4FE1H   LINE      ECODE    ---       #521
      00FD4FEFH   LINE      ECODE    ---       #522
      00FD4FF9H   LINE      ECODE    ---       #524
      00FD501BH   LINE      ECODE    ---       #525
      ---         BLOCKEND  ---      ---       LVL=0

      00FD501CH   BLOCK     ECODE    ---       LVL=0
      00FD5028H   BLOCK     ECODE    NEAR LAB  LVL=1
      00012AC0H   SYMBOL    XDATA    ---       reg_databuffer
      ---         BLOCKEND  ---      ---       LVL=1
      00FD501CH   LINE      ECODE    ---       #534
      00FD501CH   LINE      ECODE    ---       #536
      00FD5028H   LINE      ECODE    ---       #537
      00FD5028H   LINE      ECODE    ---       #540
      00FD504CH   LINE      ECODE    ---       #542
      00FD505BH   LINE      ECODE    ---       #545
      00FD507FH   LINE      ECODE    ---       #546
      00FD508FH   LINE      ECODE    ---       #547
      00FD50A0H   LINE      ECODE    ---       #549
      00FD50B1H   LINE      ECODE    ---       #550
      00FD50B7H   LINE      ECODE    ---       #551
L251 LINKER/LOCATER V4.66.93.0                                                        05/01/2026  15:28:45  PAGE 190


      00FD50B7H   LINE      ECODE    ---       #553
      00FD50BEH   LINE      ECODE    ---       #555
      00FD50E2H   LINE      ECODE    ---       #556
      00FD50F3H   LINE      ECODE    ---       #557
      00FD50F3H   LINE      ECODE    ---       #559
      ---         BLOCKEND  ---      ---       LVL=0

      00FD50F4H   BLOCK     ECODE    ---       LVL=0
      00FD50F4H   LINE      ECODE    ---       #568
      00FD50F4H   LINE      ECODE    ---       #573
      ---         BLOCKEND  ---      ---       LVL=0

      00FD50F5H   BLOCK     ECODE    ---       LVL=0
      00011FDFH   SYMBOL    XDATA    DWORD     measurement_timing_budget_us
      00011FE3H   SYMBOL    XDATA    BYTE      stop_variable
      00011FE4H   SYMBOL    XDATA    BYTE      return_state
      00011FE5H   SYMBOL    XDATA    BYTE      reg_data_buffer
      00011FE6H   SYMBOL    XDATA    ---       ref_spad_map
      00011FECH   SYMBOL    XDATA    ---       data_buffer
      00011FF3H   SYMBOL    XDATA    WORD      i
      00FF00CFH   SYMBOL    CODE     ---       temp_buff1
      00FF00D7H   SYMBOL    CODE     ---       temp_buff2
      00FF00DDH   SYMBOL    CODE     ---       temp_buff3
      00FF00E7H   SYMBOL    CODE     ---       temp_buff4
      00FD50F5H   LINE      ECODE    ---       #580
      00FD50F5H   LINE      ECODE    ---       #581
      00FD50F5H   LINE      ECODE    ---       #583
      00FD50FAH   LINE      ECODE    ---       #584
      00FD50FFH   LINE      ECODE    ---       #585
      00FD5104H   LINE      ECODE    ---       #588
      00FD510CH   LINE      ECODE    ---       #698
      00FD511DH   LINE      ECODE    ---       #699
      00FD512EH   LINE      ECODE    ---       #702
      00FD5154H   LINE      ECODE    ---       #708
      00FD5166H   LINE      ECODE    ---       #711
      00FD5166H   LINE      ECODE    ---       #715
      00FD5184H   LINE      ECODE    ---       #716
      00FD518DH   LINE      ECODE    ---       #717
      00FD51ABH   LINE      ECODE    ---       #718
      00FD51B5H   LINE      ECODE    ---       #719
      00FD51D3H   LINE      ECODE    ---       #723
      00FD51E5H   LINE      ECODE    ---       #724
      00FD51FEH   LINE      ECODE    ---       #726
      00FD5208H   LINE      ECODE    ---       #728
      00FD523EH   LINE      ECODE    ---       #729
      00FD525BH   LINE      ECODE    ---       #736
      00FD527FH   LINE      ECODE    ---       #738
      00FD5289H   LINE      ECODE    ---       #740
      00FD52BFH   LINE      ECODE    ---       #741
      00FD52DCH   LINE      ECODE    ---       #748
      00FD52EEH   LINE      ECODE    ---       #749
      00FD5307H   LINE      ECODE    ---       #751
      00FD5310H   LINE      ECODE    ---       #752
      00FD5321H   LINE      ECODE    ---       #756
      00FD5339H   LINE      ECODE    ---       #758
      00FD533FH   LINE      ECODE    ---       #759
      00FD534BH   LINE      ECODE    ---       #760
      00FD534EH   LINE      ECODE    ---       #761
      00FD534EH   LINE      ECODE    ---       #764
      00FD5372H   LINE      ECODE    ---       #766
      00FD537CH   LINE      ECODE    ---       #768
      00FD53B2H   LINE      ECODE    ---       #769
      00FD53CFH   LINE      ECODE    ---       #777
      00FD53E1H   LINE      ECODE    ---       #779
      00FD53ECH   LINE      ECODE    ---       #781
L251 LINKER/LOCATER V4.66.93.0                                                        05/01/2026  15:28:45  PAGE 191


      00FD540AH   LINE      ECODE    ---       #786
      00FD544AH   LINE      ECODE    ---       #787
      00FD544CH   LINE      ECODE    ---       #788
      00FD5481H   LINE      ECODE    ---       #790
      00FD548CH   LINE      ECODE    ---       #791
      00FD54ACH   LINE      ECODE    ---       #794
      00FD54B2H   LINE      ECODE    ---       #796
      00FD54BEH   LINE      ECODE    ---       #798
      00FD54DBH   LINE      ECODE    ---       #799
      00FD54F8H   LINE      ECODE    ---       #801
      00FD551AH   LINE      ECODE    ---       #803
      00FD5524H   LINE      ECODE    ---       #805
      00FD555AH   LINE      ECODE    ---       #806
      00FD5577H   LINE      ECODE    ---       #891
      00FD5588H   LINE      ECODE    ---       #892
      00FD559AH   LINE      ECODE    ---       #893
      00FD55B3H   LINE      ECODE    ---       #894
      00FD55C4H   LINE      ECODE    ---       #896
      00FD55D1H   LINE      ECODE    ---       #901
      00FD55E2H   LINE      ECODE    ---       #902
      00FD55EFH   LINE      ECODE    ---       #905
      00FD5600H   LINE      ECODE    ---       #907
      00FD560AH   LINE      ECODE    ---       #909
      00FD5610H   LINE      ECODE    ---       #910
      00FD561CH   LINE      ECODE    ---       #911
      00FD561FH   LINE      ECODE    ---       #912
      00FD561FH   LINE      ECODE    ---       #914
      00FD5630H   LINE      ECODE    ---       #916
      00FD5639H   LINE      ECODE    ---       #918
      00FD563FH   LINE      ECODE    ---       #919
      00FD564BH   LINE      ECODE    ---       #920
      00FD564EH   LINE      ECODE    ---       #921
      00FD564EH   LINE      ECODE    ---       #923
      00FD565FH   LINE      ECODE    ---       #925
      00FD567DH   LINE      ECODE    ---       #927
      00FD568EH   LINE      ECODE    ---       #928
      00FD569FH   LINE      ECODE    ---       #929
      00FD56AEH   LINE      ECODE    ---       #930
      00FD56C2H   LINE      ECODE    ---       #931
      00FD56D2H   LINE      ECODE    ---       #932
      00FD56E2H   LINE      ECODE    ---       #933
      00FD56F2H   LINE      ECODE    ---       #935
      00FD5702H   LINE      ECODE    ---       #936
      00FD5708H   LINE      ECODE    ---       #943
      00FD5718H   LINE      ECODE    ---       #944
      00FD5718H   LINE      ECODE    ---       #947
      00FD571CH   LINE      ECODE    ---       #948
      ---         BLOCKEND  ---      ---       LVL=0

      ---         MODULE    ---      ---       zf_device_dl1b
      00FE08B4H   PUBLIC    ECODE    ---       dl1b_get_distance?
      00FE0A9CH   PUBLIC    ECODE    ---       dl1b_int_handler?
      00FE0A9DH   PUBLIC    ECODE    ---       dl1b_init?
      00012430H   PUBLIC    XDATA    WORD      dl1b_distance_mm
      00012432H   PUBLIC    XDATA    BYTE      dl1b_finsh_flag
      000000D0H   SFRSYM    DATA     BYTE      PSW
      0000009DH   SFRSYM    DATA     BYTE      IRCBAND
      00000097H   SFRSYM    DATA     BYTE      AUXR2
      000000EAH   SFRSYM    DATA     BYTE      CKCON
      000000EFH   SFRSYM    DATA     BYTE      AUXINTIF
      000000FDH   SFRSYM    DATA     BYTE      S4CON
      000000ACH   SFRSYM    DATA     BYTE      S3CON
      0000009AH   SFRSYM    DATA     BYTE      S2CON
      000000B7H   SFRSYM    DATA     BYTE      IPH
      000000CDH   SFRSYM    DATA     BYTE      SPSTAT
L251 LINKER/LOCATER V4.66.93.0                                                        05/01/2026  15:28:45  PAGE 192


      000000DDH   SFRSYM    DATA     BYTE      T4T3M
      000000C1H   SFRSYM    DATA     BYTE      WDT_CONTR
      000000DFH   SFRSYM    DATA     BYTE      IP3
      000000F4H   SFRSYM    DATA     BYTE      USBCON
      000000B5H   SFRSYM    DATA     BYTE      IP2
      000000FFH   SFRSYM    DATA     BYTE      RSTCFG
      000000E0H   SFRSYM    DATA     BYTE      ACC
      000000C7H   SFRSYM    DATA     BYTE      IAP_CONTR
      000000F9H   SFRSYM    DATA     BYTE      LINICR
      0000008EH   SFRSYM    DATA     BYTE      AUXR
      000000F0H   SFRSYM    DATA     BYTE      B
      000000AFH   SFRSYM    DATA     BYTE      IE2
      00000088H   SFRSYM    DATA     BYTE      TCON
      00000089H   SFRSYM    DATA     BYTE      TMOD
      00000098H   SFRSYM    DATA     BYTE      SCON
      00000087H   SFRSYM    DATA     BYTE      PCON
      000000BCH   SFRSYM    DATA     BYTE      ADC_CONTR
      000000D1H   SFRSYM    DATA     BYTE      PSW1
      000000E7H   SFRSYM    DATA     BYTE      CMPCR2
      000000E6H   SFRSYM    DATA     BYTE      CMPCR1
      000000DEH   SFRSYM    DATA     BYTE      ADCCFG
      000000B8H   SFRSYM    DATA     BYTE      IP
      0000008FH   SFRSYM    DATA     BYTE      INTCLKO
      000000EEH   SFRSYM    DATA     BYTE      IP3H
      000000B6H   SFRSYM    DATA     BYTE      IP2H
      000000BFH   SFRSYM    DATA     BYTE      P_SW4
      000000A8H   SFRSYM    DATA     BYTE      IE
      000000BBH   SFRSYM    DATA     BYTE      P_SW3
      000000BAH   SFRSYM    DATA     BYTE      P_SW2
      000000A2H   SFRSYM    DATA     BYTE      P_SW1
      000000CEH   SFRSYM    DATA     BYTE      SPCTL
      000000F8H   SFRSYM    DATA     BYTE      P7
      000000E8H   SFRSYM    DATA     BYTE      P6
      000000C8H   SFRSYM    DATA     BYTE      P5
      000000C0H   SFRSYM    DATA     BYTE      P4
      000000ABH   SFRSYM    DATA     BYTE      WKTCH
      000000B0H   SFRSYM    DATA     BYTE      P3
      000000A0H   SFRSYM    DATA     BYTE      P2
      00000090H   SFRSYM    DATA     BYTE      P1
      00000080H   SFRSYM    DATA     BYTE      P0
      00012427H   SYMBOL    XDATA    ---       dl1b_iic_struct
      00012433H   SYMBOL    XDATA    BYTE      dl1b_init_flag

      00FE08B4H   BLOCK     ECODE    ---       LVL=0
      00FE08C0H   BLOCK     ECODE    NEAR LAB  LVL=1
      000129C1H   SYMBOL    XDATA    ---       data_buffer
      000129C4H   SYMBOL    XDATA    INT       dl1b_distance_temp
      ---         BLOCKEND  ---      ---       LVL=1
      00FE08B4H   LINE      ECODE    ---       #78
      00FE08B4H   LINE      ECODE    ---       #80
      00FE08C0H   LINE      ECODE    ---       #81
      00FE08C0H   LINE      ECODE    ---       #83
      00FE08C8H   LINE      ECODE    ---       #85
      00FE08CDH   LINE      ECODE    ---       #86
      00FE08D3H   LINE      ECODE    ---       #87
      00FE0915H   LINE      ECODE    ---       #89
      00FE0921H   LINE      ECODE    ---       #92
      00FE0926H   LINE      ECODE    ---       #93
      00FE092CH   LINE      ECODE    ---       #94
      00FE0932H   LINE      ECODE    ---       #95
      00FE0972H   LINE      ECODE    ---       #97
      00FE0977H   LINE      ECODE    ---       #98
      00FE097DH   LINE      ECODE    ---       #99
      00FE09BFH   LINE      ECODE    ---       #101
      00FE09CBH   LINE      ECODE    ---       #103
L251 LINKER/LOCATER V4.66.93.0                                                        05/01/2026  15:28:45  PAGE 193


      00FE09D0H   LINE      ECODE    ---       #104
      00FE09D6H   LINE      ECODE    ---       #105
      00FE0A18H   LINE      ECODE    ---       #106
      00FE0A24H   LINE      ECODE    ---       #107
      00FE0A3CH   LINE      ECODE    ---       #109
      00FE0A56H   LINE      ECODE    ---       #111
      00FE0A60H   LINE      ECODE    ---       #112
      00FE0A65H   LINE      ECODE    ---       #113
      00FE0A67H   LINE      ECODE    ---       #116
      00FE0A73H   LINE      ECODE    ---       #117
      00FE0A79H   LINE      ECODE    ---       #118
      00FE0A79H   LINE      ECODE    ---       #119
      00FE0A7BH   LINE      ECODE    ---       #122
      00FE0A85H   LINE      ECODE    ---       #123
      00FE0A8AH   LINE      ECODE    ---       #124
      00FE0A8AH   LINE      ECODE    ---       #125
      00FE0A8CH   LINE      ECODE    ---       #128
      00FE0A96H   LINE      ECODE    ---       #129
      00FE0A9BH   LINE      ECODE    ---       #130
      00FE0A9BH   LINE      ECODE    ---       #131
      ---         BLOCKEND  ---      ---       LVL=0

      00FE0A9CH   BLOCK     ECODE    ---       LVL=0
      00FE0A9CH   LINE      ECODE    ---       #141
      00FE0A9CH   LINE      ECODE    ---       #146
      ---         BLOCKEND  ---      ---       LVL=0

      00FE0A9DH   BLOCK     ECODE    ---       LVL=0
      0001130FH   SYMBOL    XDATA    BYTE      return_state
      00011310H   SYMBOL    XDATA    ---       data_buffer
      00011399H   SYMBOL    XDATA    WORD      time_out_count
      00FE0A9DH   LINE      ECODE    ---       #155
      00FE0A9DH   LINE      ECODE    ---       #156
      00FE0A9DH   LINE      ECODE    ---       #157
      00FE0AA2H   LINE      ECODE    ---       #159
      00FE0AAAH   LINE      ECODE    ---       #162
      00FE0ACEH   LINE      ECODE    ---       #168
      00FE0AE0H   LINE      ECODE    ---       #171
      00FE0AE0H   LINE      ECODE    ---       #175
      00FE0AFEH   LINE      ECODE    ---       #176
      00FE0B07H   LINE      ECODE    ---       #177
      00FE0B25H   LINE      ECODE    ---       #178
      00FE0B2FH   LINE      ECODE    ---       #179
      00FE0B4DH   LINE      ECODE    ---       #182
      00FE0B52H   LINE      ECODE    ---       #183
      00FE0B58H   LINE      ECODE    ---       #184
      00FE0B9AH   LINE      ECODE    ---       #185
      00FE0BB2H   LINE      ECODE    ---       #187
      00FE0BBEH   LINE      ECODE    ---       #189
      00FE0BBEH   LINE      ECODE    ---       #190
      00FE0BBEH   LINE      ECODE    ---       #192
      00FE0BC3H   LINE      ECODE    ---       #193
      00FE0BC9H   LINE      ECODE    ---       #195
      00FE0BE5H   LINE      ECODE    ---       #196
      00FE0C25H   LINE      ECODE    ---       #198
      00FE0C25H   LINE      ECODE    ---       #200
      00FE0C2AH   LINE      ECODE    ---       #201
      00FE0C30H   LINE      ECODE    ---       #202
      00FE0C72H   LINE      ECODE    ---       #204
      00FE0C79H   LINE      ECODE    ---       #206
      00FE0C81H   LINE      ECODE    ---       #207
      00FE0C83H   LINE      ECODE    ---       #208
      00FE0C83H   LINE      ECODE    ---       #210
      00FE0C9AH   LINE      ECODE    ---       #212
      00FE0CA0H   LINE      ECODE    ---       #213
L251 LINKER/LOCATER V4.66.93.0                                                        05/01/2026  15:28:45  PAGE 194


      00FE0CA2H   LINE      ECODE    ---       #214
      00FE0CA2H   LINE      ECODE    ---       #216
      00FE0CB8H   LINE      ECODE    ---       #217
      00FE0CBBH   LINE      ECODE    ---       #219
      00FE0CC1H   LINE      ECODE    ---       #226
      00FE0CD1H   LINE      ECODE    ---       #227
      00FE0CD1H   LINE      ECODE    ---       #230
      00FE0CD5H   LINE      ECODE    ---       #231
      ---         BLOCKEND  ---      ---       LVL=0

      ---         MODULE    ---      ---       zf_device_imu660ra
      00FDF5D9H   PUBLIC    ECODE    ---       imu660ra_get_gyro?
      00FDF633H   PUBLIC    ECODE    ---       imu660ra_init?
      00FDF57FH   PUBLIC    ECODE    ---       imu660ra_get_acc?
      000120BEH   PUBLIC    XDATA    INT       imu660ra_acc_x
      000120C0H   PUBLIC    XDATA    INT       imu660ra_acc_y
      000120C2H   PUBLIC    XDATA    INT       imu660ra_acc_z
      000120C4H   PUBLIC    XDATA    INT       imu660ra_gyro_x
      000120C6H   PUBLIC    XDATA    INT       imu660ra_gyro_y
      000120C8H   PUBLIC    XDATA    INT       imu660ra_gyro_z
      000120CAH   PUBLIC    XDATA    ---       imu660ra_transition_factor
      000000D0H   SFRSYM    DATA     BYTE      PSW
      0000009DH   SFRSYM    DATA     BYTE      IRCBAND
      00000097H   SFRSYM    DATA     BYTE      AUXR2
      000000EAH   SFRSYM    DATA     BYTE      CKCON
      000000EFH   SFRSYM    DATA     BYTE      AUXINTIF
      000000FDH   SFRSYM    DATA     BYTE      S4CON
      000000ACH   SFRSYM    DATA     BYTE      S3CON
      0000009AH   SFRSYM    DATA     BYTE      S2CON
      000000B7H   SFRSYM    DATA     BYTE      IPH
      000000CDH   SFRSYM    DATA     BYTE      SPSTAT
      000000DDH   SFRSYM    DATA     BYTE      T4T3M
      000000C1H   SFRSYM    DATA     BYTE      WDT_CONTR
      000000DFH   SFRSYM    DATA     BYTE      IP3
      000000F4H   SFRSYM    DATA     BYTE      USBCON
      000000B5H   SFRSYM    DATA     BYTE      IP2
      000000FFH   SFRSYM    DATA     BYTE      RSTCFG
      000000E0H   SFRSYM    DATA     BYTE      ACC
      000000C7H   SFRSYM    DATA     BYTE      IAP_CONTR
      000000F9H   SFRSYM    DATA     BYTE      LINICR
      0000008EH   SFRSYM    DATA     BYTE      AUXR
      000000F0H   SFRSYM    DATA     BYTE      B
      000000AFH   SFRSYM    DATA     BYTE      IE2
      000000B0H.4 SFRSYM    DATA     BIT       P34
      00000088H   SFRSYM    DATA     BYTE      TCON
      00000089H   SFRSYM    DATA     BYTE      TMOD
      00000098H   SFRSYM    DATA     BYTE      SCON
      00000087H   SFRSYM    DATA     BYTE      PCON
      000000BCH   SFRSYM    DATA     BYTE      ADC_CONTR
      000000D1H   SFRSYM    DATA     BYTE      PSW1
      000000E7H   SFRSYM    DATA     BYTE      CMPCR2
      000000E6H   SFRSYM    DATA     BYTE      CMPCR1
      000000DEH   SFRSYM    DATA     BYTE      ADCCFG
      000000B8H   SFRSYM    DATA     BYTE      IP
      0000008FH   SFRSYM    DATA     BYTE      INTCLKO
      000000EEH   SFRSYM    DATA     BYTE      IP3H
      000000B6H   SFRSYM    DATA     BYTE      IP2H
      000000BFH   SFRSYM    DATA     BYTE      P_SW4
      000000A8H   SFRSYM    DATA     BYTE      IE
      000000BBH   SFRSYM    DATA     BYTE      P_SW3
      000000BAH   SFRSYM    DATA     BYTE      P_SW2
      000000A2H   SFRSYM    DATA     BYTE      P_SW1
      000000CEH   SFRSYM    DATA     BYTE      SPCTL
      000000F8H   SFRSYM    DATA     BYTE      P7
      000000E8H   SFRSYM    DATA     BYTE      P6
L251 LINKER/LOCATER V4.66.93.0                                                        05/01/2026  15:28:45  PAGE 195


      000000C8H   SFRSYM    DATA     BYTE      P5
      000000C0H   SFRSYM    DATA     BYTE      P4
      000000ABH   SFRSYM    DATA     BYTE      WKTCH
      000000B0H   SFRSYM    DATA     BYTE      P3
      000000A0H   SFRSYM    DATA     BYTE      P2
      00000090H   SFRSYM    DATA     BYTE      P1
      00000080H   SFRSYM    DATA     BYTE      P0
      00FDF42BH   SYMBOL    ECODE    ---       imu660ra_read_register
      00FDF3E2H   SYMBOL    ECODE    ---       imu660ra_write_registers
      00FDF3BFH   SYMBOL    ECODE    ---       imu660ra_write_register
      00FDF522H   SYMBOL    ECODE    ---       imu660ra_self_check
      00FDF462H   SYMBOL    ECODE    ---       imu660ra_read_registers

      00FDF3BFH   BLOCK     ECODE    ---       LVL=0
      00012AE2H   SYMBOL    XDATA    BYTE      reg
      00012AE3H   SYMBOL    XDATA    BYTE      dat
      00FDF3BFH   LINE      ECODE    ---       #84
      00FDF3C9H   LINE      ECODE    ---       #86
      00FDF3CCH   LINE      ECODE    ---       #87
      00FDF3DEH   LINE      ECODE    ---       #88
      00FDF3E1H   LINE      ECODE    ---       #89
      ---         BLOCKEND  ---      ---       LVL=0

      00FDF3E2H   BLOCK     ECODE    ---       LVL=0
      0001276CH   SYMBOL    XDATA    BYTE      reg
      0001276DH   SYMBOL    XDATA    ---       dat
      00012771H   SYMBOL    XDATA    DWORD     len
      00FDF3E2H   LINE      ECODE    ---       #99
      00FDF3FAH   LINE      ECODE    ---       #101
      00FDF3FDH   LINE      ECODE    ---       #102
      00FDF427H   LINE      ECODE    ---       #103
      00FDF42AH   LINE      ECODE    ---       #104
      ---         BLOCKEND  ---      ---       LVL=0

      00FDF42BH   BLOCK     ECODE    ---       LVL=0
      00012AC3H   SYMBOL    XDATA    BYTE      reg
      00FDF42FH   BLOCK     ECODE    NEAR LAB  LVL=1
      00012AC4H   SYMBOL    XDATA    ---       dat
      ---         BLOCKEND  ---      ---       LVL=1
      00FDF42BH   LINE      ECODE    ---       #113
      00FDF42FH   LINE      ECODE    ---       #114
      00FDF42FH   LINE      ECODE    ---       #116
      00FDF432H   LINE      ECODE    ---       #117
      00FDF45AH   LINE      ECODE    ---       #118
      00FDF45DH   LINE      ECODE    ---       #119
      00FDF461H   LINE      ECODE    ---       #120
      ---         BLOCKEND  ---      ---       LVL=0

      00FDF462H   BLOCK     ECODE    ---       LVL=0
      00012131H   SYMBOL    XDATA    BYTE      reg
      00012132H   SYMBOL    XDATA    ---       dat
      00012136H   SYMBOL    XDATA    DWORD     len
      00FDF47AH   BLOCK     ECODE    NEAR LAB  LVL=1
      0001213AH   SYMBOL    XDATA    WORD      i
      0001213CH   SYMBOL    XDATA    ---       temp_data
      ---         BLOCKEND  ---      ---       LVL=1
      00FDF462H   LINE      ECODE    ---       #131
      00FDF47AH   LINE      ECODE    ---       #132
      00FDF47AH   LINE      ECODE    ---       #133
      00FDF482H   LINE      ECODE    ---       #135
      00FDF485H   LINE      ECODE    ---       #136
      00FDF4B9H   LINE      ECODE    ---       #137
      00FDF4BCH   LINE      ECODE    ---       #139
      00FDF4C6H   LINE      ECODE    ---       #141
      00FDF4FCH   LINE      ECODE    ---       #142
L251 LINKER/LOCATER V4.66.93.0                                                        05/01/2026  15:28:45  PAGE 196


      00FDF521H   LINE      ECODE    ---       #143
      ---         BLOCKEND  ---      ---       LVL=0

      00FDF522H   BLOCK     ECODE    ---       LVL=0
      00012A57H   SYMBOL    XDATA    BYTE      dat
      00012A58H   SYMBOL    XDATA    BYTE      return_state
      00012A59H   SYMBOL    XDATA    WORD      timeout_count
      00FDF522H   LINE      ECODE    ---       #312
      00FDF522H   LINE      ECODE    ---       #313
      00FDF522H   LINE      ECODE    ---       #314
      00FDF52CH   LINE      ECODE    ---       #315
      00FDF534H   LINE      ECODE    ---       #317
      00FDF534H   LINE      ECODE    ---       #319
      00FDF54BH   LINE      ECODE    ---       #321
      00FDF551H   LINE      ECODE    ---       #322
      00FDF553H   LINE      ECODE    ---       #323
      00FDF553H   LINE      ECODE    ---       #325
      00FDF55BH   LINE      ECODE    ---       #326
      00FDF571H   LINE      ECODE    ---       #327
      00FDF57AH   LINE      ECODE    ---       #330
      00FDF57EH   LINE      ECODE    ---       #331
      ---         BLOCKEND  ---      ---       LVL=0

      00FDF57FH   BLOCK     ECODE    ---       LVL=0
      0001293FH   SYMBOL    XDATA    ---       dat
      00FDF57FH   LINE      ECODE    ---       #341
      00FDF57FH   LINE      ECODE    ---       #342
      00FDF57FH   LINE      ECODE    ---       #345
      00FDF590H   LINE      ECODE    ---       #346
      00FDF5A8H   LINE      ECODE    ---       #347
      00FDF5C0H   LINE      ECODE    ---       #348
      00FDF5D8H   LINE      ECODE    ---       #349
      ---         BLOCKEND  ---      ---       LVL=0

      00FDF5D9H   BLOCK     ECODE    ---       LVL=0
      00012945H   SYMBOL    XDATA    ---       dat
      00FDF5D9H   LINE      ECODE    ---       #358
      00FDF5D9H   LINE      ECODE    ---       #359
      00FDF5D9H   LINE      ECODE    ---       #362
      00FDF5EAH   LINE      ECODE    ---       #363
      00FDF602H   LINE      ECODE    ---       #364
      00FDF61AH   LINE      ECODE    ---       #365
      00FDF632H   LINE      ECODE    ---       #366
      ---         BLOCKEND  ---      ---       LVL=0

      00FDF633H   BLOCK     ECODE    ---       LVL=0
      00012B06H   SYMBOL    XDATA    BYTE      return_state
      00FDF633H   LINE      ECODE    ---       #375
      00FDF633H   LINE      ECODE    ---       #376
      00FDF633H   LINE      ECODE    ---       #377
      00FDF638H   LINE      ECODE    ---       #378
      00FDF656H   LINE      ECODE    ---       #382
      00FDF690H   LINE      ECODE    ---       #383
      00FDF6A2H   LINE      ECODE    ---       #384
      00FDF6A6H   LINE      ECODE    ---       #394
      00FDF6A6H   LINE      ECODE    ---       #396
      00FDF6AEH   LINE      ECODE    ---       #401
      00FDF6BAH   LINE      ECODE    ---       #402
      00FDF6C0H   LINE      ECODE    ---       #403
      00FDF6C3H   LINE      ECODE    ---       #404
      00FDF6C3H   LINE      ECODE    ---       #406
      00FDF6CAH   LINE      ECODE    ---       #407
      00FDF6E0H   LINE      ECODE    ---       #408
      00FDF6E7H   LINE      ECODE    ---       #409
      00FDF6F8H   LINE      ECODE    ---       #410
L251 LINKER/LOCATER V4.66.93.0                                                        05/01/2026  15:28:45  PAGE 197


      00FDF700H   LINE      ECODE    ---       #411
      00FDF71EH   LINE      ECODE    ---       #413
      00FDF728H   LINE      ECODE    ---       #418
      00FDF734H   LINE      ECODE    ---       #419
      00FDF73AH   LINE      ECODE    ---       #420
      00FDF73DH   LINE      ECODE    ---       #421
      00FDF73DH   LINE      ECODE    ---       #423
      00FDF745H   LINE      ECODE    ---       #424
      00FDF74DH   LINE      ECODE    ---       #425
      00FDF755H   LINE      ECODE    ---       #432
      00FDF76DH   LINE      ECODE    ---       #434
      00FDF76DH   LINE      ECODE    ---       #436
      00FDF779H   LINE      ECODE    ---       #437
      00FDF77FH   LINE      ECODE    ---       #439
      00FDF781H   LINE      ECODE    ---       #441
      00FDF781H   LINE      ECODE    ---       #443
      00FDF788H   LINE      ECODE    ---       #444
      00FDF798H   LINE      ECODE    ---       #446
      00FDF79AH   LINE      ECODE    ---       #448
      00FDF79AH   LINE      ECODE    ---       #450
      00FDF7A2H   LINE      ECODE    ---       #451
      00FDF7B2H   LINE      ECODE    ---       #453
      00FDF7B4H   LINE      ECODE    ---       #455
      00FDF7B4H   LINE      ECODE    ---       #457
      00FDF7BCH   LINE      ECODE    ---       #458
      00FDF7CCH   LINE      ECODE    ---       #460
      00FDF7CEH   LINE      ECODE    ---       #462
      00FDF7CEH   LINE      ECODE    ---       #464
      00FDF7D6H   LINE      ECODE    ---       #465
      00FDF7E6H   LINE      ECODE    ---       #467
      00FDF7E6H   LINE      ECODE    ---       #468
      00FDF7E6H   LINE      ECODE    ---       #470
      00FDF7F2H   LINE      ECODE    ---       #472
      00FDF7F2H   LINE      ECODE    ---       #473
      00FDF7F2H   LINE      ECODE    ---       #481
      00FDF811H   LINE      ECODE    ---       #483
      00FDF811H   LINE      ECODE    ---       #485
      00FDF81DH   LINE      ECODE    ---       #486
      00FDF823H   LINE      ECODE    ---       #488
      00FDF826H   LINE      ECODE    ---       #490
      00FDF826H   LINE      ECODE    ---       #492
      00FDF82EH   LINE      ECODE    ---       #493
      00FDF840H   LINE      ECODE    ---       #495
      00FDF842H   LINE      ECODE    ---       #497
      00FDF842H   LINE      ECODE    ---       #499
      00FDF84AH   LINE      ECODE    ---       #500
      00FDF85CH   LINE      ECODE    ---       #502
      00FDF85EH   LINE      ECODE    ---       #504
      00FDF85EH   LINE      ECODE    ---       #506
      00FDF866H   LINE      ECODE    ---       #507
      00FDF878H   LINE      ECODE    ---       #509
      00FDF87AH   LINE      ECODE    ---       #511
      00FDF87AH   LINE      ECODE    ---       #513
      00FDF882H   LINE      ECODE    ---       #514
      00FDF894H   LINE      ECODE    ---       #516
      00FDF896H   LINE      ECODE    ---       #518
      00FDF896H   LINE      ECODE    ---       #520
      00FDF89DH   LINE      ECODE    ---       #521
      00FDF8AFH   LINE      ECODE    ---       #523
      00FDF8AFH   LINE      ECODE    ---       #524
      00FDF8AFH   LINE      ECODE    ---       #526
      00FDF8AFH   LINE      ECODE    ---       #528
      00FDF8AFH   LINE      ECODE    ---       #529
      00FDF8AFH   LINE      ECODE    ---       #533
      00FDF8B3H   LINE      ECODE    ---       #534
L251 LINKER/LOCATER V4.66.93.0                                                        05/01/2026  15:28:45  PAGE 198


      ---         BLOCKEND  ---      ---       LVL=0

      ---         MODULE    ---      ---       zf_device_imu660rb
      00FE014FH   PUBLIC    ECODE    ---       imu660rb_get_gyro?
      00FE0272H   PUBLIC    ECODE    ---       imu660rb_gyro_transition?
      00FE0395H   PUBLIC    ECODE    ---       imu660rb_init?
      00FE00F5H   PUBLIC    ECODE    ---       imu660rb_get_acc?
      00FE01A9H   PUBLIC    ECODE    ---       imu660rb_acc_transition?
      0001256DH   PUBLIC    XDATA    INT       imu660rb_acc_x
      0001256FH   PUBLIC    XDATA    INT       imu660rb_acc_y
      00012571H   PUBLIC    XDATA    INT       imu660rb_acc_z
      00012573H   PUBLIC    XDATA    INT       imu660rb_gyro_x
      00012575H   PUBLIC    XDATA    INT       imu660rb_gyro_y
      00012577H   PUBLIC    XDATA    INT       imu660rb_gyro_z
      000000D0H   SFRSYM    DATA     BYTE      PSW
      0000009DH   SFRSYM    DATA     BYTE      IRCBAND
      00000097H   SFRSYM    DATA     BYTE      AUXR2
      000000EAH   SFRSYM    DATA     BYTE      CKCON
      000000EFH   SFRSYM    DATA     BYTE      AUXINTIF
      000000FDH   SFRSYM    DATA     BYTE      S4CON
      000000ACH   SFRSYM    DATA     BYTE      S3CON
      0000009AH   SFRSYM    DATA     BYTE      S2CON
      000000B7H   SFRSYM    DATA     BYTE      IPH
      000000CDH   SFRSYM    DATA     BYTE      SPSTAT
      000000DDH   SFRSYM    DATA     BYTE      T4T3M
      000000C1H   SFRSYM    DATA     BYTE      WDT_CONTR
      000000DFH   SFRSYM    DATA     BYTE      IP3
      000000F4H   SFRSYM    DATA     BYTE      USBCON
      000000B5H   SFRSYM    DATA     BYTE      IP2
      000000FFH   SFRSYM    DATA     BYTE      RSTCFG
      000000E0H   SFRSYM    DATA     BYTE      ACC
      000000C7H   SFRSYM    DATA     BYTE      IAP_CONTR
      000000F9H   SFRSYM    DATA     BYTE      LINICR
      0000008EH   SFRSYM    DATA     BYTE      AUXR
      000000F0H   SFRSYM    DATA     BYTE      B
      000000AFH   SFRSYM    DATA     BYTE      IE2
      000000C0H.5 SFRSYM    DATA     BIT       P45
      00000088H   SFRSYM    DATA     BYTE      TCON
      00000089H   SFRSYM    DATA     BYTE      TMOD
      00000098H   SFRSYM    DATA     BYTE      SCON
      00000087H   SFRSYM    DATA     BYTE      PCON
      000000BCH   SFRSYM    DATA     BYTE      ADC_CONTR
      000000D1H   SFRSYM    DATA     BYTE      PSW1
      000000E7H   SFRSYM    DATA     BYTE      CMPCR2
      000000E6H   SFRSYM    DATA     BYTE      CMPCR1
      000000DEH   SFRSYM    DATA     BYTE      ADCCFG
      000000B8H   SFRSYM    DATA     BYTE      IP
      0000008FH   SFRSYM    DATA     BYTE      INTCLKO
      000000EEH   SFRSYM    DATA     BYTE      IP3H
      000000B6H   SFRSYM    DATA     BYTE      IP2H
      000000BFH   SFRSYM    DATA     BYTE      P_SW4
      000000A8H   SFRSYM    DATA     BYTE      IE
      000000BBH   SFRSYM    DATA     BYTE      P_SW3
      000000BAH   SFRSYM    DATA     BYTE      P_SW2
      000000A2H   SFRSYM    DATA     BYTE      P_SW1
      000000CEH   SFRSYM    DATA     BYTE      SPCTL
      000000F8H   SFRSYM    DATA     BYTE      P7
      000000E8H   SFRSYM    DATA     BYTE      P6
      000000C8H   SFRSYM    DATA     BYTE      P5
      000000C0H   SFRSYM    DATA     BYTE      P4
      000000ABH   SFRSYM    DATA     BYTE      WKTCH
      000000B0H   SFRSYM    DATA     BYTE      P3
      000000A0H   SFRSYM    DATA     BYTE      P2
      00000090H   SFRSYM    DATA     BYTE      P1
      00000080H   SFRSYM    DATA     BYTE      P0
L251 LINKER/LOCATER V4.66.93.0                                                        05/01/2026  15:28:45  PAGE 199


      00FE0023H   SYMBOL    ECODE    ---       imu660rb_read_register
      00FE0000H   SYMBOL    ECODE    ---       imu660rb_write_register
      00FE0097H   SYMBOL    ECODE    ---       imu660rb_self_check
      00FE0048H   SYMBOL    ECODE    ---       imu660rb_read_registers

      00FE0000H   BLOCK     ECODE    ---       LVL=0
      00012AE4H   SYMBOL    XDATA    BYTE      reg
      00012AE5H   SYMBOL    XDATA    BYTE      dat
      00FE0000H   LINE      ECODE    ---       #82
      00FE000AH   LINE      ECODE    ---       #84
      00FE000DH   LINE      ECODE    ---       #85
      00FE001FH   LINE      ECODE    ---       #86
      00FE0022H   LINE      ECODE    ---       #87
      ---         BLOCKEND  ---      ---       LVL=0

      00FE0023H   BLOCK     ECODE    ---       LVL=0
      00012AE6H   SYMBOL    XDATA    BYTE      reg
      00FE0027H   BLOCK     ECODE    NEAR LAB  LVL=1
      00012AE7H   SYMBOL    XDATA    BYTE      dat
      ---         BLOCKEND  ---      ---       LVL=1
      00FE0023H   LINE      ECODE    ---       #111
      00FE0027H   LINE      ECODE    ---       #112
      00FE0027H   LINE      ECODE    ---       #114
      00FE002AH   LINE      ECODE    ---       #115
      00FE0040H   LINE      ECODE    ---       #116
      00FE0043H   LINE      ECODE    ---       #117
      00FE0047H   LINE      ECODE    ---       #118
      ---         BLOCKEND  ---      ---       LVL=0

      00FE0048H   BLOCK     ECODE    ---       LVL=0
      00012775H   SYMBOL    XDATA    BYTE      reg
      00012776H   SYMBOL    XDATA    ---       dat
      0001277AH   SYMBOL    XDATA    DWORD     len
      00FE0048H   LINE      ECODE    ---       #129
      00FE0060H   LINE      ECODE    ---       #131
      00FE0063H   LINE      ECODE    ---       #132
      00FE0093H   LINE      ECODE    ---       #133
      00FE0096H   LINE      ECODE    ---       #135
      ---         BLOCKEND  ---      ---       LVL=0

      00FE0097H   BLOCK     ECODE    ---       LVL=0
      00012A5BH   SYMBOL    XDATA    BYTE      dat
      00012A5CH   SYMBOL    XDATA    BYTE      return_state
      00012A5DH   SYMBOL    XDATA    WORD      timeout_count
      00FE0097H   LINE      ECODE    ---       #300
      00FE0097H   LINE      ECODE    ---       #301
      00FE0097H   LINE      ECODE    ---       #302
      00FE00A1H   LINE      ECODE    ---       #303
      00FE00A9H   LINE      ECODE    ---       #304
      00FE00A9H   LINE      ECODE    ---       #306
      00FE00C0H   LINE      ECODE    ---       #308
      00FE00C6H   LINE      ECODE    ---       #309
      00FE00C8H   LINE      ECODE    ---       #310
      00FE00C8H   LINE      ECODE    ---       #311
      00FE00D1H   LINE      ECODE    ---       #312
      00FE00E7H   LINE      ECODE    ---       #314
      00FE00F0H   LINE      ECODE    ---       #316
      00FE00F4H   LINE      ECODE    ---       #317
      ---         BLOCKEND  ---      ---       LVL=0

      00FE00F5H   BLOCK     ECODE    ---       LVL=0
      0001294BH   SYMBOL    XDATA    ---       dat
      00FE00F5H   LINE      ECODE    ---       #327
      00FE00F5H   LINE      ECODE    ---       #328
      00FE00F5H   LINE      ECODE    ---       #331
L251 LINKER/LOCATER V4.66.93.0                                                        05/01/2026  15:28:45  PAGE 200


      00FE0106H   LINE      ECODE    ---       #332
      00FE011EH   LINE      ECODE    ---       #333
      00FE0136H   LINE      ECODE    ---       #334
      00FE014EH   LINE      ECODE    ---       #335
      ---         BLOCKEND  ---      ---       LVL=0

      00FE014FH   BLOCK     ECODE    ---       LVL=0
      00012951H   SYMBOL    XDATA    ---       dat
      00FE014FH   LINE      ECODE    ---       #344
      00FE014FH   LINE      ECODE    ---       #345
      00FE014FH   LINE      ECODE    ---       #348
      00FE0160H   LINE      ECODE    ---       #349
      00FE0178H   LINE      ECODE    ---       #350
      00FE0190H   LINE      ECODE    ---       #351
      00FE01A8H   LINE      ECODE    ---       #352
      ---         BLOCKEND  ---      ---       LVL=0

      00FE01A9H   BLOCK     ECODE    ---       LVL=0
      00012957H   SYMBOL    XDATA    INT       acc_value
      00FE01AFH   BLOCK     ECODE    NEAR LAB  LVL=1
      00012959H   SYMBOL    XDATA    FLOAT     acc_data
      ---         BLOCKEND  ---      ---       LVL=1
      00FE01A9H   LINE      ECODE    ---       #361
      00FE01AFH   LINE      ECODE    ---       #362
      00FE01AFH   LINE      ECODE    ---       #363
      00FE01BBH   LINE      ECODE    ---       #364
      00FE01D9H   LINE      ECODE    ---       #366
      00FE01FDH   LINE      ECODE    ---       #367
      00FE0221H   LINE      ECODE    ---       #368
      00FE0245H   LINE      ECODE    ---       #369
      00FE0267H   LINE      ECODE    ---       #370
      00FE0267H   LINE      ECODE    ---       #371
      00FE0267H   LINE      ECODE    ---       #372
      00FE0271H   LINE      ECODE    ---       #373
      ---         BLOCKEND  ---      ---       LVL=0

      00FE0272H   BLOCK     ECODE    ---       LVL=0
      0001295DH   SYMBOL    XDATA    INT       gyro_value
      00FE0278H   BLOCK     ECODE    NEAR LAB  LVL=1
      0001295FH   SYMBOL    XDATA    FLOAT     gyro_data
      ---         BLOCKEND  ---      ---       LVL=1
      00FE0272H   LINE      ECODE    ---       #382
      00FE0278H   LINE      ECODE    ---       #383
      00FE0278H   LINE      ECODE    ---       #384
      00FE0284H   LINE      ECODE    ---       #385
      00FE02B2H   LINE      ECODE    ---       #387
      00FE02D7H   LINE      ECODE    ---       #388
      00FE02FCH   LINE      ECODE    ---       #389
      00FE0320H   LINE      ECODE    ---       #390
      00FE0344H   LINE      ECODE    ---       #391
      00FE0368H   LINE      ECODE    ---       #392
      00FE038AH   LINE      ECODE    ---       #393
      00FE038AH   LINE      ECODE    ---       #394
      00FE038AH   LINE      ECODE    ---       #395
      00FE0394H   LINE      ECODE    ---       #396
      ---         BLOCKEND  ---      ---       LVL=0

      00FE0395H   BLOCK     ECODE    ---       LVL=0
      00012B07H   SYMBOL    XDATA    BYTE      return_state
      00FE0395H   LINE      ECODE    ---       #405
      00FE0395H   LINE      ECODE    ---       #406
      00FE0395H   LINE      ECODE    ---       #407
      00FE039AH   LINE      ECODE    ---       #408
      00FE03B8H   LINE      ECODE    ---       #412
      00FE03F2H   LINE      ECODE    ---       #413
L251 LINKER/LOCATER V4.66.93.0                                                        05/01/2026  15:28:45  PAGE 201


      00FE0404H   LINE      ECODE    ---       #428
      00FE0404H   LINE      ECODE    ---       #429
      00FE040CH   LINE      ECODE    ---       #434
      00FE0418H   LINE      ECODE    ---       #435
      00FE041EH   LINE      ECODE    ---       #436
      00FE0420H   LINE      ECODE    ---       #437
      00FE0420H   LINE      ECODE    ---       #439
      00FE0428H   LINE      ECODE    ---       #440
      00FE0430H   LINE      ECODE    ---       #447
      00FE0438H   LINE      ECODE    ---       #456
      00FE0440H   LINE      ECODE    ---       #457
      00FE0448H   LINE      ECODE    ---       #458
      00FE044FH   LINE      ECODE    ---       #459
      00FE0456H   LINE      ECODE    ---       #460
      00FE045DH   LINE      ECODE    ---       #461
      00FE0465H   LINE      ECODE    ---       #463
      00FE0465H   LINE      ECODE    ---       #464
      00FE0469H   LINE      ECODE    ---       #465
      ---         BLOCKEND  ---      ---       LVL=0

      ---         MODULE    ---      ---       zf_device_imu963ra
      00FDD49BH   PUBLIC    ECODE    ---       imu963ra_get_gyro?
      00FDD56EH   PUBLIC    ECODE    ---       imu963ra_init?
      00FDD441H   PUBLIC    ECODE    ---       imu963ra_get_acc?
      00FDD4F5H   PUBLIC    ECODE    ---       imu963ra_get_mag?
      00011E87H   PUBLIC    XDATA    INT       imu963ra_acc_x
      00011E89H   PUBLIC    XDATA    INT       imu963ra_acc_y
      00011E8BH   PUBLIC    XDATA    INT       imu963ra_acc_z
      00011E8DH   PUBLIC    XDATA    INT       imu963ra_mag_x
      00011E8FH   PUBLIC    XDATA    INT       imu963ra_mag_y
      00011E91H   PUBLIC    XDATA    INT       imu963ra_mag_z
      00011E93H   PUBLIC    XDATA    INT       imu963ra_gyro_x
      00011E95H   PUBLIC    XDATA    INT       imu963ra_gyro_y
      00011E97H   PUBLIC    XDATA    INT       imu963ra_gyro_z
      00011E99H   PUBLIC    XDATA    ---       imu963ra_transition_factor
      000000D0H   SFRSYM    DATA     BYTE      PSW
      0000009DH   SFRSYM    DATA     BYTE      IRCBAND
      00000097H   SFRSYM    DATA     BYTE      AUXR2
      000000EAH   SFRSYM    DATA     BYTE      CKCON
      000000EFH   SFRSYM    DATA     BYTE      AUXINTIF
      000000FDH   SFRSYM    DATA     BYTE      S4CON
      000000ACH   SFRSYM    DATA     BYTE      S3CON
      0000009AH   SFRSYM    DATA     BYTE      S2CON
      000000B7H   SFRSYM    DATA     BYTE      IPH
      000000CDH   SFRSYM    DATA     BYTE      SPSTAT
      000000DDH   SFRSYM    DATA     BYTE      T4T3M
      000000C1H   SFRSYM    DATA     BYTE      WDT_CONTR
      000000DFH   SFRSYM    DATA     BYTE      IP3
      000000F4H   SFRSYM    DATA     BYTE      USBCON
      000000B5H   SFRSYM    DATA     BYTE      IP2
      000000FFH   SFRSYM    DATA     BYTE      RSTCFG
      000000E0H   SFRSYM    DATA     BYTE      ACC
      000000C7H   SFRSYM    DATA     BYTE      IAP_CONTR
      000000F9H   SFRSYM    DATA     BYTE      LINICR
      0000008EH   SFRSYM    DATA     BYTE      AUXR
      000000F0H   SFRSYM    DATA     BYTE      B
      000000AFH   SFRSYM    DATA     BYTE      IE2
      000000B0H.4 SFRSYM    DATA     BIT       P34
      00000088H   SFRSYM    DATA     BYTE      TCON
      00000089H   SFRSYM    DATA     BYTE      TMOD
      00000098H   SFRSYM    DATA     BYTE      SCON
      00000087H   SFRSYM    DATA     BYTE      PCON
      000000BCH   SFRSYM    DATA     BYTE      ADC_CONTR
      000000D1H   SFRSYM    DATA     BYTE      PSW1
      000000E7H   SFRSYM    DATA     BYTE      CMPCR2
L251 LINKER/LOCATER V4.66.93.0                                                        05/01/2026  15:28:45  PAGE 202


      000000E6H   SFRSYM    DATA     BYTE      CMPCR1
      000000DEH   SFRSYM    DATA     BYTE      ADCCFG
      000000B8H   SFRSYM    DATA     BYTE      IP
      0000008FH   SFRSYM    DATA     BYTE      INTCLKO
      000000EEH   SFRSYM    DATA     BYTE      IP3H
      000000B6H   SFRSYM    DATA     BYTE      IP2H
      000000BFH   SFRSYM    DATA     BYTE      P_SW4
      000000A8H   SFRSYM    DATA     BYTE      IE
      000000BBH   SFRSYM    DATA     BYTE      P_SW3
      000000BAH   SFRSYM    DATA     BYTE      P_SW2
      000000A2H   SFRSYM    DATA     BYTE      P_SW1
      000000CEH   SFRSYM    DATA     BYTE      SPCTL
      000000F8H   SFRSYM    DATA     BYTE      P7
      000000E8H   SFRSYM    DATA     BYTE      P6
      000000C8H   SFRSYM    DATA     BYTE      P5
      000000C0H   SFRSYM    DATA     BYTE      P4
      000000ABH   SFRSYM    DATA     BYTE      WKTCH
      000000B0H   SFRSYM    DATA     BYTE      P3
      000000A0H   SFRSYM    DATA     BYTE      P2
      00000090H   SFRSYM    DATA     BYTE      P1
      00000080H   SFRSYM    DATA     BYTE      P0
      00FDD296H   SYMBOL    ECODE    ---       imu963ra_read_mag_register
      00FDD319H   SYMBOL    ECODE    ---       imu963ra_connect_mag
      00FDD1ADH   SYMBOL    ECODE    ---       imu963ra_read_acc_gyro_registers
      00FDD1FCH   SYMBOL    ECODE    ---       imu963ra_write_mag_register
      00FDD183H   SYMBOL    ECODE    ---       imu963ra_read_acc_gyro_register
      00FDD3D6H   SYMBOL    ECODE    ---       imu963ra_mag_self_check
      00FDD160H   SYMBOL    ECODE    ---       imu963ra_write_acc_gyro_register
      00FDD356H   SYMBOL    ECODE    ---       imu963ra_acc_gyro_self_check

      00FDD160H   BLOCK     ECODE    ---       LVL=0
      00012AE8H   SYMBOL    XDATA    BYTE      reg
      00012AE9H   SYMBOL    XDATA    BYTE      dat
      00FDD160H   LINE      ECODE    ---       #84
      00FDD16AH   LINE      ECODE    ---       #86
      00FDD16DH   LINE      ECODE    ---       #87
      00FDD17FH   LINE      ECODE    ---       #88
      00FDD182H   LINE      ECODE    ---       #89
      ---         BLOCKEND  ---      ---       LVL=0

      00FDD183H   BLOCK     ECODE    ---       LVL=0
      00012AEAH   SYMBOL    XDATA    BYTE      reg
      00FDD187H   BLOCK     ECODE    NEAR LAB  LVL=1
      00012AEBH   SYMBOL    XDATA    BYTE      dat
      ---         BLOCKEND  ---      ---       LVL=1
      00FDD183H   LINE      ECODE    ---       #98
      00FDD187H   LINE      ECODE    ---       #99
      00FDD187H   LINE      ECODE    ---       #100
      00FDD18CH   LINE      ECODE    ---       #101
      00FDD18FH   LINE      ECODE    ---       #102
      00FDD1A5H   LINE      ECODE    ---       #103
      00FDD1A8H   LINE      ECODE    ---       #104
      00FDD1ACH   LINE      ECODE    ---       #105
      ---         BLOCKEND  ---      ---       LVL=0

      00FDD1ADH   BLOCK     ECODE    ---       LVL=0
      0001277EH   SYMBOL    XDATA    BYTE      reg
      0001277FH   SYMBOL    XDATA    ---       dat
      00012783H   SYMBOL    XDATA    DWORD     len
      00FDD1ADH   LINE      ECODE    ---       #116
      00FDD1C5H   LINE      ECODE    ---       #118
      00FDD1C8H   LINE      ECODE    ---       #119
      00FDD1F8H   LINE      ECODE    ---       #120
      00FDD1FBH   LINE      ECODE    ---       #121
      ---         BLOCKEND  ---      ---       LVL=0
L251 LINKER/LOCATER V4.66.93.0                                                        05/01/2026  15:28:45  PAGE 203



      00FDD1FCH   BLOCK     ECODE    ---       LVL=0
      00012963H   SYMBOL    XDATA    BYTE      addr
      00012964H   SYMBOL    XDATA    BYTE      reg
      00012965H   SYMBOL    XDATA    BYTE      dat
      00FDD20CH   BLOCK     ECODE    NEAR LAB  LVL=1
      00012966H   SYMBOL    XDATA    BYTE      return_state
      00012967H   SYMBOL    XDATA    WORD      timeout_count
      ---         BLOCKEND  ---      ---       LVL=1
      00FDD1FCH   LINE      ECODE    ---       #293
      00FDD20CH   LINE      ECODE    ---       #294
      00FDD20CH   LINE      ECODE    ---       #295
      00FDD211H   LINE      ECODE    ---       #296
      00FDD219H   LINE      ECODE    ---       #298
      00FDD220H   LINE      ECODE    ---       #299
      00FDD227H   LINE      ECODE    ---       #300
      00FDD232H   LINE      ECODE    ---       #301
      00FDD23DH   LINE      ECODE    ---       #302
      00FDD248H   LINE      ECODE    ---       #303
      00FDD250H   LINE      ECODE    ---       #306
      00FDD252H   LINE      ECODE    ---       #308
      00FDD269H   LINE      ECODE    ---       #310
      00FDD26FH   LINE      ECODE    ---       #311
      00FDD271H   LINE      ECODE    ---       #312
      00FDD271H   LINE      ECODE    ---       #314
      00FDD289H   LINE      ECODE    ---       #315
      00FDD291H   LINE      ECODE    ---       #317
      00FDD295H   LINE      ECODE    ---       #318
      ---         BLOCKEND  ---      ---       LVL=0

      00FDD296H   BLOCK     ECODE    ---       LVL=0
      00012A5FH   SYMBOL    XDATA    BYTE      addr
      00012A60H   SYMBOL    XDATA    BYTE      reg
      00FDD2A0H   BLOCK     ECODE    NEAR LAB  LVL=1
      00012A61H   SYMBOL    XDATA    WORD      timeout_count
      ---         BLOCKEND  ---      ---       LVL=1
      00FDD296H   LINE      ECODE    ---       #328
      00FDD2A0H   LINE      ECODE    ---       #329
      00FDD2A0H   LINE      ECODE    ---       #330
      00FDD2A8H   LINE      ECODE    ---       #332
      00FDD2AFH   LINE      ECODE    ---       #333
      00FDD2BFH   LINE      ECODE    ---       #334
      00FDD2CAH   LINE      ECODE    ---       #335
      00FDD2D2H   LINE      ECODE    ---       #336
      00FDD2DAH   LINE      ECODE    ---       #339
      00FDD2DCH   LINE      ECODE    ---       #341
      00FDD2F3H   LINE      ECODE    ---       #343
      00FDD2F3H   LINE      ECODE    ---       #344
      00FDD2F3H   LINE      ECODE    ---       #346
      00FDD30BH   LINE      ECODE    ---       #347
      00FDD313H   LINE      ECODE    ---       #349
      00FDD318H   LINE      ECODE    ---       #350
      ---         BLOCKEND  ---      ---       LVL=0

      00FDD319H   BLOCK     ECODE    ---       LVL=0
      00012AECH   SYMBOL    XDATA    BYTE      addr
      00012AEDH   SYMBOL    XDATA    BYTE      reg
      00FDD319H   LINE      ECODE    ---       #360
      00FDD323H   LINE      ECODE    ---       #362
      00FDD32AH   LINE      ECODE    ---       #364
      00FDD33AH   LINE      ECODE    ---       #365
      00FDD345H   LINE      ECODE    ---       #366
      00FDD34DH   LINE      ECODE    ---       #367
      00FDD355H   LINE      ECODE    ---       #368
      ---         BLOCKEND  ---      ---       LVL=0
L251 LINKER/LOCATER V4.66.93.0                                                        05/01/2026  15:28:45  PAGE 204



      00FDD356H   BLOCK     ECODE    ---       LVL=0
      00012A63H   SYMBOL    XDATA    BYTE      return_state
      00012A64H   SYMBOL    XDATA    BYTE      dat
      00012A65H   SYMBOL    XDATA    WORD      timeout_count
      00FDD356H   LINE      ECODE    ---       #378
      00FDD356H   LINE      ECODE    ---       #379
      00FDD356H   LINE      ECODE    ---       #380
      00FDD35BH   LINE      ECODE    ---       #381
      00FDD360H   LINE      ECODE    ---       #382
      00FDD368H   LINE      ECODE    ---       #384
      00FDD36AH   LINE      ECODE    ---       #386
      00FDD381H   LINE      ECODE    ---       #388
      00FDD387H   LINE      ECODE    ---       #389
      00FDD389H   LINE      ECODE    ---       #390
      00FDD389H   LINE      ECODE    ---       #392
      00FDD392H   LINE      ECODE    ---       #393
      00FDD3AAH   LINE      ECODE    ---       #394
      00FDD3C8H   LINE      ECODE    ---       #395
      00FDD3D1H   LINE      ECODE    ---       #397
      00FDD3D5H   LINE      ECODE    ---       #398
      ---         BLOCKEND  ---      ---       LVL=0

      00FDD3D6H   BLOCK     ECODE    ---       LVL=0
      00012A67H   SYMBOL    XDATA    BYTE      return_state
      00012A68H   SYMBOL    XDATA    BYTE      dat
      00012A69H   SYMBOL    XDATA    WORD      timeout_count
      00FDD3D6H   LINE      ECODE    ---       #407
      00FDD3D6H   LINE      ECODE    ---       #408
      00FDD3D6H   LINE      ECODE    ---       #409
      00FDD3DBH   LINE      ECODE    ---       #410
      00FDD3E0H   LINE      ECODE    ---       #411
      00FDD3E8H   LINE      ECODE    ---       #413
      00FDD3EAH   LINE      ECODE    ---       #415
      00FDD401H   LINE      ECODE    ---       #417
      00FDD407H   LINE      ECODE    ---       #418
      00FDD409H   LINE      ECODE    ---       #419
      00FDD409H   LINE      ECODE    ---       #421
      00FDD415H   LINE      ECODE    ---       #422
      00FDD433H   LINE      ECODE    ---       #423
      00FDD43CH   LINE      ECODE    ---       #425
      00FDD440H   LINE      ECODE    ---       #426
      ---         BLOCKEND  ---      ---       LVL=0

      00FDD441H   BLOCK     ECODE    ---       LVL=0
      00012969H   SYMBOL    XDATA    ---       dat
      00FDD441H   LINE      ECODE    ---       #435
      00FDD441H   LINE      ECODE    ---       #436
      00FDD441H   LINE      ECODE    ---       #439
      00FDD452H   LINE      ECODE    ---       #440
      00FDD46AH   LINE      ECODE    ---       #441
      00FDD482H   LINE      ECODE    ---       #442
      00FDD49AH   LINE      ECODE    ---       #443
      ---         BLOCKEND  ---      ---       LVL=0

      00FDD49BH   BLOCK     ECODE    ---       LVL=0
      0001296FH   SYMBOL    XDATA    ---       dat
      00FDD49BH   LINE      ECODE    ---       #453
      00FDD49BH   LINE      ECODE    ---       #454
      00FDD49BH   LINE      ECODE    ---       #457
      00FDD4ACH   LINE      ECODE    ---       #458
      00FDD4C4H   LINE      ECODE    ---       #459
      00FDD4DCH   LINE      ECODE    ---       #460
      00FDD4F4H   LINE      ECODE    ---       #461
      ---         BLOCKEND  ---      ---       LVL=0
L251 LINKER/LOCATER V4.66.93.0                                                        05/01/2026  15:28:45  PAGE 205



      00FDD4F5H   BLOCK     ECODE    ---       LVL=0
      00012899H   SYMBOL    XDATA    BYTE      temp_status
      0001289AH   SYMBOL    XDATA    ---       dat
      00FDD4F5H   LINE      ECODE    ---       #471
      00FDD4F5H   LINE      ECODE    ---       #472
      00FDD4F5H   LINE      ECODE    ---       #476
      00FDD4FDH   LINE      ECODE    ---       #477
      00FDD506H   LINE      ECODE    ---       #479
      00FDD50DH   LINE      ECODE    ---       #481
      00FDD51EH   LINE      ECODE    ---       #482
      00FDD536H   LINE      ECODE    ---       #483
      00FDD54EH   LINE      ECODE    ---       #484
      00FDD566H   LINE      ECODE    ---       #485
      00FDD566H   LINE      ECODE    ---       #487
      00FDD56DH   LINE      ECODE    ---       #488
      ---         BLOCKEND  ---      ---       LVL=0

      00FDD56EH   BLOCK     ECODE    ---       LVL=0
      00012B08H   SYMBOL    XDATA    BYTE      return_state
      00FDD56EH   LINE      ECODE    ---       #497
      00FDD56EH   LINE      ECODE    ---       #498
      00FDD56EH   LINE      ECODE    ---       #499
      00FDD573H   LINE      ECODE    ---       #500
      00FDD591H   LINE      ECODE    ---       #504
      00FDD5CBH   LINE      ECODE    ---       #505
      00FDD5DDH   LINE      ECODE    ---       #518
      00FDD5DDH   LINE      ECODE    ---       #520
      00FDD5E4H   LINE      ECODE    ---       #521
      00FDD5ECH   LINE      ECODE    ---       #522
      00FDD604H   LINE      ECODE    ---       #523
      00FDD60BH   LINE      ECODE    ---       #525
      00FDD613H   LINE      ECODE    ---       #527
      00FDD61FH   LINE      ECODE    ---       #528
      00FDD625H   LINE      ECODE    ---       #529
      00FDD628H   LINE      ECODE    ---       #530
      00FDD628H   LINE      ECODE    ---       #532
      00FDD630H   LINE      ECODE    ---       #539
      00FDD648H   LINE      ECODE    ---       #541
      00FDD648H   LINE      ECODE    ---       #543
      00FDD654H   LINE      ECODE    ---       #544
      00FDD65AH   LINE      ECODE    ---       #546
      00FDD65CH   LINE      ECODE    ---       #548
      00FDD65CH   LINE      ECODE    ---       #550
      00FDD664H   LINE      ECODE    ---       #551
      00FDD676H   LINE      ECODE    ---       #553
      00FDD678H   LINE      ECODE    ---       #555
      00FDD678H   LINE      ECODE    ---       #557
      00FDD680H   LINE      ECODE    ---       #558
      00FDD692H   LINE      ECODE    ---       #560
      00FDD694H   LINE      ECODE    ---       #562
      00FDD694H   LINE      ECODE    ---       #564
      00FDD69CH   LINE      ECODE    ---       #565
      00FDD6AEH   LINE      ECODE    ---       #567
      00FDD6B0H   LINE      ECODE    ---       #569
      00FDD6B0H   LINE      ECODE    ---       #571
      00FDD6B8H   LINE      ECODE    ---       #572
      00FDD6CAH   LINE      ECODE    ---       #574
      00FDD6CAH   LINE      ECODE    ---       #575
      00FDD6CAH   LINE      ECODE    ---       #577
      00FDD6D6H   LINE      ECODE    ---       #579
      00FDD6D6H   LINE      ECODE    ---       #580
      00FDD6D6H   LINE      ECODE    ---       #589
      00FDD6FCH   LINE      ECODE    ---       #591
      00FDD6FCH   LINE      ECODE    ---       #593
L251 LINKER/LOCATER V4.66.93.0                                                        05/01/2026  15:28:45  PAGE 206


      00FDD708H   LINE      ECODE    ---       #594
      00FDD70EH   LINE      ECODE    ---       #596
      00FDD711H   LINE      ECODE    ---       #598
      00FDD711H   LINE      ECODE    ---       #600
      00FDD719H   LINE      ECODE    ---       #601
      00FDD72BH   LINE      ECODE    ---       #603
      00FDD72EH   LINE      ECODE    ---       #605
      00FDD72EH   LINE      ECODE    ---       #607
      00FDD736H   LINE      ECODE    ---       #608
      00FDD748H   LINE      ECODE    ---       #610
      00FDD74AH   LINE      ECODE    ---       #612
      00FDD74AH   LINE      ECODE    ---       #614
      00FDD752H   LINE      ECODE    ---       #615
      00FDD764H   LINE      ECODE    ---       #617
      00FDD766H   LINE      ECODE    ---       #619
      00FDD766H   LINE      ECODE    ---       #621
      00FDD76EH   LINE      ECODE    ---       #622
      00FDD780H   LINE      ECODE    ---       #624
      00FDD782H   LINE      ECODE    ---       #626
      00FDD782H   LINE      ECODE    ---       #628
      00FDD78AH   LINE      ECODE    ---       #629
      00FDD79CH   LINE      ECODE    ---       #631
      00FDD79EH   LINE      ECODE    ---       #633
      00FDD79EH   LINE      ECODE    ---       #635
      00FDD7A6H   LINE      ECODE    ---       #636
      00FDD7B8H   LINE      ECODE    ---       #638
      00FDD7B8H   LINE      ECODE    ---       #639
      00FDD7B8H   LINE      ECODE    ---       #641
      00FDD7C4H   LINE      ECODE    ---       #643
      00FDD7C4H   LINE      ECODE    ---       #644
      00FDD7C4H   LINE      ECODE    ---       #646
      00FDD7CCH   LINE      ECODE    ---       #647
      00FDD7D4H   LINE      ECODE    ---       #648
      00FDD7DBH   LINE      ECODE    ---       #649
      00FDD7E2H   LINE      ECODE    ---       #650
      00FDD7E9H   LINE      ECODE    ---       #651
      00FDD7F1H   LINE      ECODE    ---       #653
      00FDD7F9H   LINE      ECODE    ---       #654
      00FDD801H   LINE      ECODE    ---       #655
      00FDD819H   LINE      ECODE    ---       #656
      00FDD820H   LINE      ECODE    ---       #657
      00FDD838H   LINE      ECODE    ---       #659
      00FDD843H   LINE      ECODE    ---       #660
      00FDD85BH   LINE      ECODE    ---       #661
      00FDD865H   LINE      ECODE    ---       #662
      00FDD87DH   LINE      ECODE    ---       #664
      00FDD885H   LINE      ECODE    ---       #666
      00FDD891H   LINE      ECODE    ---       #667
      00FDD897H   LINE      ECODE    ---       #668
      00FDD89AH   LINE      ECODE    ---       #669
      00FDD89AH   LINE      ECODE    ---       #674
      00FDD8AAH   LINE      ECODE    ---       #676
      00FDD8AAH   LINE      ECODE    ---       #678
      00FDD8B6H   LINE      ECODE    ---       #679
      00FDD8BCH   LINE      ECODE    ---       #681
      00FDD8BEH   LINE      ECODE    ---       #683
      00FDD8BEH   LINE      ECODE    ---       #685
      00FDD8C9H   LINE      ECODE    ---       #686
      00FDD8DBH   LINE      ECODE    ---       #688
      00FDD8DDH   LINE      ECODE    ---       #690
      00FDD8DDH   LINE      ECODE    ---       #692
      00FDD8E8H   LINE      ECODE    ---       #693
      00FDD8FAH   LINE      ECODE    ---       #695
      00FDD8FAH   LINE      ECODE    ---       #696
      00FDD8FAH   LINE      ECODE    ---       #698
L251 LINKER/LOCATER V4.66.93.0                                                        05/01/2026  15:28:45  PAGE 207


      00FDD903H   LINE      ECODE    ---       #700
      00FDD903H   LINE      ECODE    ---       #701
      00FDD903H   LINE      ECODE    ---       #703
      00FDD90EH   LINE      ECODE    ---       #704
      00FDD915H   LINE      ECODE    ---       #706
      00FDD91CH   LINE      ECODE    ---       #708
      00FDD93AH   LINE      ECODE    ---       #709
      00FDD93AH   LINE      ECODE    ---       #712
      00FDD93EH   LINE      ECODE    ---       #713
      ---         BLOCKEND  ---      ---       LVL=0

      ---         MODULE    ---      ---       usb
      00FDF162H   PUBLIC    ECODE    ---       usb_setup_in?
      00FDF176H   PUBLIC    ECODE    ---       usb_setup_out?
      00FDF195H   PUBLIC    ECODE    ---       usb_ctrl_in?
      00FDF233H   PUBLIC    ECODE    ---       usb_ctrl_out?
      00FDF09DH   PUBLIC    ECODE    ---       usb_suspend?
      00FDF04BH   PUBLIC    ECODE    ---       usb_resume?
      00FDEF02H   PUBLIC    ECODE    ---       usb_read_fifo?
      00FDF04CH   PUBLIC    ECODE    ---       usb_reset?
      00FDF09EH   PUBLIC    ECODE    ---       usb_setup?
      00FDEF63H   PUBLIC    ECODE    ---       usb_write_fifo?
      00FDEE5BH   PUBLIC    ECODE    ---       usb_init?
      00FDF152H   PUBLIC    ECODE    ---       usb_setup_stall?
      00FDF186H   PUBLIC    ECODE    ---       usb_setup_status?
      00FDEEBBH   PUBLIC    ECODE    ---       usb_read_reg?
      00FDF2B4H   PUBLIC    ECODE    ---       usb_in_ep1?
      00FDF2EAH   PUBLIC    ECODE    ---       usb_in_ep2?
      00FDF31DH   PUBLIC    ECODE    ---       usb_out_ep1?
      00FDEEE0H   PUBLIC    ECODE    ---       usb_write_reg?
      00FDEFABH   PUBLIC    ECODE    ---       usb_isr?
      00000020H.0 PUBLIC    BIT      BIT       UsbInBusy
      00000020H.1 PUBLIC    BIT      BIT       UsbOutBusy
      0001218CH   PUBLIC    XDATA    ---       Setup
      00012194H   PUBLIC    XDATA    BYTE      DeviceState
      00012195H   PUBLIC    XDATA    ---       Ep0State
      0001219CH   PUBLIC    XDATA    BYTE      InEpState
      0001219DH   PUBLIC    XDATA    BYTE      OutEpState
      000000D0H   SFRSYM    DATA     BYTE      PSW
      0000009DH   SFRSYM    DATA     BYTE      IRCBAND
      00000097H   SFRSYM    DATA     BYTE      AUXR2
      000000EAH   SFRSYM    DATA     BYTE      CKCON
      000000EFH   SFRSYM    DATA     BYTE      AUXINTIF
      000000FDH   SFRSYM    DATA     BYTE      S4CON
      000000ACH   SFRSYM    DATA     BYTE      S3CON
      0000009AH   SFRSYM    DATA     BYTE      S2CON
      000000B7H   SFRSYM    DATA     BYTE      IPH
      000000CDH   SFRSYM    DATA     BYTE      SPSTAT
      000000DDH   SFRSYM    DATA     BYTE      T4T3M
      000000C1H   SFRSYM    DATA     BYTE      WDT_CONTR
      000000DFH   SFRSYM    DATA     BYTE      IP3
      000000F4H   SFRSYM    DATA     BYTE      USBCON
      000000B5H   SFRSYM    DATA     BYTE      IP2
      000000FFH   SFRSYM    DATA     BYTE      RSTCFG
      000000E0H   SFRSYM    DATA     BYTE      ACC
      000000DCH   SFRSYM    DATA     BYTE      USBCLK
      000000ECH   SFRSYM    DATA     BYTE      USBDAT
      000000C7H   SFRSYM    DATA     BYTE      IAP_CONTR
      000000F9H   SFRSYM    DATA     BYTE      LINICR
      000000FCH   SFRSYM    DATA     BYTE      USBADR
      0000008EH   SFRSYM    DATA     BYTE      AUXR
      000000F0H   SFRSYM    DATA     BYTE      B
      000000AFH   SFRSYM    DATA     BYTE      IE2
      00000088H   SFRSYM    DATA     BYTE      TCON
      00000089H   SFRSYM    DATA     BYTE      TMOD
L251 LINKER/LOCATER V4.66.93.0                                                        05/01/2026  15:28:45  PAGE 208


      00000098H   SFRSYM    DATA     BYTE      SCON
      00000087H   SFRSYM    DATA     BYTE      PCON
      000000BCH   SFRSYM    DATA     BYTE      ADC_CONTR
      000000AFH.7 SFRSYM    DATA     BIT       EUSB
      000000D1H   SFRSYM    DATA     BYTE      PSW1
      000000E7H   SFRSYM    DATA     BYTE      CMPCR2
      000000E6H   SFRSYM    DATA     BYTE      CMPCR1
      000000DEH   SFRSYM    DATA     BYTE      ADCCFG
      000000B8H   SFRSYM    DATA     BYTE      IP
      0000008FH   SFRSYM    DATA     BYTE      INTCLKO
      000000EEH   SFRSYM    DATA     BYTE      IP3H
      000000B6H   SFRSYM    DATA     BYTE      IP2H
      000000BFH   SFRSYM    DATA     BYTE      P_SW4
      000000A8H   SFRSYM    DATA     BYTE      IE
      000000BBH   SFRSYM    DATA     BYTE      P_SW3
      000000BAH   SFRSYM    DATA     BYTE      P_SW2
      000000A2H   SFRSYM    DATA     BYTE      P_SW1
      000000CEH   SFRSYM    DATA     BYTE      SPCTL
      000000F8H   SFRSYM    DATA     BYTE      P7
      000000E8H   SFRSYM    DATA     BYTE      P6
      000000C8H   SFRSYM    DATA     BYTE      P5
      000000C0H   SFRSYM    DATA     BYTE      P4
      000000ABH   SFRSYM    DATA     BYTE      WKTCH
      000000B0H   SFRSYM    DATA     BYTE      P3
      000000A0H   SFRSYM    DATA     BYTE      P2
      00000090H   SFRSYM    DATA     BYTE      P1
      00000080H   SFRSYM    DATA     BYTE      P0

      00FDEE5BH   BLOCK     ECODE    ---       LVL=0
      00FDEE5BH   LINE      ECODE    ---       #36
      00FDEE5BH   LINE      ECODE    ---       #44
      00FDEE5EH   LINE      ECODE    ---       #45
      00FDEE62H   LINE      ECODE    ---       #47
      00FDEE69H   LINE      ECODE    ---       #48
      00FDEE72H   LINE      ECODE    ---       #49
      00FDEE7BH   LINE      ECODE    ---       #50
      00FDEE84H   LINE      ECODE    ---       #51
      00FDEE8DH   LINE      ECODE    ---       #52
      00FDEE95H   LINE      ECODE    ---       #54
      00FDEE9BH   LINE      ECODE    ---       #55
      00FDEEA0H   LINE      ECODE    ---       #56
      00FDEEA5H   LINE      ECODE    ---       #57
      00FDEEAAH   LINE      ECODE    ---       #59
      00FDEEADH   LINE      ECODE    ---       #60
      00FDEEB0H   LINE      ECODE    ---       #65
      00FDEEB3H   LINE      ECODE    ---       #66
      00FDEEB6H   LINE      ECODE    ---       #68
      00FDEEBAH   LINE      ECODE    ---       #69
      ---         BLOCKEND  ---      ---       LVL=0

      00FDEEBBH   BLOCK     ECODE    ---       LVL=0
      00012AEEH   SYMBOL    XDATA    BYTE      addr
      00FDEEBFH   BLOCK     ECODE    NEAR LAB  LVL=1
      00012AEFH   SYMBOL    XDATA    BYTE      dat
      ---         BLOCKEND  ---      ---       LVL=1
      00FDEEBBH   LINE      ECODE    ---       #71
      00FDEEBFH   LINE      ECODE    ---       #72
      00FDEEBFH   LINE      ECODE    ---       #75
      00FDEEC4H   LINE      ECODE    ---       #76
      00FDEED0H   LINE      ECODE    ---       #77
      00FDEED5H   LINE      ECODE    ---       #78
      00FDEEDBH   LINE      ECODE    ---       #80
      00FDEEDFH   LINE      ECODE    ---       #81
      ---         BLOCKEND  ---      ---       LVL=0

L251 LINKER/LOCATER V4.66.93.0                                                        05/01/2026  15:28:45  PAGE 209


      00FDEEE0H   BLOCK     ECODE    ---       LVL=0
      00012AF0H   SYMBOL    XDATA    BYTE      addr
      00012AF1H   SYMBOL    XDATA    BYTE      dat
      00FDEEE0H   LINE      ECODE    ---       #83
      00FDEEEAH   LINE      ECODE    ---       #85
      00FDEEEFH   LINE      ECODE    ---       #86
      00FDEEFBH   LINE      ECODE    ---       #87
      00FDEF01H   LINE      ECODE    ---       #88
      ---         BLOCKEND  ---      ---       LVL=0

      00FDEF02H   BLOCK     ECODE    ---       LVL=0
      000128A0H   SYMBOL    XDATA    BYTE      fifo
      000128A1H   SYMBOL    XDATA    ---       pdat
      00FDEF10H   BLOCK     ECODE    NEAR LAB  LVL=1
      000128A5H   SYMBOL    XDATA    BYTE      cnt
      000128A6H   SYMBOL    XDATA    BYTE      ret
      ---         BLOCKEND  ---      ---       LVL=1
      00FDEF02H   LINE      ECODE    ---       #90
      00FDEF10H   LINE      ECODE    ---       #91
      00FDEF10H   LINE      ECODE    ---       #95
      00FDEF1EH   LINE      ECODE    ---       #96
      00FDEF20H   LINE      ECODE    ---       #98
      00FDEF4BH   LINE      ECODE    ---       #99
      00FDEF5EH   LINE      ECODE    ---       #101
      00FDEF62H   LINE      ECODE    ---       #102
      ---         BLOCKEND  ---      ---       LVL=0

      00FDEF63H   BLOCK     ECODE    ---       LVL=0
      00012975H   SYMBOL    XDATA    BYTE      fifo
      00012976H   SYMBOL    XDATA    ---       pdat
      0001297AH   SYMBOL    XDATA    BYTE      cnt
      00FDEF63H   LINE      ECODE    ---       #104
      00FDEF77H   LINE      ECODE    ---       #106
      00FDEF79H   LINE      ECODE    ---       #108
      00FDEF97H   LINE      ECODE    ---       #109
      00FDEFAAH   LINE      ECODE    ---       #110
      ---         BLOCKEND  ---      ---       LVL=0

      00FDEFABH   BLOCK     ECODE    ---       LVL=0
      00FDEFBFH   BLOCK     ECODE    NEAR LAB  LVL=1
      00012A6BH   SYMBOL    XDATA    BYTE      intrusb
      00012A6CH   SYMBOL    XDATA    BYTE      intrin
      00012A6DH   SYMBOL    XDATA    BYTE      introut
      00012A6EH   SYMBOL    XDATA    BYTE      adrTemp
      ---         BLOCKEND  ---      ---       LVL=1
      00FDEFABH   LINE      ECODE    ---       #112
      00FDEFBFH   LINE      ECODE    ---       #113
      00FDEFBFH   LINE      ECODE    ---       #119
      00FDEFC5H   LINE      ECODE    ---       #121
      00FDEFCFH   LINE      ECODE    ---       #122
      00FDEFD9H   LINE      ECODE    ---       #123
      00FDEFE3H   LINE      ECODE    ---       #125
      00FDEFEEH   LINE      ECODE    ---       #126
      00FDEFF9H   LINE      ECODE    ---       #128
      00FDF004H   LINE      ECODE    ---       #131
      00FDF00FH   LINE      ECODE    ---       #134
      00FDF01AH   LINE      ECODE    ---       #147
      00FDF025H   LINE      ECODE    ---       #162
      00FDF030H   LINE      ECODE    ---       #164
      00FDF036H   LINE      ECODE    ---       #165
      ---         BLOCKEND  ---      ---       LVL=0

      00FDF04BH   BLOCK     ECODE    ---       LVL=0
      00FDF04BH   LINE      ECODE    ---       #167
      00FDF04BH   LINE      ECODE    ---       #169
L251 LINKER/LOCATER V4.66.93.0                                                        05/01/2026  15:28:45  PAGE 210


      ---         BLOCKEND  ---      ---       LVL=0

      00FDF04CH   BLOCK     ECODE    ---       LVL=0
      00FDF04CH   LINE      ECODE    ---       #171
      00FDF04CH   LINE      ECODE    ---       #173
      00FDF053H   LINE      ECODE    ---       #174
      00FDF059H   LINE      ECODE    ---       #175
      00FDF05EH   LINE      ECODE    ---       #178
      00FDF067H   LINE      ECODE    ---       #179
      00FDF070H   LINE      ECODE    ---       #182
      00FDF079H   LINE      ECODE    ---       #183
      00FDF082H   LINE      ECODE    ---       #198
      00FDF08BH   LINE      ECODE    ---       #199
      00FDF094H   LINE      ECODE    ---       #217
      00FDF09CH   LINE      ECODE    ---       #218
      ---         BLOCKEND  ---      ---       LVL=0

      00FDF09DH   BLOCK     ECODE    ---       LVL=0
      00FDF09DH   LINE      ECODE    ---       #220
      00FDF09DH   LINE      ECODE    ---       #222
      ---         BLOCKEND  ---      ---       LVL=0

      00FDF09EH   BLOCK     ECODE    ---       LVL=0
      00012B09H   SYMBOL    XDATA    BYTE      csr
      00FDF09EH   LINE      ECODE    ---       #224
      00FDF09EH   LINE      ECODE    ---       #225
      00FDF09EH   LINE      ECODE    ---       #228
      00FDF0A6H   LINE      ECODE    ---       #229
      00FDF0B0H   LINE      ECODE    ---       #231
      00FDF0B7H   LINE      ECODE    ---       #233
      00FDF0C8H   LINE      ECODE    ---       #234
      00FDF0CDH   LINE      ECODE    ---       #235
      00FDF0CDH   LINE      ECODE    ---       #236
      00FDF0D4H   LINE      ECODE    ---       #238
      00FDF0E5H   LINE      ECODE    ---       #239
      00FDF0E5H   LINE      ECODE    ---       #241
      00FDF0F4H   LINE      ECODE    ---       #243
      00FDF0F4H   LINE      ECODE    ---       #244
      00FDF0FBH   LINE      ECODE    ---       #246
      00FDF109H   LINE      ECODE    ---       #247
      00FDF119H   LINE      ECODE    ---       #248
      00FDF12FH   LINE      ECODE    ---       #250
      00FDF12FH   LINE      ECODE    ---       #251
      00FDF133H   LINE      ECODE    ---       #252
      00FDF135H   LINE      ECODE    ---       #253
      00FDF135H   LINE      ECODE    ---       #254
      00FDF139H   LINE      ECODE    ---       #255
      00FDF13BH   LINE      ECODE    ---       #256
      00FDF13BH   LINE      ECODE    ---       #257
      00FDF13FH   LINE      ECODE    ---       #258
      00FDF141H   LINE      ECODE    ---       #259
      00FDF141H   LINE      ECODE    ---       #260
      00FDF145H   LINE      ECODE    ---       #261
      00FDF147H   LINE      ECODE    ---       #262
      00FDF147H   LINE      ECODE    ---       #263
      00FDF147H   LINE      ECODE    ---       #264
      00FDF147H   LINE      ECODE    ---       #265
      00FDF147H   LINE      ECODE    ---       #266
      00FDF14BH   LINE      ECODE    ---       #267
      00FDF14DH   LINE      ECODE    ---       #268
      00FDF14DH   LINE      ECODE    ---       #269
      00FDF151H   LINE      ECODE    ---       #270
      00FDF151H   LINE      ECODE    ---       #271
      00FDF151H   LINE      ECODE    ---       #272
      ---         BLOCKEND  ---      ---       LVL=0
L251 LINKER/LOCATER V4.66.93.0                                                        05/01/2026  15:28:45  PAGE 211



      00FDF152H   BLOCK     ECODE    ---       LVL=0
      00FDF152H   LINE      ECODE    ---       #274
      00FDF152H   LINE      ECODE    ---       #276
      00FDF158H   LINE      ECODE    ---       #277
      00FDF161H   LINE      ECODE    ---       #278
      ---         BLOCKEND  ---      ---       LVL=0

      00FDF162H   BLOCK     ECODE    ---       LVL=0
      00FDF162H   LINE      ECODE    ---       #280
      00FDF162H   LINE      ECODE    ---       #282
      00FDF168H   LINE      ECODE    ---       #283
      00FDF171H   LINE      ECODE    ---       #284
      00FDF175H   LINE      ECODE    ---       #285
      ---         BLOCKEND  ---      ---       LVL=0

      00FDF176H   BLOCK     ECODE    ---       LVL=0
      00FDF176H   LINE      ECODE    ---       #287
      00FDF176H   LINE      ECODE    ---       #289
      00FDF17CH   LINE      ECODE    ---       #290
      00FDF185H   LINE      ECODE    ---       #291
      ---         BLOCKEND  ---      ---       LVL=0

      00FDF186H   BLOCK     ECODE    ---       LVL=0
      00FDF186H   LINE      ECODE    ---       #293
      00FDF186H   LINE      ECODE    ---       #295
      00FDF18BH   LINE      ECODE    ---       #296
      00FDF194H   LINE      ECODE    ---       #297
      ---         BLOCKEND  ---      ---       LVL=0

      00FDF195H   BLOCK     ECODE    ---       LVL=0
      00012AF2H   SYMBOL    XDATA    BYTE      csr
      00012AF3H   SYMBOL    XDATA    BYTE      cnt
      00FDF195H   LINE      ECODE    ---       #299
      00FDF195H   LINE      ECODE    ---       #300
      00FDF195H   LINE      ECODE    ---       #304
      00FDF19DH   LINE      ECODE    ---       #305
      00FDF1A7H   LINE      ECODE    ---       #306
      00FDF1B1H   LINE      ECODE    ---       #308
      00FDF1CDH   LINE      ECODE    ---       #309
      00FDF1E3H   LINE      ECODE    ---       #310
      00FDF1F4H   LINE      ECODE    ---       #311
      00FDF20DH   LINE      ECODE    ---       #312
      00FDF219H   LINE      ECODE    ---       #314
      00FDF222H   LINE      ECODE    ---       #315
      00FDF227H   LINE      ECODE    ---       #316
      00FDF229H   LINE      ECODE    ---       #319
      00FDF232H   LINE      ECODE    ---       #320
      00FDF232H   LINE      ECODE    ---       #321
      ---         BLOCKEND  ---      ---       LVL=0

      00FDF233H   BLOCK     ECODE    ---       LVL=0
      00012AF4H   SYMBOL    XDATA    BYTE      csr
      00012AF5H   SYMBOL    XDATA    BYTE      cnt
      00FDF233H   LINE      ECODE    ---       #323
      00FDF233H   LINE      ECODE    ---       #324
      00FDF233H   LINE      ECODE    ---       #328
      00FDF23BH   LINE      ECODE    ---       #329
      00FDF245H   LINE      ECODE    ---       #330
      00FDF24CH   LINE      ECODE    ---       #332
      00FDF260H   LINE      ECODE    ---       #333
      00FDF271H   LINE      ECODE    ---       #334
      00FDF28AH   LINE      ECODE    ---       #335
      00FDF296H   LINE      ECODE    ---       #337
      00FDF29FH   LINE      ECODE    ---       #338
L251 LINKER/LOCATER V4.66.93.0                                                        05/01/2026  15:28:45  PAGE 212


      00FDF2A4H   LINE      ECODE    ---       #339
      00FDF2A6H   LINE      ECODE    ---       #342
      00FDF2AFH   LINE      ECODE    ---       #343
      00FDF2AFH   LINE      ECODE    ---       #345
      00FDF2B3H   LINE      ECODE    ---       #346
      ---         BLOCKEND  ---      ---       LVL=0

      00FDF2B4H   BLOCK     ECODE    ---       LVL=0
      00012B0AH   SYMBOL    XDATA    BYTE      csr
      00FDF2B4H   LINE      ECODE    ---       #349
      00FDF2B4H   LINE      ECODE    ---       #350
      00FDF2B4H   LINE      ECODE    ---       #353
      00FDF2BDH   LINE      ECODE    ---       #354
      00FDF2C7H   LINE      ECODE    ---       #355
      00FDF2CEH   LINE      ECODE    ---       #357
      00FDF2D7H   LINE      ECODE    ---       #358
      00FDF2D7H   LINE      ECODE    ---       #359
      00FDF2DEH   LINE      ECODE    ---       #361
      00FDF2E6H   LINE      ECODE    ---       #362
      00FDF2E6H   LINE      ECODE    ---       #364
      00FDF2E9H   LINE      ECODE    ---       #365
      ---         BLOCKEND  ---      ---       LVL=0

      00FDF2EAH   BLOCK     ECODE    ---       LVL=0
      00012B0BH   SYMBOL    XDATA    BYTE      csr
      00FDF2EAH   LINE      ECODE    ---       #369
      00FDF2EAH   LINE      ECODE    ---       #370
      00FDF2EAH   LINE      ECODE    ---       #373
      00FDF2F3H   LINE      ECODE    ---       #374
      00FDF2FDH   LINE      ECODE    ---       #375
      00FDF304H   LINE      ECODE    ---       #377
      00FDF30DH   LINE      ECODE    ---       #378
      00FDF30DH   LINE      ECODE    ---       #379
      00FDF314H   LINE      ECODE    ---       #381
      00FDF31CH   LINE      ECODE    ---       #382
      ---         BLOCKEND  ---      ---       LVL=0

      00FDF31DH   BLOCK     ECODE    ---       LVL=0
      00011787H   SYMBOL    XDATA    BYTE      csr
      00011788H   SYMBOL    XDATA    BYTE      cnt
      00011789H   SYMBOL    XDATA    BYTE      idx
      0001178AH   SYMBOL    XDATA    ---       rx_buff
      00FDF31DH   LINE      ECODE    ---       #444
      00FDF31DH   LINE      ECODE    ---       #445
      00FDF31DH   LINE      ECODE    ---       #451
      00FDF326H   LINE      ECODE    ---       #452
      00FDF330H   LINE      ECODE    ---       #455
      00FDF337H   LINE      ECODE    ---       #457
      00FDF340H   LINE      ECODE    ---       #458
      00FDF340H   LINE      ECODE    ---       #460
      00FDF347H   LINE      ECODE    ---       #462
      00FDF351H   LINE      ECODE    ---       #463
      00FDF358H   LINE      ECODE    ---       #465
      00FDF375H   LINE      ECODE    ---       #466
      00FDF38EH   LINE      ECODE    ---       #469
      00FDF39CH   LINE      ECODE    ---       #471
      00FDF3B6H   LINE      ECODE    ---       #472
      00FDF3B6H   LINE      ECODE    ---       #474
      00FDF3BEH   LINE      ECODE    ---       #475
      ---         BLOCKEND  ---      ---       LVL=0

      ---         MODULE    ---      ---       usb_desc
      00FF090FH   PUBLIC    CODE     ---       PRODUCTDESC
      00FF092DH   PUBLIC    CODE     ---       LANGIDDESC
      00FF0931H   PUBLIC    CODE     ---       DEVICEDESC
L251 LINKER/LOCATER V4.66.93.0                                                        05/01/2026  15:28:45  PAGE 213


      00FF0943H   PUBLIC    CODE     ---       CONFIGDESC
      00FF0986H   PUBLIC    CODE     ---       PACKET0
      00FF0988H   PUBLIC    CODE     ---       PACKET1
      00FF098AH   PUBLIC    CODE     ---       MANUFACTDESC
      000000D0H   SFRSYM    DATA     BYTE      PSW
      0000009DH   SFRSYM    DATA     BYTE      IRCBAND
      00000097H   SFRSYM    DATA     BYTE      AUXR2
      000000EAH   SFRSYM    DATA     BYTE      CKCON
      000000EFH   SFRSYM    DATA     BYTE      AUXINTIF
      000000FDH   SFRSYM    DATA     BYTE      S4CON
      000000ACH   SFRSYM    DATA     BYTE      S3CON
      0000009AH   SFRSYM    DATA     BYTE      S2CON
      000000B7H   SFRSYM    DATA     BYTE      IPH
      000000CDH   SFRSYM    DATA     BYTE      SPSTAT
      000000DDH   SFRSYM    DATA     BYTE      T4T3M
      000000C1H   SFRSYM    DATA     BYTE      WDT_CONTR
      000000DFH   SFRSYM    DATA     BYTE      IP3
      000000F4H   SFRSYM    DATA     BYTE      USBCON
      000000B5H   SFRSYM    DATA     BYTE      IP2
      000000FFH   SFRSYM    DATA     BYTE      RSTCFG
      000000E0H   SFRSYM    DATA     BYTE      ACC
      000000C7H   SFRSYM    DATA     BYTE      IAP_CONTR
      000000F9H   SFRSYM    DATA     BYTE      LINICR
      0000008EH   SFRSYM    DATA     BYTE      AUXR
      000000F0H   SFRSYM    DATA     BYTE      B
      000000AFH   SFRSYM    DATA     BYTE      IE2
      00000088H   SFRSYM    DATA     BYTE      TCON
      00000089H   SFRSYM    DATA     BYTE      TMOD
      00000098H   SFRSYM    DATA     BYTE      SCON
      00000087H   SFRSYM    DATA     BYTE      PCON
      000000BCH   SFRSYM    DATA     BYTE      ADC_CONTR
      000000D1H   SFRSYM    DATA     BYTE      PSW1
      000000E7H   SFRSYM    DATA     BYTE      CMPCR2
      000000E6H   SFRSYM    DATA     BYTE      CMPCR1
      000000DEH   SFRSYM    DATA     BYTE      ADCCFG
      000000B8H   SFRSYM    DATA     BYTE      IP
      0000008FH   SFRSYM    DATA     BYTE      INTCLKO
      000000EEH   SFRSYM    DATA     BYTE      IP3H
      000000B6H   SFRSYM    DATA     BYTE      IP2H
      000000BFH   SFRSYM    DATA     BYTE      P_SW4
      000000A8H   SFRSYM    DATA     BYTE      IE
      000000BBH   SFRSYM    DATA     BYTE      P_SW3
      000000BAH   SFRSYM    DATA     BYTE      P_SW2
      000000A2H   SFRSYM    DATA     BYTE      P_SW1
      000000CEH   SFRSYM    DATA     BYTE      SPCTL
      000000F8H   SFRSYM    DATA     BYTE      P7
      000000E8H   SFRSYM    DATA     BYTE      P6
      000000C8H   SFRSYM    DATA     BYTE      P5
      000000C0H   SFRSYM    DATA     BYTE      P4
      000000ABH   SFRSYM    DATA     BYTE      WKTCH
      000000B0H   SFRSYM    DATA     BYTE      P3
      000000A0H   SFRSYM    DATA     BYTE      P2
      00000090H   SFRSYM    DATA     BYTE      P1
      00000080H   SFRSYM    DATA     BYTE      P0

      ---         MODULE    ---      ---       usb_req_class
      00FE3007H   PUBLIC    ECODE    ---       usb_set_ctrl_line_state?
      00FE3024H   PUBLIC    ECODE    ---       usb_uart_settings?
      00FE2FCCH   PUBLIC    ECODE    ---       usb_get_line_coding?
      00FE2F91H   PUBLIC    ECODE    ---       usb_set_line_coding?
      00FE2F6BH   PUBLIC    ECODE    ---       usb_req_class?
      000128A7H   PUBLIC    XDATA    ---       LineCoding
      000000D0H   SFRSYM    DATA     BYTE      PSW
      0000009DH   SFRSYM    DATA     BYTE      IRCBAND
      00000097H   SFRSYM    DATA     BYTE      AUXR2
L251 LINKER/LOCATER V4.66.93.0                                                        05/01/2026  15:28:45  PAGE 214


      000000EAH   SFRSYM    DATA     BYTE      CKCON
      000000EFH   SFRSYM    DATA     BYTE      AUXINTIF
      000000FDH   SFRSYM    DATA     BYTE      S4CON
      000000ACH   SFRSYM    DATA     BYTE      S3CON
      0000009AH   SFRSYM    DATA     BYTE      S2CON
      000000B7H   SFRSYM    DATA     BYTE      IPH
      000000CDH   SFRSYM    DATA     BYTE      SPSTAT
      000000DDH   SFRSYM    DATA     BYTE      T4T3M
      000000C1H   SFRSYM    DATA     BYTE      WDT_CONTR
      000000DFH   SFRSYM    DATA     BYTE      IP3
      000000F4H   SFRSYM    DATA     BYTE      USBCON
      000000B5H   SFRSYM    DATA     BYTE      IP2
      000000FFH   SFRSYM    DATA     BYTE      RSTCFG
      000000E0H   SFRSYM    DATA     BYTE      ACC
      000000C7H   SFRSYM    DATA     BYTE      IAP_CONTR
      000000F9H   SFRSYM    DATA     BYTE      LINICR
      0000008EH   SFRSYM    DATA     BYTE      AUXR
      000000F0H   SFRSYM    DATA     BYTE      B
      000000AFH   SFRSYM    DATA     BYTE      IE2
      00000088H   SFRSYM    DATA     BYTE      TCON
      00000089H   SFRSYM    DATA     BYTE      TMOD
      00000098H   SFRSYM    DATA     BYTE      SCON
      00000087H   SFRSYM    DATA     BYTE      PCON
      000000BCH   SFRSYM    DATA     BYTE      ADC_CONTR
      000000D1H   SFRSYM    DATA     BYTE      PSW1
      000000E7H   SFRSYM    DATA     BYTE      CMPCR2
      000000E6H   SFRSYM    DATA     BYTE      CMPCR1
      000000DEH   SFRSYM    DATA     BYTE      ADCCFG
      000000B8H   SFRSYM    DATA     BYTE      IP
      0000008FH   SFRSYM    DATA     BYTE      INTCLKO
      000000EEH   SFRSYM    DATA     BYTE      IP3H
      000000B6H   SFRSYM    DATA     BYTE      IP2H
      000000BFH   SFRSYM    DATA     BYTE      P_SW4
      000000A8H   SFRSYM    DATA     BYTE      IE
      000000BBH   SFRSYM    DATA     BYTE      P_SW3
      000000BAH   SFRSYM    DATA     BYTE      P_SW2
      000000A2H   SFRSYM    DATA     BYTE      P_SW1
      000000CEH   SFRSYM    DATA     BYTE      SPCTL
      000000F8H   SFRSYM    DATA     BYTE      P7
      000000E8H   SFRSYM    DATA     BYTE      P6
      000000C8H   SFRSYM    DATA     BYTE      P5
      000000C0H   SFRSYM    DATA     BYTE      P4
      000000ABH   SFRSYM    DATA     BYTE      WKTCH
      000000B0H   SFRSYM    DATA     BYTE      P3
      000000A0H   SFRSYM    DATA     BYTE      P2
      00000090H   SFRSYM    DATA     BYTE      P1
      00000080H   SFRSYM    DATA     BYTE      P0

      00FE2F6BH   BLOCK     ECODE    ---       LVL=0
      00FE2F6BH   LINE      ECODE    ---       #21
      00FE2F6BH   LINE      ECODE    ---       #23
      00FE2F7AH   LINE      ECODE    ---       #25
      00FE2F7AH   LINE      ECODE    ---       #26
      00FE2F7EH   LINE      ECODE    ---       #27
      00FE2F80H   LINE      ECODE    ---       #28
      00FE2F80H   LINE      ECODE    ---       #29
      00FE2F84H   LINE      ECODE    ---       #30
      00FE2F86H   LINE      ECODE    ---       #31
      00FE2F86H   LINE      ECODE    ---       #32
      00FE2F8AH   LINE      ECODE    ---       #33
      00FE2F8CH   LINE      ECODE    ---       #34
      00FE2F8CH   LINE      ECODE    ---       #35
      00FE2F90H   LINE      ECODE    ---       #36
      00FE2F90H   LINE      ECODE    ---       #37
      00FE2F90H   LINE      ECODE    ---       #38
L251 LINKER/LOCATER V4.66.93.0                                                        05/01/2026  15:28:45  PAGE 215


      ---         BLOCKEND  ---      ---       LVL=0

      00FE2F91H   BLOCK     ECODE    ---       LVL=0
      00FE2F91H   LINE      ECODE    ---       #40
      00FE2F91H   LINE      ECODE    ---       #42
      00FE2FA3H   LINE      ECODE    ---       #45
      00FE2FA7H   LINE      ECODE    ---       #46
      00FE2FA9H   LINE      ECODE    ---       #47
      00FE2FA9H   LINE      ECODE    ---       #49
      00FE2FBBH   LINE      ECODE    ---       #50
      00FE2FC7H   LINE      ECODE    ---       #52
      00FE2FCBH   LINE      ECODE    ---       #53
      ---         BLOCKEND  ---      ---       LVL=0

      00FE2FCCH   BLOCK     ECODE    ---       LVL=0
      00FE2FCCH   LINE      ECODE    ---       #55
      00FE2FCCH   LINE      ECODE    ---       #57
      00FE2FDEH   LINE      ECODE    ---       #60
      00FE2FE2H   LINE      ECODE    ---       #61
      00FE2FE4H   LINE      ECODE    ---       #62
      00FE2FE4H   LINE      ECODE    ---       #64
      00FE2FF6H   LINE      ECODE    ---       #65
      00FE3002H   LINE      ECODE    ---       #67
      00FE3006H   LINE      ECODE    ---       #68
      ---         BLOCKEND  ---      ---       LVL=0

      00FE3007H   BLOCK     ECODE    ---       LVL=0
      00FE3007H   LINE      ECODE    ---       #70
      00FE3007H   LINE      ECODE    ---       #72
      00FE3019H   LINE      ECODE    ---       #75
      00FE301DH   LINE      ECODE    ---       #76
      00FE301FH   LINE      ECODE    ---       #77
      00FE301FH   LINE      ECODE    ---       #79
      00FE3023H   LINE      ECODE    ---       #80
      ---         BLOCKEND  ---      ---       LVL=0

      00FE3024H   BLOCK     ECODE    ---       LVL=0
      00FE3024H   LINE      ECODE    ---       #82
      00FE3024H   LINE      ECODE    ---       #84
      00FE302DH   LINE      ECODE    ---       #86
      00FE3032H   LINE      ECODE    ---       #87
      00FE3038H   LINE      ECODE    ---       #91
      ---         BLOCKEND  ---      ---       LVL=0

      ---         MODULE    ---      ---       usb_req_std
      00FDE757H   PUBLIC    ECODE    ---       usb_get_interface?
      00FDE2E0H   PUBLIC    ECODE    ---       usb_clear_feature?
      00FDE7B0H   PUBLIC    ECODE    ---       usb_set_interface?
      00FDE505H   PUBLIC    ECODE    ---       usb_get_descriptor?
      00FDE5FFH   PUBLIC    ECODE    ---       usb_set_descriptor?
      00FDE09CH   PUBLIC    ECODE    ---       usb_req_std?
      00FDE7EBH   PUBLIC    ECODE    ---       usb_synch_frame?
      00FDE494H   PUBLIC    ECODE    ---       usb_set_address?
      00FDE3BFH   PUBLIC    ECODE    ---       usb_set_feature?
      00FDE604H   PUBLIC    ECODE    ---       usb_get_configuration?
      00FDE68DH   PUBLIC    ECODE    ---       usb_set_configuration?
      00FDE11BH   PUBLIC    ECODE    ---       usb_get_status?
      000000D0H   SFRSYM    DATA     BYTE      PSW
      0000009DH   SFRSYM    DATA     BYTE      IRCBAND
      00000097H   SFRSYM    DATA     BYTE      AUXR2
      000000EAH   SFRSYM    DATA     BYTE      CKCON
      000000EFH   SFRSYM    DATA     BYTE      AUXINTIF
      000000FDH   SFRSYM    DATA     BYTE      S4CON
      000000ACH   SFRSYM    DATA     BYTE      S3CON
      0000009AH   SFRSYM    DATA     BYTE      S2CON
L251 LINKER/LOCATER V4.66.93.0                                                        05/01/2026  15:28:45  PAGE 216


      000000B7H   SFRSYM    DATA     BYTE      IPH
      000000CDH   SFRSYM    DATA     BYTE      SPSTAT
      000000DDH   SFRSYM    DATA     BYTE      T4T3M
      000000C1H   SFRSYM    DATA     BYTE      WDT_CONTR
      000000DFH   SFRSYM    DATA     BYTE      IP3
      000000F4H   SFRSYM    DATA     BYTE      USBCON
      000000B5H   SFRSYM    DATA     BYTE      IP2
      000000FFH   SFRSYM    DATA     BYTE      RSTCFG
      000000E0H   SFRSYM    DATA     BYTE      ACC
      000000C7H   SFRSYM    DATA     BYTE      IAP_CONTR
      000000F9H   SFRSYM    DATA     BYTE      LINICR
      0000008EH   SFRSYM    DATA     BYTE      AUXR
      000000F0H   SFRSYM    DATA     BYTE      B
      000000AFH   SFRSYM    DATA     BYTE      IE2
      00000088H   SFRSYM    DATA     BYTE      TCON
      00000089H   SFRSYM    DATA     BYTE      TMOD
      00000098H   SFRSYM    DATA     BYTE      SCON
      00000087H   SFRSYM    DATA     BYTE      PCON
      000000BCH   SFRSYM    DATA     BYTE      ADC_CONTR
      000000D1H   SFRSYM    DATA     BYTE      PSW1
      000000E7H   SFRSYM    DATA     BYTE      CMPCR2
      000000E6H   SFRSYM    DATA     BYTE      CMPCR1
      000000DEH   SFRSYM    DATA     BYTE      ADCCFG
      000000B8H   SFRSYM    DATA     BYTE      IP
      0000008FH   SFRSYM    DATA     BYTE      INTCLKO
      000000EEH   SFRSYM    DATA     BYTE      IP3H
      000000B6H   SFRSYM    DATA     BYTE      IP2H
      000000BFH   SFRSYM    DATA     BYTE      P_SW4
      000000A8H   SFRSYM    DATA     BYTE      IE
      000000BBH   SFRSYM    DATA     BYTE      P_SW3
      000000BAH   SFRSYM    DATA     BYTE      P_SW2
      000000A2H   SFRSYM    DATA     BYTE      P_SW1
      000000CEH   SFRSYM    DATA     BYTE      SPCTL
      000000F8H   SFRSYM    DATA     BYTE      P7
      000000E8H   SFRSYM    DATA     BYTE      P6
      000000C8H   SFRSYM    DATA     BYTE      P5
      000000C0H   SFRSYM    DATA     BYTE      P4
      000000ABH   SFRSYM    DATA     BYTE      WKTCH
      000000B0H   SFRSYM    DATA     BYTE      P3
      000000A0H   SFRSYM    DATA     BYTE      P2
      00000090H   SFRSYM    DATA     BYTE      P1
      00000080H   SFRSYM    DATA     BYTE      P0

      00FDE09CH   BLOCK     ECODE    ---       LVL=0
      00FDE09CH   LINE      ECODE    ---       #19
      00FDE09CH   LINE      ECODE    ---       #21
      00FDE0D4H   LINE      ECODE    ---       #23
      00FDE0D4H   LINE      ECODE    ---       #24
      00FDE0D8H   LINE      ECODE    ---       #25
      00FDE0DAH   LINE      ECODE    ---       #26
      00FDE0DAH   LINE      ECODE    ---       #27
      00FDE0DEH   LINE      ECODE    ---       #28
      00FDE0E0H   LINE      ECODE    ---       #29
      00FDE0E0H   LINE      ECODE    ---       #30
      00FDE0E4H   LINE      ECODE    ---       #31
      00FDE0E6H   LINE      ECODE    ---       #32
      00FDE0E6H   LINE      ECODE    ---       #33
      00FDE0EAH   LINE      ECODE    ---       #34
      00FDE0ECH   LINE      ECODE    ---       #35
      00FDE0ECH   LINE      ECODE    ---       #36
      00FDE0F0H   LINE      ECODE    ---       #37
      00FDE0F2H   LINE      ECODE    ---       #38
      00FDE0F2H   LINE      ECODE    ---       #39
      00FDE0F6H   LINE      ECODE    ---       #40
      00FDE0F8H   LINE      ECODE    ---       #41
L251 LINKER/LOCATER V4.66.93.0                                                        05/01/2026  15:28:45  PAGE 217


      00FDE0F8H   LINE      ECODE    ---       #42
      00FDE0FCH   LINE      ECODE    ---       #43
      00FDE0FEH   LINE      ECODE    ---       #44
      00FDE0FEH   LINE      ECODE    ---       #45
      00FDE102H   LINE      ECODE    ---       #46
      00FDE104H   LINE      ECODE    ---       #47
      00FDE104H   LINE      ECODE    ---       #48
      00FDE108H   LINE      ECODE    ---       #49
      00FDE10AH   LINE      ECODE    ---       #50
      00FDE10AH   LINE      ECODE    ---       #51
      00FDE10EH   LINE      ECODE    ---       #52
      00FDE110H   LINE      ECODE    ---       #53
      00FDE110H   LINE      ECODE    ---       #54
      00FDE114H   LINE      ECODE    ---       #55
      00FDE116H   LINE      ECODE    ---       #56
      00FDE116H   LINE      ECODE    ---       #57
      00FDE11AH   LINE      ECODE    ---       #58
      00FDE11AH   LINE      ECODE    ---       #59
      00FDE11AH   LINE      ECODE    ---       #60
      ---         BLOCKEND  ---      ---       LVL=0

      00FDE11BH   BLOCK     ECODE    ---       LVL=0
      00012B0CH   SYMBOL    XDATA    BYTE      ep
      00FDE11BH   LINE      ECODE    ---       #62
      00FDE11BH   LINE      ECODE    ---       #63
      00FDE11BH   LINE      ECODE    ---       #66
      00FDE14AH   LINE      ECODE    ---       #71
      00FDE14EH   LINE      ECODE    ---       #72
      00FDE151H   LINE      ECODE    ---       #73
      00FDE151H   LINE      ECODE    ---       #75
      00FDE16BH   LINE      ECODE    ---       #77
      00FDE16BH   LINE      ECODE    ---       #78
      00FDE17DH   LINE      ECODE    ---       #81
      00FDE181H   LINE      ECODE    ---       #82
      00FDE184H   LINE      ECODE    ---       #83
      00FDE184H   LINE      ECODE    ---       #86
      00FDE196H   LINE      ECODE    ---       #87
      00FDE1A0H   LINE      ECODE    ---       #88
      00FDE1A0H   LINE      ECODE    ---       #89
      00FDE1A3H   LINE      ECODE    ---       #90
      00FDE1A3H   LINE      ECODE    ---       #91
      00FDE1BEH   LINE      ECODE    ---       #95
      00FDE1C2H   LINE      ECODE    ---       #96
      00FDE1C5H   LINE      ECODE    ---       #97
      00FDE1C5H   LINE      ECODE    ---       #100
      00FDE1D7H   LINE      ECODE    ---       #101
      00FDE1E1H   LINE      ECODE    ---       #102
      00FDE1E1H   LINE      ECODE    ---       #103
      00FDE1E4H   LINE      ECODE    ---       #104
      00FDE1E4H   LINE      ECODE    ---       #105
      00FDE1F6H   LINE      ECODE    ---       #108
      00FDE1FAH   LINE      ECODE    ---       #109
      00FDE1FDH   LINE      ECODE    ---       #110
      00FDE1FDH   LINE      ECODE    ---       #113
      00FDE20BH   LINE      ECODE    ---       #114
      00FDE21CH   LINE      ECODE    ---       #117
      00FDE21CH   LINE      ECODE    ---       #120
      00FDE21CH   LINE      ECODE    ---       #132
      00FDE239H   LINE      ECODE    ---       #134
      00FDE24BH   LINE      ECODE    ---       #135
      00FDE255H   LINE      ECODE    ---       #136
      00FDE258H   LINE      ECODE    ---       #139
      00FDE26AH   LINE      ECODE    ---       #140
      00FDE274H   LINE      ECODE    ---       #141
      00FDE274H   LINE      ECODE    ---       #142
L251 LINKER/LOCATER V4.66.93.0                                                        05/01/2026  15:28:45  PAGE 218


      00FDE276H   LINE      ECODE    ---       #145
      00FDE276H   LINE      ECODE    ---       #160
      00FDE293H   LINE      ECODE    ---       #162
      00FDE2A5H   LINE      ECODE    ---       #163
      00FDE2AFH   LINE      ECODE    ---       #164
      00FDE2B1H   LINE      ECODE    ---       #167
      00FDE2C3H   LINE      ECODE    ---       #168
      00FDE2CDH   LINE      ECODE    ---       #169
      00FDE2CDH   LINE      ECODE    ---       #170
      00FDE2CFH   LINE      ECODE    ---       #172
      00FDE2CFH   LINE      ECODE    ---       #173
      00FDE2D3H   LINE      ECODE    ---       #174
      00FDE2D5H   LINE      ECODE    ---       #175
      00FDE2D5H   LINE      ECODE    ---       #176
      00FDE2D5H   LINE      ECODE    ---       #177
      00FDE2D5H   LINE      ECODE    ---       #178
      00FDE2D5H   LINE      ECODE    ---       #179
      00FDE2D9H   LINE      ECODE    ---       #180
      00FDE2DBH   LINE      ECODE    ---       #181
      00FDE2DBH   LINE      ECODE    ---       #183
      00FDE2DFH   LINE      ECODE    ---       #184
      ---         BLOCKEND  ---      ---       LVL=0

      00FDE2E0H   BLOCK     ECODE    ---       LVL=0
      00012B0DH   SYMBOL    XDATA    BYTE      ep
      00FDE2E0H   LINE      ECODE    ---       #186
      00FDE2E0H   LINE      ECODE    ---       #187
      00FDE2E0H   LINE      ECODE    ---       #190
      00FDE319H   LINE      ECODE    ---       #197
      00FDE31DH   LINE      ECODE    ---       #198
      00FDE320H   LINE      ECODE    ---       #199
      00FDE320H   LINE      ECODE    ---       #201
      00FDE32EH   LINE      ECODE    ---       #202
      00FDE33CH   LINE      ECODE    ---       #205
      00FDE33CH   LINE      ECODE    ---       #208
      00FDE33CH   LINE      ECODE    ---       #220
      00FDE359H   LINE      ECODE    ---       #221
      00FDE365H   LINE      ECODE    ---       #222
      00FDE36EH   LINE      ECODE    ---       #223
      00FDE376H   LINE      ECODE    ---       #224
      00FDE378H   LINE      ECODE    ---       #227
      00FDE378H   LINE      ECODE    ---       #242
      00FDE395H   LINE      ECODE    ---       #243
      00FDE3A1H   LINE      ECODE    ---       #244
      00FDE3AAH   LINE      ECODE    ---       #245
      00FDE3B2H   LINE      ECODE    ---       #246
      00FDE3B4H   LINE      ECODE    ---       #248
      00FDE3B4H   LINE      ECODE    ---       #249
      00FDE3B8H   LINE      ECODE    ---       #250
      00FDE3BAH   LINE      ECODE    ---       #251
      00FDE3BAH   LINE      ECODE    ---       #253
      00FDE3BEH   LINE      ECODE    ---       #254
      ---         BLOCKEND  ---      ---       LVL=0

      00FDE3BFH   BLOCK     ECODE    ---       LVL=0
      00012B0EH   SYMBOL    XDATA    BYTE      ep
      00FDE3BFH   LINE      ECODE    ---       #256
      00FDE3BFH   LINE      ECODE    ---       #257
      00FDE3BFH   LINE      ECODE    ---       #260
      00FDE3F8H   LINE      ECODE    ---       #267
      00FDE3FCH   LINE      ECODE    ---       #268
      00FDE3FFH   LINE      ECODE    ---       #269
      00FDE3FFH   LINE      ECODE    ---       #271
      00FDE40DH   LINE      ECODE    ---       #272
      00FDE41BH   LINE      ECODE    ---       #275
L251 LINKER/LOCATER V4.66.93.0                                                        05/01/2026  15:28:45  PAGE 219


      00FDE41BH   LINE      ECODE    ---       #278
      00FDE41BH   LINE      ECODE    ---       #290
      00FDE433H   LINE      ECODE    ---       #291
      00FDE43FH   LINE      ECODE    ---       #292
      00FDE448H   LINE      ECODE    ---       #293
      00FDE450H   LINE      ECODE    ---       #294
      00FDE452H   LINE      ECODE    ---       #297
      00FDE452H   LINE      ECODE    ---       #312
      00FDE46AH   LINE      ECODE    ---       #313
      00FDE476H   LINE      ECODE    ---       #314
      00FDE47FH   LINE      ECODE    ---       #315
      00FDE487H   LINE      ECODE    ---       #316
      00FDE489H   LINE      ECODE    ---       #318
      00FDE489H   LINE      ECODE    ---       #319
      00FDE48DH   LINE      ECODE    ---       #320
      00FDE48FH   LINE      ECODE    ---       #321
      00FDE48FH   LINE      ECODE    ---       #323
      00FDE493H   LINE      ECODE    ---       #324
      ---         BLOCKEND  ---      ---       LVL=0

      00FDE494H   BLOCK     ECODE    ---       LVL=0
      00012B0FH   SYMBOL    XDATA    BYTE      addr
      00FDE494H   LINE      ECODE    ---       #326
      00FDE494H   LINE      ECODE    ---       #327
      00FDE494H   LINE      ECODE    ---       #330
      00FDE4D0H   LINE      ECODE    ---       #337
      00FDE4D4H   LINE      ECODE    ---       #338
      00FDE4D6H   LINE      ECODE    ---       #339
      00FDE4D6H   LINE      ECODE    ---       #341
      00FDE4DEH   LINE      ECODE    ---       #342
      00FDE4E9H   LINE      ECODE    ---       #343
      00FDE4F2H   LINE      ECODE    ---       #345
      00FDE4F8H   LINE      ECODE    ---       #346
      00FDE4FAH   LINE      ECODE    ---       #349
      00FDE500H   LINE      ECODE    ---       #350
      00FDE500H   LINE      ECODE    ---       #352
      00FDE504H   LINE      ECODE    ---       #353
      ---         BLOCKEND  ---      ---       LVL=0

      00FDE505H   BLOCK     ECODE    ---       LVL=0
      00FDE505H   LINE      ECODE    ---       #355
      00FDE505H   LINE      ECODE    ---       #357
      00FDE514H   LINE      ECODE    ---       #359
      00FDE518H   LINE      ECODE    ---       #360
      00FDE51BH   LINE      ECODE    ---       #361
      00FDE51BH   LINE      ECODE    ---       #363
      00FDE52DH   LINE      ECODE    ---       #365
      00FDE52DH   LINE      ECODE    ---       #366
      00FDE53FH   LINE      ECODE    ---       #367
      00FDE549H   LINE      ECODE    ---       #368
      00FDE54CH   LINE      ECODE    ---       #369
      00FDE54CH   LINE      ECODE    ---       #370
      00FDE55EH   LINE      ECODE    ---       #371
      00FDE568H   LINE      ECODE    ---       #372
      00FDE56AH   LINE      ECODE    ---       #373
      00FDE56AH   LINE      ECODE    ---       #374
      00FDE578H   LINE      ECODE    ---       #376
      00FDE578H   LINE      ECODE    ---       #377
      00FDE58AH   LINE      ECODE    ---       #378
      00FDE594H   LINE      ECODE    ---       #379
      00FDE596H   LINE      ECODE    ---       #380
      00FDE596H   LINE      ECODE    ---       #381
      00FDE5A8H   LINE      ECODE    ---       #382
      00FDE5B2H   LINE      ECODE    ---       #383
      00FDE5B4H   LINE      ECODE    ---       #384
L251 LINKER/LOCATER V4.66.93.0                                                        05/01/2026  15:28:45  PAGE 220


      00FDE5B4H   LINE      ECODE    ---       #385
      00FDE5C6H   LINE      ECODE    ---       #386
      00FDE5D0H   LINE      ECODE    ---       #387
      00FDE5D2H   LINE      ECODE    ---       #388
      00FDE5D2H   LINE      ECODE    ---       #389
      00FDE5D6H   LINE      ECODE    ---       #390
      00FDE5D8H   LINE      ECODE    ---       #391
      00FDE5D8H   LINE      ECODE    ---       #392
      00FDE5D8H   LINE      ECODE    ---       #393
      00FDE5D8H   LINE      ECODE    ---       #394
      00FDE5DCH   LINE      ECODE    ---       #395
      00FDE5DEH   LINE      ECODE    ---       #396
      00FDE5DEH   LINE      ECODE    ---       #398
      00FDE5EEH   LINE      ECODE    ---       #400
      00FDE5FAH   LINE      ECODE    ---       #401
      00FDE5FAH   LINE      ECODE    ---       #403
      00FDE5FEH   LINE      ECODE    ---       #404
      ---         BLOCKEND  ---      ---       LVL=0

      00FDE5FFH   BLOCK     ECODE    ---       LVL=0
      00FDE5FFH   LINE      ECODE    ---       #406
      00FDE5FFH   LINE      ECODE    ---       #408
      00FDE603H   LINE      ECODE    ---       #409
      ---         BLOCKEND  ---      ---       LVL=0

      00FDE604H   BLOCK     ECODE    ---       LVL=0
      00FDE604H   LINE      ECODE    ---       #411
      00FDE604H   LINE      ECODE    ---       #413
      00FDE63FH   LINE      ECODE    ---       #420
      00FDE643H   LINE      ECODE    ---       #421
      00FDE645H   LINE      ECODE    ---       #422
      00FDE645H   LINE      ECODE    ---       #424
      00FDE64EH   LINE      ECODE    ---       #426
      00FDE660H   LINE      ECODE    ---       #427
      00FDE66AH   LINE      ECODE    ---       #428
      00FDE66CH   LINE      ECODE    ---       #431
      00FDE67EH   LINE      ECODE    ---       #432
      00FDE688H   LINE      ECODE    ---       #433
      00FDE688H   LINE      ECODE    ---       #435
      00FDE68CH   LINE      ECODE    ---       #436
      ---         BLOCKEND  ---      ---       LVL=0

      00FDE68DH   BLOCK     ECODE    ---       LVL=0
      00FDE68DH   LINE      ECODE    ---       #438
      00FDE68DH   LINE      ECODE    ---       #440
      00FDE6C6H   LINE      ECODE    ---       #447
      00FDE6CAH   LINE      ECODE    ---       #448
      00FDE6CDH   LINE      ECODE    ---       #449
      00FDE6CDH   LINE      ECODE    ---       #451
      00FDE6D6H   LINE      ECODE    ---       #453
      00FDE6DCH   LINE      ECODE    ---       #454
      00FDE6E1H   LINE      ECODE    ---       #455
      00FDE6E6H   LINE      ECODE    ---       #457
      00FDE6EFH   LINE      ECODE    ---       #458
      00FDE6F8H   LINE      ECODE    ---       #459
      00FDE701H   LINE      ECODE    ---       #462
      00FDE70AH   LINE      ECODE    ---       #463
      00FDE713H   LINE      ECODE    ---       #464
      00FDE71CH   LINE      ECODE    ---       #482
      00FDE725H   LINE      ECODE    ---       #483
      00FDE72DH   LINE      ECODE    ---       #484
      00FDE736H   LINE      ECODE    ---       #506
      00FDE73EH   LINE      ECODE    ---       #507
      00FDE740H   LINE      ECODE    ---       #510
      00FDE746H   LINE      ECODE    ---       #511
L251 LINKER/LOCATER V4.66.93.0                                                        05/01/2026  15:28:45  PAGE 221


      00FDE74CH   LINE      ECODE    ---       #512
      00FDE752H   LINE      ECODE    ---       #513
      00FDE752H   LINE      ECODE    ---       #515
      00FDE756H   LINE      ECODE    ---       #516
      ---         BLOCKEND  ---      ---       LVL=0

      00FDE757H   BLOCK     ECODE    ---       LVL=0
      00FDE757H   LINE      ECODE    ---       #518
      00FDE757H   LINE      ECODE    ---       #520
      00FDE789H   LINE      ECODE    ---       #526
      00FDE78DH   LINE      ECODE    ---       #527
      00FDE78FH   LINE      ECODE    ---       #528
      00FDE78FH   LINE      ECODE    ---       #530
      00FDE7A1H   LINE      ECODE    ---       #531
      00FDE7ABH   LINE      ECODE    ---       #533
      00FDE7AFH   LINE      ECODE    ---       #534
      ---         BLOCKEND  ---      ---       LVL=0

      00FDE7B0H   BLOCK     ECODE    ---       LVL=0
      00FDE7B0H   LINE      ECODE    ---       #536
      00FDE7B0H   LINE      ECODE    ---       #538
      00FDE7E0H   LINE      ECODE    ---       #544
      00FDE7E4H   LINE      ECODE    ---       #545
      00FDE7E6H   LINE      ECODE    ---       #546
      00FDE7E6H   LINE      ECODE    ---       #548
      00FDE7EAH   LINE      ECODE    ---       #549
      ---         BLOCKEND  ---      ---       LVL=0

      00FDE7EBH   BLOCK     ECODE    ---       LVL=0
      00FDE7EBH   LINE      ECODE    ---       #551
      00FDE7EBH   LINE      ECODE    ---       #553
      00FDE7EFH   LINE      ECODE    ---       #554
      ---         BLOCKEND  ---      ---       LVL=0

      ---         MODULE    ---      ---       usb_req_vendor
      00FDFFF2H   PUBLIC    ECODE    ---       usb_req_vendor?
      000000D0H   SFRSYM    DATA     BYTE      PSW
      0000009DH   SFRSYM    DATA     BYTE      IRCBAND
      00000097H   SFRSYM    DATA     BYTE      AUXR2
      000000EAH   SFRSYM    DATA     BYTE      CKCON
      000000EFH   SFRSYM    DATA     BYTE      AUXINTIF
      000000FDH   SFRSYM    DATA     BYTE      S4CON
      000000ACH   SFRSYM    DATA     BYTE      S3CON
      0000009AH   SFRSYM    DATA     BYTE      S2CON
      000000B7H   SFRSYM    DATA     BYTE      IPH
      000000CDH   SFRSYM    DATA     BYTE      SPSTAT
      000000DDH   SFRSYM    DATA     BYTE      T4T3M
      000000C1H   SFRSYM    DATA     BYTE      WDT_CONTR
      000000DFH   SFRSYM    DATA     BYTE      IP3
      000000F4H   SFRSYM    DATA     BYTE      USBCON
      000000B5H   SFRSYM    DATA     BYTE      IP2
      000000FFH   SFRSYM    DATA     BYTE      RSTCFG
      000000E0H   SFRSYM    DATA     BYTE      ACC
      000000C7H   SFRSYM    DATA     BYTE      IAP_CONTR
      000000F9H   SFRSYM    DATA     BYTE      LINICR
      0000008EH   SFRSYM    DATA     BYTE      AUXR
      000000F0H   SFRSYM    DATA     BYTE      B
      000000AFH   SFRSYM    DATA     BYTE      IE2
      00000088H   SFRSYM    DATA     BYTE      TCON
      00000089H   SFRSYM    DATA     BYTE      TMOD
      00000098H   SFRSYM    DATA     BYTE      SCON
      00000087H   SFRSYM    DATA     BYTE      PCON
      000000BCH   SFRSYM    DATA     BYTE      ADC_CONTR
      000000D1H   SFRSYM    DATA     BYTE      PSW1
      000000E7H   SFRSYM    DATA     BYTE      CMPCR2
L251 LINKER/LOCATER V4.66.93.0                                                        05/01/2026  15:28:45  PAGE 222


      000000E6H   SFRSYM    DATA     BYTE      CMPCR1
      000000DEH   SFRSYM    DATA     BYTE      ADCCFG
      000000B8H   SFRSYM    DATA     BYTE      IP
      0000008FH   SFRSYM    DATA     BYTE      INTCLKO
      000000EEH   SFRSYM    DATA     BYTE      IP3H
      000000B6H   SFRSYM    DATA     BYTE      IP2H
      000000BFH   SFRSYM    DATA     BYTE      P_SW4
      000000A8H   SFRSYM    DATA     BYTE      IE
      000000BBH   SFRSYM    DATA     BYTE      P_SW3
      000000BAH   SFRSYM    DATA     BYTE      P_SW2
      000000A2H   SFRSYM    DATA     BYTE      P_SW1
      000000CEH   SFRSYM    DATA     BYTE      SPCTL
      000000F8H   SFRSYM    DATA     BYTE      P7
      000000E8H   SFRSYM    DATA     BYTE      P6
      000000C8H   SFRSYM    DATA     BYTE      P5
      000000C0H   SFRSYM    DATA     BYTE      P4
      000000ABH   SFRSYM    DATA     BYTE      WKTCH
      000000B0H   SFRSYM    DATA     BYTE      P3
      000000A0H   SFRSYM    DATA     BYTE      P2
      00000090H   SFRSYM    DATA     BYTE      P1
      00000080H   SFRSYM    DATA     BYTE      P0

      00FDFFF2H   BLOCK     ECODE    ---       LVL=0
      00FDFFF2H   LINE      ECODE    ---       #17
      00FDFFF2H   LINE      ECODE    ---       #19
      00FDFFF6H   LINE      ECODE    ---       #20
      ---         BLOCKEND  ---      ---       LVL=0

      ---         MODULE    ---      ---       util
      00FE30A6H   PUBLIC    ECODE    ---       reverse2?
      00FE3039H   PUBLIC    ECODE    ---       reverse4?
      000000D0H   SFRSYM    DATA     BYTE      PSW
      0000009DH   SFRSYM    DATA     BYTE      IRCBAND
      00000097H   SFRSYM    DATA     BYTE      AUXR2
      000000EAH   SFRSYM    DATA     BYTE      CKCON
      000000EFH   SFRSYM    DATA     BYTE      AUXINTIF
      000000FDH   SFRSYM    DATA     BYTE      S4CON
      000000ACH   SFRSYM    DATA     BYTE      S3CON
      0000009AH   SFRSYM    DATA     BYTE      S2CON
      000000B7H   SFRSYM    DATA     BYTE      IPH
      000000CDH   SFRSYM    DATA     BYTE      SPSTAT
      000000DDH   SFRSYM    DATA     BYTE      T4T3M
      000000C1H   SFRSYM    DATA     BYTE      WDT_CONTR
      000000DFH   SFRSYM    DATA     BYTE      IP3
      000000F4H   SFRSYM    DATA     BYTE      USBCON
      000000B5H   SFRSYM    DATA     BYTE      IP2
      000000FFH   SFRSYM    DATA     BYTE      RSTCFG
      000000E0H   SFRSYM    DATA     BYTE      ACC
      000000C7H   SFRSYM    DATA     BYTE      IAP_CONTR
      000000F9H   SFRSYM    DATA     BYTE      LINICR
      0000008EH   SFRSYM    DATA     BYTE      AUXR
      000000F0H   SFRSYM    DATA     BYTE      B
      000000AFH   SFRSYM    DATA     BYTE      IE2
      00000088H   SFRSYM    DATA     BYTE      TCON
      00000089H   SFRSYM    DATA     BYTE      TMOD
      00000098H   SFRSYM    DATA     BYTE      SCON
      00000087H   SFRSYM    DATA     BYTE      PCON
      000000BCH   SFRSYM    DATA     BYTE      ADC_CONTR
      000000D1H   SFRSYM    DATA     BYTE      PSW1
      000000E7H   SFRSYM    DATA     BYTE      CMPCR2
      000000E6H   SFRSYM    DATA     BYTE      CMPCR1
      000000DEH   SFRSYM    DATA     BYTE      ADCCFG
      000000B8H   SFRSYM    DATA     BYTE      IP
      0000008FH   SFRSYM    DATA     BYTE      INTCLKO
      000000EEH   SFRSYM    DATA     BYTE      IP3H
L251 LINKER/LOCATER V4.66.93.0                                                        05/01/2026  15:28:45  PAGE 223


      000000B6H   SFRSYM    DATA     BYTE      IP2H
      000000BFH   SFRSYM    DATA     BYTE      P_SW4
      000000A8H   SFRSYM    DATA     BYTE      IE
      000000BBH   SFRSYM    DATA     BYTE      P_SW3
      000000BAH   SFRSYM    DATA     BYTE      P_SW2
      000000A2H   SFRSYM    DATA     BYTE      P_SW1
      000000CEH   SFRSYM    DATA     BYTE      SPCTL
      000000F8H   SFRSYM    DATA     BYTE      P7
      000000E8H   SFRSYM    DATA     BYTE      P6
      000000C8H   SFRSYM    DATA     BYTE      P5
      000000C0H   SFRSYM    DATA     BYTE      P4
      000000ABH   SFRSYM    DATA     BYTE      WKTCH
      000000B0H   SFRSYM    DATA     BYTE      P3
      000000A0H   SFRSYM    DATA     BYTE      P2
      00000090H   SFRSYM    DATA     BYTE      P1
      00000080H   SFRSYM    DATA     BYTE      P0

      00FE3039H   BLOCK     ECODE    ---       LVL=0
      00012850H   SYMBOL    XDATA    DWORD     d
      00FE3043H   BLOCK     ECODE    NEAR LAB  LVL=1
      00012854H   SYMBOL    XDATA    DWORD     ret
      ---         BLOCKEND  ---      ---       LVL=1
      00FE3039H   LINE      ECODE    ---       #16
      00FE3043H   LINE      ECODE    ---       #17
      00FE3043H   LINE      ECODE    ---       #20
      00FE3059H   LINE      ECODE    ---       #21
      00FE306FH   LINE      ECODE    ---       #22
      00FE3085H   LINE      ECODE    ---       #23
      00FE309BH   LINE      ECODE    ---       #25
      00FE30A5H   LINE      ECODE    ---       #26
      ---         BLOCKEND  ---      ---       LVL=0

      00FE30A6H   BLOCK     ECODE    ---       LVL=0
      00012A6FH   SYMBOL    XDATA    WORD      w
      00FE30ACH   BLOCK     ECODE    NEAR LAB  LVL=1
      00012A71H   SYMBOL    XDATA    WORD      ret
      ---         BLOCKEND  ---      ---       LVL=1
      00FE30A6H   LINE      ECODE    ---       #28
      00FE30ACH   LINE      ECODE    ---       #29
      00FE30ACH   LINE      ECODE    ---       #32
      00FE30C2H   LINE      ECODE    ---       #33
      00FE30D8H   LINE      ECODE    ---       #35
      00FE30DEH   LINE      ECODE    ---       #36
      ---         BLOCKEND  ---      ---       LVL=0

      ---         MODULE    ---      ---       seekfree_assistant
      00FDAC9AH   PUBLIC    ECODE    ---       seekfree_assistant_camera_boundary_config?
      00FDAB4CH   PUBLIC    ECODE    ---       seekfree_assistant_camera_dot_send?
      00FDA9A4H   PUBLIC    ECODE    ---       seekfree_assistant_oscilloscope_send?
      00FDB442H   PUBLIC    ECODE    ---       seekfree_assistant_init?
      00FDA943H   PUBLIC    ECODE    ---       seekfree_assistant_camera_information_config?
      00FDB13BH   PUBLIC    ECODE    ---       seekfree_assistant_data_analysis?
      00FDA7DFH   PUBLIC    ECODE    ---       seekfree_assistant_camera_data_send?
      00FDB3F6H   PUBLIC    ECODE    ---       seekfree_assistant_camera_send?
      000110B2H   PUBLIC    XDATA    ---       seekfree_assistant_oscilloscope_data
      000110EDH   PUBLIC    XDATA    ---       seekfree_assistant_parameter_update_flag
      000110F5H   PUBLIC    XDATA    ---       seekfree_assistant_parameter
      000122D1H   PUBLIC    XDATA    BYTE      ?seekfree_assistant_camera_data_send??BYTE
      00012691H   PUBLIC    XDATA    BYTE      ?seekfree_assistant_camera_information_config??BYTE
      00011E2BH   PUBLIC    XDATA    BYTE      ?seekfree_assistant_camera_boundary_config??BYTE
      000000D0H   SFRSYM    DATA     BYTE      PSW
      0000009DH   SFRSYM    DATA     BYTE      IRCBAND
      00000097H   SFRSYM    DATA     BYTE      AUXR2
      000000EAH   SFRSYM    DATA     BYTE      CKCON
      000000EFH   SFRSYM    DATA     BYTE      AUXINTIF
L251 LINKER/LOCATER V4.66.93.0                                                        05/01/2026  15:28:45  PAGE 224


      000000FDH   SFRSYM    DATA     BYTE      S4CON
      000000ACH   SFRSYM    DATA     BYTE      S3CON
      0000009AH   SFRSYM    DATA     BYTE      S2CON
      000000B7H   SFRSYM    DATA     BYTE      IPH
      000000CDH   SFRSYM    DATA     BYTE      SPSTAT
      000000DDH   SFRSYM    DATA     BYTE      T4T3M
      000000C1H   SFRSYM    DATA     BYTE      WDT_CONTR
      000000DFH   SFRSYM    DATA     BYTE      IP3
      000000F4H   SFRSYM    DATA     BYTE      USBCON
      000000B5H   SFRSYM    DATA     BYTE      IP2
      000000FFH   SFRSYM    DATA     BYTE      RSTCFG
      000000E0H   SFRSYM    DATA     BYTE      ACC
      000000C7H   SFRSYM    DATA     BYTE      IAP_CONTR
      000000F9H   SFRSYM    DATA     BYTE      LINICR
      0000008EH   SFRSYM    DATA     BYTE      AUXR
      000000F0H   SFRSYM    DATA     BYTE      B
      000000AFH   SFRSYM    DATA     BYTE      IE2
      00000088H   SFRSYM    DATA     BYTE      TCON
      00000089H   SFRSYM    DATA     BYTE      TMOD
      00000098H   SFRSYM    DATA     BYTE      SCON
      00000087H   SFRSYM    DATA     BYTE      PCON
      000000BCH   SFRSYM    DATA     BYTE      ADC_CONTR
      000000D1H   SFRSYM    DATA     BYTE      PSW1
      000000E7H   SFRSYM    DATA     BYTE      CMPCR2
      000000E6H   SFRSYM    DATA     BYTE      CMPCR1
      000000DEH   SFRSYM    DATA     BYTE      ADCCFG
      000000B8H   SFRSYM    DATA     BYTE      IP
      0000008FH   SFRSYM    DATA     BYTE      INTCLKO
      000000EEH   SFRSYM    DATA     BYTE      IP3H
      000000B6H   SFRSYM    DATA     BYTE      IP2H
      000000BFH   SFRSYM    DATA     BYTE      P_SW4
      000000A8H   SFRSYM    DATA     BYTE      IE
      000000BBH   SFRSYM    DATA     BYTE      P_SW3
      000000BAH   SFRSYM    DATA     BYTE      P_SW2
      000000A2H   SFRSYM    DATA     BYTE      P_SW1
      000000CEH   SFRSYM    DATA     BYTE      SPCTL
      000000F8H   SFRSYM    DATA     BYTE      P7
      000000A8H.7 SFRSYM    DATA     BIT       EA
      000000E8H   SFRSYM    DATA     BYTE      P6
      000000C8H   SFRSYM    DATA     BYTE      P5
      000000C0H   SFRSYM    DATA     BYTE      P4
      000000ABH   SFRSYM    DATA     BYTE      WKTCH
      000000B0H   SFRSYM    DATA     BYTE      P3
      000000A0H   SFRSYM    DATA     BYTE      P2
      00000090H   SFRSYM    DATA     BYTE      P1
      00000080H   SFRSYM    DATA     BYTE      P0
      00FDA785H   SYMBOL    ECODE    ---       seekfree_assistant_sum
      000110AAH   SYMBOL    XDATA    ---       seekfree_assistant_camera_dot_data
      000110D6H   SYMBOL    XDATA    ---       seekfree_assistant_fifo
      00011115H   SYMBOL    XDATA    ---       seekfree_assistant_camera_buffer
      0001115FH   SYMBOL    XDATA    ---       seekfree_assistant_camera_data
      00011167H   SYMBOL    XDATA    ---       seekfree_assistant_buffer
      00FE656DH   SYMBOL    HCONST   ---       ?tpl?0001
      00FE6591H   SYMBOL    HCONST   ---       ?tpl?0002

      00FDA785H   BLOCK     ECODE    ---       LVL=0
      00012787H   SYMBOL    XDATA    ---       buffer
      0001278BH   SYMBOL    XDATA    DWORD     length
      00FDA799H   BLOCK     ECODE    NEAR LAB  LVL=1
      0001278FH   SYMBOL    XDATA    BYTE      temp_sum
      ---         BLOCKEND  ---      ---       LVL=1
      00FDA785H   LINE      ECODE    ---       #56
      00FDA799H   LINE      ECODE    ---       #57
      00FDA799H   LINE      ECODE    ---       #58
      00FDA79EH   LINE      ECODE    ---       #60
L251 LINKER/LOCATER V4.66.93.0                                                        05/01/2026  15:28:45  PAGE 225


      00FDA7A0H   LINE      ECODE    ---       #62
      00FDA7BDH   LINE      ECODE    ---       #63
      00FDA7DAH   LINE      ECODE    ---       #65
      00FDA7DEH   LINE      ECODE    ---       #66
      ---         BLOCKEND  ---      ---       LVL=0

      00FDA7DFH   BLOCK     ECODE    ---       LVL=0
      000122D1H   SYMBOL    XDATA    INT       camera_type
      000122D3H   SYMBOL    XDATA    ---       image_addr
      000122D7H   SYMBOL    XDATA    BYTE      boundary_num
      000122D8H   SYMBOL    XDATA    WORD      width
      000122DAH   SYMBOL    XDATA    WORD      height
      00FDA7F9H   BLOCK     ECODE    NEAR LAB  LVL=1
      000122DCH   SYMBOL    XDATA    DWORD     image_size
      ---         BLOCKEND  ---      ---       LVL=1
      00FDA7DFH   LINE      ECODE    ---       #78
      00FDA7F9H   LINE      ECODE    ---       #79
      00FDA7F9H   LINE      ECODE    ---       #80
      00FDA805H   LINE      ECODE    ---       #82
      00FDA80BH   LINE      ECODE    ---       #83
      00FDA811H   LINE      ECODE    ---       #84
      00FDA84AH   LINE      ECODE    ---       #86
      00FDA850H   LINE      ECODE    ---       #87
      00FDA870H   LINE      ECODE    ---       #88
      00FDA890H   LINE      ECODE    ---       #91
      00FDA8A8H   LINE      ECODE    ---       #94
      00FDA8BAH   LINE      ECODE    ---       #96
      00FDA8BAH   LINE      ECODE    ---       #98
      00FDA8DAH   LINE      ECODE    ---       #99
      00FDA8DCH   LINE      ECODE    ---       #101
      00FDA8DCH   LINE      ECODE    ---       #103
      00FDA8F6H   LINE      ECODE    ---       #104
      00FDA8F8H   LINE      ECODE    ---       #106
      00FDA8F8H   LINE      ECODE    ---       #108
      00FDA914H   LINE      ECODE    ---       #109
      00FDA914H   LINE      ECODE    ---       #110
      00FDA914H   LINE      ECODE    ---       #113
      00FDA922H   LINE      ECODE    ---       #115
      00FDA942H   LINE      ECODE    ---       #116
      ---         BLOCKEND  ---      ---       LVL=0

      00FDA943H   BLOCK     ECODE    ---       LVL=0
      00012691H   SYMBOL    XDATA    INT       camera_type
      00012693H   SYMBOL    XDATA    ---       image_addr
      00012697H   SYMBOL    XDATA    WORD      width
      00012699H   SYMBOL    XDATA    WORD      height
      00FDA943H   LINE      ECODE    ---       #129
      00FDA959H   LINE      ECODE    ---       #131
      00FDA95FH   LINE      ECODE    ---       #132
      00FDA965H   LINE      ECODE    ---       #134
      00FDA96BH   LINE      ECODE    ---       #136
      00FDA977H   LINE      ECODE    ---       #137
      00FDA98BH   LINE      ECODE    ---       #138
      00FDA997H   LINE      ECODE    ---       #139
      00FDA9A3H   LINE      ECODE    ---       #140
      ---         BLOCKEND  ---      ---       LVL=0

      00FDA9A4H   BLOCK     ECODE    ---       LVL=0
      00011B34H   SYMBOL    XDATA    ---       seekfree_assistant_oscilloscope
      00FDA9AEH   BLOCK     ECODE    NEAR LAB  LVL=1
      00011B38H   SYMBOL    XDATA    BYTE      packet_size
      00011B39H   SYMBOL    XDATA    BYTE      i
      00011B3AH   SYMBOL    XDATA    ---       temp_oscilloscope
      ---         BLOCKEND  ---      ---       LVL=1
      00FDA9A4H   LINE      ECODE    ---       #148
L251 LINKER/LOCATER V4.66.93.0                                                        05/01/2026  15:28:45  PAGE 226


      00FDA9AEH   LINE      ECODE    ---       #149
      00FDA9AEH   LINE      ECODE    ---       #150
      00FDA9B3H   LINE      ECODE    ---       #151
      00FDA9B8H   LINE      ECODE    ---       #152
      00FDA9CEH   LINE      ECODE    ---       #154
      00FDA9E5H   LINE      ECODE    ---       #157
      00FDA9EDH   LINE      ECODE    ---       #159
      00FDAA23H   LINE      ECODE    ---       #160
      00FDAA59H   LINE      ECODE    ---       #161
      00FDAA8FH   LINE      ECODE    ---       #162
      00FDAAC5H   LINE      ECODE    ---       #163
      00FDAAE1H   LINE      ECODE    ---       #166
      00FDAAE7H   LINE      ECODE    ---       #169
      00FDAB01H   LINE      ECODE    ---       #170
      00FDAB09H   LINE      ECODE    ---       #173
      00FDAB13H   LINE      ECODE    ---       #176
      00FDAB18H   LINE      ECODE    ---       #177
      00FDAB2FH   LINE      ECODE    ---       #181
      00FDAB4BH   LINE      ECODE    ---       #182
      ---         BLOCKEND  ---      ---       LVL=0

      00FDAB4CH   BLOCK     ECODE    ---       LVL=0
      000128AEH   SYMBOL    XDATA    ---       buffer
      00FDAB56H   BLOCK     ECODE    NEAR LAB  LVL=1
      000128B2H   SYMBOL    XDATA    BYTE      i
      000128B3H   SYMBOL    XDATA    WORD      dot_bytes
      ---         BLOCKEND  ---      ---       LVL=1
      00FDAB4CH   LINE      ECODE    ---       #184
      00FDAB56H   LINE      ECODE    ---       #185
      00FDAB56H   LINE      ECODE    ---       #187
      00FDAB5EH   LINE      ECODE    ---       #189
      00FDAB6AH   LINE      ECODE    ---       #190
      00FDAB8AH   LINE      ECODE    ---       #191
      00FDAB9CH   LINE      ECODE    ---       #193
      00FDABABH   LINE      ECODE    ---       #194
      00FDABABH   LINE      ECODE    ---       #197
      00FDABC3H   LINE      ECODE    ---       #199
      00FDABCBH   LINE      ECODE    ---       #202
      00FDABF0H   LINE      ECODE    ---       #204
      00FDAC25H   LINE      ECODE    ---       #205
      00FDAC25H   LINE      ECODE    ---       #208
      00FDAC4AH   LINE      ECODE    ---       #212
      00FDAC7FH   LINE      ECODE    ---       #213
      00FDAC99H   LINE      ECODE    ---       #215
      ---         BLOCKEND  ---      ---       LVL=0

      00FDAC9AH   BLOCK     ECODE    ---       LVL=0
      00011E2BH   SYMBOL    XDATA    INT       boundary_type
      00011E2DH   SYMBOL    XDATA    WORD      dot_num
      00011E2FH   SYMBOL    XDATA    ---       dot_x1
      00011E33H   SYMBOL    XDATA    ---       dot_x2
      00011E37H   SYMBOL    XDATA    ---       dot_x3
      00011E3BH   SYMBOL    XDATA    ---       dot_y1
      00011E3FH   SYMBOL    XDATA    ---       dot_y2
      00011E43H   SYMBOL    XDATA    ---       dot_y3
      00FDACB0H   BLOCK     ECODE    NEAR LAB  LVL=1
      00011E47H   SYMBOL    XDATA    BYTE      i
      00011E48H   SYMBOL    XDATA    BYTE      boundary_num
      00011E49H   SYMBOL    XDATA    BYTE      boundary_data_type
      ---         BLOCKEND  ---      ---       LVL=1
      00FDAC9AH   LINE      ECODE    ---       #233
      00FDACB0H   LINE      ECODE    ---       #234
      00FDACB0H   LINE      ECODE    ---       #235
      00FDACB5H   LINE      ECODE    ---       #236
      00FDACBAH   LINE      ECODE    ---       #237
L251 LINKER/LOCATER V4.66.93.0                                                        05/01/2026  15:28:45  PAGE 227


      00FDACBFH   LINE      ECODE    ---       #239
      00FDACDFH   LINE      ECODE    ---       #240
      00FDACE4H   LINE      ECODE    ---       #241
      00FDACEBH   LINE      ECODE    ---       #243
      00FDAD0AH   LINE      ECODE    ---       #244
      00FDAD29H   LINE      ECODE    ---       #245
      00FDAD40H   LINE      ECODE    ---       #247
      00FDAD5BH   LINE      ECODE    ---       #249
      00FDAD5BH   LINE      ECODE    ---       #251
      00FDAD69H   LINE      ECODE    ---       #253
      00FDAD74H   LINE      ECODE    ---       #254
      00FDAD7EH   LINE      ECODE    ---       #255
      00FDADAAH   LINE      ECODE    ---       #256
      00FDADAAH   LINE      ECODE    ---       #257
      00FDADB8H   LINE      ECODE    ---       #259
      00FDADC3H   LINE      ECODE    ---       #260
      00FDADCDH   LINE      ECODE    ---       #261
      00FDADF9H   LINE      ECODE    ---       #262
      00FDADF9H   LINE      ECODE    ---       #263
      00FDAE07H   LINE      ECODE    ---       #265
      00FDAE12H   LINE      ECODE    ---       #266
      00FDAE1CH   LINE      ECODE    ---       #267
      00FDAE48H   LINE      ECODE    ---       #268
      00FDAE48H   LINE      ECODE    ---       #270
      00FDAE59H   LINE      ECODE    ---       #272
      00FDAE5FH   LINE      ECODE    ---       #273
      00FDAE5FH   LINE      ECODE    ---       #274
      00FDAE62H   LINE      ECODE    ---       #276
      00FDAE62H   LINE      ECODE    ---       #278
      00FDAE70H   LINE      ECODE    ---       #280
      00FDAE7BH   LINE      ECODE    ---       #281
      00FDAE85H   LINE      ECODE    ---       #282
      00FDAEB1H   LINE      ECODE    ---       #283
      00FDAEB1H   LINE      ECODE    ---       #284
      00FDAEBFH   LINE      ECODE    ---       #286
      00FDAECAH   LINE      ECODE    ---       #287
      00FDAED4H   LINE      ECODE    ---       #288
      00FDAF00H   LINE      ECODE    ---       #289
      00FDAF00H   LINE      ECODE    ---       #290
      00FDAF0EH   LINE      ECODE    ---       #292
      00FDAF19H   LINE      ECODE    ---       #293
      00FDAF23H   LINE      ECODE    ---       #294
      00FDAF4FH   LINE      ECODE    ---       #295
      00FDAF4FH   LINE      ECODE    ---       #297
      00FDAF60H   LINE      ECODE    ---       #299
      00FDAF66H   LINE      ECODE    ---       #300
      00FDAF66H   LINE      ECODE    ---       #301
      00FDAF69H   LINE      ECODE    ---       #303
      00FDAF69H   LINE      ECODE    ---       #305
      00FDAF85H   LINE      ECODE    ---       #307
      00FDAF90H   LINE      ECODE    ---       #308
      00FDAF9AH   LINE      ECODE    ---       #309
      00FDAFC1H   LINE      ECODE    ---       #310
      00FDAFEDH   LINE      ECODE    ---       #311
      00FDAFEDH   LINE      ECODE    ---       #312
      00FDB009H   LINE      ECODE    ---       #314
      00FDB014H   LINE      ECODE    ---       #315
      00FDB01EH   LINE      ECODE    ---       #316
      00FDB045H   LINE      ECODE    ---       #317
      00FDB071H   LINE      ECODE    ---       #318
      00FDB071H   LINE      ECODE    ---       #319
      00FDB08DH   LINE      ECODE    ---       #321
      00FDB098H   LINE      ECODE    ---       #322
      00FDB0A2H   LINE      ECODE    ---       #323
      00FDB0C9H   LINE      ECODE    ---       #324
L251 LINKER/LOCATER V4.66.93.0                                                        05/01/2026  15:28:45  PAGE 228


      00FDB0F5H   LINE      ECODE    ---       #325
      00FDB0F5H   LINE      ECODE    ---       #327
      00FDB111H   LINE      ECODE    ---       #329
      00FDB117H   LINE      ECODE    ---       #330
      00FDB117H   LINE      ECODE    ---       #331
      00FDB117H   LINE      ECODE    ---       #333
      00FDB117H   LINE      ECODE    ---       #334
      00FDB117H   LINE      ECODE    ---       #336
      00FDB13AH   LINE      ECODE    ---       #337
      ---         BLOCKEND  ---      ---       LVL=0

      00FDB13BH   BLOCK     ECODE    ---       LVL=0
      00011280H   SYMBOL    XDATA    BYTE      temp_sum
      00011281H   SYMBOL    XDATA    DWORD     read_length
      00011285H   SYMBOL    XDATA    WORD      struct_len
      00011287H   SYMBOL    XDATA    ---       receive_packet
      0001128BH   SYMBOL    XDATA    ---       temp_buffer
      0001130BH   SYMBOL    XDATA    DWORD     i
      00000020H.5 SYMBOL    BIT      BIT       flag
      00FDB13BH   LINE      ECODE    ---       #344
      00FDB13BH   LINE      ECODE    ---       #345
      00FDB13BH   LINE      ECODE    ---       #347
      00FDB140H   LINE      ECODE    ---       #348
      00FDB14CH   LINE      ECODE    ---       #349
      00FDB156H   LINE      ECODE    ---       #353
      00FDB16CH   LINE      ECODE    ---       #355
      00FDB178H   LINE      ECODE    ---       #357
      00FDB17BH   LINE      ECODE    ---       #358
      00FDB17FH   LINE      ECODE    ---       #360
      00FDB182H   LINE      ECODE    ---       #363
      00FDB1A4H   LINE      ECODE    ---       #365
      00FDB1B2H   LINE      ECODE    ---       #368
      00FDB1DAH   LINE      ECODE    ---       #369
      00FDB1DAH   LINE      ECODE    ---       #371
      00FDB1DDH   LINE      ECODE    ---       #374
      00FDB1EBH   LINE      ECODE    ---       #375
      00FDB21BH   LINE      ECODE    ---       #376
      00FDB22BH   LINE      ECODE    ---       #379
      00FDB239H   LINE      ECODE    ---       #380
      00FDB23CH   LINE      ECODE    ---       #385
      00FDB24EH   LINE      ECODE    ---       #386
      00FDB263H   LINE      ECODE    ---       #387
      00FDB275H   LINE      ECODE    ---       #389
      00FDB291H   LINE      ECODE    ---       #394
      00FDB2CCH   LINE      ECODE    ---       #395
      00FDB307H   LINE      ECODE    ---       #396
      00FDB342H   LINE      ECODE    ---       #397
      00FDB376H   LINE      ECODE    ---       #398
      00FDB396H   LINE      ECODE    ---       #399
      00FDB398H   LINE      ECODE    ---       #402
      00FDB3A6H   LINE      ECODE    ---       #403
      00FDB3A6H   LINE      ECODE    ---       #404
      00FDB3A6H   LINE      ECODE    ---       #407
      00FDB3D4H   LINE      ECODE    ---       #408
      00FDB3F1H   LINE      ECODE    ---       #409
      00FDB3F5H   LINE      ECODE    ---       #410
      ---         BLOCKEND  ---      ---       LVL=0

      00FDB3F6H   BLOCK     ECODE    ---       LVL=0
      00FDB3F6H   LINE      ECODE    ---       #418
      00FDB3F6H   LINE      ECODE    ---       #421
      00FDB426H   LINE      ECODE    ---       #423
      00FDB435H   LINE      ECODE    ---       #425
      00FDB441H   LINE      ECODE    ---       #426
      ---         BLOCKEND  ---      ---       LVL=0
L251 LINKER/LOCATER V4.66.93.0                                                        05/01/2026  15:28:45  PAGE 229



      00FDB442H   BLOCK     ECODE    ---       LVL=0
      00FDB442H   LINE      ECODE    ---       #435
      00FDB442H   LINE      ECODE    ---       #437
      00FDB470H   LINE      ECODE    ---       #438
      ---         BLOCKEND  ---      ---       LVL=0

      ---         MODULE    ---      ---       seekfree_assistant_interface
      00FE31DAH   PUBLIC    ECODE    ---       seekfree_assistant_interface_init?
      00012858H   PUBLIC    XDATA    ---       seekfree_assistant_receive_callback
      0001285CH   PUBLIC    XDATA    ---       seekfree_assistant_transfer_callback
      000000D0H   SFRSYM    DATA     BYTE      PSW
      0000009DH   SFRSYM    DATA     BYTE      IRCBAND
      00000097H   SFRSYM    DATA     BYTE      AUXR2
      000000EAH   SFRSYM    DATA     BYTE      CKCON
      000000EFH   SFRSYM    DATA     BYTE      AUXINTIF
      000000FDH   SFRSYM    DATA     BYTE      S4CON
      000000ACH   SFRSYM    DATA     BYTE      S3CON
      0000009AH   SFRSYM    DATA     BYTE      S2CON
      000000B7H   SFRSYM    DATA     BYTE      IPH
      000000CDH   SFRSYM    DATA     BYTE      SPSTAT
      000000DDH   SFRSYM    DATA     BYTE      T4T3M
      000000C1H   SFRSYM    DATA     BYTE      WDT_CONTR
      000000DFH   SFRSYM    DATA     BYTE      IP3
      000000F4H   SFRSYM    DATA     BYTE      USBCON
      000000B5H   SFRSYM    DATA     BYTE      IP2
      000000FFH   SFRSYM    DATA     BYTE      RSTCFG
      000000E0H   SFRSYM    DATA     BYTE      ACC
      000000C7H   SFRSYM    DATA     BYTE      IAP_CONTR
      000000F9H   SFRSYM    DATA     BYTE      LINICR
      0000008EH   SFRSYM    DATA     BYTE      AUXR
      000000F0H   SFRSYM    DATA     BYTE      B
      000000AFH   SFRSYM    DATA     BYTE      IE2
      00000088H   SFRSYM    DATA     BYTE      TCON
      00000089H   SFRSYM    DATA     BYTE      TMOD
      00000098H   SFRSYM    DATA     BYTE      SCON
      00000087H   SFRSYM    DATA     BYTE      PCON
      000000BCH   SFRSYM    DATA     BYTE      ADC_CONTR
      000000D1H   SFRSYM    DATA     BYTE      PSW1
      000000E7H   SFRSYM    DATA     BYTE      CMPCR2
      000000E6H   SFRSYM    DATA     BYTE      CMPCR1
      000000DEH   SFRSYM    DATA     BYTE      ADCCFG
      000000B8H   SFRSYM    DATA     BYTE      IP
      0000008FH   SFRSYM    DATA     BYTE      INTCLKO
      000000EEH   SFRSYM    DATA     BYTE      IP3H
      000000B6H   SFRSYM    DATA     BYTE      IP2H
      000000BFH   SFRSYM    DATA     BYTE      P_SW4
      000000A8H   SFRSYM    DATA     BYTE      IE
      000000BBH   SFRSYM    DATA     BYTE      P_SW3
      000000BAH   SFRSYM    DATA     BYTE      P_SW2
      000000A2H   SFRSYM    DATA     BYTE      P_SW1
      000000CEH   SFRSYM    DATA     BYTE      SPCTL
      000000F8H   SFRSYM    DATA     BYTE      P7
      000000E8H   SFRSYM    DATA     BYTE      P6
      000000C8H   SFRSYM    DATA     BYTE      P5
      000000C0H   SFRSYM    DATA     BYTE      P4
      000000ABH   SFRSYM    DATA     BYTE      WKTCH
      000000B0H   SFRSYM    DATA     BYTE      P3
      000000A0H   SFRSYM    DATA     BYTE      P2
      00000090H   SFRSYM    DATA     BYTE      P1
      00000080H   SFRSYM    DATA     BYTE      P0

      00FE31DAH   BLOCK     ECODE    ---       LVL=0
      00012AF6H   SYMBOL    XDATA    INT       transfer_device
      00FE31DAH   LINE      ECODE    ---       #65
L251 LINKER/LOCATER V4.66.93.0                                                        05/01/2026  15:28:45  PAGE 230


      00FE31E0H   LINE      ECODE    ---       #67
      00FE31EEH   LINE      ECODE    ---       #69
      00FE31EEH   LINE      ECODE    ---       #71
      00FE3200H   LINE      ECODE    ---       #72
      00FE3212H   LINE      ECODE    ---       #73
      00FE3214H   LINE      ECODE    ---       #75
      00FE3214H   LINE      ECODE    ---       #79
      00FE3214H   LINE      ECODE    ---       #82
      00FE3214H   LINE      ECODE    ---       #86
      00FE3214H   LINE      ECODE    ---       #89
      00FE3214H   LINE      ECODE    ---       #91
      00FE3226H   LINE      ECODE    ---       #92
      00FE3238H   LINE      ECODE    ---       #93
      00FE3238H   LINE      ECODE    ---       #95
      00FE3238H   LINE      ECODE    ---       #99
      00FE3238H   LINE      ECODE    ---       #100
      00FE3238H   LINE      ECODE    ---       #101
      ---         BLOCKEND  ---      ---       LVL=0

      ---         MODULE    ---      ---       PD_ENC_SDI
      00FE23D5H   PUBLIC    ECODE    ---       encoder_update?
      00FE23B6H   PUBLIC    ECODE    ---       ENC_Init?
      00011D26H   PUBLIC    XDATA    FLOAT     speed_avl
      00011D2AH   PUBLIC    XDATA    FLOAT     speed_L
      00011D2EH   PUBLIC    XDATA    FLOAT     speed_R
      00011D32H   PUBLIC    XDATA    FLOAT     speed_avl_next
      00011D36H   PUBLIC    XDATA    FLOAT     speed_L_next
      00011D3AH   PUBLIC    XDATA    FLOAT     speed_R_next
      00011D3EH   PUBLIC    XDATA    FLOAT     lastspeed_L
      00011D42H   PUBLIC    XDATA    LONG      distance_text
      00011D46H   PUBLIC    XDATA    FLOAT     lastspeed_R
      000000D0H   SFRSYM    DATA     BYTE      PSW
      0000009DH   SFRSYM    DATA     BYTE      IRCBAND
      00000097H   SFRSYM    DATA     BYTE      AUXR2
      000000EAH   SFRSYM    DATA     BYTE      CKCON
      000000EFH   SFRSYM    DATA     BYTE      AUXINTIF
      000000FDH   SFRSYM    DATA     BYTE      S4CON
      000000ACH   SFRSYM    DATA     BYTE      S3CON
      0000009AH   SFRSYM    DATA     BYTE      S2CON
      000000B7H   SFRSYM    DATA     BYTE      IPH
      000000CDH   SFRSYM    DATA     BYTE      SPSTAT
      000000DDH   SFRSYM    DATA     BYTE      T4T3M
      000000C1H   SFRSYM    DATA     BYTE      WDT_CONTR
      000000DFH   SFRSYM    DATA     BYTE      IP3
      000000F4H   SFRSYM    DATA     BYTE      USBCON
      000000B5H   SFRSYM    DATA     BYTE      IP2
      000000FFH   SFRSYM    DATA     BYTE      RSTCFG
      000000E0H   SFRSYM    DATA     BYTE      ACC
      000000C7H   SFRSYM    DATA     BYTE      IAP_CONTR
      000000F9H   SFRSYM    DATA     BYTE      LINICR
      0000008EH   SFRSYM    DATA     BYTE      AUXR
      000000F0H   SFRSYM    DATA     BYTE      B
      000000AFH   SFRSYM    DATA     BYTE      IE2
      00000088H   SFRSYM    DATA     BYTE      TCON
      00000089H   SFRSYM    DATA     BYTE      TMOD
      00000098H   SFRSYM    DATA     BYTE      SCON
      00000087H   SFRSYM    DATA     BYTE      PCON
      000000BCH   SFRSYM    DATA     BYTE      ADC_CONTR
      000000D1H   SFRSYM    DATA     BYTE      PSW1
      000000E7H   SFRSYM    DATA     BYTE      CMPCR2
      000000E6H   SFRSYM    DATA     BYTE      CMPCR1
      000000DEH   SFRSYM    DATA     BYTE      ADCCFG
      000000B8H   SFRSYM    DATA     BYTE      IP
      0000008FH   SFRSYM    DATA     BYTE      INTCLKO
      000000EEH   SFRSYM    DATA     BYTE      IP3H
L251 LINKER/LOCATER V4.66.93.0                                                        05/01/2026  15:28:45  PAGE 231


      000000B6H   SFRSYM    DATA     BYTE      IP2H
      000000BFH   SFRSYM    DATA     BYTE      P_SW4
      000000A8H   SFRSYM    DATA     BYTE      IE
      000000BBH   SFRSYM    DATA     BYTE      P_SW3
      000000BAH   SFRSYM    DATA     BYTE      P_SW2
      000000A2H   SFRSYM    DATA     BYTE      P_SW1
      000000CEH   SFRSYM    DATA     BYTE      SPCTL
      000000F8H   SFRSYM    DATA     BYTE      P7
      000000E8H   SFRSYM    DATA     BYTE      P6
      000000C8H   SFRSYM    DATA     BYTE      P5
      000000C0H   SFRSYM    DATA     BYTE      P4
      000000ABH   SFRSYM    DATA     BYTE      WKTCH
      000000B0H   SFRSYM    DATA     BYTE      P3
      000000A0H   SFRSYM    DATA     BYTE      P2
      00000090H   SFRSYM    DATA     BYTE      P1
      00000080H   SFRSYM    DATA     BYTE      P0

      00FE23B6H   BLOCK     ECODE    ---       LVL=0
      00FE23B6H   LINE      ECODE    ---       #25
      00FE23B6H   LINE      ECODE    ---       #27
      00FE23C4H   LINE      ECODE    ---       #28
      00FE23D4H   LINE      ECODE    ---       #32
      ---         BLOCKEND  ---      ---       LVL=0

      00FE23D5H   BLOCK     ECODE    ---       LVL=0
      00FE23D5H   LINE      ECODE    ---       #41
      00FE23D5H   LINE      ECODE    ---       #44
      00FE23FBH   LINE      ECODE    ---       #45
      00FE2427H   LINE      ECODE    ---       #47
      00FE242FH   LINE      ECODE    ---       #48
      00FE2435H   LINE      ECODE    ---       #50
      00FE249BH   LINE      ECODE    ---       #51
      00FE2501H   LINE      ECODE    ---       #52
      00FE2515H   LINE      ECODE    ---       #53
      00FE2529H   LINE      ECODE    ---       #55
      00FE2555H   LINE      ECODE    ---       #57
      00FE2578H   LINE      ECODE    ---       #58
      ---         BLOCKEND  ---      ---       LVL=0

      ---         MODULE    ---      ---       Motor
      00FE1DB8H   PUBLIC    ECODE    ---       Motor_Init?
      00FE1FADH   PUBLIC    ECODE    ---       Motor_fuya?
      00FE1F2DH   PUBLIC    ECODE    ---       Motor_L?
      00FE1EADH   PUBLIC    ECODE    ---       Motor_R?
      000129C6H   PUBLIC    XDATA    INT       fy_duty
      000129C8H   PUBLIC    XDATA    CHAR      dir
      000129C9H   PUBLIC    XDATA    INT       duty
      000000D0H   SFRSYM    DATA     BYTE      PSW
      0000009DH   SFRSYM    DATA     BYTE      IRCBAND
      00000097H   SFRSYM    DATA     BYTE      AUXR2
      000000EAH   SFRSYM    DATA     BYTE      CKCON
      000000EFH   SFRSYM    DATA     BYTE      AUXINTIF
      000000FDH   SFRSYM    DATA     BYTE      S4CON
      000000ACH   SFRSYM    DATA     BYTE      S3CON
      0000009AH   SFRSYM    DATA     BYTE      S2CON
      000000B7H   SFRSYM    DATA     BYTE      IPH
      000000CDH   SFRSYM    DATA     BYTE      SPSTAT
      000000DDH   SFRSYM    DATA     BYTE      T4T3M
      000000C1H   SFRSYM    DATA     BYTE      WDT_CONTR
      000000DFH   SFRSYM    DATA     BYTE      IP3
      000000F4H   SFRSYM    DATA     BYTE      USBCON
      000000B5H   SFRSYM    DATA     BYTE      IP2
      000000FFH   SFRSYM    DATA     BYTE      RSTCFG
      000000E0H   SFRSYM    DATA     BYTE      ACC
      000000C7H   SFRSYM    DATA     BYTE      IAP_CONTR
L251 LINKER/LOCATER V4.66.93.0                                                        05/01/2026  15:28:45  PAGE 232


      000000F9H   SFRSYM    DATA     BYTE      LINICR
      0000008EH   SFRSYM    DATA     BYTE      AUXR
      000000F0H   SFRSYM    DATA     BYTE      B
      000000AFH   SFRSYM    DATA     BYTE      IE2
      00000088H   SFRSYM    DATA     BYTE      TCON
      00000089H   SFRSYM    DATA     BYTE      TMOD
      00000098H   SFRSYM    DATA     BYTE      SCON
      00000087H   SFRSYM    DATA     BYTE      PCON
      000000BCH   SFRSYM    DATA     BYTE      ADC_CONTR
      000000D1H   SFRSYM    DATA     BYTE      PSW1
      000000E7H   SFRSYM    DATA     BYTE      CMPCR2
      000000E6H   SFRSYM    DATA     BYTE      CMPCR1
      000000DEH   SFRSYM    DATA     BYTE      ADCCFG
      000000B8H   SFRSYM    DATA     BYTE      IP
      0000008FH   SFRSYM    DATA     BYTE      INTCLKO
      000000EEH   SFRSYM    DATA     BYTE      IP3H
      000000B6H   SFRSYM    DATA     BYTE      IP2H
      000000BFH   SFRSYM    DATA     BYTE      P_SW4
      000000A8H   SFRSYM    DATA     BYTE      IE
      000000BBH   SFRSYM    DATA     BYTE      P_SW3
      000000BAH   SFRSYM    DATA     BYTE      P_SW2
      000000A2H   SFRSYM    DATA     BYTE      P_SW1
      000000CEH   SFRSYM    DATA     BYTE      SPCTL
      000000F8H   SFRSYM    DATA     BYTE      P7
      000000E8H   SFRSYM    DATA     BYTE      P6
      000000C8H   SFRSYM    DATA     BYTE      P5
      000000C0H   SFRSYM    DATA     BYTE      P4
      000000ABH   SFRSYM    DATA     BYTE      WKTCH
      000000B0H   SFRSYM    DATA     BYTE      P3
      000000A0H   SFRSYM    DATA     BYTE      P2
      00000090H   SFRSYM    DATA     BYTE      P1
      00000080H   SFRSYM    DATA     BYTE      P0

      00FE1DB8H   BLOCK     ECODE    ---       LVL=0
      00FE1DB8H   LINE      ECODE    ---       #26
      00FE1DB8H   LINE      ECODE    ---       #29
      00FE1DC9H   LINE      ECODE    ---       #30
      00FE1DDAH   LINE      ECODE    ---       #35
      00FE1DECH   LINE      ECODE    ---       #36
      00FE1E04H   LINE      ECODE    ---       #38
      00FE1E16H   LINE      ECODE    ---       #39
      00FE1E2EH   LINE      ECODE    ---       #41
      00FE1E40H   LINE      ECODE    ---       #42
      00FE1E58H   LINE      ECODE    ---       #43
      00FE1E76H   LINE      ECODE    ---       #44
      00FE1E88H   LINE      ECODE    ---       #45
      00FE1E9AH   LINE      ECODE    ---       #46
      00FE1EACH   LINE      ECODE    ---       #48
      ---         BLOCKEND  ---      ---       LVL=0

      00FE1EADH   BLOCK     ECODE    ---       LVL=0
      00012AF8H   SYMBOL    XDATA    INT       duty
      00FE1EADH   LINE      ECODE    ---       #50
      00FE1EB3H   LINE      ECODE    ---       #52
      00FE1EC1H   LINE      ECODE    ---       #54
      00FE1ECBH   LINE      ECODE    ---       #55
      00FE1ECBH   LINE      ECODE    ---       #56
      00FE1ED9H   LINE      ECODE    ---       #58
      00FE1EE3H   LINE      ECODE    ---       #59
      00FE1EE3H   LINE      ECODE    ---       #61
      00FE1EEFH   LINE      ECODE    ---       #63
      00FE1EF9H   LINE      ECODE    ---       #64
      00FE1F0BH   LINE      ECODE    ---       #65
      00FE1F0DH   LINE      ECODE    ---       #68
      00FE1F16H   LINE      ECODE    ---       #69
L251 LINKER/LOCATER V4.66.93.0                                                        05/01/2026  15:28:45  PAGE 233


      00FE1F2CH   LINE      ECODE    ---       #70
      00FE1F2CH   LINE      ECODE    ---       #72
      ---         BLOCKEND  ---      ---       LVL=0

      00FE1F2DH   BLOCK     ECODE    ---       LVL=0
      00012AFAH   SYMBOL    XDATA    INT       duty
      00FE1F2DH   LINE      ECODE    ---       #73
      00FE1F33H   LINE      ECODE    ---       #75
      00FE1F41H   LINE      ECODE    ---       #77
      00FE1F4BH   LINE      ECODE    ---       #78
      00FE1F4BH   LINE      ECODE    ---       #79
      00FE1F59H   LINE      ECODE    ---       #81
      00FE1F63H   LINE      ECODE    ---       #82
      00FE1F63H   LINE      ECODE    ---       #84
      00FE1F6FH   LINE      ECODE    ---       #86
      00FE1F79H   LINE      ECODE    ---       #87
      00FE1F8BH   LINE      ECODE    ---       #88
      00FE1F8DH   LINE      ECODE    ---       #91
      00FE1F96H   LINE      ECODE    ---       #92
      00FE1FACH   LINE      ECODE    ---       #93
      00FE1FACH   LINE      ECODE    ---       #95
      ---         BLOCKEND  ---      ---       LVL=0

      00FE1FADH   BLOCK     ECODE    ---       LVL=0
      00FE1FADH   LINE      ECODE    ---       #96
      00FE1FADH   LINE      ECODE    ---       #99
      00FE1FB7H   LINE      ECODE    ---       #100
      00FE1FD7H   LINE      ECODE    ---       #102
      00FE1FE0H   LINE      ECODE    ---       #104
      00FE1FEFH   LINE      ECODE    ---       #105
      00FE1FFDH   LINE      ECODE    ---       #106
      00FE2007H   LINE      ECODE    ---       #109
      00FE2007H   LINE      ECODE    ---       #110
      ---         BLOCKEND  ---      ---       LVL=0

      ---         MODULE    ---      ---       ADC
      00FDC84EH   PUBLIC    ECODE    ---       my_ADC_Init?
      00FDC87FH   PUBLIC    ECODE    ---       adc_sample?
      00FDD063H   PUBLIC    ECODE    ---       debug_adc?
      00FDCAB0H   PUBLIC    ECODE    ---       adc_mid_sample?
      00FDCB69H   PUBLIC    ECODE    ---       siai_adc_all_sample?
      00FDCBCEH   PUBLIC    ECODE    ---       adc_normalizing?
      00FDCA4EH   PUBLIC    ECODE    ---       adc_sample_a?
      00FDC966H   PUBLIC    ECODE    ---       adc_sample_b?
      00FDCD27H   PUBLIC    ECODE    ---       adc_v_sample?
      00FDCDFAH   PUBLIC    ECODE    ---       adc_v_sample_2?
      00FDCEBDH   PUBLIC    ECODE    ---       adc_v_sample_3?
      00FDCF90H   PUBLIC    ECODE    ---       adc_v_sample_4?
      000116F9H   PUBLIC    XDATA    FLOAT     LM
      000116FDH   PUBLIC    XDATA    FLOAT     RM
      00011701H   PUBLIC    XDATA    FLOAT     L
      00011705H   PUBLIC    XDATA    FLOAT     R
      00011709H   PUBLIC    XDATA    BYTE      channel_index
      0001170AH   PUBLIC    XDATA    ---       ADC_temp
      0001171AH   PUBLIC    XDATA    ---       channel_list
      000000D0H   SFRSYM    DATA     BYTE      PSW
      0000009DH   SFRSYM    DATA     BYTE      IRCBAND
      00000097H   SFRSYM    DATA     BYTE      AUXR2
      000000EAH   SFRSYM    DATA     BYTE      CKCON
      000000EFH   SFRSYM    DATA     BYTE      AUXINTIF
      000000FDH   SFRSYM    DATA     BYTE      S4CON
      000000ACH   SFRSYM    DATA     BYTE      S3CON
      0000009AH   SFRSYM    DATA     BYTE      S2CON
      000000B7H   SFRSYM    DATA     BYTE      IPH
      000000CDH   SFRSYM    DATA     BYTE      SPSTAT
L251 LINKER/LOCATER V4.66.93.0                                                        05/01/2026  15:28:45  PAGE 234


      000000DDH   SFRSYM    DATA     BYTE      T4T3M
      000000C1H   SFRSYM    DATA     BYTE      WDT_CONTR
      000000DFH   SFRSYM    DATA     BYTE      IP3
      000000F4H   SFRSYM    DATA     BYTE      USBCON
      000000B5H   SFRSYM    DATA     BYTE      IP2
      000000FFH   SFRSYM    DATA     BYTE      RSTCFG
      000000E0H   SFRSYM    DATA     BYTE      ACC
      000000C7H   SFRSYM    DATA     BYTE      IAP_CONTR
      000000F9H   SFRSYM    DATA     BYTE      LINICR
      0000008EH   SFRSYM    DATA     BYTE      AUXR
      000000F0H   SFRSYM    DATA     BYTE      B
      000000AFH   SFRSYM    DATA     BYTE      IE2
      00000088H   SFRSYM    DATA     BYTE      TCON
      00000089H   SFRSYM    DATA     BYTE      TMOD
      00000098H   SFRSYM    DATA     BYTE      SCON
      00000087H   SFRSYM    DATA     BYTE      PCON
      000000BCH   SFRSYM    DATA     BYTE      ADC_CONTR
      000000D1H   SFRSYM    DATA     BYTE      PSW1
      000000E7H   SFRSYM    DATA     BYTE      CMPCR2
      000000E6H   SFRSYM    DATA     BYTE      CMPCR1
      000000DEH   SFRSYM    DATA     BYTE      ADCCFG
      000000B8H   SFRSYM    DATA     BYTE      IP
      0000008FH   SFRSYM    DATA     BYTE      INTCLKO
      000000EEH   SFRSYM    DATA     BYTE      IP3H
      000000B6H   SFRSYM    DATA     BYTE      IP2H
      000000BFH   SFRSYM    DATA     BYTE      P_SW4
      000000A8H   SFRSYM    DATA     BYTE      IE
      000000BBH   SFRSYM    DATA     BYTE      P_SW3
      000000BAH   SFRSYM    DATA     BYTE      P_SW2
      000000A2H   SFRSYM    DATA     BYTE      P_SW1
      000000CEH   SFRSYM    DATA     BYTE      SPCTL
      000000F8H   SFRSYM    DATA     BYTE      P7
      000000E8H   SFRSYM    DATA     BYTE      P6
      000000C8H   SFRSYM    DATA     BYTE      P5
      000000C0H   SFRSYM    DATA     BYTE      P4
      000000ABH   SFRSYM    DATA     BYTE      WKTCH
      000000B0H   SFRSYM    DATA     BYTE      P3
      000000A0H   SFRSYM    DATA     BYTE      P2
      00000090H   SFRSYM    DATA     BYTE      P1
      00000080H   SFRSYM    DATA     BYTE      P0

      00FDC84EH   BLOCK     ECODE    ---       LVL=0
      00FDC84EH   LINE      ECODE    ---       #22
      00FDC84EH   LINE      ECODE    ---       #24
      00FDC85AH   LINE      ECODE    ---       #25
      00FDC866H   LINE      ECODE    ---       #26
      00FDC872H   LINE      ECODE    ---       #27
      00FDC87EH   LINE      ECODE    ---       #28
      ---         BLOCKEND  ---      ---       LVL=0

      00FDC87FH   BLOCK     ECODE    ---       LVL=0
      000125D1H   SYMBOL    XDATA    INT       ch
      00FDC885H   BLOCK     ECODE    NEAR LAB  LVL=1
      000125D3H   SYMBOL    XDATA    WORD      temp
      000125D5H   SYMBOL    XDATA    WORD      sum
      000125D7H   SYMBOL    XDATA    WORD      max
      000125D9H   SYMBOL    XDATA    WORD      min
      000125DBH   SYMBOL    XDATA    BYTE      i
      ---         BLOCKEND  ---      ---       LVL=1
      00FDC87FH   LINE      ECODE    ---       #31
      00FDC885H   LINE      ECODE    ---       #32
      00FDC885H   LINE      ECODE    ---       #33
      00FDC88DH   LINE      ECODE    ---       #37
      00FDC89DH   LINE      ECODE    ---       #38
      00FDC8A9H   LINE      ECODE    ---       #39
L251 LINKER/LOCATER V4.66.93.0                                                        05/01/2026  15:28:45  PAGE 235


      00FDC8B5H   LINE      ECODE    ---       #40
      00FDC8C6H   LINE      ECODE    ---       #42
      00FDC8CDH   LINE      ECODE    ---       #44
      00FDC8DDH   LINE      ECODE    ---       #45
      00FDC8EDH   LINE      ECODE    ---       #47
      00FDC8F9H   LINE      ECODE    ---       #48
      00FDC8F9H   LINE      ECODE    ---       #49
      00FDC909H   LINE      ECODE    ---       #51
      00FDC915H   LINE      ECODE    ---       #52
      00FDC915H   LINE      ECODE    ---       #53
      00FDC926H   LINE      ECODE    ---       #54
      00FDC93DH   LINE      ECODE    ---       #56
      00FDC95FH   LINE      ECODE    ---       #58
      00FDC965H   LINE      ECODE    ---       #59
      ---         BLOCKEND  ---      ---       LVL=0

      00FDC966H   BLOCK     ECODE    ---       LVL=0
      000125DCH   SYMBOL    XDATA    INT       ch
      00FDC96CH   BLOCK     ECODE    NEAR LAB  LVL=1
      000125DEH   SYMBOL    XDATA    WORD      temp
      000125E0H   SYMBOL    XDATA    WORD      sum
      000125E2H   SYMBOL    XDATA    WORD      max
      000125E4H   SYMBOL    XDATA    WORD      min
      000125E6H   SYMBOL    XDATA    BYTE      i
      ---         BLOCKEND  ---      ---       LVL=1
      00FDC966H   LINE      ECODE    ---       #61
      00FDC96CH   LINE      ECODE    ---       #62
      00FDC96CH   LINE      ECODE    ---       #63
      00FDC974H   LINE      ECODE    ---       #67
      00FDC984H   LINE      ECODE    ---       #68
      00FDC990H   LINE      ECODE    ---       #69
      00FDC99CH   LINE      ECODE    ---       #70
      00FDC9ADH   LINE      ECODE    ---       #72
      00FDC9B5H   LINE      ECODE    ---       #74
      00FDC9C5H   LINE      ECODE    ---       #75
      00FDC9D5H   LINE      ECODE    ---       #77
      00FDC9E1H   LINE      ECODE    ---       #78
      00FDC9E1H   LINE      ECODE    ---       #79
      00FDC9F1H   LINE      ECODE    ---       #81
      00FDC9FDH   LINE      ECODE    ---       #82
      00FDC9FDH   LINE      ECODE    ---       #83
      00FDCA0EH   LINE      ECODE    ---       #84
      00FDCA25H   LINE      ECODE    ---       #86
      00FDCA47H   LINE      ECODE    ---       #88
      00FDCA4DH   LINE      ECODE    ---       #89
      ---         BLOCKEND  ---      ---       LVL=0

      00FDCA4EH   BLOCK     ECODE    ---       LVL=0
      00012237H   SYMBOL    XDATA    INT       ch
      00FDCA54H   BLOCK     ECODE    NEAR LAB  LVL=1
      00012239H   SYMBOL    XDATA    BYTE      i
      0001223AH   SYMBOL    XDATA    ---       arr
      ---         BLOCKEND  ---      ---       LVL=1
      00FDCA4EH   LINE      ECODE    ---       #91
      00FDCA54H   LINE      ECODE    ---       #92
      00FDCA54H   LINE      ECODE    ---       #96
      00FDCA5BH   LINE      ECODE    ---       #98
      00FDCA80H   LINE      ECODE    ---       #99
      00FDCA97H   LINE      ECODE    ---       #101
      00FDCAA9H   LINE      ECODE    ---       #102
      00FDCAAFH   LINE      ECODE    ---       #103
      ---         BLOCKEND  ---      ---       LVL=0

      00FDCAB0H   BLOCK     ECODE    ---       LVL=0
      0001269BH   SYMBOL    XDATA    INT       ch
L251 LINKER/LOCATER V4.66.93.0                                                        05/01/2026  15:28:45  PAGE 236


      00FDCAB6H   BLOCK     ECODE    NEAR LAB  LVL=1
      0001269DH   SYMBOL    XDATA    WORD      i
      0001269FH   SYMBOL    XDATA    WORD      j
      000126A1H   SYMBOL    XDATA    WORD      k
      000126A3H   SYMBOL    XDATA    WORD      tmp
      ---         BLOCKEND  ---      ---       LVL=1
      00FDCAB0H   LINE      ECODE    ---       #105
      00FDCAB6H   LINE      ECODE    ---       #106
      00FDCAB6H   LINE      ECODE    ---       #109
      00FDCAC6H   LINE      ECODE    ---       #110
      00FDCAD6H   LINE      ECODE    ---       #111
      00FDCAE6H   LINE      ECODE    ---       #113
      00FDCAF6H   LINE      ECODE    ---       #115
      00FDCB02H   LINE      ECODE    ---       #116
      00FDCB0EH   LINE      ECODE    ---       #117
      00FDCB1AH   LINE      ECODE    ---       #118
      00FDCB1AH   LINE      ECODE    ---       #119
      00FDCB2AH   LINE      ECODE    ---       #121
      00FDCB36H   LINE      ECODE    ---       #122
      00FDCB38H   LINE      ECODE    ---       #123
      00FDCB48H   LINE      ECODE    ---       #125
      00FDCB54H   LINE      ECODE    ---       #126
      00FDCB56H   LINE      ECODE    ---       #129
      00FDCB62H   LINE      ECODE    ---       #130
      00FDCB62H   LINE      ECODE    ---       #131
      00FDCB68H   LINE      ECODE    ---       #132
      ---         BLOCKEND  ---      ---       LVL=0

      00FDCB69H   BLOCK     ECODE    ---       LVL=0
      00FDCB69H   LINE      ECODE    ---       #134
      00FDCB69H   LINE      ECODE    ---       #136
      00FDCB82H   LINE      ECODE    ---       #137
      00FDCB9BH   LINE      ECODE    ---       #138
      00FDCBB4H   LINE      ECODE    ---       #139
      00FDCBCDH   LINE      ECODE    ---       #140
      ---         BLOCKEND  ---      ---       LVL=0

      00FDCBCEH   BLOCK     ECODE    ---       LVL=0
      00FDCBCEH   LINE      ECODE    ---       #142
      00FDCBCEH   LINE      ECODE    ---       #151
      00FDCC24H   LINE      ECODE    ---       #152
      00FDCC7AH   LINE      ECODE    ---       #154
      00FDCCD0H   LINE      ECODE    ---       #155
      00FDCD26H   LINE      ECODE    ---       #178
      ---         BLOCKEND  ---      ---       LVL=0

      00FDCD27H   BLOCK     ECODE    ---       LVL=0
      00012A73H   SYMBOL    XDATA    FLOAT     v_next
      00FDCD31H   BLOCK     ECODE    NEAR LAB  LVL=1
      00011722H   SYMBOL    XDATA    FLOAT     v
      00011726H   SYMBOL    XDATA    FLOAT     last_v
      ---         BLOCKEND  ---      ---       LVL=1
      00FDCD27H   LINE      ECODE    ---       #181
      00FDCD31H   LINE      ECODE    ---       #182
      00FDCD31H   LINE      ECODE    ---       #184
      00FDCD45H   LINE      ECODE    ---       #185
      00FDCD75H   LINE      ECODE    ---       #187
      00FDCDDBH   LINE      ECODE    ---       #188
      00FDCDEFH   LINE      ECODE    ---       #190
      00FDCDF9H   LINE      ECODE    ---       #191
      ---         BLOCKEND  ---      ---       LVL=0

      00FDCDFAH   BLOCK     ECODE    ---       LVL=0
      00012A77H   SYMBOL    XDATA    FLOAT     v_next
      00FDCE04H   BLOCK     ECODE    NEAR LAB  LVL=1
L251 LINKER/LOCATER V4.66.93.0                                                        05/01/2026  15:28:45  PAGE 237


      0001172AH   SYMBOL    XDATA    FLOAT     v
      0001172EH   SYMBOL    XDATA    FLOAT     last_v
      ---         BLOCKEND  ---      ---       LVL=1
      00FDCDFAH   LINE      ECODE    ---       #193
      00FDCE04H   LINE      ECODE    ---       #194
      00FDCE04H   LINE      ECODE    ---       #196
      00FDCE18H   LINE      ECODE    ---       #197
      00FDCE48H   LINE      ECODE    ---       #199
      00FDCE9EH   LINE      ECODE    ---       #200
      00FDCEB2H   LINE      ECODE    ---       #202
      00FDCEBCH   LINE      ECODE    ---       #203
      ---         BLOCKEND  ---      ---       LVL=0

      00FDCEBDH   BLOCK     ECODE    ---       LVL=0
      00012A7BH   SYMBOL    XDATA    FLOAT     v_next
      00FDCEC7H   BLOCK     ECODE    NEAR LAB  LVL=1
      00011732H   SYMBOL    XDATA    FLOAT     v
      00011736H   SYMBOL    XDATA    FLOAT     last_v
      ---         BLOCKEND  ---      ---       LVL=1
      00FDCEBDH   LINE      ECODE    ---       #205
      00FDCEC7H   LINE      ECODE    ---       #206
      00FDCEC7H   LINE      ECODE    ---       #208
      00FDCEDBH   LINE      ECODE    ---       #209
      00FDCF0BH   LINE      ECODE    ---       #211
      00FDCF71H   LINE      ECODE    ---       #212
      00FDCF85H   LINE      ECODE    ---       #214
      00FDCF8FH   LINE      ECODE    ---       #215
      ---         BLOCKEND  ---      ---       LVL=0

      00FDCF90H   BLOCK     ECODE    ---       LVL=0
      00012A7FH   SYMBOL    XDATA    FLOAT     v_next
      00FDCF9AH   BLOCK     ECODE    NEAR LAB  LVL=1
      0001173AH   SYMBOL    XDATA    FLOAT     v
      0001173EH   SYMBOL    XDATA    FLOAT     last_v
      ---         BLOCKEND  ---      ---       LVL=1
      00FDCF90H   LINE      ECODE    ---       #217
      00FDCF9AH   LINE      ECODE    ---       #218
      00FDCF9AH   LINE      ECODE    ---       #221
      00FDCFAEH   LINE      ECODE    ---       #223
      00FDCFDEH   LINE      ECODE    ---       #225
      00FDD044H   LINE      ECODE    ---       #226
      00FDD058H   LINE      ECODE    ---       #228
      00FDD062H   LINE      ECODE    ---       #229
      ---         BLOCKEND  ---      ---       LVL=0

      00FDD063H   BLOCK     ECODE    ---       LVL=0
      00FDD063H   LINE      ECODE    ---       #230
      00FDD063H   LINE      ECODE    ---       #232
      00FDD06AH   LINE      ECODE    ---       #234
      00FDD0ABH   LINE      ECODE    ---       #238
      00FDD0C2H   LINE      ECODE    ---       #239
      00FDD0E0H   LINE      ECODE    ---       #241
      00FDD0E7H   LINE      ECODE    ---       #243
      00FDD12AH   LINE      ECODE    ---       #247
      00FDD141H   LINE      ECODE    ---       #248
      00FDD15FH   LINE      ECODE    ---       #249
      ---         BLOCKEND  ---      ---       LVL=0

      ---         MODULE    ---      ---       aoi_function
      00FE0D19H   PUBLIC    ECODE    ---       compare_swap?
      00FE0CD6H   PUBLIC    ECODE    ---       abs_int32?
      00FE0D8CH   PUBLIC    ECODE    ---       sort_seven?
      000000D0H   SFRSYM    DATA     BYTE      PSW
      0000009DH   SFRSYM    DATA     BYTE      IRCBAND
      00000097H   SFRSYM    DATA     BYTE      AUXR2
L251 LINKER/LOCATER V4.66.93.0                                                        05/01/2026  15:28:45  PAGE 238


      000000EAH   SFRSYM    DATA     BYTE      CKCON
      000000EFH   SFRSYM    DATA     BYTE      AUXINTIF
      000000FDH   SFRSYM    DATA     BYTE      S4CON
      000000ACH   SFRSYM    DATA     BYTE      S3CON
      0000009AH   SFRSYM    DATA     BYTE      S2CON
      000000B7H   SFRSYM    DATA     BYTE      IPH
      000000CDH   SFRSYM    DATA     BYTE      SPSTAT
      000000DDH   SFRSYM    DATA     BYTE      T4T3M
      000000C1H   SFRSYM    DATA     BYTE      WDT_CONTR
      000000DFH   SFRSYM    DATA     BYTE      IP3
      000000F4H   SFRSYM    DATA     BYTE      USBCON
      000000B5H   SFRSYM    DATA     BYTE      IP2
      000000FFH   SFRSYM    DATA     BYTE      RSTCFG
      000000E0H   SFRSYM    DATA     BYTE      ACC
      000000C7H   SFRSYM    DATA     BYTE      IAP_CONTR
      000000F9H   SFRSYM    DATA     BYTE      LINICR
      0000008EH   SFRSYM    DATA     BYTE      AUXR
      000000F0H   SFRSYM    DATA     BYTE      B
      000000AFH   SFRSYM    DATA     BYTE      IE2
      00000088H   SFRSYM    DATA     BYTE      TCON
      00000089H   SFRSYM    DATA     BYTE      TMOD
      00000098H   SFRSYM    DATA     BYTE      SCON
      00000087H   SFRSYM    DATA     BYTE      PCON
      000000BCH   SFRSYM    DATA     BYTE      ADC_CONTR
      000000D1H   SFRSYM    DATA     BYTE      PSW1
      000000E7H   SFRSYM    DATA     BYTE      CMPCR2
      000000E6H   SFRSYM    DATA     BYTE      CMPCR1
      000000DEH   SFRSYM    DATA     BYTE      ADCCFG
      000000B8H   SFRSYM    DATA     BYTE      IP
      0000008FH   SFRSYM    DATA     BYTE      INTCLKO
      000000EEH   SFRSYM    DATA     BYTE      IP3H
      000000B6H   SFRSYM    DATA     BYTE      IP2H
      000000BFH   SFRSYM    DATA     BYTE      P_SW4
      000000A8H   SFRSYM    DATA     BYTE      IE
      000000BBH   SFRSYM    DATA     BYTE      P_SW3
      000000BAH   SFRSYM    DATA     BYTE      P_SW2
      000000A2H   SFRSYM    DATA     BYTE      P_SW1
      000000CEH   SFRSYM    DATA     BYTE      SPCTL
      000000F8H   SFRSYM    DATA     BYTE      P7
      000000E8H   SFRSYM    DATA     BYTE      P6
      000000C8H   SFRSYM    DATA     BYTE      P5
      000000C0H   SFRSYM    DATA     BYTE      P4
      000000ABH   SFRSYM    DATA     BYTE      WKTCH
      000000B0H   SFRSYM    DATA     BYTE      P3
      000000A0H   SFRSYM    DATA     BYTE      P2
      00000090H   SFRSYM    DATA     BYTE      P1
      00000080H   SFRSYM    DATA     BYTE      P0

      00FE0CD6H   BLOCK     ECODE    ---       LVL=0
      00012A83H   SYMBOL    XDATA    LONG      num
      00FE0CD6H   LINE      ECODE    ---       #4
      00FE0CE0H   LINE      ECODE    ---       #6
      00FE0CF0H   LINE      ECODE    ---       #8
      00FE0D0EH   LINE      ECODE    ---       #9
      00FE0D0EH   LINE      ECODE    ---       #11
      00FE0D18H   LINE      ECODE    ---       #12
      ---         BLOCKEND  ---      ---       LVL=0

      00FE0D19H   BLOCK     ECODE    ---       LVL=0
      000126A5H   SYMBOL    XDATA    ---       a
      000126A9H   SYMBOL    XDATA    ---       b
      00FE0D2DH   BLOCK     ECODE    NEAR LAB  LVL=1
      000126ADH   SYMBOL    XDATA    WORD      t
      ---         BLOCKEND  ---      ---       LVL=1
      00FE0D19H   LINE      ECODE    ---       #18
L251 LINKER/LOCATER V4.66.93.0                                                        05/01/2026  15:28:45  PAGE 239


      00FE0D2DH   LINE      ECODE    ---       #20
      00FE0D4BH   LINE      ECODE    ---       #21
      00FE0D5EH   LINE      ECODE    ---       #22
      00FE0D78H   LINE      ECODE    ---       #23
      00FE0D8BH   LINE      ECODE    ---       #24
      ---         BLOCKEND  ---      ---       LVL=0

      00FE0D8CH   BLOCK     ECODE    ---       LVL=0
      00012A87H   SYMBOL    XDATA    ---       arr
      00FE0D8CH   LINE      ECODE    ---       #28
      00FE0D96H   LINE      ECODE    ---       #29
      00FE0DB0H   LINE      ECODE    ---       #30
      00FE0DCEH   LINE      ECODE    ---       #31
      00FE0DEEH   LINE      ECODE    ---       #32
      00FE0E08H   LINE      ECODE    ---       #33
      00FE0E26H   LINE      ECODE    ---       #34
      00FE0E44H   LINE      ECODE    ---       #35
      00FE0E64H   LINE      ECODE    ---       #36
      00FE0E84H   LINE      ECODE    ---       #37
      00FE0EA4H   LINE      ECODE    ---       #38
      00FE0EC2H   LINE      ECODE    ---       #39
      00FE0EDCH   LINE      ECODE    ---       #40
      00FE0EFAH   LINE      ECODE    ---       #41
      00FE0F1AH   LINE      ECODE    ---       #42
      00FE0F36H   LINE      ECODE    ---       #43
      00FE0F56H   LINE      ECODE    ---       #44
      00FE0F74H   LINE      ECODE    ---       #45
      00FE0F94H   LINE      ECODE    ---       #46
      00FE0FB4H   LINE      ECODE    ---       #47
      00FE0FD4H   LINE      ECODE    ---       #48
      00FE0FF2H   LINE      ECODE    ---       #49
      00FE100EH   LINE      ECODE    ---       #50
      00FE1028H   LINE      ECODE    ---       #51
      00FE1042H   LINE      ECODE    ---       #52
      00FE105EH   LINE      ECODE    ---       #53
      00FE107CH   LINE      ECODE    ---       #54
      00FE109CH   LINE      ECODE    ---       #55
      00FE10BCH   LINE      ECODE    ---       #56
      00FE10DCH   LINE      ECODE    ---       #59
      00FE10EDH   LINE      ECODE    ---       #60
      ---         BLOCKEND  ---      ---       LVL=0

      ---         MODULE    ---      ---       IMU
      00FE28F8H   PUBLIC    ECODE    ---       gyroscope_get_gyro?
      00FE29BBH   PUBLIC    ECODE    ---       angle_get?
      00FE2A0AH   PUBLIC    ECODE    ---       null_drift_calculate?
      00FE28F3H   PUBLIC    ECODE    ---       IMU_Init?
      00FE29FDH   PUBLIC    ECODE    ---       angle_clear?
      00011E4AH   PUBLIC    XDATA    FLOAT     null_drift_z
      00011E4EH   PUBLIC    XDATA    ---       gyro_z
      00011E56H   PUBLIC    XDATA    FLOAT     next_gyro_z
      00011E5AH   PUBLIC    XDATA    FLOAT     avl_gyro_z
      00011E5EH   PUBLIC    XDATA    FLOAT     angle_ringR
      000000D0H   SFRSYM    DATA     BYTE      PSW
      0000009DH   SFRSYM    DATA     BYTE      IRCBAND
      00000097H   SFRSYM    DATA     BYTE      AUXR2
      000000EAH   SFRSYM    DATA     BYTE      CKCON
      000000EFH   SFRSYM    DATA     BYTE      AUXINTIF
      000000FDH   SFRSYM    DATA     BYTE      S4CON
      000000ACH   SFRSYM    DATA     BYTE      S3CON
      0000009AH   SFRSYM    DATA     BYTE      S2CON
      000000B7H   SFRSYM    DATA     BYTE      IPH
      000000CDH   SFRSYM    DATA     BYTE      SPSTAT
      000000DDH   SFRSYM    DATA     BYTE      T4T3M
      000000C1H   SFRSYM    DATA     BYTE      WDT_CONTR
L251 LINKER/LOCATER V4.66.93.0                                                        05/01/2026  15:28:45  PAGE 240


      000000DFH   SFRSYM    DATA     BYTE      IP3
      000000F4H   SFRSYM    DATA     BYTE      USBCON
      000000B5H   SFRSYM    DATA     BYTE      IP2
      000000FFH   SFRSYM    DATA     BYTE      RSTCFG
      000000E0H   SFRSYM    DATA     BYTE      ACC
      000000C7H   SFRSYM    DATA     BYTE      IAP_CONTR
      000000F9H   SFRSYM    DATA     BYTE      LINICR
      0000008EH   SFRSYM    DATA     BYTE      AUXR
      000000F0H   SFRSYM    DATA     BYTE      B
      000000AFH   SFRSYM    DATA     BYTE      IE2
      00000088H   SFRSYM    DATA     BYTE      TCON
      00000089H   SFRSYM    DATA     BYTE      TMOD
      00000098H   SFRSYM    DATA     BYTE      SCON
      00000087H   SFRSYM    DATA     BYTE      PCON
      000000BCH   SFRSYM    DATA     BYTE      ADC_CONTR
      000000D1H   SFRSYM    DATA     BYTE      PSW1
      000000E7H   SFRSYM    DATA     BYTE      CMPCR2
      000000E6H   SFRSYM    DATA     BYTE      CMPCR1
      000000DEH   SFRSYM    DATA     BYTE      ADCCFG
      000000B8H   SFRSYM    DATA     BYTE      IP
      0000008FH   SFRSYM    DATA     BYTE      INTCLKO
      000000EEH   SFRSYM    DATA     BYTE      IP3H
      000000B6H   SFRSYM    DATA     BYTE      IP2H
      000000BFH   SFRSYM    DATA     BYTE      P_SW4
      000000A8H   SFRSYM    DATA     BYTE      IE
      000000BBH   SFRSYM    DATA     BYTE      P_SW3
      000000BAH   SFRSYM    DATA     BYTE      P_SW2
      000000A2H   SFRSYM    DATA     BYTE      P_SW1
      000000CEH   SFRSYM    DATA     BYTE      SPCTL
      000000F8H   SFRSYM    DATA     BYTE      P7
      000000E8H   SFRSYM    DATA     BYTE      P6
      000000C8H   SFRSYM    DATA     BYTE      P5
      000000C0H   SFRSYM    DATA     BYTE      P4
      000000ABH   SFRSYM    DATA     BYTE      WKTCH
      000000B0H   SFRSYM    DATA     BYTE      P3
      000000A0H   SFRSYM    DATA     BYTE      P2
      00000090H   SFRSYM    DATA     BYTE      P1
      00000080H   SFRSYM    DATA     BYTE      P0

      00FE28F3H   BLOCK     ECODE    ---       LVL=0
      00FE28F3H   LINE      ECODE    ---       #14
      00FE28F3H   LINE      ECODE    ---       #17
      00FE28F7H   LINE      ECODE    ---       #21
      ---         BLOCKEND  ---      ---       LVL=0

      00FE28F8H   BLOCK     ECODE    ---       LVL=0
      00FE28F8H   LINE      ECODE    ---       #23
      00FE28F8H   LINE      ECODE    ---       #35
      00FE28FCH   LINE      ECODE    ---       #36
      00FE2964H   LINE      ECODE    ---       #40
      00FE2978H   LINE      ECODE    ---       #41
      00FE2994H   LINE      ECODE    ---       #43
      00FE29B6H   LINE      ECODE    ---       #46
      00FE29BAH   LINE      ECODE    ---       #48
      ---         BLOCKEND  ---      ---       LVL=0

      00FE29BBH   BLOCK     ECODE    ---       LVL=0
      00FE29BBH   LINE      ECODE    ---       #50
      00FE29BBH   LINE      ECODE    ---       #52
      00FE29FCH   LINE      ECODE    ---       #53
      ---         BLOCKEND  ---      ---       LVL=0

      00FE29FDH   BLOCK     ECODE    ---       LVL=0
      00FE29FDH   LINE      ECODE    ---       #55
      00FE29FDH   LINE      ECODE    ---       #57
L251 LINKER/LOCATER V4.66.93.0                                                        05/01/2026  15:28:45  PAGE 241


      00FE2A09H   LINE      ECODE    ---       #58
      ---         BLOCKEND  ---      ---       LVL=0

      00FE2A0AH   BLOCK     ECODE    ---       LVL=0
      00011E62H   SYMBOL    XDATA    INT       cnt_null
      00011E64H   SYMBOL    XDATA    FLOAT     temp
      00011E68H   SYMBOL    XDATA    CHAR      ret
      00FE2A0AH   LINE      ECODE    ---       #61
      00FE2A0AH   LINE      ECODE    ---       #62
      00FE2A0AH   LINE      ECODE    ---       #70
      00FE2A29H   LINE      ECODE    ---       #72
      00FE2A38H   LINE      ECODE    ---       #73
      00FE2A46H   LINE      ECODE    ---       #75
      00FE2A64H   LINE      ECODE    ---       #76
      00FE2A6AH   LINE      ECODE    ---       #77
      00FE2A6EH   LINE      ECODE    ---       #78
      00FE2A6EH   LINE      ECODE    ---       #80
      00FE2A72H   LINE      ECODE    ---       #81
      ---         BLOCKEND  ---      ---       LVL=0

      ---         MODULE    ---      ---       Logic
      00FDFD02H   PUBLIC    ECODE    ---       Run_Out_Protect?
      00FDF9A1H   PUBLIC    ECODE    ---       Adc_Normalize?
      00FDFB8DH   PUBLIC    ECODE    ---       Task_Run?
      00FDFAA4H   PUBLIC    ECODE    ---       deviation_calculation?
      00FDF8E3H   PUBLIC    ECODE    ---       Module_Init?
      00FDF8B4H   PUBLIC    ECODE    ---       Electromagnetic_Logic?
      00FDF900H   PUBLIC    ECODE    ---       range_protect?
      00011D6CH   PUBLIC    XDATA    FLOAT     angle_L_t
      00011D70H   PUBLIC    XDATA    FLOAT     err_position
      00011D74H   PUBLIC    XDATA    FLOAT     Large_t
      00011D78H   PUBLIC    XDATA    FLOAT     deviation
      00011D7CH   PUBLIC    XDATA    FLOAT     A_Deviation
      00011D80H   PUBLIC    XDATA    FLOAT     B_Deviation
      00011D84H   PUBLIC    XDATA    FLOAT     C_Deviation
      00011D88H   PUBLIC    XDATA    FLOAT     Small_t
      00011D8CH   PUBLIC    XDATA    BYTE      standby
      00011FC7H   PUBLIC    XDATA    BYTE      ?range_protect??BYTE
      00011F4AH   PUBLIC    XDATA    BYTE      ?Adc_Normalize??BYTE
      000000D0H   SFRSYM    DATA     BYTE      PSW
      0000009DH   SFRSYM    DATA     BYTE      IRCBAND
      00000097H   SFRSYM    DATA     BYTE      AUXR2
      000000EAH   SFRSYM    DATA     BYTE      CKCON
      000000EFH   SFRSYM    DATA     BYTE      AUXINTIF
      000000FDH   SFRSYM    DATA     BYTE      S4CON
      000000ACH   SFRSYM    DATA     BYTE      S3CON
      0000009AH   SFRSYM    DATA     BYTE      S2CON
      000000B7H   SFRSYM    DATA     BYTE      IPH
      000000CDH   SFRSYM    DATA     BYTE      SPSTAT
      000000DDH   SFRSYM    DATA     BYTE      T4T3M
      000000C1H   SFRSYM    DATA     BYTE      WDT_CONTR
      000000DFH   SFRSYM    DATA     BYTE      IP3
      000000F4H   SFRSYM    DATA     BYTE      USBCON
      000000B5H   SFRSYM    DATA     BYTE      IP2
      000000FFH   SFRSYM    DATA     BYTE      RSTCFG
      000000E0H   SFRSYM    DATA     BYTE      ACC
      000000C7H   SFRSYM    DATA     BYTE      IAP_CONTR
      000000F9H   SFRSYM    DATA     BYTE      LINICR
      0000008EH   SFRSYM    DATA     BYTE      AUXR
      000000F0H   SFRSYM    DATA     BYTE      B
      000000AFH   SFRSYM    DATA     BYTE      IE2
      00000088H   SFRSYM    DATA     BYTE      TCON
      00000089H   SFRSYM    DATA     BYTE      TMOD
      00000098H   SFRSYM    DATA     BYTE      SCON
      00000087H   SFRSYM    DATA     BYTE      PCON
L251 LINKER/LOCATER V4.66.93.0                                                        05/01/2026  15:28:45  PAGE 242


      000000BCH   SFRSYM    DATA     BYTE      ADC_CONTR
      000000D1H   SFRSYM    DATA     BYTE      PSW1
      000000E7H   SFRSYM    DATA     BYTE      CMPCR2
      000000E6H   SFRSYM    DATA     BYTE      CMPCR1
      000000DEH   SFRSYM    DATA     BYTE      ADCCFG
      000000B8H   SFRSYM    DATA     BYTE      IP
      0000008FH   SFRSYM    DATA     BYTE      INTCLKO
      000000EEH   SFRSYM    DATA     BYTE      IP3H
      000000B6H   SFRSYM    DATA     BYTE      IP2H
      000000BFH   SFRSYM    DATA     BYTE      P_SW4
      000000A8H   SFRSYM    DATA     BYTE      IE
      000000BBH   SFRSYM    DATA     BYTE      P_SW3
      000000BAH   SFRSYM    DATA     BYTE      P_SW2
      000000A2H   SFRSYM    DATA     BYTE      P_SW1
      000000CEH   SFRSYM    DATA     BYTE      SPCTL
      000000F8H   SFRSYM    DATA     BYTE      P7
      000000E8H   SFRSYM    DATA     BYTE      P6
      000000C8H   SFRSYM    DATA     BYTE      P5
      000000C0H   SFRSYM    DATA     BYTE      P4
      000000ABH   SFRSYM    DATA     BYTE      WKTCH
      000000B0H   SFRSYM    DATA     BYTE      P3
      000000A0H   SFRSYM    DATA     BYTE      P2
      00000090H   SFRSYM    DATA     BYTE      P1
      00000080H   SFRSYM    DATA     BYTE      P0

      00FDF8B4H   BLOCK     ECODE    ---       LVL=0
      00FDF8B4H   LINE      ECODE    ---       #17
      00FDF8B4H   LINE      ECODE    ---       #20
      00FDF8B8H   LINE      ECODE    ---       #21
      00FDF8BCH   LINE      ECODE    ---       #22
      00FDF8C0H   LINE      ECODE    ---       #23
      00FDF8E2H   LINE      ECODE    ---       #36
      ---         BLOCKEND  ---      ---       LVL=0

      00FDF8E3H   BLOCK     ECODE    ---       LVL=0
      00FDF8E3H   LINE      ECODE    ---       #37
      00FDF8E3H   LINE      ECODE    ---       #40
      00FDF8E7H   LINE      ECODE    ---       #42
      00FDF8EBH   LINE      ECODE    ---       #43
      00FDF8EFH   LINE      ECODE    ---       #44
      00FDF8F3H   LINE      ECODE    ---       #45
      00FDF8F7H   LINE      ECODE    ---       #46
      00FDF8FBH   LINE      ECODE    ---       #47
      00FDF8FFH   LINE      ECODE    ---       #50
      ---         BLOCKEND  ---      ---       LVL=0

      00FDF900H   BLOCK     ECODE    ---       LVL=0
      00011FC7H   SYMBOL    XDATA    DOUBLE    duty
      00011FCFH   SYMBOL    XDATA    DOUBLE    min
      00011FD7H   SYMBOL    XDATA    DOUBLE    max
      00FDF900H   LINE      ECODE    ---       #54
      00FDF912H   LINE      ECODE    ---       #56
      00FDF9A0H   LINE      ECODE    ---       #57
      ---         BLOCKEND  ---      ---       LVL=0

      00FDF9A1H   BLOCK     ECODE    ---       LVL=0
      00011F4AH   SYMBOL    XDATA    INT       value
      00011F4CH   SYMBOL    XDATA    DOUBLE    min
      00011F54H   SYMBOL    XDATA    DOUBLE    max
      00FDF9A7H   BLOCK     ECODE    NEAR LAB  LVL=1
      00011F5CH   SYMBOL    XDATA    DOUBLE    normalized
      ---         BLOCKEND  ---      ---       LVL=1
      00FDF9A1H   LINE      ECODE    ---       #64
      00FDF9A7H   LINE      ECODE    ---       #65
      00FDF9A7H   LINE      ECODE    ---       #66
L251 LINKER/LOCATER V4.66.93.0                                                        05/01/2026  15:28:45  PAGE 243


      00FDF9BDH   LINE      ECODE    ---       #69
      00FDFA35H   LINE      ECODE    ---       #71
      00FDFA91H   LINE      ECODE    ---       #73
      00FDFAA3H   LINE      ECODE    ---       #74
      ---         BLOCKEND  ---      ---       LVL=0

      00FDFAA4H   BLOCK     ECODE    ---       LVL=0
      00FDFAA4H   LINE      ECODE    ---       #75
      00FDFAA4H   LINE      ECODE    ---       #77
      00FDFB8CH   LINE      ECODE    ---       #79
      ---         BLOCKEND  ---      ---       LVL=0

      00FDFB8DH   BLOCK     ECODE    ---       LVL=0
      00FDFB8DH   LINE      ECODE    ---       #80
      00FDFB8DH   LINE      ECODE    ---       #84
      00FDFBA1H   LINE      ECODE    ---       #86
      00FDFBA1H   LINE      ECODE    ---       #87
      00FDFBA9H   LINE      ECODE    ---       #88
      00FDFBACH   LINE      ECODE    ---       #89
      00FDFBACH   LINE      ECODE    ---       #90
      00FDFBB6H   LINE      ECODE    ---       #91
      00FDFBCCH   LINE      ECODE    ---       #93
      00FDFBD2H   LINE      ECODE    ---       #94
      00FDFBD4H   LINE      ECODE    ---       #97
      00FDFBE6H   LINE      ECODE    ---       #101
      00FDFC10H   LINE      ECODE    ---       #104
      00FDFC12H   LINE      ECODE    ---       #105
      00FDFC24H   LINE      ECODE    ---       #108
      00FDFC4EH   LINE      ECODE    ---       #112
      00FDFC4EH   LINE      ECODE    ---       #115
      00FDFC60H   LINE      ECODE    ---       #116
      00FDFC72H   LINE      ECODE    ---       #117
      00FDFC75H   LINE      ECODE    ---       #118
      00FDFC75H   LINE      ECODE    ---       #120
      00FDFCC1H   LINE      ECODE    ---       #122
      00FDFCD7H   LINE      ECODE    ---       #124
      00FDFCDDH   LINE      ECODE    ---       #125
      00FDFCDDH   LINE      ECODE    ---       #126
      00FDFCEFH   LINE      ECODE    ---       #127
      00FDFD01H   LINE      ECODE    ---       #128
      00FDFD01H   LINE      ECODE    ---       #130
      00FDFD01H   LINE      ECODE    ---       #131
      00FDFD01H   LINE      ECODE    ---       #132
      00FDFD01H   LINE      ECODE    ---       #135
      ---         BLOCKEND  ---      ---       LVL=0

      00FDFD02H   BLOCK     ECODE    ---       LVL=0
      00FDFD02H   LINE      ECODE    ---       #138
      00FDFD02H   LINE      ECODE    ---       #140
      00FDFD42H   LINE      ECODE    ---       #142
      00FDFD48H   LINE      ECODE    ---       #143
      00FDFD4EH   LINE      ECODE    ---       #144
      ---         BLOCKEND  ---      ---       LVL=0

      ---         MODULE    ---      ---       key
      00FE2D69H   PUBLIC    ECODE    ---       Key_Case?
      00FE2D28H   PUBLIC    ECODE    ---       Key_Init?
      00012434H   PUBLIC    XDATA    CHAR      key1_status
      00012435H   PUBLIC    XDATA    BYTE      key2_status
      00012436H   PUBLIC    XDATA    BYTE      key3_status
      00012437H   PUBLIC    XDATA    BYTE      key4_status
      00012438H   PUBLIC    XDATA    BYTE      key1_last_status
      00012439H   PUBLIC    XDATA    BYTE      key2_last_status
      0001243AH   PUBLIC    XDATA    BYTE      key3_last_status
      0001243BH   PUBLIC    XDATA    BYTE      key4_last_status
L251 LINKER/LOCATER V4.66.93.0                                                        05/01/2026  15:28:45  PAGE 244


      0001243CH   PUBLIC    XDATA    BYTE      test1
      0001243DH   PUBLIC    XDATA    BYTE      key1_flag
      0001243EH   PUBLIC    XDATA    BYTE      key2_flag
      0001243FH   PUBLIC    XDATA    BYTE      key3_flag
      00012440H   PUBLIC    XDATA    BYTE      key4_flag
      000000D0H   SFRSYM    DATA     BYTE      PSW
      0000009DH   SFRSYM    DATA     BYTE      IRCBAND
      00000097H   SFRSYM    DATA     BYTE      AUXR2
      000000EAH   SFRSYM    DATA     BYTE      CKCON
      000000EFH   SFRSYM    DATA     BYTE      AUXINTIF
      000000FDH   SFRSYM    DATA     BYTE      S4CON
      000000ACH   SFRSYM    DATA     BYTE      S3CON
      0000009AH   SFRSYM    DATA     BYTE      S2CON
      000000B7H   SFRSYM    DATA     BYTE      IPH
      000000CDH   SFRSYM    DATA     BYTE      SPSTAT
      000000DDH   SFRSYM    DATA     BYTE      T4T3M
      000000C1H   SFRSYM    DATA     BYTE      WDT_CONTR
      000000DFH   SFRSYM    DATA     BYTE      IP3
      000000F4H   SFRSYM    DATA     BYTE      USBCON
      000000B5H   SFRSYM    DATA     BYTE      IP2
      000000FFH   SFRSYM    DATA     BYTE      RSTCFG
      000000E0H   SFRSYM    DATA     BYTE      ACC
      000000C7H   SFRSYM    DATA     BYTE      IAP_CONTR
      000000F9H   SFRSYM    DATA     BYTE      LINICR
      0000008EH   SFRSYM    DATA     BYTE      AUXR
      000000F0H   SFRSYM    DATA     BYTE      B
      000000AFH   SFRSYM    DATA     BYTE      IE2
      00000088H   SFRSYM    DATA     BYTE      TCON
      00000089H   SFRSYM    DATA     BYTE      TMOD
      00000098H   SFRSYM    DATA     BYTE      SCON
      00000087H   SFRSYM    DATA     BYTE      PCON
      000000BCH   SFRSYM    DATA     BYTE      ADC_CONTR
      000000D1H   SFRSYM    DATA     BYTE      PSW1
      000000E7H   SFRSYM    DATA     BYTE      CMPCR2
      000000E6H   SFRSYM    DATA     BYTE      CMPCR1
      000000DEH   SFRSYM    DATA     BYTE      ADCCFG
      000000B8H   SFRSYM    DATA     BYTE      IP
      0000008FH   SFRSYM    DATA     BYTE      INTCLKO
      000000EEH   SFRSYM    DATA     BYTE      IP3H
      000000B6H   SFRSYM    DATA     BYTE      IP2H
      000000BFH   SFRSYM    DATA     BYTE      P_SW4
      000000A8H   SFRSYM    DATA     BYTE      IE
      000000BBH   SFRSYM    DATA     BYTE      P_SW3
      000000BAH   SFRSYM    DATA     BYTE      P_SW2
      000000A2H   SFRSYM    DATA     BYTE      P_SW1
      000000CEH   SFRSYM    DATA     BYTE      SPCTL
      000000F8H   SFRSYM    DATA     BYTE      P7
      000000E8H   SFRSYM    DATA     BYTE      P6
      000000C8H   SFRSYM    DATA     BYTE      P5
      000000C0H   SFRSYM    DATA     BYTE      P4
      000000ABH   SFRSYM    DATA     BYTE      WKTCH
      000000B0H   SFRSYM    DATA     BYTE      P3
      000000A0H   SFRSYM    DATA     BYTE      P2
      00000090H   SFRSYM    DATA     BYTE      P1
      00000080H   SFRSYM    DATA     BYTE      P0

      00FE2D28H   BLOCK     ECODE    ---       LVL=0
      00FE2D28H   LINE      ECODE    ---       #28
      00FE2D28H   LINE      ECODE    ---       #30
      00FE2D38H   LINE      ECODE    ---       #31
      00FE2D48H   LINE      ECODE    ---       #32
      00FE2D58H   LINE      ECODE    ---       #33
      00FE2D68H   LINE      ECODE    ---       #34
      ---         BLOCKEND  ---      ---       LVL=0

L251 LINKER/LOCATER V4.66.93.0                                                        05/01/2026  15:28:45  PAGE 245


      00FE2D69H   BLOCK     ECODE    ---       LVL=0
      00FE2D69H   LINE      ECODE    ---       #35
      00FE2D69H   LINE      ECODE    ---       #37
      00FE2D71H   LINE      ECODE    ---       #38
      00FE2D7DH   LINE      ECODE    ---       #39
      00FE2D85H   LINE      ECODE    ---       #40
      00FE2D91H   LINE      ECODE    ---       #41
      00FE2D99H   LINE      ECODE    ---       #42
      00FE2DA5H   LINE      ECODE    ---       #43
      00FE2DADH   LINE      ECODE    ---       #44
      00FE2DB9H   LINE      ECODE    ---       #45
      00FE2DCBH   LINE      ECODE    ---       #47
      00FE2DD1H   LINE      ECODE    ---       #48
      00FE2DD1H   LINE      ECODE    ---       #49
      00FE2DDAH   LINE      ECODE    ---       #51
      00FE2DDFH   LINE      ECODE    ---       #52
      00FE2DDFH   LINE      ECODE    ---       #53
      00FE2DF1H   LINE      ECODE    ---       #55
      00FE2DF7H   LINE      ECODE    ---       #56
      00FE2DF7H   LINE      ECODE    ---       #57
      00FE2E00H   LINE      ECODE    ---       #59
      00FE2E08H   LINE      ECODE    ---       #60
      00FE2E10H   LINE      ECODE    ---       #62
      00FE2E15H   LINE      ECODE    ---       #63
      00FE2E15H   LINE      ECODE    ---       #64
      00FE2E27H   LINE      ECODE    ---       #66
      00FE2E2DH   LINE      ECODE    ---       #67
      00FE2E2DH   LINE      ECODE    ---       #68
      00FE2E36H   LINE      ECODE    ---       #71
      00FE2E3BH   LINE      ECODE    ---       #72
      00FE2E3BH   LINE      ECODE    ---       #73
      00FE2E4DH   LINE      ECODE    ---       #75
      00FE2E53H   LINE      ECODE    ---       #76
      00FE2E53H   LINE      ECODE    ---       #77
      00FE2E5CH   LINE      ECODE    ---       #80
      00FE2E61H   LINE      ECODE    ---       #81
      ---         BLOCKEND  ---      ---       LVL=0

      ---         MODULE    ---      ---       PID
      00FDE7F0H   PUBLIC    ECODE    ---       place_pid?
      00FDEA97H   PUBLIC    ECODE    ---       loop_speed_LR?
      00FDE8E3H   PUBLIC    ECODE    ---       loop_speed?
      00FDED3AH   PUBLIC    ECODE    ---       direction_return?
      0001139BH   PUBLIC    XDATA    FLOAT     out_L
      0001139FH   PUBLIC    XDATA    FLOAT     out_R
      000113A3H   PUBLIC    XDATA    FLOAT     place_error
      000113A7H   PUBLIC    XDATA    FLOAT     correct_L
      000113ABH   PUBLIC    XDATA    FLOAT     place_last_error
      000113AFH   PUBLIC    XDATA    FLOAT     expect_gyro
      000113B3H   PUBLIC    XDATA    WORD      target_L
      000113B5H   PUBLIC    XDATA    FLOAT     place_kd
      000113B9H   PUBLIC    XDATA    WORD      target_R
      000113BBH   PUBLIC    XDATA    INT       err_speed
      000113BDH   PUBLIC    XDATA    FLOAT     place_out
      000113C1H   PUBLIC    XDATA    FLOAT     place_kp
      000113C5H   PUBLIC    XDATA    FLOAT     place_last_out
      000113C9H   PUBLIC    XDATA    FLOAT     place_gyro_kd
      000000D0H   SFRSYM    DATA     BYTE      PSW
      0000009DH   SFRSYM    DATA     BYTE      IRCBAND
      00000097H   SFRSYM    DATA     BYTE      AUXR2
      000000EAH   SFRSYM    DATA     BYTE      CKCON
      000000EFH   SFRSYM    DATA     BYTE      AUXINTIF
      000000FDH   SFRSYM    DATA     BYTE      S4CON
      000000ACH   SFRSYM    DATA     BYTE      S3CON
      0000009AH   SFRSYM    DATA     BYTE      S2CON
L251 LINKER/LOCATER V4.66.93.0                                                        05/01/2026  15:28:45  PAGE 246


      000000B7H   SFRSYM    DATA     BYTE      IPH
      000000CDH   SFRSYM    DATA     BYTE      SPSTAT
      000000DDH   SFRSYM    DATA     BYTE      T4T3M
      000000C1H   SFRSYM    DATA     BYTE      WDT_CONTR
      000000DFH   SFRSYM    DATA     BYTE      IP3
      000000F4H   SFRSYM    DATA     BYTE      USBCON
      000000B5H   SFRSYM    DATA     BYTE      IP2
      000000FFH   SFRSYM    DATA     BYTE      RSTCFG
      000000E0H   SFRSYM    DATA     BYTE      ACC
      000000C7H   SFRSYM    DATA     BYTE      IAP_CONTR
      000000F9H   SFRSYM    DATA     BYTE      LINICR
      0000008EH   SFRSYM    DATA     BYTE      AUXR
      000000F0H   SFRSYM    DATA     BYTE      B
      000000AFH   SFRSYM    DATA     BYTE      IE2
      00000088H   SFRSYM    DATA     BYTE      TCON
      00000089H   SFRSYM    DATA     BYTE      TMOD
      00000098H   SFRSYM    DATA     BYTE      SCON
      00000087H   SFRSYM    DATA     BYTE      PCON
      000000BCH   SFRSYM    DATA     BYTE      ADC_CONTR
      000000D1H   SFRSYM    DATA     BYTE      PSW1
      000000E7H   SFRSYM    DATA     BYTE      CMPCR2
      000000E6H   SFRSYM    DATA     BYTE      CMPCR1
      000000DEH   SFRSYM    DATA     BYTE      ADCCFG
      000000B8H   SFRSYM    DATA     BYTE      IP
      0000008FH   SFRSYM    DATA     BYTE      INTCLKO
      000000EEH   SFRSYM    DATA     BYTE      IP3H
      000000B6H   SFRSYM    DATA     BYTE      IP2H
      000000BFH   SFRSYM    DATA     BYTE      P_SW4
      000000A8H   SFRSYM    DATA     BYTE      IE
      000000BBH   SFRSYM    DATA     BYTE      P_SW3
      000000BAH   SFRSYM    DATA     BYTE      P_SW2
      000000A2H   SFRSYM    DATA     BYTE      P_SW1
      000000CEH   SFRSYM    DATA     BYTE      SPCTL
      000000F8H   SFRSYM    DATA     BYTE      P7
      000000E8H   SFRSYM    DATA     BYTE      P6
      000000C8H   SFRSYM    DATA     BYTE      P5
      000000C0H   SFRSYM    DATA     BYTE      P4
      000000ABH   SFRSYM    DATA     BYTE      WKTCH
      000000B0H   SFRSYM    DATA     BYTE      P3
      000000A0H   SFRSYM    DATA     BYTE      P2
      00000090H   SFRSYM    DATA     BYTE      P1
      00000080H   SFRSYM    DATA     BYTE      P0

      00FDE7F0H   BLOCK     ECODE    ---       LVL=0
      00012860H   SYMBOL    XDATA    FLOAT     error
      00FDE7FAH   BLOCK     ECODE    NEAR LAB  LVL=1
      00012864H   SYMBOL    XDATA    FLOAT     A
      ---         BLOCKEND  ---      ---       LVL=1
      00FDE7F0H   LINE      ECODE    ---       #22
      00FDE7FAH   LINE      ECODE    ---       #23
      00FDE7FAH   LINE      ECODE    ---       #24
      00FDE806H   LINE      ECODE    ---       #25
      00FDE81AH   LINE      ECODE    ---       #26
      00FDE82EH   LINE      ECODE    ---       #27
      00FDE842H   LINE      ECODE    ---       #28
      00FDE894H   LINE      ECODE    ---       #30
      00FDE8E2H   LINE      ECODE    ---       #31
      ---         BLOCKEND  ---      ---       LVL=0

      00FDE8E3H   BLOCK     ECODE    ---       LVL=0
      000113CDH   SYMBOL    XDATA    INT       err_speed_last
      000113CFH   SYMBOL    XDATA    FLOAT     dec_speed_loop
      00FDE8E3H   LINE      ECODE    ---       #35
      00FDE8E3H   LINE      ECODE    ---       #36
      00FDE8E3H   LINE      ECODE    ---       #42
L251 LINKER/LOCATER V4.66.93.0                                                        05/01/2026  15:28:45  PAGE 247


      00FDE8EFH   LINE      ECODE    ---       #43
      00FDE913H   LINE      ECODE    ---       #46
      00FDE967H   LINE      ECODE    ---       #51
      00FDE991H   LINE      ECODE    ---       #52
      00FDE9BBH   LINE      ECODE    ---       #55
      00FDE9DAH   LINE      ECODE    ---       #57
      00FDE9EEH   LINE      ECODE    ---       #59
      00FDEA18H   LINE      ECODE    ---       #60
      00FDEA42H   LINE      ECODE    ---       #61
      00FDEA6CH   LINE      ECODE    ---       #62
      ---         BLOCKEND  ---      ---       LVL=0

      00FDEA97H   BLOCK     ECODE    ---       LVL=0
      00012A8BH   SYMBOL    XDATA    INT       speed_L_t
      00012A8DH   SYMBOL    XDATA    INT       speed_R_t
      00FDEAA3H   BLOCK     ECODE    NEAR LAB  LVL=1
      000113D3H   SYMBOL    XDATA    INT       err_speed_L_last
      000113D5H   SYMBOL    XDATA    INT       err_speed_L
      000113D7H   SYMBOL    XDATA    FLOAT     dec_speed_loop_L
      000113DBH   SYMBOL    XDATA    INT       err_speed_R_last
      000113DDH   SYMBOL    XDATA    INT       err_speed_R
      000113DFH   SYMBOL    XDATA    FLOAT     dec_speed_loop_R
      ---         BLOCKEND  ---      ---       LVL=1
      00FDEA97H   LINE      ECODE    ---       #67
      00FDEAA3H   LINE      ECODE    ---       #68
      00FDEAA3H   LINE      ECODE    ---       #80
      00FDEAAFH   LINE      ECODE    ---       #81
      00FDEAD3H   LINE      ECODE    ---       #84
      00FDEB27H   LINE      ECODE    ---       #88
      00FDEB51H   LINE      ECODE    ---       #89
      00FDEB7BH   LINE      ECODE    ---       #92
      00FDEB9AH   LINE      ECODE    ---       #99
      00FDEBA6H   LINE      ECODE    ---       #100
      00FDEBCAH   LINE      ECODE    ---       #103
      00FDEC1EH   LINE      ECODE    ---       #107
      00FDEC48H   LINE      ECODE    ---       #108
      00FDEC72H   LINE      ECODE    ---       #111
      00FDEC91H   LINE      ECODE    ---       #113
      00FDECBBH   LINE      ECODE    ---       #114
      00FDECE5H   LINE      ECODE    ---       #115
      00FDED0FH   LINE      ECODE    ---       #116
      ---         BLOCKEND  ---      ---       LVL=0

      00FDED3AH   BLOCK     ECODE    ---       LVL=0
      00012A8FH   SYMBOL    XDATA    FLOAT     err_position
      00FDED44H   BLOCK     ECODE    NEAR LAB  LVL=1
      000113E3H   SYMBOL    XDATA    FLOAT     err_feedforward
      000113EBH   SYMBOL    XDATA    FLOAT     dec
      000113EFH   SYMBOL    XDATA    ---       direction_err1
      000113FFH   SYMBOL    XDATA    ---       direction_err2
      00011407H   SYMBOL    XDATA    FLOAT     expect_gyro_last
      0001140BH   SYMBOL    XDATA    FLOAT     correct_L_last
      0001140FH   SYMBOL    XDATA    FLOAT     D_err
      00011413H   SYMBOL    XDATA    INT       flag
      ---         BLOCKEND  ---      ---       LVL=1
      00FDED3AH   LINE      ECODE    ---       #125
      00FDED44H   LINE      ECODE    ---       #126
      00FDED44H   LINE      ECODE    ---       #134
      00FDED58H   LINE      ECODE    ---       #135
      00FDED6CH   LINE      ECODE    ---       #136
      00FDED80H   LINE      ECODE    ---       #139
      00FDEDA2H   LINE      ECODE    ---       #155
      00FDEDF4H   LINE      ECODE    ---       #159
      00FDEE22H   LINE      ECODE    ---       #160
      ---         BLOCKEND  ---      ---       LVL=0
L251 LINKER/LOCATER V4.66.93.0                                                        05/01/2026  15:28:45  PAGE 248



      ---         MODULE    ---      ---       Tracing
      000118F5H   PUBLIC    XDATA    INT       speed_target
      000118F7H   PUBLIC    XDATA    ---       pid_motor_run
      0001190FH   PUBLIC    XDATA    FLOAT     limit_gyro
      00011913H   PUBLIC    XDATA    ---       pid_loop_speed
      000000D0H   SFRSYM    DATA     BYTE      PSW
      0000009DH   SFRSYM    DATA     BYTE      IRCBAND
      00000097H   SFRSYM    DATA     BYTE      AUXR2
      000000EAH   SFRSYM    DATA     BYTE      CKCON
      000000EFH   SFRSYM    DATA     BYTE      AUXINTIF
      000000FDH   SFRSYM    DATA     BYTE      S4CON
      000000ACH   SFRSYM    DATA     BYTE      S3CON
      0000009AH   SFRSYM    DATA     BYTE      S2CON
      000000B7H   SFRSYM    DATA     BYTE      IPH
      000000CDH   SFRSYM    DATA     BYTE      SPSTAT
      000000DDH   SFRSYM    DATA     BYTE      T4T3M
      000000C1H   SFRSYM    DATA     BYTE      WDT_CONTR
      000000DFH   SFRSYM    DATA     BYTE      IP3
      000000F4H   SFRSYM    DATA     BYTE      USBCON
      000000B5H   SFRSYM    DATA     BYTE      IP2
      000000FFH   SFRSYM    DATA     BYTE      RSTCFG
      000000E0H   SFRSYM    DATA     BYTE      ACC
      000000C7H   SFRSYM    DATA     BYTE      IAP_CONTR
      000000F9H   SFRSYM    DATA     BYTE      LINICR
      0000008EH   SFRSYM    DATA     BYTE      AUXR
      000000F0H   SFRSYM    DATA     BYTE      B
      000000AFH   SFRSYM    DATA     BYTE      IE2
      00000088H   SFRSYM    DATA     BYTE      TCON
      00000089H   SFRSYM    DATA     BYTE      TMOD
      00000098H   SFRSYM    DATA     BYTE      SCON
      00000087H   SFRSYM    DATA     BYTE      PCON
      000000BCH   SFRSYM    DATA     BYTE      ADC_CONTR
      000000D1H   SFRSYM    DATA     BYTE      PSW1
      000000E7H   SFRSYM    DATA     BYTE      CMPCR2
      000000E6H   SFRSYM    DATA     BYTE      CMPCR1
      000000DEH   SFRSYM    DATA     BYTE      ADCCFG
      000000B8H   SFRSYM    DATA     BYTE      IP
      0000008FH   SFRSYM    DATA     BYTE      INTCLKO
      000000EEH   SFRSYM    DATA     BYTE      IP3H
      000000B6H   SFRSYM    DATA     BYTE      IP2H
      000000BFH   SFRSYM    DATA     BYTE      P_SW4
      000000A8H   SFRSYM    DATA     BYTE      IE
      000000BBH   SFRSYM    DATA     BYTE      P_SW3
      000000BAH   SFRSYM    DATA     BYTE      P_SW2
      000000A2H   SFRSYM    DATA     BYTE      P_SW1
      000000CEH   SFRSYM    DATA     BYTE      SPCTL
      000000F8H   SFRSYM    DATA     BYTE      P7
      000000E8H   SFRSYM    DATA     BYTE      P6
      000000C8H   SFRSYM    DATA     BYTE      P5
      000000C0H   SFRSYM    DATA     BYTE      P4
      000000ABH   SFRSYM    DATA     BYTE      WKTCH
      000000B0H   SFRSYM    DATA     BYTE      P3
      000000A0H   SFRSYM    DATA     BYTE      P2
      00000090H   SFRSYM    DATA     BYTE      P1
      00000080H   SFRSYM    DATA     BYTE      P0

      ---         MODULE    ---      ---       TFT
      00FE21E6H   PUBLIC    ECODE    ---       TFT_Debug?
      000000D0H   SFRSYM    DATA     BYTE      PSW
      0000009DH   SFRSYM    DATA     BYTE      IRCBAND
      00000097H   SFRSYM    DATA     BYTE      AUXR2
      000000EAH   SFRSYM    DATA     BYTE      CKCON
      000000EFH   SFRSYM    DATA     BYTE      AUXINTIF
      000000FDH   SFRSYM    DATA     BYTE      S4CON
L251 LINKER/LOCATER V4.66.93.0                                                        05/01/2026  15:28:45  PAGE 249


      000000ACH   SFRSYM    DATA     BYTE      S3CON
      0000009AH   SFRSYM    DATA     BYTE      S2CON
      000000B7H   SFRSYM    DATA     BYTE      IPH
      000000CDH   SFRSYM    DATA     BYTE      SPSTAT
      000000DDH   SFRSYM    DATA     BYTE      T4T3M
      000000C1H   SFRSYM    DATA     BYTE      WDT_CONTR
      000000DFH   SFRSYM    DATA     BYTE      IP3
      000000F4H   SFRSYM    DATA     BYTE      USBCON
      000000B5H   SFRSYM    DATA     BYTE      IP2
      000000FFH   SFRSYM    DATA     BYTE      RSTCFG
      000000E0H   SFRSYM    DATA     BYTE      ACC
      000000C7H   SFRSYM    DATA     BYTE      IAP_CONTR
      000000F9H   SFRSYM    DATA     BYTE      LINICR
      0000008EH   SFRSYM    DATA     BYTE      AUXR
      000000F0H   SFRSYM    DATA     BYTE      B
      000000AFH   SFRSYM    DATA     BYTE      IE2
      00000088H   SFRSYM    DATA     BYTE      TCON
      00000089H   SFRSYM    DATA     BYTE      TMOD
      00000098H   SFRSYM    DATA     BYTE      SCON
      00000087H   SFRSYM    DATA     BYTE      PCON
      000000BCH   SFRSYM    DATA     BYTE      ADC_CONTR
      000000D1H   SFRSYM    DATA     BYTE      PSW1
      000000E7H   SFRSYM    DATA     BYTE      CMPCR2
      000000E6H   SFRSYM    DATA     BYTE      CMPCR1
      000000DEH   SFRSYM    DATA     BYTE      ADCCFG
      000000B8H   SFRSYM    DATA     BYTE      IP
      0000008FH   SFRSYM    DATA     BYTE      INTCLKO
      000000EEH   SFRSYM    DATA     BYTE      IP3H
      000000B6H   SFRSYM    DATA     BYTE      IP2H
      000000BFH   SFRSYM    DATA     BYTE      P_SW4
      000000A8H   SFRSYM    DATA     BYTE      IE
      000000BBH   SFRSYM    DATA     BYTE      P_SW3
      000000BAH   SFRSYM    DATA     BYTE      P_SW2
      000000A2H   SFRSYM    DATA     BYTE      P_SW1
      000000CEH   SFRSYM    DATA     BYTE      SPCTL
      000000F8H   SFRSYM    DATA     BYTE      P7
      000000E8H   SFRSYM    DATA     BYTE      P6
      000000C8H   SFRSYM    DATA     BYTE      P5
      000000C0H   SFRSYM    DATA     BYTE      P4
      000000ABH   SFRSYM    DATA     BYTE      WKTCH
      000000B0H   SFRSYM    DATA     BYTE      P3
      000000A0H   SFRSYM    DATA     BYTE      P2
      00000090H   SFRSYM    DATA     BYTE      P1
      00000080H   SFRSYM    DATA     BYTE      P0

      00FE21E6H   BLOCK     ECODE    ---       LVL=0
      00FE21E6H   LINE      ECODE    ---       #2
      00FE21E6H   LINE      ECODE    ---       #5
      00FE21F6H   LINE      ECODE    ---       #6
      00FE2225H   LINE      ECODE    ---       #7
      00FE2237H   LINE      ECODE    ---       #8
      00FE2268H   LINE      ECODE    ---       #10
      00FE227AH   LINE      ECODE    ---       #11
      00FE22ABH   LINE      ECODE    ---       #12
      00FE22BDH   LINE      ECODE    ---       #13
      00FE22EDH   LINE      ECODE    ---       #14
      00FE22FFH   LINE      ECODE    ---       #15
      00FE232FH   LINE      ECODE    ---       #16
      00FE2341H   LINE      ECODE    ---       #17
      00FE2372H   LINE      ECODE    ---       #18
      00FE2384H   LINE      ECODE    ---       #19
      00FE23B5H   LINE      ECODE    ---       #43
      ---         BLOCKEND  ---      ---       LVL=0

      ---         MODULE    ---      ---       wifi
L251 LINKER/LOCATER V4.66.93.0                                                        05/01/2026  15:28:45  PAGE 250


      00FE2E62H   PUBLIC    ECODE    ---       Wifi_Init?
      000000D0H   SFRSYM    DATA     BYTE      PSW
      0000009DH   SFRSYM    DATA     BYTE      IRCBAND
      00000097H   SFRSYM    DATA     BYTE      AUXR2
      000000EAH   SFRSYM    DATA     BYTE      CKCON
      000000EFH   SFRSYM    DATA     BYTE      AUXINTIF
      000000FDH   SFRSYM    DATA     BYTE      S4CON
      000000ACH   SFRSYM    DATA     BYTE      S3CON
      0000009AH   SFRSYM    DATA     BYTE      S2CON
      000000B7H   SFRSYM    DATA     BYTE      IPH
      000000CDH   SFRSYM    DATA     BYTE      SPSTAT
      000000DDH   SFRSYM    DATA     BYTE      T4T3M
      000000C1H   SFRSYM    DATA     BYTE      WDT_CONTR
      000000DFH   SFRSYM    DATA     BYTE      IP3
      000000F4H   SFRSYM    DATA     BYTE      USBCON
      000000B5H   SFRSYM    DATA     BYTE      IP2
      000000FFH   SFRSYM    DATA     BYTE      RSTCFG
      000000E0H   SFRSYM    DATA     BYTE      ACC
      000000C7H   SFRSYM    DATA     BYTE      IAP_CONTR
      000000F9H   SFRSYM    DATA     BYTE      LINICR
      0000008EH   SFRSYM    DATA     BYTE      AUXR
      000000F0H   SFRSYM    DATA     BYTE      B
      000000AFH   SFRSYM    DATA     BYTE      IE2
      00000088H   SFRSYM    DATA     BYTE      TCON
      00000089H   SFRSYM    DATA     BYTE      TMOD
      00000098H   SFRSYM    DATA     BYTE      SCON
      00000087H   SFRSYM    DATA     BYTE      PCON
      000000BCH   SFRSYM    DATA     BYTE      ADC_CONTR
      000000D1H   SFRSYM    DATA     BYTE      PSW1
      000000E7H   SFRSYM    DATA     BYTE      CMPCR2
      000000E6H   SFRSYM    DATA     BYTE      CMPCR1
      000000DEH   SFRSYM    DATA     BYTE      ADCCFG
      000000B8H   SFRSYM    DATA     BYTE      IP
      0000008FH   SFRSYM    DATA     BYTE      INTCLKO
      000000EEH   SFRSYM    DATA     BYTE      IP3H
      000000B6H   SFRSYM    DATA     BYTE      IP2H
      000000BFH   SFRSYM    DATA     BYTE      P_SW4
      000000A8H   SFRSYM    DATA     BYTE      IE
      000000BBH   SFRSYM    DATA     BYTE      P_SW3
      000000BAH   SFRSYM    DATA     BYTE      P_SW2
      000000A2H   SFRSYM    DATA     BYTE      P_SW1
      000000CEH   SFRSYM    DATA     BYTE      SPCTL
      000000F8H   SFRSYM    DATA     BYTE      P7
      000000E8H   SFRSYM    DATA     BYTE      P6
      000000C8H   SFRSYM    DATA     BYTE      P5
      000000C0H   SFRSYM    DATA     BYTE      P4
      000000ABH   SFRSYM    DATA     BYTE      WKTCH
      000000B0H   SFRSYM    DATA     BYTE      P3
      000000A0H   SFRSYM    DATA     BYTE      P2
      00000090H   SFRSYM    DATA     BYTE      P1
      00000080H   SFRSYM    DATA     BYTE      P0

      00FE2E62H   BLOCK     ECODE    ---       LVL=0
      00FE2E62H   LINE      ECODE    ---       #8
      00FE2E62H   LINE      ECODE    ---       #10
      00FE2E64H   LINE      ECODE    ---       #12
      00FE2E70H   LINE      ECODE    ---       #13
      00FE2E8EH   LINE      ECODE    ---       #14
      00FE2EA7H   LINE      ECODE    ---       #16
      00FE2EC5H   LINE      ECODE    ---       #17
      00FE2EE3H   LINE      ECODE    ---       #18
      00FE2F01H   LINE      ECODE    ---       #23
      00FE2F03H   LINE      ECODE    ---       #30
      00FE2F0FH   LINE      ECODE    ---       #31
      00FE2F2DH   LINE      ECODE    ---       #32
L251 LINKER/LOCATER V4.66.93.0                                                        05/01/2026  15:28:45  PAGE 251


      00FE2F6AH   LINE      ECODE    ---       #33
      ---         BLOCKEND  ---      ---       LVL=0

      ---         MODULE    ---      ---       isr
      00FDC741H   PUBLIC    ECODE    ---       TM17_TM18_IRQHandler?
      00FDC6ECH   PUBLIC    ECODE    ---       TM11_IRQHandler?
      00FDC4D3H   PUBLIC    ECODE    ---       TM5_TM6_IRQHandler?
      00FDC821H   PUBLIC    ECODE    ---       DMA_LCM_IRQHandler?
      00FDC7F4H   PUBLIC    ECODE    ---       INT1_IRQHandler?
      00FDBE9CH   PUBLIC    ECODE    ---       DMA_UART1_IRQHandler?
      00FDBF54H   PUBLIC    ECODE    ---       DMA_UART2_IRQHandler?
      00FDBFEBH   PUBLIC    ECODE    ---       DMA_UART3_IRQHandler?
      00FDC082H   PUBLIC    ECODE    ---       DMA_UART4_IRQHandler?
      00FDC119H   PUBLIC    ECODE    ---       DMA_UART5_IRQHandler?
      00FDC1B0H   PUBLIC    ECODE    ---       DMA_UART6_IRQHandler?
      00FDC247H   PUBLIC    ECODE    ---       DMA_UART7_IRQHandler?
      00FDC2DEH   PUBLIC    ECODE    ---       DMA_UART8_IRQHandler?
      00FDC639H   PUBLIC    ECODE    ---       TM9_TM10_IRQHandler?
      00FDC375H   PUBLIC    ECODE    ---       TM0_IRQHandler?
      00FDC3BBH   PUBLIC    ECODE    ---       TM1_IRQHandler?
      00FDC401H   PUBLIC    ECODE    ---       TM2_IRQHandler?
      00FDC447H   PUBLIC    ECODE    ---       TM3_IRQHandler?
      00FDC48DH   PUBLIC    ECODE    ---       TM4_IRQHandler?
      00FDC586H   PUBLIC    ECODE    ---       TM7_IRQHandler?
      000000D0H   SFRSYM    DATA     BYTE      PSW
      0000009DH   SFRSYM    DATA     BYTE      IRCBAND
      00000097H   SFRSYM    DATA     BYTE      AUXR2
      000000EAH   SFRSYM    DATA     BYTE      CKCON
      000000EFH   SFRSYM    DATA     BYTE      AUXINTIF
      000000FDH   SFRSYM    DATA     BYTE      S4CON
      000000ACH   SFRSYM    DATA     BYTE      S3CON
      0000009AH   SFRSYM    DATA     BYTE      S2CON
      000000B7H   SFRSYM    DATA     BYTE      IPH
      000000CDH   SFRSYM    DATA     BYTE      SPSTAT
      000000DDH   SFRSYM    DATA     BYTE      T4T3M
      000000C1H   SFRSYM    DATA     BYTE      WDT_CONTR
      000000DFH   SFRSYM    DATA     BYTE      IP3
      000000F4H   SFRSYM    DATA     BYTE      USBCON
      000000B5H   SFRSYM    DATA     BYTE      IP2
      000000FFH   SFRSYM    DATA     BYTE      RSTCFG
      000000E0H   SFRSYM    DATA     BYTE      ACC
      000000C7H   SFRSYM    DATA     BYTE      IAP_CONTR
      000000F9H   SFRSYM    DATA     BYTE      LINICR
      0000008EH   SFRSYM    DATA     BYTE      AUXR
      000000F0H   SFRSYM    DATA     BYTE      B
      000000AFH   SFRSYM    DATA     BYTE      IE2
      00000088H   SFRSYM    DATA     BYTE      TCON
      00000089H   SFRSYM    DATA     BYTE      TMOD
      00000098H   SFRSYM    DATA     BYTE      SCON
      00000087H   SFRSYM    DATA     BYTE      PCON
      000000BCH   SFRSYM    DATA     BYTE      ADC_CONTR
      000000D1H   SFRSYM    DATA     BYTE      PSW1
      000000E7H   SFRSYM    DATA     BYTE      CMPCR2
      000000E6H   SFRSYM    DATA     BYTE      CMPCR1
      000000DEH   SFRSYM    DATA     BYTE      ADCCFG
      000000B8H   SFRSYM    DATA     BYTE      IP
      0000008FH   SFRSYM    DATA     BYTE      INTCLKO
      000000EEH   SFRSYM    DATA     BYTE      IP3H
      000000B6H   SFRSYM    DATA     BYTE      IP2H
      000000BFH   SFRSYM    DATA     BYTE      P_SW4
      000000A8H   SFRSYM    DATA     BYTE      IE
      000000BBH   SFRSYM    DATA     BYTE      P_SW3
      000000BAH   SFRSYM    DATA     BYTE      P_SW2
      000000A2H   SFRSYM    DATA     BYTE      P_SW1
      000000CEH   SFRSYM    DATA     BYTE      SPCTL
L251 LINKER/LOCATER V4.66.93.0                                                        05/01/2026  15:28:45  PAGE 252


      000000F8H   SFRSYM    DATA     BYTE      P7
      000000E8H   SFRSYM    DATA     BYTE      P6
      000000C8H   SFRSYM    DATA     BYTE      P5
      000000C0H   SFRSYM    DATA     BYTE      P4
      000000ABH   SFRSYM    DATA     BYTE      WKTCH
      000000B0H   SFRSYM    DATA     BYTE      P3
      000000A0H   SFRSYM    DATA     BYTE      P2
      00000090H   SFRSYM    DATA     BYTE      P1
      00000080H   SFRSYM    DATA     BYTE      P0

      00FDBE9CH   BLOCK     ECODE    ---       LVL=0
      00FDBEB0H   BLOCK     ECODE    NEAR LAB  LVL=1
      00012B10H   SYMBOL    XDATA    BYTE      dwon_count
      ---         BLOCKEND  ---      ---       LVL=1
      00FDBE9CH   LINE      ECODE    ---       #38
      00FDBEB0H   LINE      ECODE    ---       #39
      00FDBEB0H   LINE      ECODE    ---       #42
      00FDBEBEH   LINE      ECODE    ---       #44
      00FDBED0H   LINE      ECODE    ---       #45
      00FDBED6H   LINE      ECODE    ---       #48
      00FDBEDFH   LINE      ECODE    ---       #50
      00FDBEF0H   LINE      ECODE    ---       #52
      00FDBEF4H   LINE      ECODE    ---       #53
      00FDBEF6H   LINE      ECODE    ---       #57
      00FDBEFBH   LINE      ECODE    ---       #58
      00FDBEFBH   LINE      ECODE    ---       #60
      00FDBF09H   LINE      ECODE    ---       #62
      00FDBF19H   LINE      ECODE    ---       #63
      00FDBF19H   LINE      ECODE    ---       #66
      00FDBF27H   LINE      ECODE    ---       #68
      00FDBF39H   LINE      ECODE    ---       #69
      00FDBF3FH   LINE      ECODE    ---       #73
      ---         BLOCKEND  ---      ---       LVL=0

      00FDBF54H   BLOCK     ECODE    ---       LVL=0
      00FDBF54H   LINE      ECODE    ---       #76
      00FDBF68H   LINE      ECODE    ---       #78
      00FDBF76H   LINE      ECODE    ---       #80
      00FDBF88H   LINE      ECODE    ---       #81
      00FDBF90H   LINE      ECODE    ---       #83
      00FDBF9EH   LINE      ECODE    ---       #85
      00FDBFAEH   LINE      ECODE    ---       #86
      00FDBFAEH   LINE      ECODE    ---       #89
      00FDBFBCH   LINE      ECODE    ---       #91
      00FDBFCEH   LINE      ECODE    ---       #92
      00FDBFD6H   LINE      ECODE    ---       #96
      ---         BLOCKEND  ---      ---       LVL=0

      00FDBFEBH   BLOCK     ECODE    ---       LVL=0
      00FDBFEBH   LINE      ECODE    ---       #99
      00FDBFFFH   LINE      ECODE    ---       #101
      00FDC00DH   LINE      ECODE    ---       #103
      00FDC01FH   LINE      ECODE    ---       #104
      00FDC027H   LINE      ECODE    ---       #106
      00FDC035H   LINE      ECODE    ---       #108
      00FDC045H   LINE      ECODE    ---       #109
      00FDC045H   LINE      ECODE    ---       #112
      00FDC053H   LINE      ECODE    ---       #114
      00FDC065H   LINE      ECODE    ---       #115
      00FDC06DH   LINE      ECODE    ---       #119
      ---         BLOCKEND  ---      ---       LVL=0

      00FDC082H   BLOCK     ECODE    ---       LVL=0
      00FDC082H   LINE      ECODE    ---       #122
      00FDC096H   LINE      ECODE    ---       #124
L251 LINKER/LOCATER V4.66.93.0                                                        05/01/2026  15:28:45  PAGE 253


      00FDC0A4H   LINE      ECODE    ---       #126
      00FDC0B6H   LINE      ECODE    ---       #127
      00FDC0BEH   LINE      ECODE    ---       #129
      00FDC0CCH   LINE      ECODE    ---       #131
      00FDC0DCH   LINE      ECODE    ---       #132
      00FDC0DCH   LINE      ECODE    ---       #135
      00FDC0EAH   LINE      ECODE    ---       #137
      00FDC0FCH   LINE      ECODE    ---       #138
      00FDC104H   LINE      ECODE    ---       #142
      ---         BLOCKEND  ---      ---       LVL=0

      00FDC119H   BLOCK     ECODE    ---       LVL=0
      00FDC119H   LINE      ECODE    ---       #146
      00FDC12DH   LINE      ECODE    ---       #148
      00FDC13BH   LINE      ECODE    ---       #150
      00FDC14DH   LINE      ECODE    ---       #151
      00FDC155H   LINE      ECODE    ---       #153
      00FDC163H   LINE      ECODE    ---       #155
      00FDC173H   LINE      ECODE    ---       #156
      00FDC173H   LINE      ECODE    ---       #159
      00FDC181H   LINE      ECODE    ---       #161
      00FDC193H   LINE      ECODE    ---       #162
      00FDC19BH   LINE      ECODE    ---       #166
      ---         BLOCKEND  ---      ---       LVL=0

      00FDC1B0H   BLOCK     ECODE    ---       LVL=0
      00FDC1B0H   LINE      ECODE    ---       #169
      00FDC1C4H   LINE      ECODE    ---       #171
      00FDC1D2H   LINE      ECODE    ---       #173
      00FDC1E4H   LINE      ECODE    ---       #174
      00FDC1ECH   LINE      ECODE    ---       #176
      00FDC1FAH   LINE      ECODE    ---       #178
      00FDC20AH   LINE      ECODE    ---       #179
      00FDC20AH   LINE      ECODE    ---       #182
      00FDC218H   LINE      ECODE    ---       #184
      00FDC22AH   LINE      ECODE    ---       #185
      00FDC232H   LINE      ECODE    ---       #189
      ---         BLOCKEND  ---      ---       LVL=0

      00FDC247H   BLOCK     ECODE    ---       LVL=0
      00FDC247H   LINE      ECODE    ---       #192
      00FDC25BH   LINE      ECODE    ---       #194
      00FDC269H   LINE      ECODE    ---       #196
      00FDC27BH   LINE      ECODE    ---       #197
      00FDC283H   LINE      ECODE    ---       #199
      00FDC291H   LINE      ECODE    ---       #201
      00FDC2A1H   LINE      ECODE    ---       #202
      00FDC2A1H   LINE      ECODE    ---       #205
      00FDC2AFH   LINE      ECODE    ---       #207
      00FDC2C1H   LINE      ECODE    ---       #208
      00FDC2C9H   LINE      ECODE    ---       #212
      ---         BLOCKEND  ---      ---       LVL=0

      00FDC2DEH   BLOCK     ECODE    ---       LVL=0
      00FDC2DEH   LINE      ECODE    ---       #215
      00FDC2F2H   LINE      ECODE    ---       #217
      00FDC300H   LINE      ECODE    ---       #219
      00FDC312H   LINE      ECODE    ---       #220
      00FDC31AH   LINE      ECODE    ---       #222
      00FDC328H   LINE      ECODE    ---       #224
      00FDC338H   LINE      ECODE    ---       #225
      00FDC338H   LINE      ECODE    ---       #228
      00FDC346H   LINE      ECODE    ---       #230
      00FDC358H   LINE      ECODE    ---       #231
      00FDC360H   LINE      ECODE    ---       #235
L251 LINKER/LOCATER V4.66.93.0                                                        05/01/2026  15:28:45  PAGE 254


      ---         BLOCKEND  ---      ---       LVL=0

      00FDC375H   BLOCK     ECODE    ---       LVL=0
      00FDC375H   LINE      ECODE    ---       #239
      00FDC389H   LINE      ECODE    ---       #241
      00FDC38CH   LINE      ECODE    ---       #242
      00FDC39AH   LINE      ECODE    ---       #244
      00FDC3A6H   LINE      ECODE    ---       #245
      ---         BLOCKEND  ---      ---       LVL=0

      00FDC3BBH   BLOCK     ECODE    ---       LVL=0
      00FDC3BBH   LINE      ECODE    ---       #248
      00FDC3CFH   LINE      ECODE    ---       #250
      00FDC3D2H   LINE      ECODE    ---       #251
      00FDC3E0H   LINE      ECODE    ---       #253
      00FDC3ECH   LINE      ECODE    ---       #254
      ---         BLOCKEND  ---      ---       LVL=0

      00FDC401H   BLOCK     ECODE    ---       LVL=0
      00FDC401H   LINE      ECODE    ---       #257
      00FDC415H   LINE      ECODE    ---       #259
      00FDC418H   LINE      ECODE    ---       #260
      00FDC426H   LINE      ECODE    ---       #262
      00FDC432H   LINE      ECODE    ---       #263
      ---         BLOCKEND  ---      ---       LVL=0

      00FDC447H   BLOCK     ECODE    ---       LVL=0
      00FDC447H   LINE      ECODE    ---       #266
      00FDC45BH   LINE      ECODE    ---       #268
      00FDC45EH   LINE      ECODE    ---       #269
      00FDC46CH   LINE      ECODE    ---       #271
      00FDC478H   LINE      ECODE    ---       #272
      ---         BLOCKEND  ---      ---       LVL=0

      00FDC48DH   BLOCK     ECODE    ---       LVL=0
      00FDC48DH   LINE      ECODE    ---       #275
      00FDC4A1H   LINE      ECODE    ---       #277
      00FDC4A4H   LINE      ECODE    ---       #278
      00FDC4B2H   LINE      ECODE    ---       #280
      00FDC4BEH   LINE      ECODE    ---       #281
      ---         BLOCKEND  ---      ---       LVL=0

      00FDC4D3H   BLOCK     ECODE    ---       LVL=0
      00FDC4D3H   LINE      ECODE    ---       #284
      00FDC4E7H   LINE      ECODE    ---       #286
      00FDC500H   LINE      ECODE    ---       #288
      00FDC512H   LINE      ECODE    ---       #289
      00FDC520H   LINE      ECODE    ---       #291
      00FDC52CH   LINE      ECODE    ---       #292
      00FDC52CH   LINE      ECODE    ---       #295
      00FDC545H   LINE      ECODE    ---       #297
      00FDC557H   LINE      ECODE    ---       #298
      00FDC565H   LINE      ECODE    ---       #300
      00FDC571H   LINE      ECODE    ---       #301
      00FDC571H   LINE      ECODE    ---       #303
      ---         BLOCKEND  ---      ---       LVL=0

      00FDC586H   BLOCK     ECODE    ---       LVL=0
      00FDC586H   LINE      ECODE    ---       #305
      00FDC59AH   LINE      ECODE    ---       #307
      00FDC5B3H   LINE      ECODE    ---       #309
      00FDC5C5H   LINE      ECODE    ---       #310
      00FDC5D3H   LINE      ECODE    ---       #312
      00FDC5DFH   LINE      ECODE    ---       #313
      00FDC5DFH   LINE      ECODE    ---       #316
L251 LINKER/LOCATER V4.66.93.0                                                        05/01/2026  15:28:45  PAGE 255


      00FDC5F8H   LINE      ECODE    ---       #318
      00FDC60AH   LINE      ECODE    ---       #319
      00FDC618H   LINE      ECODE    ---       #321
      00FDC624H   LINE      ECODE    ---       #322
      00FDC624H   LINE      ECODE    ---       #324
      ---         BLOCKEND  ---      ---       LVL=0

      00FDC639H   BLOCK     ECODE    ---       LVL=0
      00FDC639H   LINE      ECODE    ---       #327
      00FDC64DH   LINE      ECODE    ---       #329
      00FDC666H   LINE      ECODE    ---       #331
      00FDC678H   LINE      ECODE    ---       #332
      00FDC686H   LINE      ECODE    ---       #334
      00FDC692H   LINE      ECODE    ---       #335
      00FDC692H   LINE      ECODE    ---       #338
      00FDC6ABH   LINE      ECODE    ---       #340
      00FDC6BDH   LINE      ECODE    ---       #341
      00FDC6CBH   LINE      ECODE    ---       #343
      00FDC6D7H   LINE      ECODE    ---       #344
      00FDC6D7H   LINE      ECODE    ---       #346
      ---         BLOCKEND  ---      ---       LVL=0

      00FDC6ECH   BLOCK     ECODE    ---       LVL=0
      00FDC6ECH   LINE      ECODE    ---       #350
      00FDC700H   LINE      ECODE    ---       #352
      00FDC712H   LINE      ECODE    ---       #354
      00FDC720H   LINE      ECODE    ---       #356
      00FDC72CH   LINE      ECODE    ---       #357
      ---         BLOCKEND  ---      ---       LVL=0

      00FDC741H   BLOCK     ECODE    ---       LVL=0
      00FDC741H   LINE      ECODE    ---       #360
      00FDC755H   LINE      ECODE    ---       #362
      00FDC76EH   LINE      ECODE    ---       #364
      00FDC780H   LINE      ECODE    ---       #365
      00FDC78EH   LINE      ECODE    ---       #367
      00FDC79AH   LINE      ECODE    ---       #368
      00FDC79AH   LINE      ECODE    ---       #371
      00FDC7B3H   LINE      ECODE    ---       #373
      00FDC7C5H   LINE      ECODE    ---       #374
      00FDC7D3H   LINE      ECODE    ---       #376
      00FDC7DFH   LINE      ECODE    ---       #377
      00FDC7DFH   LINE      ECODE    ---       #379
      ---         BLOCKEND  ---      ---       LVL=0

      00FDC7F4H   BLOCK     ECODE    ---       LVL=0
      00FDC7F4H   LINE      ECODE    ---       #381
      00FDC808H   LINE      ECODE    ---       #387
      00FDC80CH   LINE      ECODE    ---       #388
      ---         BLOCKEND  ---      ---       LVL=0

      00FDC821H   BLOCK     ECODE    ---       LVL=0
      00FDC821H   LINE      ECODE    ---       #391
      00FDC835H   LINE      ECODE    ---       #393
      00FDC839H   LINE      ECODE    ---       #394
      ---         BLOCKEND  ---      ---       LVL=0

      ---         MODULE    ---      ---       main
      00FE2008H   PUBLIC    ECODE    ---       main?
      00FE21D7H   PUBLIC    ECODE    ---       Pit_Steering_PD?
      00FE2036H   PUBLIC    ECODE    ---       _m?
      00FE21CAH   PUBLIC    ECODE    ---       Pit_funciton?
      000000D0H   SFRSYM    DATA     BYTE      PSW
      0000009DH   SFRSYM    DATA     BYTE      IRCBAND
      00000097H   SFRSYM    DATA     BYTE      AUXR2
L251 LINKER/LOCATER V4.66.93.0                                                        05/01/2026  15:28:45  PAGE 256


      000000EAH   SFRSYM    DATA     BYTE      CKCON
      000000EFH   SFRSYM    DATA     BYTE      AUXINTIF
      000000FDH   SFRSYM    DATA     BYTE      S4CON
      000000ACH   SFRSYM    DATA     BYTE      S3CON
      0000009AH   SFRSYM    DATA     BYTE      S2CON
      000000B7H   SFRSYM    DATA     BYTE      IPH
      000000CDH   SFRSYM    DATA     BYTE      SPSTAT
      000000DDH   SFRSYM    DATA     BYTE      T4T3M
      000000C1H   SFRSYM    DATA     BYTE      WDT_CONTR
      000000DFH   SFRSYM    DATA     BYTE      IP3
      000000F4H   SFRSYM    DATA     BYTE      USBCON
      000000B5H   SFRSYM    DATA     BYTE      IP2
      000000FFH   SFRSYM    DATA     BYTE      RSTCFG
      000000E0H   SFRSYM    DATA     BYTE      ACC
      000000C7H   SFRSYM    DATA     BYTE      IAP_CONTR
      000000F9H   SFRSYM    DATA     BYTE      LINICR
      0000008EH   SFRSYM    DATA     BYTE      AUXR
      000000F0H   SFRSYM    DATA     BYTE      B
      000000AFH   SFRSYM    DATA     BYTE      IE2
      00000088H   SFRSYM    DATA     BYTE      TCON
      00000089H   SFRSYM    DATA     BYTE      TMOD
      00000098H   SFRSYM    DATA     BYTE      SCON
      00000087H   SFRSYM    DATA     BYTE      PCON
      000000BCH   SFRSYM    DATA     BYTE      ADC_CONTR
      000000D1H   SFRSYM    DATA     BYTE      PSW1
      000000E7H   SFRSYM    DATA     BYTE      CMPCR2
      000000E6H   SFRSYM    DATA     BYTE      CMPCR1
      000000DEH   SFRSYM    DATA     BYTE      ADCCFG
      000000B8H   SFRSYM    DATA     BYTE      IP
      0000008FH   SFRSYM    DATA     BYTE      INTCLKO
      000000EEH   SFRSYM    DATA     BYTE      IP3H
      000000B6H   SFRSYM    DATA     BYTE      IP2H
      000000BFH   SFRSYM    DATA     BYTE      P_SW4
      000000A8H   SFRSYM    DATA     BYTE      IE
      000000BBH   SFRSYM    DATA     BYTE      P_SW3
      000000BAH   SFRSYM    DATA     BYTE      P_SW2
      000000A2H   SFRSYM    DATA     BYTE      P_SW1
      000000CEH   SFRSYM    DATA     BYTE      SPCTL
      000000F8H   SFRSYM    DATA     BYTE      P7
      000000E8H   SFRSYM    DATA     BYTE      P6
      000000C8H   SFRSYM    DATA     BYTE      P5
      000000C0H   SFRSYM    DATA     BYTE      P4
      000000ABH   SFRSYM    DATA     BYTE      WKTCH
      000000B0H   SFRSYM    DATA     BYTE      P3
      000000A0H   SFRSYM    DATA     BYTE      P2
      00000090H   SFRSYM    DATA     BYTE      P1
      00000080H   SFRSYM    DATA     BYTE      P0

      00FE2008H   BLOCK     ECODE    ---       LVL=0
      00FE2008H   LINE      ECODE    ---       #47
      ---         BLOCKEND  ---      ---       LVL=0

      00FE2036H   BLOCK     ECODE    ---       LVL=0
      00FE2036H   LINE      ECODE    ---       #47
      00FE2036H   LINE      ECODE    ---       #50
      00FE2042H   LINE      ECODE    ---       #51
      00FE2046H   LINE      ECODE    ---       #52
      00FE204AH   LINE      ECODE    ---       #55
      00FE2050H   LINE      ECODE    ---       #56
      00FE2062H   LINE      ECODE    ---       #58
      00FE209CH   LINE      ECODE    ---       #59
      00FE20D0H   LINE      ECODE    ---       #68
      00FE20D0H   LINE      ECODE    ---       #71
      00FE20D4H   LINE      ECODE    ---       #75
      00FE2100H   LINE      ECODE    ---       #76
L251 LINKER/LOCATER V4.66.93.0                                                        05/01/2026  15:28:45  PAGE 257


      00FE218CH   LINE      ECODE    ---       #77
      00FE2190H   LINE      ECODE    ---       #78
      00FE2198H   LINE      ECODE    ---       #79
      00FE21A0H   LINE      ECODE    ---       #87
      00FE21A8H   LINE      ECODE    ---       #89
      00FE21C6H   LINE      ECODE    ---       #90
      00FE21C9H   LINE      ECODE    ---       #92
      ---         BLOCKEND  ---      ---       LVL=0

      00FE21CAH   BLOCK     ECODE    ---       LVL=0
      00FE21CAH   LINE      ECODE    ---       #93
      00FE21CAH   LINE      ECODE    ---       #95
      00FE21CEH   LINE      ECODE    ---       #96
      00FE21D2H   LINE      ECODE    ---       #104
      00FE21D6H   LINE      ECODE    ---       #106
      ---         BLOCKEND  ---      ---       LVL=0

      00FE21D7H   BLOCK     ECODE    ---       LVL=0
      00FE21D7H   LINE      ECODE    ---       #107
      00FE21D7H   LINE      ECODE    ---       #109
      00FE21E5H   LINE      ECODE    ---       #111
      ---         BLOCKEND  ---      ---       LVL=0

      ---         MODULE    ---      ---       zf_device_config
      00FE325EH   PUBLIC    HCONST   ---       imu660ra_config_file
      00FE525EH   PUBLIC    HCONST   ---       dl1b_config_file
      00FE52E5H   PUBLIC    HCONST   ---       image_frame_header

      ---         MODULE    ---      ---       ?C?DPADD?
      00FD79C9H   PUBLIC    ECODE    ---       ?C?DPADD?
      00FD79C5H   PUBLIC    ECODE    ---       ?C?DPSUB?

      ---         MODULE    ---      ---       ?C?DPMUL?
      00FD7AD8H   PUBLIC    ECODE    ---       ?C?DPMUL?

      ---         MODULE    ---      ---       ?C?DPDIV?
      00FD7BE8H   PUBLIC    ECODE    ---       ?C?DPDIV?

      ---         MODULE    ---      ---       ?C?DPCMP?
      00FD7C87H   PUBLIC    ECODE    ---       ?C?DPCMP3?
      00FD7C89H   PUBLIC    ECODE    ---       ?C?DPCMP?

      ---         MODULE    ---      ---       ?C?DPNEG?
      00FD7CE8H   PUBLIC    ECODE    ---       ?C?DPNEG?

      ---         MODULE    ---      ---       ?C?DCAST?
      00FD7D00H   PUBLIC    ECODE    FAR LAB   ?C?DCASTC?
      00FD7CFBH   PUBLIC    ECODE    FAR LAB   ?C?DCASTI?
      00FD7CF6H   PUBLIC    ECODE    FAR LAB   ?C?DCASTL?

      ---         MODULE    ---      ---       ?C?CASTD?
      00FD7D43H   PUBLIC    ECODE    FAR LAB   ?C?CASTD?

      ---         MODULE    ---      ---       ?C?DCASTF?
      00FD7DA3H   PUBLIC    ECODE    FAR LAB   ?C?DCASTF?

      ---         MODULE    ---      ---       ?C?FCASTD?
      00FD7DE5H   PUBLIC    ECODE    FAR LAB   ?C?FCASTD?

      ---         MODULE    ---      ---       PRINTF?
      00011BD6H   PUBLIC    XDATA    ---       ?PRINTF??BYTE
      00FD7E1CH   PUBLIC    ECODE    FAR LAB   PRINTF?

      ---         MODULE    ---      ---       SPRINTF?
      00011BFEH   PUBLIC    XDATA    ---       ?SPRINTF??BYTE
L251 LINKER/LOCATER V4.66.93.0                                                        05/01/2026  15:28:45  PAGE 258


      00FD7E49H   PUBLIC    ECODE    FAR LAB   SPRINTF?

      ---         MODULE    ---      ---       FABS?
      00FD7E69H   PUBLIC    ECODE    FAR LAB   FABS??

      ---         MODULE    ---      ---       ?C?DPGETOPN?
      00FD7E78H   PUBLIC    ECODE    ---       ?C?DPGETOPN2?
      00FD7EC3H   PUBLIC    ECODE    ---       ?C?DPNANRESULT?
      00FD7ECFH   PUBLIC    ECODE    ---       ?C?DPOVERFLOW?
      00FD7EB4H   PUBLIC    ECODE    ---       ?C?DPRESULT2?
      00FD7E9BH   PUBLIC    ECODE    ---       ?C?DPRESULT?
      00FD7ECAH   PUBLIC    ECODE    ---       ?C?DPUNDERFLOW?

      ---         MODULE    ---      ---       ?C?PRNFMT?
      00FD7F0AH   PUBLIC    ECODE    ---       ?C?PRNFMT?

      ---         MODULE    ---      ---       ?C?DPCONVERT?
      00FD8346H   PUBLIC    ECODE    ---       ?C?DPCONVERT?
      00FD846FH   PUBLIC    ECODE    ---       ?C?DPROUND?

      ---         MODULE    ---      ---       ?C?DTNPWR?
      00FD854AH   PUBLIC    ECODE    ---       ?C?DTNPWR?

      ---         MODULE    ---      ---       ?C?FPGETOPN?
      00FD85D3H   PUBLIC    ECODE    ---       ?C?FPGETOPN2?
      00FD8610H   PUBLIC    ECODE    ---       ?C?FPNANRESULT?
      00FD8618H   PUBLIC    ECODE    ---       ?C?FPOVERFLOW?
      00FD8602H   PUBLIC    ECODE    ---       ?C?FPRESULT2?
      00FD85ECH   PUBLIC    ECODE    ---       ?C?FPRESULT?
      00FD8615H   PUBLIC    ECODE    ---       ?C?FPUNDERFLOW?

      ---         MODULE    ---      ---       ?C?FPADD?
      00FD862AH   PUBLIC    ECODE    ---       ?C?FPADD?
      00FD8627H   PUBLIC    ECODE    ---       ?C?FPSUB?

      ---         MODULE    ---      ---       ?C?FPMUL?
      00FD86E2H   PUBLIC    ECODE    ---       ?C?FPMUL?

      ---         MODULE    ---      ---       ?C?FPDIV?
      00FD8782H   PUBLIC    ECODE    ---       ?C?FPDIV?

      ---         MODULE    ---      ---       ?C?FPCMP?
      00FD8803H   PUBLIC    ECODE    ---       ?C?FPCMP3?
      00FD8805H   PUBLIC    ECODE    ---       ?C?FPCMP?

      ---         MODULE    ---      ---       ?C?FPNEG?
      00FD8849H   PUBLIC    ECODE    ---       ?C?FPNEG?

      ---         MODULE    ---      ---       ?C?FCAST?
      00FD8861H   PUBLIC    ECODE    FAR LAB   ?C?FCASTC?
      00FD885CH   PUBLIC    ECODE    FAR LAB   ?C?FCASTI?
      00FD8857H   PUBLIC    ECODE    FAR LAB   ?C?FCASTL?

      ---         MODULE    ---      ---       ?C?CASTF?
      00FD8894H   PUBLIC    ECODE    FAR LAB   ?C?CASTF?

      ---         MODULE    ---      ---       ?C?INITHDATA
      00FF0240H   PUBLIC    CODE     ---       ?C?INITHDATA

      ---         MODULE    ---      ---       ?C?SIDIV?
      00FD88D1H   PUBLIC    ECODE    ---       ?C?SIDIV?

      ---         MODULE    ---      ---       ?C?LMUL?
      00FD8903H   PUBLIC    ECODE    ---       ?C?LMUL?

L251 LINKER/LOCATER V4.66.93.0                                                        05/01/2026  15:28:45  PAGE 259


      ---         MODULE    ---      ---       ?C?LIMUL?
      00FD8914H   PUBLIC    ECODE    ---       ?C?LIMUL?

      ---         MODULE    ---      ---       ?C?ULDIV?
      00FD891FH   PUBLIC    ECODE    FAR LAB   ?C?ULDIV?
      00FD891DH   PUBLIC    ECODE    FAR LAB   ?C?ULIDIV?

      ---         MODULE    ---      ---       ?C?SLDIV?
      00FD8970H   PUBLIC    ECODE    FAR LAB   ?C?SLDIV?

      ---         MODULE    ---      ---       ?C?BMOVEPP?
      00FD89A6H   PUBLIC    ECODE    ---       ?C?BMOVEPP8?
      00FD89A8H   PUBLIC    ECODE    ---       ?C?BMOVEPP?

      ---         MODULE    ---      ---       STRNCMP?
      00FDFFADH   PUBLIC    ECODE    ---       strncmp??

      ---         MODULE    ---      ---       STRLEN?
      00FDFFE4H   PUBLIC    ECODE    ---       strlen??

      ---         MODULE    ---      ---       MEMCPY?
      00FE3239H   PUBLIC    ECODE    ---       memcpy??

      ---         MODULE    ---      ---       MEMSET?
      00FCFFE6H   PUBLIC    ECODE    ---       memset??

      ---         MODULE    ---      ---       ?C?INITHDATA_END
      00FE5EBAH   PUBLIC    HCONST   WORD      ?C?INITHDATA_END

Program Size: data=8.6 edata+hdata=30765 xdata=11025 const=14687 code=127533
L251 RUN COMPLETE.  0 WARNING(S),  0 ERROR(S)
